
hexapod.elf:     file format elf32-avr

Sections:
Idx Name          Size      VMA       LMA       File off  Algn
  0 .data         000001ea  00800100  00005116  000051aa  2**0
                  CONTENTS, ALLOC, LOAD, DATA
  1 .text         00005116  00000000  00000000  00000094  2**1
                  CONTENTS, ALLOC, LOAD, READONLY, CODE
  2 .bss          00000bda  008002ea  008002ea  00005394  2**0
                  ALLOC
  3 .comment      0000005c  00000000  00000000  00005394  2**0
                  CONTENTS, READONLY
  4 .note.gnu.avr.deviceinfo 00000040  00000000  00000000  000053f0  2**2
                  CONTENTS, READONLY
  5 .debug_aranges 00000750  00000000  00000000  00005430  2**3
                  CONTENTS, READONLY, DEBUGGING
  6 .debug_info   000088f5  00000000  00000000  00005b80  2**0
                  CONTENTS, READONLY, DEBUGGING
  7 .debug_abbrev 00002996  00000000  00000000  0000e475  2**0
                  CONTENTS, READONLY, DEBUGGING
  8 .debug_line   00008add  00000000  00000000  00010e0b  2**0
                  CONTENTS, READONLY, DEBUGGING
  9 .debug_frame  00001518  00000000  00000000  000198e8  2**2
                  CONTENTS, READONLY, DEBUGGING
 10 .debug_str    00012267  00000000  00000000  0001ae00  2**0
                  CONTENTS, READONLY, DEBUGGING
 11 .debug_loc    00006181  00000000  00000000  0002d067  2**0
                  CONTENTS, READONLY, DEBUGGING
 12 .debug_ranges 00000728  00000000  00000000  000331e8  2**0
                  CONTENTS, READONLY, DEBUGGING
 13 .debug_macro  000029ec  00000000  00000000  00033910  2**0
                  CONTENTS, READONLY, DEBUGGING

Disassembly of section .text:

00000000 <__vectors>:
       0:	ba c1       	rjmp	.+884    	; 0x376 <__ctors_end>
       2:	00 00       	nop
       4:	d7 c1       	rjmp	.+942    	; 0x3b4 <__bad_interrupt>
       6:	00 00       	nop
       8:	d5 c1       	rjmp	.+938    	; 0x3b4 <__bad_interrupt>
       a:	00 00       	nop
       c:	d3 c1       	rjmp	.+934    	; 0x3b4 <__bad_interrupt>
       e:	00 00       	nop
      10:	9f c2       	rjmp	.+1342   	; 0x550 <__vector_4>
      12:	00 00       	nop
      14:	cf c1       	rjmp	.+926    	; 0x3b4 <__bad_interrupt>
      16:	00 00       	nop
      18:	cd c1       	rjmp	.+922    	; 0x3b4 <__bad_interrupt>
      1a:	00 00       	nop
      1c:	cb c1       	rjmp	.+918    	; 0x3b4 <__bad_interrupt>
      1e:	00 00       	nop
      20:	c9 c1       	rjmp	.+914    	; 0x3b4 <__bad_interrupt>
      22:	00 00       	nop
      24:	0c 94 69 0e 	jmp	0x1cd2	; 0x1cd2 <__vector_9>
      28:	c5 c1       	rjmp	.+906    	; 0x3b4 <__bad_interrupt>
      2a:	00 00       	nop
      2c:	c3 c1       	rjmp	.+902    	; 0x3b4 <__bad_interrupt>
      2e:	00 00       	nop
      30:	c1 c1       	rjmp	.+898    	; 0x3b4 <__bad_interrupt>
      32:	00 00       	nop
      34:	bf c1       	rjmp	.+894    	; 0x3b4 <__bad_interrupt>
      36:	00 00       	nop
      38:	bd c1       	rjmp	.+890    	; 0x3b4 <__bad_interrupt>
      3a:	00 00       	nop
      3c:	bb c1       	rjmp	.+886    	; 0x3b4 <__bad_interrupt>
      3e:	00 00       	nop
      40:	b9 c1       	rjmp	.+882    	; 0x3b4 <__bad_interrupt>
      42:	00 00       	nop
      44:	b7 c1       	rjmp	.+878    	; 0x3b4 <__bad_interrupt>
      46:	00 00       	nop
      48:	0c 94 ff 0d 	jmp	0x1bfe	; 0x1bfe <__vector_18>
      4c:	0c 94 87 0d 	jmp	0x1b0e	; 0x1b0e <__vector_19>
      50:	0c 94 bf 10 	jmp	0x217e	; 0x217e <__vector_20>
      54:	0c 94 e5 10 	jmp	0x21ca	; 0x21ca <__vector_21>
      58:	0c 94 15 11 	jmp	0x222a	; 0x222a <__vector_22>
      5c:	ab c1       	rjmp	.+854    	; 0x3b4 <__bad_interrupt>
      5e:	00 00       	nop
      60:	a9 c1       	rjmp	.+850    	; 0x3b4 <__bad_interrupt>
      62:	00 00       	nop
      64:	a7 c1       	rjmp	.+846    	; 0x3b4 <__bad_interrupt>
      66:	00 00       	nop
      68:	a5 c1       	rjmp	.+842    	; 0x3b4 <__bad_interrupt>
      6a:	00 00       	nop
      6c:	a3 c1       	rjmp	.+838    	; 0x3b4 <__bad_interrupt>
      6e:	00 00       	nop
      70:	0c 94 1f 11 	jmp	0x223e	; 0x223e <__vector_28>
      74:	0c 94 45 11 	jmp	0x228a	; 0x228a <__vector_29>
      78:	0c 94 75 11 	jmp	0x22ea	; 0x22ea <__vector_30>
      7c:	9b c1       	rjmp	.+822    	; 0x3b4 <__bad_interrupt>
      7e:	00 00       	nop
      80:	99 c1       	rjmp	.+818    	; 0x3b4 <__bad_interrupt>
      82:	00 00       	nop
      84:	97 c1       	rjmp	.+814    	; 0x3b4 <__bad_interrupt>
      86:	00 00       	nop
      88:	95 c1       	rjmp	.+810    	; 0x3b4 <__bad_interrupt>
      8a:	00 00       	nop
      8c:	75 1d       	adc	r23, r5
      8e:	7f 1d       	adc	r23, r15
      90:	a2 1d       	adc	r26, r2
      92:	c7 1d       	adc	r28, r7
      94:	eb 1d       	adc	r30, r11
      96:	0f 1e       	adc	r0, r31
      98:	33 1e       	adc	r3, r19
      9a:	57 1e       	adc	r5, r23
      9c:	7b 1e       	adc	r7, r27
      9e:	9b 1d       	adc	r25, r11
      a0:	8f 1d       	adc	r24, r15
      a2:	91 1d       	adc	r25, r1
      a4:	93 1d       	adc	r25, r3
      a6:	95 1d       	adc	r25, r5
      a8:	97 1d       	adc	r25, r7
      aa:	99 1d       	adc	r25, r9
      ac:	99 1d       	adc	r25, r9
      ae:	99 1d       	adc	r25, r9
      b0:	99 1d       	adc	r25, r9
      b2:	99 1d       	adc	r25, r9
      b4:	99 1d       	adc	r25, r9
      b6:	99 1d       	adc	r25, r9
      b8:	99 1d       	adc	r25, r9
      ba:	99 1d       	adc	r25, r9
      bc:	99 1d       	adc	r25, r9
      be:	99 1d       	adc	r25, r9
      c0:	99 1d       	adc	r25, r9
      c2:	99 1d       	adc	r25, r9
      c4:	99 1d       	adc	r25, r9
      c6:	99 1d       	adc	r25, r9
      c8:	99 1d       	adc	r25, r9
      ca:	99 1d       	adc	r25, r9
      cc:	99 1d       	adc	r25, r9
      ce:	99 1d       	adc	r25, r9
      d0:	99 1d       	adc	r25, r9
      d2:	99 1d       	adc	r25, r9
      d4:	99 1d       	adc	r25, r9
      d6:	99 1d       	adc	r25, r9
      d8:	99 1d       	adc	r25, r9
      da:	99 1d       	adc	r25, r9
      dc:	99 1d       	adc	r25, r9
      de:	9b 1d       	adc	r25, r11
      e0:	8f 1d       	adc	r24, r15
      e2:	91 1d       	adc	r25, r1
      e4:	93 1d       	adc	r25, r3
      e6:	95 1d       	adc	r25, r5
      e8:	97 1d       	adc	r25, r7
      ea:	be 1d       	adc	r27, r14
      ec:	b2 1d       	adc	r27, r2
      ee:	b4 1d       	adc	r27, r4
      f0:	b6 1d       	adc	r27, r6
      f2:	b8 1d       	adc	r27, r8
      f4:	ba 1d       	adc	r27, r10
      f6:	bc 1d       	adc	r27, r12
      f8:	bc 1d       	adc	r27, r12
      fa:	bc 1d       	adc	r27, r12
      fc:	bc 1d       	adc	r27, r12
      fe:	bc 1d       	adc	r27, r12
     100:	bc 1d       	adc	r27, r12
     102:	bc 1d       	adc	r27, r12
     104:	bc 1d       	adc	r27, r12
     106:	bc 1d       	adc	r27, r12
     108:	bc 1d       	adc	r27, r12
     10a:	bc 1d       	adc	r27, r12
     10c:	bc 1d       	adc	r27, r12
     10e:	bc 1d       	adc	r27, r12
     110:	bc 1d       	adc	r27, r12
     112:	bc 1d       	adc	r27, r12
     114:	bc 1d       	adc	r27, r12
     116:	bc 1d       	adc	r27, r12
     118:	bc 1d       	adc	r27, r12
     11a:	bc 1d       	adc	r27, r12
     11c:	bc 1d       	adc	r27, r12
     11e:	bc 1d       	adc	r27, r12
     120:	bc 1d       	adc	r27, r12
     122:	bc 1d       	adc	r27, r12
     124:	bc 1d       	adc	r27, r12
     126:	bc 1d       	adc	r27, r12
     128:	bc 1d       	adc	r27, r12
     12a:	be 1d       	adc	r27, r14
     12c:	b2 1d       	adc	r27, r2
     12e:	b4 1d       	adc	r27, r4
     130:	b6 1d       	adc	r27, r6
     132:	b8 1d       	adc	r27, r8
     134:	ba 1d       	adc	r27, r10
     136:	e3 1d       	adc	r30, r3
     138:	d7 1d       	adc	r29, r7
     13a:	d9 1d       	adc	r29, r9
     13c:	db 1d       	adc	r29, r11
     13e:	dd 1d       	adc	r29, r13
     140:	df 1d       	adc	r29, r15
     142:	e1 1d       	adc	r30, r1
     144:	e1 1d       	adc	r30, r1
     146:	e1 1d       	adc	r30, r1
     148:	e1 1d       	adc	r30, r1
     14a:	e1 1d       	adc	r30, r1
     14c:	e1 1d       	adc	r30, r1
     14e:	e1 1d       	adc	r30, r1
     150:	e1 1d       	adc	r30, r1
     152:	e1 1d       	adc	r30, r1
     154:	e1 1d       	adc	r30, r1
     156:	e1 1d       	adc	r30, r1
     158:	e1 1d       	adc	r30, r1
     15a:	e1 1d       	adc	r30, r1
     15c:	e1 1d       	adc	r30, r1
     15e:	e1 1d       	adc	r30, r1
     160:	e1 1d       	adc	r30, r1
     162:	e1 1d       	adc	r30, r1
     164:	e1 1d       	adc	r30, r1
     166:	e1 1d       	adc	r30, r1
     168:	e1 1d       	adc	r30, r1
     16a:	e1 1d       	adc	r30, r1
     16c:	e1 1d       	adc	r30, r1
     16e:	e1 1d       	adc	r30, r1
     170:	e1 1d       	adc	r30, r1
     172:	e1 1d       	adc	r30, r1
     174:	e1 1d       	adc	r30, r1
     176:	e3 1d       	adc	r30, r3
     178:	d7 1d       	adc	r29, r7
     17a:	d9 1d       	adc	r29, r9
     17c:	db 1d       	adc	r29, r11
     17e:	dd 1d       	adc	r29, r13
     180:	df 1d       	adc	r29, r15
     182:	07 1e       	adc	r0, r23
     184:	fb 1d       	adc	r31, r11
     186:	fd 1d       	adc	r31, r13
     188:	ff 1d       	adc	r31, r15
     18a:	01 1e       	adc	r0, r17
     18c:	03 1e       	adc	r0, r19
     18e:	05 1e       	adc	r0, r21
     190:	05 1e       	adc	r0, r21
     192:	05 1e       	adc	r0, r21
     194:	05 1e       	adc	r0, r21
     196:	05 1e       	adc	r0, r21
     198:	05 1e       	adc	r0, r21
     19a:	05 1e       	adc	r0, r21
     19c:	05 1e       	adc	r0, r21
     19e:	05 1e       	adc	r0, r21
     1a0:	05 1e       	adc	r0, r21
     1a2:	05 1e       	adc	r0, r21
     1a4:	05 1e       	adc	r0, r21
     1a6:	05 1e       	adc	r0, r21
     1a8:	05 1e       	adc	r0, r21
     1aa:	05 1e       	adc	r0, r21
     1ac:	05 1e       	adc	r0, r21
     1ae:	05 1e       	adc	r0, r21
     1b0:	05 1e       	adc	r0, r21
     1b2:	05 1e       	adc	r0, r21
     1b4:	05 1e       	adc	r0, r21
     1b6:	05 1e       	adc	r0, r21
     1b8:	05 1e       	adc	r0, r21
     1ba:	05 1e       	adc	r0, r21
     1bc:	05 1e       	adc	r0, r21
     1be:	05 1e       	adc	r0, r21
     1c0:	05 1e       	adc	r0, r21
     1c2:	07 1e       	adc	r0, r23
     1c4:	fb 1d       	adc	r31, r11
     1c6:	fd 1d       	adc	r31, r13
     1c8:	ff 1d       	adc	r31, r15
     1ca:	01 1e       	adc	r0, r17
     1cc:	03 1e       	adc	r0, r19
     1ce:	2b 1e       	adc	r2, r27
     1d0:	1f 1e       	adc	r1, r31
     1d2:	21 1e       	adc	r2, r17
     1d4:	23 1e       	adc	r2, r19
     1d6:	25 1e       	adc	r2, r21
     1d8:	27 1e       	adc	r2, r23
     1da:	29 1e       	adc	r2, r25
     1dc:	29 1e       	adc	r2, r25
     1de:	29 1e       	adc	r2, r25
     1e0:	29 1e       	adc	r2, r25
     1e2:	29 1e       	adc	r2, r25
     1e4:	29 1e       	adc	r2, r25
     1e6:	29 1e       	adc	r2, r25
     1e8:	29 1e       	adc	r2, r25
     1ea:	29 1e       	adc	r2, r25
     1ec:	29 1e       	adc	r2, r25
     1ee:	29 1e       	adc	r2, r25
     1f0:	29 1e       	adc	r2, r25
     1f2:	29 1e       	adc	r2, r25
     1f4:	29 1e       	adc	r2, r25
     1f6:	29 1e       	adc	r2, r25
     1f8:	29 1e       	adc	r2, r25
     1fa:	29 1e       	adc	r2, r25
     1fc:	29 1e       	adc	r2, r25
     1fe:	29 1e       	adc	r2, r25
     200:	29 1e       	adc	r2, r25
     202:	29 1e       	adc	r2, r25
     204:	29 1e       	adc	r2, r25
     206:	29 1e       	adc	r2, r25
     208:	29 1e       	adc	r2, r25
     20a:	29 1e       	adc	r2, r25
     20c:	29 1e       	adc	r2, r25
     20e:	2b 1e       	adc	r2, r27
     210:	1f 1e       	adc	r1, r31
     212:	21 1e       	adc	r2, r17
     214:	23 1e       	adc	r2, r19
     216:	25 1e       	adc	r2, r21
     218:	27 1e       	adc	r2, r23
     21a:	4f 1e       	adc	r4, r31
     21c:	43 1e       	adc	r4, r19
     21e:	45 1e       	adc	r4, r21
     220:	47 1e       	adc	r4, r23
     222:	49 1e       	adc	r4, r25
     224:	4b 1e       	adc	r4, r27
     226:	4d 1e       	adc	r4, r29
     228:	4d 1e       	adc	r4, r29
     22a:	4d 1e       	adc	r4, r29
     22c:	4d 1e       	adc	r4, r29
     22e:	4d 1e       	adc	r4, r29
     230:	4d 1e       	adc	r4, r29
     232:	4d 1e       	adc	r4, r29
     234:	4d 1e       	adc	r4, r29
     236:	4d 1e       	adc	r4, r29
     238:	4d 1e       	adc	r4, r29
     23a:	4d 1e       	adc	r4, r29
     23c:	4d 1e       	adc	r4, r29
     23e:	4d 1e       	adc	r4, r29
     240:	4d 1e       	adc	r4, r29
     242:	4d 1e       	adc	r4, r29
     244:	4d 1e       	adc	r4, r29
     246:	4d 1e       	adc	r4, r29
     248:	4d 1e       	adc	r4, r29
     24a:	4d 1e       	adc	r4, r29
     24c:	4d 1e       	adc	r4, r29
     24e:	4d 1e       	adc	r4, r29
     250:	4d 1e       	adc	r4, r29
     252:	4d 1e       	adc	r4, r29
     254:	4d 1e       	adc	r4, r29
     256:	4d 1e       	adc	r4, r29
     258:	4d 1e       	adc	r4, r29
     25a:	4f 1e       	adc	r4, r31
     25c:	43 1e       	adc	r4, r19
     25e:	45 1e       	adc	r4, r21
     260:	47 1e       	adc	r4, r23
     262:	49 1e       	adc	r4, r25
     264:	4b 1e       	adc	r4, r27
     266:	73 1e       	adc	r7, r19
     268:	67 1e       	adc	r6, r23
     26a:	69 1e       	adc	r6, r25
     26c:	6b 1e       	adc	r6, r27
     26e:	6d 1e       	adc	r6, r29
     270:	6f 1e       	adc	r6, r31
     272:	71 1e       	adc	r7, r17
     274:	71 1e       	adc	r7, r17
     276:	71 1e       	adc	r7, r17
     278:	71 1e       	adc	r7, r17
     27a:	71 1e       	adc	r7, r17
     27c:	71 1e       	adc	r7, r17
     27e:	71 1e       	adc	r7, r17
     280:	71 1e       	adc	r7, r17
     282:	71 1e       	adc	r7, r17
     284:	71 1e       	adc	r7, r17
     286:	71 1e       	adc	r7, r17
     288:	71 1e       	adc	r7, r17
     28a:	71 1e       	adc	r7, r17
     28c:	71 1e       	adc	r7, r17
     28e:	71 1e       	adc	r7, r17
     290:	71 1e       	adc	r7, r17
     292:	71 1e       	adc	r7, r17
     294:	71 1e       	adc	r7, r17
     296:	71 1e       	adc	r7, r17
     298:	71 1e       	adc	r7, r17
     29a:	71 1e       	adc	r7, r17
     29c:	71 1e       	adc	r7, r17
     29e:	71 1e       	adc	r7, r17
     2a0:	71 1e       	adc	r7, r17
     2a2:	71 1e       	adc	r7, r17
     2a4:	71 1e       	adc	r7, r17
     2a6:	73 1e       	adc	r7, r19
     2a8:	67 1e       	adc	r6, r23
     2aa:	69 1e       	adc	r6, r25
     2ac:	6b 1e       	adc	r6, r27
     2ae:	6d 1e       	adc	r6, r29
     2b0:	6f 1e       	adc	r6, r31
     2b2:	c7 1e       	adc	r12, r23
     2b4:	bb 1e       	adc	r11, r27
     2b6:	bd 1e       	adc	r11, r29
     2b8:	bf 1e       	adc	r11, r31
     2ba:	c1 1e       	adc	r12, r17
     2bc:	c3 1e       	adc	r12, r19
     2be:	c5 1e       	adc	r12, r21
     2c0:	c5 1e       	adc	r12, r21
     2c2:	c5 1e       	adc	r12, r21
     2c4:	c5 1e       	adc	r12, r21
     2c6:	c5 1e       	adc	r12, r21
     2c8:	c5 1e       	adc	r12, r21
     2ca:	c5 1e       	adc	r12, r21
     2cc:	c5 1e       	adc	r12, r21
     2ce:	c5 1e       	adc	r12, r21
     2d0:	c5 1e       	adc	r12, r21
     2d2:	c5 1e       	adc	r12, r21
     2d4:	c5 1e       	adc	r12, r21
     2d6:	c5 1e       	adc	r12, r21
     2d8:	c5 1e       	adc	r12, r21
     2da:	c5 1e       	adc	r12, r21
     2dc:	c5 1e       	adc	r12, r21
     2de:	c5 1e       	adc	r12, r21
     2e0:	c5 1e       	adc	r12, r21
     2e2:	c5 1e       	adc	r12, r21
     2e4:	c5 1e       	adc	r12, r21
     2e6:	c5 1e       	adc	r12, r21
     2e8:	c5 1e       	adc	r12, r21
     2ea:	c5 1e       	adc	r12, r21
     2ec:	c5 1e       	adc	r12, r21
     2ee:	c5 1e       	adc	r12, r21
     2f0:	c5 1e       	adc	r12, r21
     2f2:	c7 1e       	adc	r12, r23
     2f4:	bb 1e       	adc	r11, r27
     2f6:	bd 1e       	adc	r11, r29
     2f8:	bf 1e       	adc	r11, r31
     2fa:	c1 1e       	adc	r12, r17
     2fc:	c3 1e       	adc	r12, r19
     2fe:	08 4a       	sbci	r16, 0xA8	; 168
     300:	d7 3b       	cpi	r29, 0xB7	; 183
     302:	3b ce       	rjmp	.-906    	; 0xffffff7a <__eeprom_end+0xff7eff7a>
     304:	01 6e       	ori	r16, 0xE1	; 225
     306:	84 bc       	out	0x24, r8	; 36
     308:	bf fd       	.word	0xfdbf	; ????
     30a:	c1 2f       	mov	r28, r17
     30c:	3d 6c       	ori	r19, 0xCD	; 205
     30e:	74 31       	cpi	r23, 0x14	; 20
     310:	9a bd       	out	0x2a, r25	; 42
     312:	56 83       	std	Z+6, r21	; 0x06
     314:	3d da       	rcall	.-2950   	; 0xfffff790 <__eeprom_end+0xff7ef790>
     316:	3d 00       	.word	0x003d	; ????
     318:	c7 7f       	andi	r28, 0xF7	; 247
     31a:	11 be       	out	0x31, r1	; 49
     31c:	d9 e4       	ldi	r29, 0x49	; 73
     31e:	bb 4c       	sbci	r27, 0xCB	; 203
     320:	3e 91       	ld	r19, -X
     322:	6b aa       	std	Y+51, r6	; 0x33
     324:	aa be       	out	0x3a, r10	; 58
     326:	00 00       	nop
     328:	00 80       	ld	r0, Z
     32a:	3f 07       	cpc	r19, r31
     32c:	2c 7a       	andi	r18, 0xAC	; 172
     32e:	a5 ba       	out	0x15, r10	; 21
     330:	6c c5       	rjmp	.+2776   	; 0xe0a <DrvLegApplyPosition+0x384>
     332:	90 da       	rcall	.-2784   	; 0xfffff854 <__eeprom_end+0xff7ef854>
     334:	3b 93       	.word	0x933b	; ????
     336:	65 fc       	sbrc	r6, 5
     338:	8b bc       	out	0x2b, r8	; 43
     33a:	53 f8       	bld	r5, 3
     33c:	10 fd       	sbrc	r17, 0
     33e:	3c 56       	subi	r19, 0x6C	; 108
     340:	92 83       	std	Z+2, r25	; 0x02
     342:	4d bd       	out	0x2d, r20	; 45
     344:	87 9d       	mul	r24, r7
     346:	3a b6       	in	r3, 0x3a	; 58
     348:	3d cb       	rjmp	.-2438   	; 0xfffff9c4 <__eeprom_end+0xff7ef9c4>
     34a:	c9 bf       	out	0x39, r28	; 57
     34c:	5b be       	out	0x3b, r5	; 59
     34e:	73 da       	rcall	.-2842   	; 0xfffff836 <__eeprom_end+0xff7ef836>
     350:	0f c9       	rjmp	.-3554   	; 0xfffff570 <__eeprom_end+0xff7ef570>
     352:	3f 06       	cpc	r3, r31
     354:	64 ec       	ldi	r22, 0xC4	; 196
     356:	1b 3c       	cpi	r17, 0xCB	; 203
     358:	04 bc       	out	0x24, r0	; 36
     35a:	16 3e       	cpi	r17, 0xE6	; 230
     35c:	3b e5       	ldi	r19, 0x5B	; 91
     35e:	b9 3c       	cpi	r27, 0xC9	; 201
     360:	c9 3c       	cpi	r28, 0xC9	; 201
     362:	37 c2       	rjmp	.+1134   	; 0x7d2 <DrvLegComputeInverseKinematics+0x1e>
     364:	9e 5a       	subi	r25, 0xAE	; 174
     366:	3d 66       	ori	r19, 0x6D	; 109
     368:	04 98       	cbi	0x00, 4	; 0
     36a:	08 3e       	cpi	r16, 0xE8	; 232
     36c:	ea 69       	ori	r30, 0x9A	; 154
     36e:	aa aa       	std	Y+50, r10	; 0x32
     370:	3e 00       	.word	0x003e	; ????
     372:	00 00       	nop
     374:	80 3f       	cpi	r24, 0xF0	; 240

00000376 <__ctors_end>:
     376:	11 24       	eor	r1, r1
     378:	1f be       	out	0x3f, r1	; 63
     37a:	cf ef       	ldi	r28, 0xFF	; 255
     37c:	d0 e4       	ldi	r29, 0x40	; 64
     37e:	de bf       	out	0x3e, r29	; 62
     380:	cd bf       	out	0x3d, r28	; 61

00000382 <__do_copy_data>:
     382:	12 e0       	ldi	r17, 0x02	; 2
     384:	a0 e0       	ldi	r26, 0x00	; 0
     386:	b1 e0       	ldi	r27, 0x01	; 1
     388:	e6 e1       	ldi	r30, 0x16	; 22
     38a:	f1 e5       	ldi	r31, 0x51	; 81
     38c:	00 e0       	ldi	r16, 0x00	; 0
     38e:	0b bf       	out	0x3b, r16	; 59
     390:	02 c0       	rjmp	.+4      	; 0x396 <__do_copy_data+0x14>
     392:	07 90       	elpm	r0, Z+
     394:	0d 92       	st	X+, r0
     396:	aa 3e       	cpi	r26, 0xEA	; 234
     398:	b1 07       	cpc	r27, r17
     39a:	d9 f7       	brne	.-10     	; 0x392 <__do_copy_data+0x10>

0000039c <__do_clear_bss>:
     39c:	2e e0       	ldi	r18, 0x0E	; 14
     39e:	aa ee       	ldi	r26, 0xEA	; 234
     3a0:	b2 e0       	ldi	r27, 0x02	; 2
     3a2:	01 c0       	rjmp	.+2      	; 0x3a6 <.do_clear_bss_start>

000003a4 <.do_clear_bss_loop>:
     3a4:	1d 92       	st	X+, r1

000003a6 <.do_clear_bss_start>:
     3a6:	a4 3c       	cpi	r26, 0xC4	; 196
     3a8:	b2 07       	cpc	r27, r18
     3aa:	e1 f7       	brne	.-8      	; 0x3a4 <.do_clear_bss_loop>
     3ac:	0e 94 7f 11 	call	0x22fe	; 0x22fe <main>
     3b0:	0c 94 89 28 	jmp	0x5112	; 0x5112 <_exit>

000003b4 <__bad_interrupt>:
     3b4:	25 ce       	rjmp	.-950    	; 0x0 <__vectors>

000003b6 <CmpPCA9685Reset>:
}

//reset component
Boolean CmpPCA9685Reset( Int8U addr )
{
	return DrvTwiWriteReg( addr, PCA9685_MODE1, PCA9685_MODE1_RESTART );
     3b6:	40 e8       	ldi	r20, 0x80	; 128
     3b8:	60 e0       	ldi	r22, 0x00	; 0
     3ba:	0c 94 6c 0f 	jmp	0x1ed8	; 0x1ed8 <DrvTwiWriteReg>
}
     3be:	08 95       	ret

000003c0 <CmpPCA9685GetPwmTab>:

// get the pwm structure pointer at index
SPCA9685Pwm* CmpPCA9685GetPwmTab( Int8U addr, Int8U index )
{
	//check index
	if( index < PCA9685_NB_LEDS )
     3c0:	60 31       	cpi	r22, 0x10	; 16
     3c2:	b0 f4       	brcc	.+44     	; 0x3f0 <CmpPCA9685GetPwmTab+0x30>
	{
		//return right pwm structure
		return &pwmOutpus[addr == PCA9685_ADDRESS_0? 0 : 1][ index ];
     3c4:	21 e0       	ldi	r18, 0x01	; 1
     3c6:	30 e0       	ldi	r19, 0x00	; 0
     3c8:	80 34       	cpi	r24, 0x40	; 64
     3ca:	11 f4       	brne	.+4      	; 0x3d0 <CmpPCA9685GetPwmTab+0x10>
     3cc:	20 e0       	ldi	r18, 0x00	; 0
     3ce:	30 e0       	ldi	r19, 0x00	; 0
     3d0:	c9 01       	movw	r24, r18
     3d2:	82 95       	swap	r24
     3d4:	92 95       	swap	r25
     3d6:	90 7f       	andi	r25, 0xF0	; 240
     3d8:	98 27       	eor	r25, r24
     3da:	80 7f       	andi	r24, 0xF0	; 240
     3dc:	98 27       	eor	r25, r24
     3de:	86 0f       	add	r24, r22
     3e0:	91 1d       	adc	r25, r1
     3e2:	88 0f       	add	r24, r24
     3e4:	99 1f       	adc	r25, r25
     3e6:	88 0f       	add	r24, r24
     3e8:	99 1f       	adc	r25, r25
     3ea:	8f 53       	subi	r24, 0x3F	; 63
     3ec:	92 4f       	sbci	r25, 0xF2	; 242
     3ee:	08 95       	ret
	}
	//return null if wrong
	return NULL;
     3f0:	80 e0       	ldi	r24, 0x00	; 0
     3f2:	90 e0       	ldi	r25, 0x00	; 0
}
     3f4:	08 95       	ret

000003f6 <CmpPCA9685SendBuffer>:

//send the current tab to component
Boolean CmpPCA9685SendBuffer( Int8U addr, Int8U nbPwm )
{
	return DrvTwiWriteRegBuf(addr, LED0_ON_L, (Int8U*)pwmOutpus[addr == PCA9685_ADDRESS_0? 0 : 1], nbPwm * 4);
     3f6:	26 2f       	mov	r18, r22
     3f8:	22 0f       	add	r18, r18
     3fa:	22 0f       	add	r18, r18
     3fc:	41 e0       	ldi	r20, 0x01	; 1
     3fe:	50 e0       	ldi	r21, 0x00	; 0
     400:	80 34       	cpi	r24, 0x40	; 64
     402:	11 f4       	brne	.+4      	; 0x408 <__LOCK_REGION_LENGTH__+0x8>
     404:	40 e0       	ldi	r20, 0x00	; 0
     406:	50 e0       	ldi	r21, 0x00	; 0
     408:	00 24       	eor	r0, r0
     40a:	56 95       	lsr	r21
     40c:	47 95       	ror	r20
     40e:	07 94       	ror	r0
     410:	56 95       	lsr	r21
     412:	47 95       	ror	r20
     414:	07 94       	ror	r0
     416:	54 2f       	mov	r21, r20
     418:	40 2d       	mov	r20, r0
     41a:	4f 53       	subi	r20, 0x3F	; 63
     41c:	52 4f       	sbci	r21, 0xF2	; 242
     41e:	66 e0       	ldi	r22, 0x06	; 6
     420:	0c 94 bc 0f 	jmp	0x1f78	; 0x1f78 <DrvTwiWriteRegBuf>
}
     424:	08 95       	ret

00000426 <CmpPCA9685Init>:
SPCA9685Pwm pwmOutpus[NB_PCA9685][PCA9685_NB_LEDS];

 /////////////////////////////////////////PUBLIC FUNCTIONS/////////////////////////////////////////
 //component initialization
Boolean CmpPCA9685Init( Int8U addr, float freq )
{
     426:	cf 92       	push	r12
     428:	df 92       	push	r13
     42a:	ef 92       	push	r14
     42c:	ff 92       	push	r15
     42e:	1f 93       	push	r17
     430:	cf 93       	push	r28
     432:	df 93       	push	r29
     434:	1f 92       	push	r1
     436:	cd b7       	in	r28, 0x3d	; 61
     438:	de b7       	in	r29, 0x3e	; 62
     43a:	18 2f       	mov	r17, r24
     43c:	6a 01       	movw	r12, r20
     43e:	7b 01       	movw	r14, r22
     440:	20 e0       	ldi	r18, 0x00	; 0
     442:	30 e0       	ldi	r19, 0x00	; 0
	Boolean oSuccess = FALSE;
	//initialize tab of output with output low
	for (Int8U index = 0U; index < PCA9685_NB_LEDS ; index++)
	{
		pwmOutpus[addr == PCA9685_ADDRESS_0? 0 : 1][index].on = 0U;
     444:	71 e0       	ldi	r23, 0x01	; 1
     446:	60 e0       	ldi	r22, 0x00	; 0
     448:	b0 e0       	ldi	r27, 0x00	; 0
     44a:	a0 e0       	ldi	r26, 0x00	; 0
		pwmOutpus[addr == PCA9685_ADDRESS_0? 0 : 1][index].off = 4096;
     44c:	40 e0       	ldi	r20, 0x00	; 0
     44e:	50 e1       	ldi	r21, 0x10	; 16
{
	Boolean oSuccess = FALSE;
	//initialize tab of output with output low
	for (Int8U index = 0U; index < PCA9685_NB_LEDS ; index++)
	{
		pwmOutpus[addr == PCA9685_ADDRESS_0? 0 : 1][index].on = 0U;
     450:	87 2f       	mov	r24, r23
     452:	96 2f       	mov	r25, r22
     454:	10 34       	cpi	r17, 0x40	; 64
     456:	11 f4       	brne	.+4      	; 0x45c <CmpPCA9685Init+0x36>
     458:	8b 2f       	mov	r24, r27
     45a:	9a 2f       	mov	r25, r26
     45c:	fc 01       	movw	r30, r24
     45e:	e2 95       	swap	r30
     460:	f2 95       	swap	r31
     462:	f0 7f       	andi	r31, 0xF0	; 240
     464:	fe 27       	eor	r31, r30
     466:	e0 7f       	andi	r30, 0xF0	; 240
     468:	fe 27       	eor	r31, r30
     46a:	e2 0f       	add	r30, r18
     46c:	f3 1f       	adc	r31, r19
     46e:	ee 0f       	add	r30, r30
     470:	ff 1f       	adc	r31, r31
     472:	ee 0f       	add	r30, r30
     474:	ff 1f       	adc	r31, r31
     476:	ef 53       	subi	r30, 0x3F	; 63
     478:	f2 4f       	sbci	r31, 0xF2	; 242
     47a:	11 82       	std	Z+1, r1	; 0x01
     47c:	10 82       	st	Z, r1
		pwmOutpus[addr == PCA9685_ADDRESS_0? 0 : 1][index].off = 4096;
     47e:	53 83       	std	Z+3, r21	; 0x03
     480:	42 83       	std	Z+2, r20	; 0x02
     482:	2f 5f       	subi	r18, 0xFF	; 255
     484:	3f 4f       	sbci	r19, 0xFF	; 255
 //component initialization
Boolean CmpPCA9685Init( Int8U addr, float freq )
{
	Boolean oSuccess = FALSE;
	//initialize tab of output with output low
	for (Int8U index = 0U; index < PCA9685_NB_LEDS ; index++)
     486:	20 31       	cpi	r18, 0x10	; 16
     488:	31 05       	cpc	r19, r1
     48a:	11 f7       	brne	.-60     	; 0x450 <CmpPCA9685Init+0x2a>
	{
		pwmOutpus[addr == PCA9685_ADDRESS_0? 0 : 1][index].on = 0U;
		pwmOutpus[addr == PCA9685_ADDRESS_0? 0 : 1][index].off = 4096;
	}
	//reset component
	oSuccess = CmpPCA9685Reset(addr);
     48c:	81 2f       	mov	r24, r17
     48e:	93 df       	rcall	.-218    	; 0x3b6 <CmpPCA9685Reset>
static Boolean CmpPCA9685SetPWMFreq(Int8U addr, float freq)
{
	freq *= 0.9;  // Correct for overshoot in the frequency setting (see issue #11).
	float prescaleval = 25000000.0;
	prescaleval /= 4096.0;
	prescaleval /= freq;
     490:	26 e6       	ldi	r18, 0x66	; 102
     492:	36 e6       	ldi	r19, 0x66	; 102
     494:	46 e6       	ldi	r20, 0x66	; 102
     496:	5f e3       	ldi	r21, 0x3F	; 63
     498:	c7 01       	movw	r24, r14
     49a:	b6 01       	movw	r22, r12
     49c:	0e 94 37 24 	call	0x486e	; 0x486e <__mulsf3>
     4a0:	9b 01       	movw	r18, r22
     4a2:	ac 01       	movw	r20, r24
     4a4:	60 e2       	ldi	r22, 0x20	; 32
     4a6:	7c eb       	ldi	r23, 0xBC	; 188
     4a8:	8e eb       	ldi	r24, 0xBE	; 190
     4aa:	95 e4       	ldi	r25, 0x45	; 69
     4ac:	0e 94 26 22 	call	0x444c	; 0x444c <__divsf3>
	prescaleval -= 1.0;

	Int8U prescale = floor(prescaleval + 0.5);
     4b0:	20 e0       	ldi	r18, 0x00	; 0
     4b2:	30 e0       	ldi	r19, 0x00	; 0
     4b4:	40 e8       	ldi	r20, 0x80	; 128
     4b6:	5f e3       	ldi	r21, 0x3F	; 63
     4b8:	0e 94 95 21 	call	0x432a	; 0x432a <__subsf3>
     4bc:	20 e0       	ldi	r18, 0x00	; 0
     4be:	30 e0       	ldi	r19, 0x00	; 0
     4c0:	40 e0       	ldi	r20, 0x00	; 0
     4c2:	5f e3       	ldi	r21, 0x3F	; 63
     4c4:	0e 94 96 21 	call	0x432c	; 0x432c <__addsf3>
     4c8:	0e 94 fc 22 	call	0x45f8	; 0x45f8 <floor>
     4cc:	6b 01       	movw	r12, r22
     4ce:	7c 01       	movw	r14, r24
	
	Int8U oldmode = 0U;
     4d0:	19 82       	std	Y+1, r1	; 0x01

	DrvTwiReadReg(addr,PCA9685_MODE1, &oldmode );
     4d2:	ae 01       	movw	r20, r28
     4d4:	4f 5f       	subi	r20, 0xFF	; 255
     4d6:	5f 4f       	sbci	r21, 0xFF	; 255
     4d8:	60 e0       	ldi	r22, 0x00	; 0
     4da:	81 2f       	mov	r24, r17
     4dc:	0e 94 fd 0e 	call	0x1dfa	; 0x1dfa <DrvTwiReadReg>
	Int8U newmode = (oldmode & 0x7FU) | 0x10U; // sleep
	DrvTwiWriteReg(addr,PCA9685_MODE1, newmode); // go to sleep
     4e0:	49 81       	ldd	r20, Y+1	; 0x01
     4e2:	4f 76       	andi	r20, 0x6F	; 111
     4e4:	40 61       	ori	r20, 0x10	; 16
     4e6:	60 e0       	ldi	r22, 0x00	; 0
     4e8:	81 2f       	mov	r24, r17
     4ea:	0e 94 6c 0f 	call	0x1ed8	; 0x1ed8 <DrvTwiWriteReg>
	DrvTwiWriteReg(addr,PCA9685_PRESCALE, prescale); // set the prescaler
     4ee:	c7 01       	movw	r24, r14
     4f0:	b6 01       	movw	r22, r12
     4f2:	0e 94 93 22 	call	0x4526	; 0x4526 <__fixunssfsi>
     4f6:	46 2f       	mov	r20, r22
     4f8:	6e ef       	ldi	r22, 0xFE	; 254
     4fa:	81 2f       	mov	r24, r17
     4fc:	0e 94 6c 0f 	call	0x1ed8	; 0x1ed8 <DrvTwiWriteReg>
	DrvTwiWriteReg(addr,PCA9685_MODE1, oldmode);
     500:	49 81       	ldd	r20, Y+1	; 0x01
     502:	60 e0       	ldi	r22, 0x00	; 0
     504:	81 2f       	mov	r24, r17
     506:	0e 94 6c 0f 	call	0x1ed8	; 0x1ed8 <DrvTwiWriteReg>
	DrvTickDelayMs(1U);
     50a:	81 e0       	ldi	r24, 0x01	; 1
     50c:	90 e0       	ldi	r25, 0x00	; 0
     50e:	0e 94 f8 0d 	call	0x1bf0	; 0x1bf0 <DrvTickDelayMs>
	DrvTwiWriteReg(addr,PCA9685_MODE1, oldmode | PCA9685_MODE1_RESTART | PCA9685_MODE1_AI); //  This sets the MODE1 register to turn on auto increment.
     512:	49 81       	ldd	r20, Y+1	; 0x01
     514:	40 6a       	ori	r20, 0xA0	; 160
     516:	60 e0       	ldi	r22, 0x00	; 0
     518:	81 2f       	mov	r24, r17
     51a:	0e 94 6c 0f 	call	0x1ed8	; 0x1ed8 <DrvTwiWriteReg>
	
	DrvTwiReadReg(addr,PCA9685_MODE2, &oldmode );
     51e:	ae 01       	movw	r20, r28
     520:	4f 5f       	subi	r20, 0xFF	; 255
     522:	5f 4f       	sbci	r21, 0xFF	; 255
     524:	61 e0       	ldi	r22, 0x01	; 1
     526:	81 2f       	mov	r24, r17
     528:	0e 94 fd 0e 	call	0x1dfa	; 0x1dfa <DrvTwiReadReg>
	DrvTwiWriteReg(addr,PCA9685_MODE2, oldmode | PCA9685_MODE2_OCH); 
     52c:	49 81       	ldd	r20, Y+1	; 0x01
     52e:	44 60       	ori	r20, 0x04	; 4
     530:	61 e0       	ldi	r22, 0x01	; 1
     532:	81 2f       	mov	r24, r17
     534:	0e 94 6c 0f 	call	0x1ed8	; 0x1ed8 <DrvTwiWriteReg>
	//reset component
	oSuccess = CmpPCA9685Reset(addr);
	//set driving frequency for pwm
	oSuccess = CmpPCA9685SetPWMFreq(addr,freq);
	//off to all pwm
	oSuccess = CmpPCA9685SendBuffer(addr,PCA9685_NB_LEDS);
     538:	60 e1       	ldi	r22, 0x10	; 16
     53a:	81 2f       	mov	r24, r17
     53c:	5c df       	rcall	.-328    	; 0x3f6 <CmpPCA9685SendBuffer>
	return oSuccess;
}
     53e:	0f 90       	pop	r0
     540:	df 91       	pop	r29
     542:	cf 91       	pop	r28
     544:	1f 91       	pop	r17
     546:	ff 90       	pop	r15
     548:	ef 90       	pop	r14
     54a:	df 90       	pop	r13
     54c:	cf 90       	pop	r12
     54e:	08 95       	ret

00000550 <__vector_4>:
	return distance[us];
}
/////////////////////////////////////ISR PRIVATE FUNCTIONS////////////////////////////////////////
//ISR pin Sonar
ISR(PCINT0_vect)
{
     550:	1f 92       	push	r1
     552:	0f 92       	push	r0
     554:	0f b6       	in	r0, 0x3f	; 63
     556:	0f 92       	push	r0
     558:	11 24       	eor	r1, r1
     55a:	0b b6       	in	r0, 0x3b	; 59
     55c:	0f 92       	push	r0
     55e:	3f 92       	push	r3
     560:	4f 92       	push	r4
     562:	5f 92       	push	r5
     564:	6f 92       	push	r6
     566:	7f 92       	push	r7
     568:	8f 92       	push	r8
     56a:	9f 92       	push	r9
     56c:	af 92       	push	r10
     56e:	bf 92       	push	r11
     570:	cf 92       	push	r12
     572:	df 92       	push	r13
     574:	ef 92       	push	r14
     576:	ff 92       	push	r15
     578:	0f 93       	push	r16
     57a:	1f 93       	push	r17
     57c:	2f 93       	push	r18
     57e:	3f 93       	push	r19
     580:	4f 93       	push	r20
     582:	5f 93       	push	r21
     584:	6f 93       	push	r22
     586:	7f 93       	push	r23
     588:	8f 93       	push	r24
     58a:	9f 93       	push	r25
     58c:	af 93       	push	r26
     58e:	bf 93       	push	r27
     590:	cf 93       	push	r28
     592:	df 93       	push	r29
     594:	ef 93       	push	r30
     596:	ff 93       	push	r31
     598:	0f 2e       	mov	r0, r31
     59a:	f0 e0       	ldi	r31, 0x00	; 0
     59c:	8f 2e       	mov	r8, r31
     59e:	f1 e0       	ldi	r31, 0x01	; 1
     5a0:	9f 2e       	mov	r9, r31
     5a2:	f0 2d       	mov	r31, r0
     5a4:	0f 2e       	mov	r0, r31
     5a6:	f1 e4       	ldi	r31, 0x41	; 65
     5a8:	ef 2e       	mov	r14, r31
     5aa:	fe e0       	ldi	r31, 0x0E	; 14
     5ac:	ff 2e       	mov	r15, r31
     5ae:	f0 2d       	mov	r31, r0
     5b0:	0f 2e       	mov	r0, r31
     5b2:	fa ee       	ldi	r31, 0xEA	; 234
     5b4:	cf 2e       	mov	r12, r31
     5b6:	f2 e0       	ldi	r31, 0x02	; 2
     5b8:	df 2e       	mov	r13, r31
     5ba:	f0 2d       	mov	r31, r0
     5bc:	00 e0       	ldi	r16, 0x00	; 0
     5be:	10 e0       	ldi	r17, 0x00	; 0
		{
			Int32U timeAfterEcho = time - timeBeforeEchoStart[loop_us];
			//must be inf to 30 ms
			if( timeAfterEcho < SRF04_ECHO_TIMEOUT)
			{
				distance[loop_us] = timeAfterEcho / 58UL;
     5c0:	0f 2e       	mov	r0, r31
     5c2:	fa e3       	ldi	r31, 0x3A	; 58
     5c4:	4f 2e       	mov	r4, r31
     5c6:	51 2c       	mov	r5, r1
     5c8:	61 2c       	mov	r6, r1
     5ca:	71 2c       	mov	r7, r1
     5cc:	f0 2d       	mov	r31, r0
		if(levelPin[loop_us] == IO_LEVEL_HIGH)
		{
			if(statusEcho[loop_us] == WAIT_RISING_EDGE)
			{
				timeBeforeEchoStart[loop_us] = time;
				statusEcho[loop_us] = WAIT_FALLING_EDGE;
     5ce:	68 94       	set
     5d0:	33 24       	eor	r3, r3
     5d2:	31 f8       	bld	r3, 1
//ISR pin Sonar
ISR(PCINT0_vect)
{
	for(uint8_t loop_us = 0U ; loop_us < E_NB_ULTRASONS ; loop_us++)
	{
		levelPin[loop_us] = DrvIoGetPinState(srf04PinEcho[loop_us]);
     5d4:	e8 01       	movw	r28, r16
     5d6:	f4 01       	movw	r30, r8
     5d8:	81 91       	ld	r24, Z+
     5da:	4f 01       	movw	r8, r30
     5dc:	d8 d0       	rcall	.+432    	; 0x78e <DrvIoGetPinState>
     5de:	57 01       	movw	r10, r14
     5e0:	f7 01       	movw	r30, r14
     5e2:	81 93       	st	Z+, r24
     5e4:	7f 01       	movw	r14, r30
		Int32U time = DrvTickGetTimeUs();
     5e6:	0e 94 b6 0d 	call	0x1b6c	; 0x1b6c <DrvTickGetTimeUs>
		if(levelPin[loop_us] == IO_LEVEL_HIGH)
     5ea:	f5 01       	movw	r30, r10
     5ec:	20 81       	ld	r18, Z
     5ee:	21 30       	cpi	r18, 0x01	; 1
     5f0:	b1 f4       	brne	.+44     	; 0x61e <__vector_4+0xce>
		{
			if(statusEcho[loop_us] == WAIT_RISING_EDGE)
     5f2:	f8 01       	movw	r30, r16
     5f4:	e6 50       	subi	r30, 0x06	; 6
     5f6:	fd 4f       	sbci	r31, 0xFD	; 253
     5f8:	20 81       	ld	r18, Z
     5fa:	21 30       	cpi	r18, 0x01	; 1
     5fc:	09 f0       	breq	.+2      	; 0x600 <__vector_4+0xb0>
     5fe:	40 c0       	rjmp	.+128    	; 0x680 <__vector_4+0x130>
			{
				timeBeforeEchoStart[loop_us] = time;
     600:	f8 01       	movw	r30, r16
     602:	ee 0f       	add	r30, r30
     604:	ff 1f       	adc	r31, r31
     606:	ee 0f       	add	r30, r30
     608:	ff 1f       	adc	r31, r31
     60a:	ee 50       	subi	r30, 0x0E	; 14
     60c:	fd 4f       	sbci	r31, 0xFD	; 253
     60e:	60 83       	st	Z, r22
     610:	71 83       	std	Z+1, r23	; 0x01
     612:	82 83       	std	Z+2, r24	; 0x02
     614:	93 83       	std	Z+3, r25	; 0x03
				statusEcho[loop_us] = WAIT_FALLING_EDGE;
     616:	c6 50       	subi	r28, 0x06	; 6
     618:	dd 4f       	sbci	r29, 0xFD	; 253
     61a:	38 82       	st	Y, r3
     61c:	31 c0       	rjmp	.+98     	; 0x680 <__vector_4+0x130>
			}
		}
		else
		{
			Int32U timeAfterEcho = time - timeBeforeEchoStart[loop_us];
     61e:	f8 01       	movw	r30, r16
     620:	ee 0f       	add	r30, r30
     622:	ff 1f       	adc	r31, r31
     624:	ee 0f       	add	r30, r30
     626:	ff 1f       	adc	r31, r31
     628:	ee 50       	subi	r30, 0x0E	; 14
     62a:	fd 4f       	sbci	r31, 0xFD	; 253
     62c:	20 81       	ld	r18, Z
     62e:	31 81       	ldd	r19, Z+1	; 0x01
     630:	42 81       	ldd	r20, Z+2	; 0x02
     632:	53 81       	ldd	r21, Z+3	; 0x03
     634:	62 1b       	sub	r22, r18
     636:	73 0b       	sbc	r23, r19
     638:	84 0b       	sbc	r24, r20
     63a:	95 0b       	sbc	r25, r21
			//must be inf to 30 ms
			if( timeAfterEcho < SRF04_ECHO_TIMEOUT)
     63c:	60 35       	cpi	r22, 0x50	; 80
     63e:	f3 ec       	ldi	r31, 0xC3	; 195
     640:	7f 07       	cpc	r23, r31
     642:	81 05       	cpc	r24, r1
     644:	91 05       	cpc	r25, r1
     646:	38 f4       	brcc	.+14     	; 0x656 <__vector_4+0x106>
			{
				distance[loop_us] = timeAfterEcho / 58UL;
     648:	a3 01       	movw	r20, r6
     64a:	92 01       	movw	r18, r4
     64c:	0e 94 5e 25 	call	0x4abc	; 0x4abc <__udivmodsi4>
     650:	f6 01       	movw	r30, r12
     652:	31 83       	std	Z+1, r19	; 0x01
     654:	20 83       	st	Z, r18
			}
			statusEcho[loop_us] = SEND_PULSE;
     656:	fe 01       	movw	r30, r28
     658:	e6 50       	subi	r30, 0x06	; 6
     65a:	fd 4f       	sbci	r31, 0xFD	; 253
     65c:	10 82       	st	Z, r1
			timeoutEcho[loop_us] = 0U;
     65e:	fe 01       	movw	r30, r28
     660:	ee 0f       	add	r30, r30
     662:	ff 1f       	adc	r31, r31
     664:	e2 51       	subi	r30, 0x12	; 18
     666:	fd 4f       	sbci	r31, 0xFD	; 253
     668:	11 82       	std	Z+1, r1	; 0x01
     66a:	10 82       	st	Z, r1
			timeBeforeEchoStart[loop_us] = 0U;
     66c:	cc 0f       	add	r28, r28
     66e:	dd 1f       	adc	r29, r29
     670:	cc 0f       	add	r28, r28
     672:	dd 1f       	adc	r29, r29
     674:	ce 50       	subi	r28, 0x0E	; 14
     676:	dd 4f       	sbci	r29, 0xFD	; 253
     678:	18 82       	st	Y, r1
     67a:	19 82       	std	Y+1, r1	; 0x01
     67c:	1a 82       	std	Y+2, r1	; 0x02
     67e:	1b 82       	std	Y+3, r1	; 0x03
     680:	0f 5f       	subi	r16, 0xFF	; 255
     682:	1f 4f       	sbci	r17, 0xFF	; 255
     684:	f2 e0       	ldi	r31, 0x02	; 2
     686:	cf 0e       	add	r12, r31
     688:	d1 1c       	adc	r13, r1
}
/////////////////////////////////////ISR PRIVATE FUNCTIONS////////////////////////////////////////
//ISR pin Sonar
ISR(PCINT0_vect)
{
	for(uint8_t loop_us = 0U ; loop_us < E_NB_ULTRASONS ; loop_us++)
     68a:	02 30       	cpi	r16, 0x02	; 2
     68c:	11 05       	cpc	r17, r1
     68e:	09 f0       	breq	.+2      	; 0x692 <__vector_4+0x142>
     690:	a1 cf       	rjmp	.-190    	; 0x5d4 <__vector_4+0x84>
			statusEcho[loop_us] = SEND_PULSE;
			timeoutEcho[loop_us] = 0U;
			timeBeforeEchoStart[loop_us] = 0U;
		}
	}
     692:	ff 91       	pop	r31
     694:	ef 91       	pop	r30
     696:	df 91       	pop	r29
     698:	cf 91       	pop	r28
     69a:	bf 91       	pop	r27
     69c:	af 91       	pop	r26
     69e:	9f 91       	pop	r25
     6a0:	8f 91       	pop	r24
     6a2:	7f 91       	pop	r23
     6a4:	6f 91       	pop	r22
     6a6:	5f 91       	pop	r21
     6a8:	4f 91       	pop	r20
     6aa:	3f 91       	pop	r19
     6ac:	2f 91       	pop	r18
     6ae:	1f 91       	pop	r17
     6b0:	0f 91       	pop	r16
     6b2:	ff 90       	pop	r15
     6b4:	ef 90       	pop	r14
     6b6:	df 90       	pop	r13
     6b8:	cf 90       	pop	r12
     6ba:	bf 90       	pop	r11
     6bc:	af 90       	pop	r10
     6be:	9f 90       	pop	r9
     6c0:	8f 90       	pop	r8
     6c2:	7f 90       	pop	r7
     6c4:	6f 90       	pop	r6
     6c6:	5f 90       	pop	r5
     6c8:	4f 90       	pop	r4
     6ca:	3f 90       	pop	r3
     6cc:	0f 90       	pop	r0
     6ce:	0b be       	out	0x3b, r0	; 59
     6d0:	0f 90       	pop	r0
     6d2:	0f be       	out	0x3f, r0	; 63
     6d4:	0f 90       	pop	r0
     6d6:	1f 90       	pop	r1
     6d8:	18 95       	reti

000006da <DrvEepromIsConfigured>:

////////////////////////////////////////PRIVATE FUNCTIONS/////////////////////////////////////////
//Fonction de lecture eeprom
Int8U DrvEepromReadByte ( const Int8U * addr )
{
	return eeprom_read_byte(addr);
     6da:	80 e0       	ldi	r24, 0x00	; 0
     6dc:	90 e0       	ldi	r25, 0x00	; 0
     6de:	0e 94 73 28 	call	0x50e6	; 0x50e6 <eeprom_read_byte>
}

//retourne l'etat de config de l'eeprom
Boolean DrvEepromIsConfigured ( void )
{
	return DrvEepromReadByte( ADDR_EEPROM_CHECK_EEPROM ) == EEPROM_DEFAULT_VALUE ? FALSE : TRUE ;
     6e2:	91 e0       	ldi	r25, 0x01	; 1
     6e4:	8f 3f       	cpi	r24, 0xFF	; 255
     6e6:	09 f4       	brne	.+2      	; 0x6ea <DrvEepromIsConfigured+0x10>
     6e8:	90 e0       	ldi	r25, 0x00	; 0
}
     6ea:	89 2f       	mov	r24, r25
     6ec:	08 95       	ret

000006ee <DrvEepromSetConfiguration>:
//Fonction d ecriture eeprom
void DrvEepromWriteByte ( Int8U * addr, Int8U byte)
{
	if(EEPROM_WRITE_ENABLE)
	{
		eeprom_write_byte(addr,byte);
     6ee:	61 e0       	ldi	r22, 0x01	; 1
     6f0:	80 e0       	ldi	r24, 0x00	; 0
     6f2:	90 e0       	ldi	r25, 0x00	; 0
     6f4:	0c 94 7b 28 	jmp	0x50f6	; 0x50f6 <eeprom_write_byte>
     6f8:	08 95       	ret

000006fa <DrvEepromInit>:
Boolean DrvEepromInit ( void )
{
	Boolean oSuccess = TRUE;
	
	//return from boot with OK
	if( DrvEepromIsConfigured() == FALSE ) 
     6fa:	ef df       	rcall	.-34     	; 0x6da <DrvEepromIsConfigured>
     6fc:	81 11       	cpse	r24, r1
     6fe:	0b c0       	rjmp	.+22     	; 0x716 <DrvEepromInit+0x1c>
//Fonction d ecriture eeprom
void DrvEepromWriteByte ( Int8U * addr, Int8U byte)
{
	if(EEPROM_WRITE_ENABLE)
	{
		eeprom_write_byte(addr,byte);
     700:	61 e0       	ldi	r22, 0x01	; 1
     702:	81 e0       	ldi	r24, 0x01	; 1
     704:	90 e0       	ldi	r25, 0x00	; 0
     706:	0e 94 7b 28 	call	0x50f6	; 0x50f6 <eeprom_write_byte>
     70a:	61 e0       	ldi	r22, 0x01	; 1
     70c:	82 e0       	ldi	r24, 0x02	; 2
     70e:	90 e0       	ldi	r25, 0x00	; 0
     710:	0e 94 7b 28 	call	0x50f6	; 0x50f6 <eeprom_write_byte>
		DrvEepromWriteByte(ADDR_EEPROM_VERSION_SOFT, VERSION_SOFTWARE);
		//on ecrit la version hardware
		DrvEepromWriteByte(ADDR_EEPROM_VERSION_HARD, VERSION_HARDWARE);
		
		//configuration done
		DrvEepromSetConfiguration();
     714:	ec df       	rcall	.-40     	; 0x6ee <DrvEepromSetConfiguration>
	}

	return oSuccess;
}
     716:	81 e0       	ldi	r24, 0x01	; 1
     718:	08 95       	ret

0000071a <DrvIoSetPinOutput>:
////////////////////////////////////////PUBILC FUNCTIONS//////////////////////////////////////////
Boolean DrvIoSetPinOutput ( EIoPin pin ) 
{
	Boolean o_success = FALSE;
	
	if( pin < EIO_NB_PIN )
     71a:	80 32       	cpi	r24, 0x20	; 32
     71c:	a8 f4       	brcc	.+42     	; 0x748 <DrvIoSetPinOutput+0x2e>
	{
		*(ioTable[ pin ].ddr) |= (1 << ioTable[ pin ].bit);
     71e:	97 e0       	ldi	r25, 0x07	; 7
     720:	89 9f       	mul	r24, r25
     722:	f0 01       	movw	r30, r0
     724:	11 24       	eor	r1, r1
     726:	ed 51       	subi	r30, 0x1D	; 29
     728:	fe 4f       	sbci	r31, 0xFE	; 254
     72a:	a2 81       	ldd	r26, Z+2	; 0x02
     72c:	b3 81       	ldd	r27, Z+3	; 0x03
     72e:	2c 91       	ld	r18, X
     730:	81 e0       	ldi	r24, 0x01	; 1
     732:	90 e0       	ldi	r25, 0x00	; 0
     734:	06 80       	ldd	r0, Z+6	; 0x06
     736:	02 c0       	rjmp	.+4      	; 0x73c <DrvIoSetPinOutput+0x22>
     738:	88 0f       	add	r24, r24
     73a:	99 1f       	adc	r25, r25
     73c:	0a 94       	dec	r0
     73e:	e2 f7       	brpl	.-8      	; 0x738 <DrvIoSetPinOutput+0x1e>
     740:	82 2b       	or	r24, r18
     742:	8c 93       	st	X, r24
		o_success = TRUE;
     744:	81 e0       	ldi	r24, 0x01	; 1
     746:	08 95       	ret


////////////////////////////////////////PUBILC FUNCTIONS//////////////////////////////////////////
Boolean DrvIoSetPinOutput ( EIoPin pin ) 
{
	Boolean o_success = FALSE;
     748:	80 e0       	ldi	r24, 0x00	; 0
	{
		*(ioTable[ pin ].ddr) |= (1 << ioTable[ pin ].bit);
		o_success = TRUE;
	}
	return o_success;
}
     74a:	08 95       	ret

0000074c <DrvIoSetPinInput>:

Boolean DrvIoSetPinInput ( EIoPin pin ) 
{
	Boolean o_success = FALSE;
	if( pin < EIO_NB_PIN )
     74c:	80 32       	cpi	r24, 0x20	; 32
     74e:	e8 f4       	brcc	.+58     	; 0x78a <DrvIoSetPinInput+0x3e>
	{
		*(ioTable[ pin ].ddr) &=~ (1 << ioTable[ pin ].bit);
     750:	97 e0       	ldi	r25, 0x07	; 7
     752:	89 9f       	mul	r24, r25
     754:	f0 01       	movw	r30, r0
     756:	11 24       	eor	r1, r1
     758:	ed 51       	subi	r30, 0x1D	; 29
     75a:	fe 4f       	sbci	r31, 0xFE	; 254
     75c:	a2 81       	ldd	r26, Z+2	; 0x02
     75e:	b3 81       	ldd	r27, Z+3	; 0x03
     760:	2c 91       	ld	r18, X
     762:	81 e0       	ldi	r24, 0x01	; 1
     764:	90 e0       	ldi	r25, 0x00	; 0
     766:	06 80       	ldd	r0, Z+6	; 0x06
     768:	02 c0       	rjmp	.+4      	; 0x76e <DrvIoSetPinInput+0x22>
     76a:	88 0f       	add	r24, r24
     76c:	99 1f       	adc	r25, r25
     76e:	0a 94       	dec	r0
     770:	e2 f7       	brpl	.-8      	; 0x76a <DrvIoSetPinInput+0x1e>
     772:	80 95       	com	r24
     774:	92 2f       	mov	r25, r18
     776:	98 23       	and	r25, r24
     778:	9c 93       	st	X, r25
		*(ioTable[ pin ].port) &=~ (1 << ioTable[ pin ].bit);
     77a:	01 90       	ld	r0, Z+
     77c:	f0 81       	ld	r31, Z
     77e:	e0 2d       	mov	r30, r0
     780:	90 81       	ld	r25, Z
     782:	89 23       	and	r24, r25
     784:	80 83       	st	Z, r24
		o_success = TRUE;
     786:	81 e0       	ldi	r24, 0x01	; 1
     788:	08 95       	ret
	return o_success;
}

Boolean DrvIoSetPinInput ( EIoPin pin ) 
{
	Boolean o_success = FALSE;
     78a:	80 e0       	ldi	r24, 0x00	; 0
		*(ioTable[ pin ].ddr) &=~ (1 << ioTable[ pin ].bit);
		*(ioTable[ pin ].port) &=~ (1 << ioTable[ pin ].bit);
		o_success = TRUE;
	}
	return o_success;
}
     78c:	08 95       	ret

0000078e <DrvIoGetPinState>:

EIOLevel DrvIoGetPinState ( EIoPin pin )
{
	EIOLevel pin_value = IO_LEVEL_LOW;

	pin_value = *(ioTable[pin].pin);
     78e:	27 e0       	ldi	r18, 0x07	; 7
     790:	82 9f       	mul	r24, r18
     792:	c0 01       	movw	r24, r0
     794:	11 24       	eor	r1, r1
     796:	fc 01       	movw	r30, r24
     798:	ed 51       	subi	r30, 0x1D	; 29
     79a:	fe 4f       	sbci	r31, 0xFE	; 254
     79c:	a4 81       	ldd	r26, Z+4	; 0x04
     79e:	b5 81       	ldd	r27, Z+5	; 0x05
     7a0:	8c 91       	ld	r24, X
	pin_value = pin_value >> ioTable[pin].bit;
     7a2:	90 e0       	ldi	r25, 0x00	; 0
     7a4:	06 80       	ldd	r0, Z+6	; 0x06
     7a6:	02 c0       	rjmp	.+4      	; 0x7ac <DrvIoGetPinState+0x1e>
     7a8:	95 95       	asr	r25
     7aa:	87 95       	ror	r24
     7ac:	0a 94       	dec	r0
     7ae:	e2 f7       	brpl	.-8      	; 0x7a8 <DrvIoGetPinState+0x1a>
	pin_value &= 0x01U;

	return pin_value ;
}
     7b0:	81 70       	andi	r24, 0x01	; 1
     7b2:	08 95       	ret

000007b4 <DrvLegComputeInverseKinematics>:
}

Boolean DrvLegIsInitialized( void )
{
	return legs.isInitialized;
}
     7b4:	2f 92       	push	r2
     7b6:	3f 92       	push	r3
     7b8:	4f 92       	push	r4
     7ba:	5f 92       	push	r5
     7bc:	6f 92       	push	r6
     7be:	7f 92       	push	r7
     7c0:	8f 92       	push	r8
     7c2:	9f 92       	push	r9
     7c4:	af 92       	push	r10
     7c6:	bf 92       	push	r11
     7c8:	cf 92       	push	r12
     7ca:	df 92       	push	r13
     7cc:	ef 92       	push	r14
     7ce:	ff 92       	push	r15
     7d0:	0f 93       	push	r16
     7d2:	1f 93       	push	r17
     7d4:	cf 93       	push	r28
     7d6:	df 93       	push	r29
     7d8:	cd b7       	in	r28, 0x3d	; 61
     7da:	de b7       	in	r29, 0x3e	; 62
     7dc:	66 97       	sbiw	r28, 0x16	; 22
     7de:	0f b6       	in	r0, 0x3f	; 63
     7e0:	f8 94       	cli
     7e2:	de bf       	out	0x3e, r29	; 62
     7e4:	0f be       	out	0x3f, r0	; 63
     7e6:	cd bf       	out	0x3d, r28	; 61
     7e8:	e9 82       	std	Y+1, r14	; 0x01
     7ea:	fa 82       	std	Y+2, r15	; 0x02
     7ec:	0b 83       	std	Y+3, r16	; 0x03
     7ee:	1c 83       	std	Y+4, r17	; 0x04
     7f0:	2d 83       	std	Y+5, r18	; 0x05
     7f2:	3e 83       	std	Y+6, r19	; 0x06
     7f4:	4f 83       	std	Y+7, r20	; 0x07
     7f6:	58 87       	std	Y+8, r21	; 0x08
     7f8:	69 87       	std	Y+9, r22	; 0x09
     7fa:	7a 87       	std	Y+10, r23	; 0x0a
     7fc:	8b 87       	std	Y+11, r24	; 0x0b
     7fe:	9c 87       	std	Y+12, r25	; 0x0c
     800:	86 01       	movw	r16, r12
     802:	15 01       	movw	r2, r10
     804:	9e 8a       	std	Y+22, r9	; 0x16
     806:	8d 8a       	std	Y+21, r8	; 0x15
     808:	20 e0       	ldi	r18, 0x00	; 0
     80a:	30 e0       	ldi	r19, 0x00	; 0
     80c:	a9 01       	movw	r20, r18
     80e:	69 81       	ldd	r22, Y+1	; 0x01
     810:	7a 81       	ldd	r23, Y+2	; 0x02
     812:	8b 81       	ldd	r24, Y+3	; 0x03
     814:	9c 81       	ldd	r25, Y+4	; 0x04
     816:	0e 94 96 21 	call	0x432c	; 0x432c <__addsf3>
     81a:	4b 01       	movw	r8, r22
     81c:	5c 01       	movw	r10, r24
     81e:	20 e0       	ldi	r18, 0x00	; 0
     820:	30 e0       	ldi	r19, 0x00	; 0
     822:	40 ef       	ldi	r20, 0xF0	; 240
     824:	51 e4       	ldi	r21, 0x41	; 65
     826:	6d 81       	ldd	r22, Y+5	; 0x05
     828:	7e 81       	ldd	r23, Y+6	; 0x06
     82a:	8f 81       	ldd	r24, Y+7	; 0x07
     82c:	98 85       	ldd	r25, Y+8	; 0x08
     82e:	0e 94 96 21 	call	0x432c	; 0x432c <__addsf3>
     832:	2b 01       	movw	r4, r22
     834:	3c 01       	movw	r6, r24
     836:	20 e0       	ldi	r18, 0x00	; 0
     838:	30 e0       	ldi	r19, 0x00	; 0
     83a:	44 e3       	ldi	r20, 0x34	; 52
     83c:	52 e4       	ldi	r21, 0x42	; 66
     83e:	69 85       	ldd	r22, Y+9	; 0x09
     840:	7a 85       	ldd	r23, Y+10	; 0x0a
     842:	8b 85       	ldd	r24, Y+11	; 0x0b
     844:	9c 85       	ldd	r25, Y+12	; 0x0c
     846:	0e 94 96 21 	call	0x432c	; 0x432c <__addsf3>
     84a:	6d 87       	std	Y+13, r22	; 0x0d
     84c:	7e 87       	std	Y+14, r23	; 0x0e
     84e:	8f 87       	std	Y+15, r24	; 0x0f
     850:	98 8b       	std	Y+16, r25	; 0x10
     852:	a5 01       	movw	r20, r10
     854:	94 01       	movw	r18, r8
     856:	c5 01       	movw	r24, r10
     858:	b4 01       	movw	r22, r8
     85a:	0e 94 37 24 	call	0x486e	; 0x486e <__mulsf3>
     85e:	6b 01       	movw	r12, r22
     860:	7c 01       	movw	r14, r24
     862:	a3 01       	movw	r20, r6
     864:	92 01       	movw	r18, r4
     866:	c3 01       	movw	r24, r6
     868:	b2 01       	movw	r22, r4
     86a:	0e 94 37 24 	call	0x486e	; 0x486e <__mulsf3>
     86e:	69 8b       	std	Y+17, r22	; 0x11
     870:	7a 8b       	std	Y+18, r23	; 0x12
     872:	8b 8b       	std	Y+19, r24	; 0x13
     874:	9c 8b       	std	Y+20, r25	; 0x14
     876:	29 89       	ldd	r18, Y+17	; 0x11
     878:	3a 89       	ldd	r19, Y+18	; 0x12
     87a:	4b 89       	ldd	r20, Y+19	; 0x13
     87c:	5c 89       	ldd	r21, Y+20	; 0x14
     87e:	c7 01       	movw	r24, r14
     880:	b6 01       	movw	r22, r12
     882:	0e 94 96 21 	call	0x432c	; 0x432c <__addsf3>
     886:	0e 94 be 24 	call	0x497c	; 0x497c <sqrt>
     88a:	6b 01       	movw	r12, r22
     88c:	7c 01       	movw	r14, r24
     88e:	a3 01       	movw	r20, r6
     890:	92 01       	movw	r18, r4
     892:	c5 01       	movw	r24, r10
     894:	b4 01       	movw	r22, r8
     896:	0e 94 26 22 	call	0x444c	; 0x444c <__divsf3>
     89a:	0e 94 fa 21 	call	0x43f4	; 0x43f4 <atan>
     89e:	2b 01       	movw	r4, r22
     8a0:	3c 01       	movw	r6, r24
     8a2:	20 e0       	ldi	r18, 0x00	; 0
     8a4:	30 e0       	ldi	r19, 0x00	; 0
     8a6:	40 ef       	ldi	r20, 0xF0	; 240
     8a8:	51 e4       	ldi	r21, 0x41	; 65
     8aa:	c7 01       	movw	r24, r14
     8ac:	b6 01       	movw	r22, r12
     8ae:	0e 94 95 21 	call	0x432a	; 0x432a <__subsf3>
     8b2:	6b 01       	movw	r12, r22
     8b4:	7c 01       	movw	r14, r24
     8b6:	9b 01       	movw	r18, r22
     8b8:	ac 01       	movw	r20, r24
     8ba:	0e 94 37 24 	call	0x486e	; 0x486e <__mulsf3>
     8be:	69 8b       	std	Y+17, r22	; 0x11
     8c0:	7a 8b       	std	Y+18, r23	; 0x12
     8c2:	8b 8b       	std	Y+19, r24	; 0x13
     8c4:	9c 8b       	std	Y+20, r25	; 0x14
     8c6:	2d 85       	ldd	r18, Y+13	; 0x0d
     8c8:	3e 85       	ldd	r19, Y+14	; 0x0e
     8ca:	4f 85       	ldd	r20, Y+15	; 0x0f
     8cc:	58 89       	ldd	r21, Y+16	; 0x10
     8ce:	ca 01       	movw	r24, r20
     8d0:	b9 01       	movw	r22, r18
     8d2:	0e 94 37 24 	call	0x486e	; 0x486e <__mulsf3>
     8d6:	4b 01       	movw	r8, r22
     8d8:	5c 01       	movw	r10, r24
     8da:	a7 01       	movw	r20, r14
     8dc:	96 01       	movw	r18, r12
     8de:	c7 01       	movw	r24, r14
     8e0:	b6 01       	movw	r22, r12
     8e2:	0e 94 37 24 	call	0x486e	; 0x486e <__mulsf3>
     8e6:	6b 01       	movw	r12, r22
     8e8:	7c 01       	movw	r14, r24
     8ea:	a5 01       	movw	r20, r10
     8ec:	94 01       	movw	r18, r8
     8ee:	c7 01       	movw	r24, r14
     8f0:	b6 01       	movw	r22, r12
     8f2:	0e 94 96 21 	call	0x432c	; 0x432c <__addsf3>
     8f6:	0e 94 be 24 	call	0x497c	; 0x497c <sqrt>
     8fa:	6b 01       	movw	r12, r22
     8fc:	7c 01       	movw	r14, r24
     8fe:	9b 01       	movw	r18, r22
     900:	ac 01       	movw	r20, r24
     902:	0e 94 37 24 	call	0x486e	; 0x486e <__mulsf3>
     906:	4b 01       	movw	r8, r22
     908:	5c 01       	movw	r10, r24
     90a:	9b 01       	movw	r18, r22
     90c:	ac 01       	movw	r20, r24
     90e:	60 e0       	ldi	r22, 0x00	; 0
     910:	7a e7       	ldi	r23, 0x7A	; 122
     912:	8c eb       	ldi	r24, 0xBC	; 188
     914:	96 e4       	ldi	r25, 0x46	; 70
     916:	0e 94 95 21 	call	0x432a	; 0x432a <__subsf3>
     91a:	20 e0       	ldi	r18, 0x00	; 0
     91c:	38 ea       	ldi	r19, 0xA8	; 168
     91e:	4c ea       	ldi	r20, 0xAC	; 172
     920:	56 e4       	ldi	r21, 0x46	; 70
     922:	0e 94 26 22 	call	0x444c	; 0x444c <__divsf3>
     926:	0e 94 87 21 	call	0x430e	; 0x430e <acos>
     92a:	69 8b       	std	Y+17, r22	; 0x11
     92c:	7a 8b       	std	Y+18, r23	; 0x12
     92e:	8b 8b       	std	Y+19, r24	; 0x13
     930:	9c 8b       	std	Y+20, r25	; 0x14
     932:	a7 01       	movw	r20, r14
     934:	96 01       	movw	r18, r12
     936:	6d 85       	ldd	r22, Y+13	; 0x0d
     938:	7e 85       	ldd	r23, Y+14	; 0x0e
     93a:	8f 85       	ldd	r24, Y+15	; 0x0f
     93c:	98 89       	ldd	r25, Y+16	; 0x10
     93e:	0e 94 26 22 	call	0x444c	; 0x444c <__divsf3>
     942:	0e 94 87 21 	call	0x430e	; 0x430e <acos>
     946:	6d 87       	std	Y+13, r22	; 0x0d
     948:	7e 87       	std	Y+14, r23	; 0x0e
     94a:	8f 87       	std	Y+15, r24	; 0x0f
     94c:	98 8b       	std	Y+16, r25	; 0x10
     94e:	20 e0       	ldi	r18, 0x00	; 0
     950:	38 ec       	ldi	r19, 0xC8	; 200
     952:	41 ee       	ldi	r20, 0xE1	; 225
     954:	55 e4       	ldi	r21, 0x45	; 69
     956:	c5 01       	movw	r24, r10
     958:	b4 01       	movw	r22, r8
     95a:	0e 94 96 21 	call	0x432c	; 0x432c <__addsf3>
     95e:	20 e0       	ldi	r18, 0x00	; 0
     960:	38 e0       	ldi	r19, 0x08	; 8
     962:	44 e8       	ldi	r20, 0x84	; 132
     964:	56 e4       	ldi	r21, 0x46	; 70
     966:	0e 94 95 21 	call	0x432a	; 0x432a <__subsf3>
     96a:	4b 01       	movw	r8, r22
     96c:	5c 01       	movw	r10, r24
     96e:	20 e0       	ldi	r18, 0x00	; 0
     970:	30 e0       	ldi	r19, 0x00	; 0
     972:	4a e2       	ldi	r20, 0x2A	; 42
     974:	53 e4       	ldi	r21, 0x43	; 67
     976:	c7 01       	movw	r24, r14
     978:	b6 01       	movw	r22, r12
     97a:	0e 94 37 24 	call	0x486e	; 0x486e <__mulsf3>
     97e:	9b 01       	movw	r18, r22
     980:	ac 01       	movw	r20, r24
     982:	c5 01       	movw	r24, r10
     984:	b4 01       	movw	r22, r8
     986:	0e 94 26 22 	call	0x444c	; 0x444c <__divsf3>
     98a:	0e 94 87 21 	call	0x430e	; 0x430e <acos>
     98e:	4b 01       	movw	r8, r22
     990:	5c 01       	movw	r10, r24
     992:	20 e0       	ldi	r18, 0x00	; 0
     994:	30 e0       	ldi	r19, 0x00	; 0
     996:	44 e3       	ldi	r20, 0x34	; 52
     998:	53 e4       	ldi	r21, 0x43	; 67
     99a:	c3 01       	movw	r24, r6
     99c:	b2 01       	movw	r22, r4
     99e:	0e 94 37 24 	call	0x486e	; 0x486e <__mulsf3>
     9a2:	6b 01       	movw	r12, r22
     9a4:	7c 01       	movw	r14, r24
     9a6:	a5 01       	movw	r20, r10
     9a8:	94 01       	movw	r18, r8
     9aa:	6d 85       	ldd	r22, Y+13	; 0x0d
     9ac:	7e 85       	ldd	r23, Y+14	; 0x0e
     9ae:	8f 85       	ldd	r24, Y+15	; 0x0f
     9b0:	98 89       	ldd	r25, Y+16	; 0x10
     9b2:	0e 94 96 21 	call	0x432c	; 0x432c <__addsf3>
     9b6:	20 e0       	ldi	r18, 0x00	; 0
     9b8:	30 e0       	ldi	r19, 0x00	; 0
     9ba:	44 e3       	ldi	r20, 0x34	; 52
     9bc:	53 e4       	ldi	r21, 0x43	; 67
     9be:	0e 94 37 24 	call	0x486e	; 0x486e <__mulsf3>
     9c2:	4b 01       	movw	r8, r22
     9c4:	5c 01       	movw	r10, r24
     9c6:	20 e0       	ldi	r18, 0x00	; 0
     9c8:	30 e0       	ldi	r19, 0x00	; 0
     9ca:	44 e3       	ldi	r20, 0x34	; 52
     9cc:	53 e4       	ldi	r21, 0x43	; 67
     9ce:	69 89       	ldd	r22, Y+17	; 0x11
     9d0:	7a 89       	ldd	r23, Y+18	; 0x12
     9d2:	8b 89       	ldd	r24, Y+19	; 0x13
     9d4:	9c 89       	ldd	r25, Y+20	; 0x14
     9d6:	0e 94 37 24 	call	0x486e	; 0x486e <__mulsf3>
     9da:	2b 01       	movw	r4, r22
     9dc:	3c 01       	movw	r6, r24
     9de:	2b ed       	ldi	r18, 0xDB	; 219
     9e0:	3f e0       	ldi	r19, 0x0F	; 15
     9e2:	49 e4       	ldi	r20, 0x49	; 73
     9e4:	50 e4       	ldi	r21, 0x40	; 64
     9e6:	c7 01       	movw	r24, r14
     9e8:	b6 01       	movw	r22, r12
     9ea:	0e 94 26 22 	call	0x444c	; 0x444c <__divsf3>
     9ee:	20 e0       	ldi	r18, 0x00	; 0
     9f0:	30 e0       	ldi	r19, 0x00	; 0
     9f2:	40 e2       	ldi	r20, 0x20	; 32
     9f4:	51 e4       	ldi	r21, 0x41	; 65
     9f6:	0e 94 37 24 	call	0x486e	; 0x486e <__mulsf3>
     9fa:	f8 01       	movw	r30, r16
     9fc:	60 83       	st	Z, r22
     9fe:	71 83       	std	Z+1, r23	; 0x01
     a00:	82 83       	std	Z+2, r24	; 0x02
     a02:	93 83       	std	Z+3, r25	; 0x03
     a04:	2b ed       	ldi	r18, 0xDB	; 219
     a06:	3f e0       	ldi	r19, 0x0F	; 15
     a08:	49 e4       	ldi	r20, 0x49	; 73
     a0a:	50 e4       	ldi	r21, 0x40	; 64
     a0c:	c5 01       	movw	r24, r10
     a0e:	b4 01       	movw	r22, r8
     a10:	0e 94 26 22 	call	0x444c	; 0x444c <__divsf3>
     a14:	20 e0       	ldi	r18, 0x00	; 0
     a16:	30 e0       	ldi	r19, 0x00	; 0
     a18:	40 e2       	ldi	r20, 0x20	; 32
     a1a:	51 e4       	ldi	r21, 0x41	; 65
     a1c:	0e 94 37 24 	call	0x486e	; 0x486e <__mulsf3>
     a20:	f1 01       	movw	r30, r2
     a22:	60 83       	st	Z, r22
     a24:	71 83       	std	Z+1, r23	; 0x01
     a26:	82 83       	std	Z+2, r24	; 0x02
     a28:	93 83       	std	Z+3, r25	; 0x03
     a2a:	2b ed       	ldi	r18, 0xDB	; 219
     a2c:	3f e0       	ldi	r19, 0x0F	; 15
     a2e:	49 e4       	ldi	r20, 0x49	; 73
     a30:	50 e4       	ldi	r21, 0x40	; 64
     a32:	c3 01       	movw	r24, r6
     a34:	b2 01       	movw	r22, r4
     a36:	0e 94 26 22 	call	0x444c	; 0x444c <__divsf3>
     a3a:	20 e0       	ldi	r18, 0x00	; 0
     a3c:	30 e0       	ldi	r19, 0x00	; 0
     a3e:	40 e2       	ldi	r20, 0x20	; 32
     a40:	51 e4       	ldi	r21, 0x41	; 65
     a42:	0e 94 37 24 	call	0x486e	; 0x486e <__mulsf3>
     a46:	ed 89       	ldd	r30, Y+21	; 0x15
     a48:	fe 89       	ldd	r31, Y+22	; 0x16
     a4a:	60 83       	st	Z, r22
     a4c:	71 83       	std	Z+1, r23	; 0x01
     a4e:	82 83       	std	Z+2, r24	; 0x02
     a50:	93 83       	std	Z+3, r25	; 0x03
     a52:	81 e0       	ldi	r24, 0x01	; 1
     a54:	66 96       	adiw	r28, 0x16	; 22
     a56:	0f b6       	in	r0, 0x3f	; 63
     a58:	f8 94       	cli
     a5a:	de bf       	out	0x3e, r29	; 62
     a5c:	0f be       	out	0x3f, r0	; 63
     a5e:	cd bf       	out	0x3d, r28	; 61
     a60:	df 91       	pop	r29
     a62:	cf 91       	pop	r28
     a64:	1f 91       	pop	r17
     a66:	0f 91       	pop	r16
     a68:	ff 90       	pop	r15
     a6a:	ef 90       	pop	r14
     a6c:	df 90       	pop	r13
     a6e:	cf 90       	pop	r12
     a70:	bf 90       	pop	r11
     a72:	af 90       	pop	r10
     a74:	9f 90       	pop	r9
     a76:	8f 90       	pop	r8
     a78:	7f 90       	pop	r7
     a7a:	6f 90       	pop	r6
     a7c:	5f 90       	pop	r5
     a7e:	4f 90       	pop	r4
     a80:	3f 90       	pop	r3
     a82:	2f 90       	pop	r2
     a84:	08 95       	ret

00000a86 <DrvLegApplyPosition>:
     a86:	2f 92       	push	r2
     a88:	3f 92       	push	r3
     a8a:	4f 92       	push	r4
     a8c:	5f 92       	push	r5
     a8e:	6f 92       	push	r6
     a90:	7f 92       	push	r7
     a92:	af 92       	push	r10
     a94:	bf 92       	push	r11
     a96:	cf 92       	push	r12
     a98:	df 92       	push	r13
     a9a:	ef 92       	push	r14
     a9c:	ff 92       	push	r15
     a9e:	0f 93       	push	r16
     aa0:	1f 93       	push	r17
     aa2:	cf 93       	push	r28
     aa4:	df 93       	push	r29
     aa6:	cd b7       	in	r28, 0x3d	; 61
     aa8:	de b7       	in	r29, 0x3e	; 62
     aaa:	29 97       	sbiw	r28, 0x09	; 9
     aac:	0f b6       	in	r0, 0x3f	; 63
     aae:	f8 94       	cli
     ab0:	de bf       	out	0x3e, r29	; 62
     ab2:	0f be       	out	0x3f, r0	; 63
     ab4:	cd bf       	out	0x3d, r28	; 61
     ab6:	89 87       	std	Y+9, r24	; 0x09
     ab8:	2a 01       	movw	r4, r20
     aba:	3b 01       	movw	r6, r22
     abc:	09 83       	std	Y+1, r16	; 0x01
     abe:	1a 83       	std	Y+2, r17	; 0x02
     ac0:	2b 83       	std	Y+3, r18	; 0x03
     ac2:	3c 83       	std	Y+4, r19	; 0x04
     ac4:	86 30       	cpi	r24, 0x06	; 6
     ac6:	08 f0       	brcs	.+2      	; 0xaca <DrvLegApplyPosition+0x44>
     ac8:	d5 c1       	rjmp	.+938    	; 0xe74 <DrvLegApplyPosition+0x3ee>
     aca:	28 2e       	mov	r2, r24
     acc:	31 2c       	mov	r3, r1
     ace:	9a e2       	ldi	r25, 0x2A	; 42
     ad0:	89 9f       	mul	r24, r25
     ad2:	f0 01       	movw	r30, r0
     ad4:	11 24       	eor	r1, r1
     ad6:	ef 5f       	subi	r30, 0xFF	; 255
     ad8:	fc 4f       	sbci	r31, 0xFC	; 252
     ada:	83 81       	ldd	r24, Z+3	; 0x03
     adc:	81 30       	cpi	r24, 0x01	; 1
     ade:	09 f0       	breq	.+2      	; 0xae2 <DrvLegApplyPosition+0x5c>
     ae0:	cb c1       	rjmp	.+918    	; 0xe78 <DrvLegApplyPosition+0x3f2>
     ae2:	8a e2       	ldi	r24, 0x2A	; 42
     ae4:	82 9d       	mul	r24, r2
     ae6:	f0 01       	movw	r30, r0
     ae8:	83 9d       	mul	r24, r3
     aea:	f0 0d       	add	r31, r0
     aec:	11 24       	eor	r1, r1
     aee:	ef 5f       	subi	r30, 0xFF	; 255
     af0:	fc 4f       	sbci	r31, 0xFC	; 252
     af2:	82 81       	ldd	r24, Z+2	; 0x02
     af4:	81 30       	cpi	r24, 0x01	; 1
     af6:	09 f0       	breq	.+2      	; 0xafa <DrvLegApplyPosition+0x74>
     af8:	c1 c1       	rjmp	.+898    	; 0xe7c <DrvLegApplyPosition+0x3f6>
     afa:	a9 85       	ldd	r26, Y+9	; 0x09
     afc:	a3 30       	cpi	r26, 0x03	; 3
     afe:	d0 f5       	brcc	.+116    	; 0xb74 <DrvLegApplyPosition+0xee>
     b00:	8f 01       	movw	r16, r30
     b02:	07 80       	ldd	r0, Z+7	; 0x07
     b04:	f0 85       	ldd	r31, Z+8	; 0x08
     b06:	e0 2d       	mov	r30, r0
     b08:	60 85       	ldd	r22, Z+8	; 0x08
     b0a:	71 85       	ldd	r23, Z+9	; 0x09
     b0c:	07 2e       	mov	r0, r23
     b0e:	00 0c       	add	r0, r0
     b10:	88 0b       	sbc	r24, r24
     b12:	99 0b       	sbc	r25, r25
     b14:	0e 94 c1 22 	call	0x4582	; 0x4582 <__floatsisf>
     b18:	6d 83       	std	Y+5, r22	; 0x05
     b1a:	7e 83       	std	Y+6, r23	; 0x06
     b1c:	8f 83       	std	Y+7, r24	; 0x07
     b1e:	98 87       	std	Y+8, r25	; 0x08
     b20:	20 e0       	ldi	r18, 0x00	; 0
     b22:	30 e0       	ldi	r19, 0x00	; 0
     b24:	41 ee       	ldi	r20, 0xE1	; 225
     b26:	54 e4       	ldi	r21, 0x44	; 68
     b28:	69 81       	ldd	r22, Y+1	; 0x01
     b2a:	7a 81       	ldd	r23, Y+2	; 0x02
     b2c:	8b 81       	ldd	r24, Y+3	; 0x03
     b2e:	9c 81       	ldd	r25, Y+4	; 0x04
     b30:	0e 94 95 21 	call	0x432a	; 0x432a <__subsf3>
     b34:	9b 01       	movw	r18, r22
     b36:	ac 01       	movw	r20, r24
     b38:	6d 81       	ldd	r22, Y+5	; 0x05
     b3a:	7e 81       	ldd	r23, Y+6	; 0x06
     b3c:	8f 81       	ldd	r24, Y+7	; 0x07
     b3e:	98 85       	ldd	r25, Y+8	; 0x08
     b40:	0e 94 96 21 	call	0x432c	; 0x432c <__addsf3>
     b44:	69 83       	std	Y+1, r22	; 0x01
     b46:	7a 83       	std	Y+2, r23	; 0x02
     b48:	8b 83       	std	Y+3, r24	; 0x03
     b4a:	9c 83       	std	Y+4, r25	; 0x04
     b4c:	d8 01       	movw	r26, r16
     b4e:	19 96       	adiw	r26, 0x09	; 9
     b50:	ed 91       	ld	r30, X+
     b52:	fc 91       	ld	r31, X
     b54:	1a 97       	sbiw	r26, 0x0a	; 10
     b56:	60 85       	ldd	r22, Z+8	; 0x08
     b58:	71 85       	ldd	r23, Z+9	; 0x09
     b5a:	07 2e       	mov	r0, r23
     b5c:	00 0c       	add	r0, r0
     b5e:	88 0b       	sbc	r24, r24
     b60:	99 0b       	sbc	r25, r25
     b62:	0e 94 c1 22 	call	0x4582	; 0x4582 <__floatsisf>
     b66:	a7 01       	movw	r20, r14
     b68:	96 01       	movw	r18, r12
     b6a:	0e 94 95 21 	call	0x432a	; 0x432a <__subsf3>
     b6e:	6b 01       	movw	r12, r22
     b70:	7c 01       	movw	r14, r24
     b72:	43 c0       	rjmp	.+134    	; 0xbfa <DrvLegApplyPosition+0x174>
     b74:	2a e2       	ldi	r18, 0x2A	; 42
     b76:	22 9d       	mul	r18, r2
     b78:	c0 01       	movw	r24, r0
     b7a:	23 9d       	mul	r18, r3
     b7c:	90 0d       	add	r25, r0
     b7e:	11 24       	eor	r1, r1
     b80:	8c 01       	movw	r16, r24
     b82:	0f 5f       	subi	r16, 0xFF	; 255
     b84:	1c 4f       	sbci	r17, 0xFC	; 252
     b86:	d8 01       	movw	r26, r16
     b88:	17 96       	adiw	r26, 0x07	; 7
     b8a:	ed 91       	ld	r30, X+
     b8c:	fc 91       	ld	r31, X
     b8e:	18 97       	sbiw	r26, 0x08	; 8
     b90:	64 81       	ldd	r22, Z+4	; 0x04
     b92:	75 81       	ldd	r23, Z+5	; 0x05
     b94:	07 2e       	mov	r0, r23
     b96:	00 0c       	add	r0, r0
     b98:	88 0b       	sbc	r24, r24
     b9a:	99 0b       	sbc	r25, r25
     b9c:	0e 94 c1 22 	call	0x4582	; 0x4582 <__floatsisf>
     ba0:	6d 83       	std	Y+5, r22	; 0x05
     ba2:	7e 83       	std	Y+6, r23	; 0x06
     ba4:	8f 83       	std	Y+7, r24	; 0x07
     ba6:	98 87       	std	Y+8, r25	; 0x08
     ba8:	29 81       	ldd	r18, Y+1	; 0x01
     baa:	3a 81       	ldd	r19, Y+2	; 0x02
     bac:	4b 81       	ldd	r20, Y+3	; 0x03
     bae:	5c 81       	ldd	r21, Y+4	; 0x04
     bb0:	60 e0       	ldi	r22, 0x00	; 0
     bb2:	70 e0       	ldi	r23, 0x00	; 0
     bb4:	81 ee       	ldi	r24, 0xE1	; 225
     bb6:	94 e4       	ldi	r25, 0x44	; 68
     bb8:	0e 94 95 21 	call	0x432a	; 0x432a <__subsf3>
     bbc:	9b 01       	movw	r18, r22
     bbe:	ac 01       	movw	r20, r24
     bc0:	6d 81       	ldd	r22, Y+5	; 0x05
     bc2:	7e 81       	ldd	r23, Y+6	; 0x06
     bc4:	8f 81       	ldd	r24, Y+7	; 0x07
     bc6:	98 85       	ldd	r25, Y+8	; 0x08
     bc8:	0e 94 96 21 	call	0x432c	; 0x432c <__addsf3>
     bcc:	69 83       	std	Y+1, r22	; 0x01
     bce:	7a 83       	std	Y+2, r23	; 0x02
     bd0:	8b 83       	std	Y+3, r24	; 0x03
     bd2:	9c 83       	std	Y+4, r25	; 0x04
     bd4:	d8 01       	movw	r26, r16
     bd6:	19 96       	adiw	r26, 0x09	; 9
     bd8:	ed 91       	ld	r30, X+
     bda:	fc 91       	ld	r31, X
     bdc:	1a 97       	sbiw	r26, 0x0a	; 10
     bde:	64 81       	ldd	r22, Z+4	; 0x04
     be0:	75 81       	ldd	r23, Z+5	; 0x05
     be2:	07 2e       	mov	r0, r23
     be4:	00 0c       	add	r0, r0
     be6:	88 0b       	sbc	r24, r24
     be8:	99 0b       	sbc	r25, r25
     bea:	0e 94 c1 22 	call	0x4582	; 0x4582 <__floatsisf>
     bee:	a7 01       	movw	r20, r14
     bf0:	96 01       	movw	r18, r12
     bf2:	0e 94 96 21 	call	0x432c	; 0x432c <__addsf3>
     bf6:	6b 01       	movw	r12, r22
     bf8:	7c 01       	movw	r14, r24
     bfa:	b9 85       	ldd	r27, Y+9	; 0x09
     bfc:	bb 23       	and	r27, r27
     bfe:	11 f0       	breq	.+4      	; 0xc04 <DrvLegApplyPosition+0x17e>
     c00:	b5 30       	cpi	r27, 0x05	; 5
     c02:	e1 f4       	brne	.+56     	; 0xc3c <DrvLegApplyPosition+0x1b6>
     c04:	8a e2       	ldi	r24, 0x2A	; 42
     c06:	82 9d       	mul	r24, r2
     c08:	f0 01       	movw	r30, r0
     c0a:	83 9d       	mul	r24, r3
     c0c:	f0 0d       	add	r31, r0
     c0e:	11 24       	eor	r1, r1
     c10:	ef 5f       	subi	r30, 0xFF	; 255
     c12:	fc 4f       	sbci	r31, 0xFC	; 252
     c14:	05 80       	ldd	r0, Z+5	; 0x05
     c16:	f6 81       	ldd	r31, Z+6	; 0x06
     c18:	e0 2d       	mov	r30, r0
     c1a:	64 81       	ldd	r22, Z+4	; 0x04
     c1c:	75 81       	ldd	r23, Z+5	; 0x05
     c1e:	07 2e       	mov	r0, r23
     c20:	00 0c       	add	r0, r0
     c22:	88 0b       	sbc	r24, r24
     c24:	99 0b       	sbc	r25, r25
     c26:	0e 94 c1 22 	call	0x4582	; 0x4582 <__floatsisf>
     c2a:	9b 01       	movw	r18, r22
     c2c:	ac 01       	movw	r20, r24
     c2e:	c3 01       	movw	r24, r6
     c30:	b2 01       	movw	r22, r4
     c32:	0e 94 96 21 	call	0x432c	; 0x432c <__addsf3>
     c36:	2b 01       	movw	r4, r22
     c38:	3c 01       	movw	r6, r24
     c3a:	40 c0       	rjmp	.+128    	; 0xcbc <DrvLegApplyPosition+0x236>
     c3c:	89 85       	ldd	r24, Y+9	; 0x09
     c3e:	82 50       	subi	r24, 0x02	; 2
     c40:	82 30       	cpi	r24, 0x02	; 2
     c42:	e0 f4       	brcc	.+56     	; 0xc7c <DrvLegApplyPosition+0x1f6>
     c44:	8a e2       	ldi	r24, 0x2A	; 42
     c46:	82 9d       	mul	r24, r2
     c48:	f0 01       	movw	r30, r0
     c4a:	83 9d       	mul	r24, r3
     c4c:	f0 0d       	add	r31, r0
     c4e:	11 24       	eor	r1, r1
     c50:	ef 5f       	subi	r30, 0xFF	; 255
     c52:	fc 4f       	sbci	r31, 0xFC	; 252
     c54:	05 80       	ldd	r0, Z+5	; 0x05
     c56:	f6 81       	ldd	r31, Z+6	; 0x06
     c58:	e0 2d       	mov	r30, r0
     c5a:	60 85       	ldd	r22, Z+8	; 0x08
     c5c:	71 85       	ldd	r23, Z+9	; 0x09
     c5e:	07 2e       	mov	r0, r23
     c60:	00 0c       	add	r0, r0
     c62:	88 0b       	sbc	r24, r24
     c64:	99 0b       	sbc	r25, r25
     c66:	0e 94 c1 22 	call	0x4582	; 0x4582 <__floatsisf>
     c6a:	9b 01       	movw	r18, r22
     c6c:	ac 01       	movw	r20, r24
     c6e:	c3 01       	movw	r24, r6
     c70:	b2 01       	movw	r22, r4
     c72:	0e 94 96 21 	call	0x432c	; 0x432c <__addsf3>
     c76:	2b 01       	movw	r4, r22
     c78:	3c 01       	movw	r6, r24
     c7a:	20 c0       	rjmp	.+64     	; 0xcbc <DrvLegApplyPosition+0x236>
     c7c:	e9 85       	ldd	r30, Y+9	; 0x09
     c7e:	e1 30       	cpi	r30, 0x01	; 1
     c80:	11 f0       	breq	.+4      	; 0xc86 <DrvLegApplyPosition+0x200>
     c82:	e4 30       	cpi	r30, 0x04	; 4
     c84:	d9 f4       	brne	.+54     	; 0xcbc <DrvLegApplyPosition+0x236>
     c86:	8a e2       	ldi	r24, 0x2A	; 42
     c88:	82 9d       	mul	r24, r2
     c8a:	f0 01       	movw	r30, r0
     c8c:	83 9d       	mul	r24, r3
     c8e:	f0 0d       	add	r31, r0
     c90:	11 24       	eor	r1, r1
     c92:	ef 5f       	subi	r30, 0xFF	; 255
     c94:	fc 4f       	sbci	r31, 0xFC	; 252
     c96:	05 80       	ldd	r0, Z+5	; 0x05
     c98:	f6 81       	ldd	r31, Z+6	; 0x06
     c9a:	e0 2d       	mov	r30, r0
     c9c:	66 81       	ldd	r22, Z+6	; 0x06
     c9e:	77 81       	ldd	r23, Z+7	; 0x07
     ca0:	07 2e       	mov	r0, r23
     ca2:	00 0c       	add	r0, r0
     ca4:	88 0b       	sbc	r24, r24
     ca6:	99 0b       	sbc	r25, r25
     ca8:	0e 94 c1 22 	call	0x4582	; 0x4582 <__floatsisf>
     cac:	9b 01       	movw	r18, r22
     cae:	ac 01       	movw	r20, r24
     cb0:	c3 01       	movw	r24, r6
     cb2:	b2 01       	movw	r22, r4
     cb4:	0e 94 96 21 	call	0x432c	; 0x432c <__addsf3>
     cb8:	2b 01       	movw	r4, r22
     cba:	3c 01       	movw	r6, r24
     cbc:	8a e2       	ldi	r24, 0x2A	; 42
     cbe:	82 9d       	mul	r24, r2
     cc0:	f0 01       	movw	r30, r0
     cc2:	83 9d       	mul	r24, r3
     cc4:	f0 0d       	add	r31, r0
     cc6:	11 24       	eor	r1, r1
     cc8:	ef 5f       	subi	r30, 0xFF	; 255
     cca:	fc 4f       	sbci	r31, 0xFC	; 252
     ccc:	05 81       	ldd	r16, Z+5	; 0x05
     cce:	16 81       	ldd	r17, Z+6	; 0x06
     cd0:	d8 01       	movw	r26, r16
     cd2:	14 96       	adiw	r26, 0x04	; 4
     cd4:	6d 91       	ld	r22, X+
     cd6:	7c 91       	ld	r23, X
     cd8:	15 97       	sbiw	r26, 0x05	; 5
     cda:	07 2e       	mov	r0, r23
     cdc:	00 0c       	add	r0, r0
     cde:	88 0b       	sbc	r24, r24
     ce0:	99 0b       	sbc	r25, r25
     ce2:	0e 94 c1 22 	call	0x4582	; 0x4582 <__floatsisf>
     ce6:	9b 01       	movw	r18, r22
     ce8:	ac 01       	movw	r20, r24
     cea:	c3 01       	movw	r24, r6
     cec:	b2 01       	movw	r22, r4
     cee:	0e 94 2c 24 	call	0x4858	; 0x4858 <__gesf2>
     cf2:	88 23       	and	r24, r24
     cf4:	0c f4       	brge	.+2      	; 0xcf8 <DrvLegApplyPosition+0x272>
     cf6:	c4 c0       	rjmp	.+392    	; 0xe80 <DrvLegApplyPosition+0x3fa>
     cf8:	f8 01       	movw	r30, r16
     cfa:	60 85       	ldd	r22, Z+8	; 0x08
     cfc:	71 85       	ldd	r23, Z+9	; 0x09
     cfe:	07 2e       	mov	r0, r23
     d00:	00 0c       	add	r0, r0
     d02:	88 0b       	sbc	r24, r24
     d04:	99 0b       	sbc	r25, r25
     d06:	0e 94 c1 22 	call	0x4582	; 0x4582 <__floatsisf>
     d0a:	9b 01       	movw	r18, r22
     d0c:	ac 01       	movw	r20, r24
     d0e:	c3 01       	movw	r24, r6
     d10:	b2 01       	movw	r22, r4
     d12:	0e 94 22 22 	call	0x4444	; 0x4444 <__cmpsf2>
     d16:	18 16       	cp	r1, r24
     d18:	0c f4       	brge	.+2      	; 0xd1c <DrvLegApplyPosition+0x296>
     d1a:	b4 c0       	rjmp	.+360    	; 0xe84 <DrvLegApplyPosition+0x3fe>
     d1c:	8a e2       	ldi	r24, 0x2A	; 42
     d1e:	82 9d       	mul	r24, r2
     d20:	f0 01       	movw	r30, r0
     d22:	83 9d       	mul	r24, r3
     d24:	f0 0d       	add	r31, r0
     d26:	11 24       	eor	r1, r1
     d28:	ef 5f       	subi	r30, 0xFF	; 255
     d2a:	fc 4f       	sbci	r31, 0xFC	; 252
     d2c:	07 81       	ldd	r16, Z+7	; 0x07
     d2e:	10 85       	ldd	r17, Z+8	; 0x08
     d30:	d8 01       	movw	r26, r16
     d32:	14 96       	adiw	r26, 0x04	; 4
     d34:	6d 91       	ld	r22, X+
     d36:	7c 91       	ld	r23, X
     d38:	15 97       	sbiw	r26, 0x05	; 5
     d3a:	07 2e       	mov	r0, r23
     d3c:	00 0c       	add	r0, r0
     d3e:	88 0b       	sbc	r24, r24
     d40:	99 0b       	sbc	r25, r25
     d42:	0e 94 c1 22 	call	0x4582	; 0x4582 <__floatsisf>
     d46:	9b 01       	movw	r18, r22
     d48:	ac 01       	movw	r20, r24
     d4a:	69 81       	ldd	r22, Y+1	; 0x01
     d4c:	7a 81       	ldd	r23, Y+2	; 0x02
     d4e:	8b 81       	ldd	r24, Y+3	; 0x03
     d50:	9c 81       	ldd	r25, Y+4	; 0x04
     d52:	0e 94 2c 24 	call	0x4858	; 0x4858 <__gesf2>
     d56:	88 23       	and	r24, r24
     d58:	0c f4       	brge	.+2      	; 0xd5c <DrvLegApplyPosition+0x2d6>
     d5a:	96 c0       	rjmp	.+300    	; 0xe88 <DrvLegApplyPosition+0x402>
     d5c:	f8 01       	movw	r30, r16
     d5e:	60 85       	ldd	r22, Z+8	; 0x08
     d60:	71 85       	ldd	r23, Z+9	; 0x09
     d62:	07 2e       	mov	r0, r23
     d64:	00 0c       	add	r0, r0
     d66:	88 0b       	sbc	r24, r24
     d68:	99 0b       	sbc	r25, r25
     d6a:	0e 94 c1 22 	call	0x4582	; 0x4582 <__floatsisf>
     d6e:	9b 01       	movw	r18, r22
     d70:	ac 01       	movw	r20, r24
     d72:	69 81       	ldd	r22, Y+1	; 0x01
     d74:	7a 81       	ldd	r23, Y+2	; 0x02
     d76:	8b 81       	ldd	r24, Y+3	; 0x03
     d78:	9c 81       	ldd	r25, Y+4	; 0x04
     d7a:	0e 94 22 22 	call	0x4444	; 0x4444 <__cmpsf2>
     d7e:	18 16       	cp	r1, r24
     d80:	0c f4       	brge	.+2      	; 0xd84 <DrvLegApplyPosition+0x2fe>
     d82:	84 c0       	rjmp	.+264    	; 0xe8c <DrvLegApplyPosition+0x406>
     d84:	8a e2       	ldi	r24, 0x2A	; 42
     d86:	82 9d       	mul	r24, r2
     d88:	f0 01       	movw	r30, r0
     d8a:	83 9d       	mul	r24, r3
     d8c:	f0 0d       	add	r31, r0
     d8e:	11 24       	eor	r1, r1
     d90:	ef 5f       	subi	r30, 0xFF	; 255
     d92:	fc 4f       	sbci	r31, 0xFC	; 252
     d94:	21 84       	ldd	r2, Z+9	; 0x09
     d96:	32 84       	ldd	r3, Z+10	; 0x0a
     d98:	d1 01       	movw	r26, r2
     d9a:	14 96       	adiw	r26, 0x04	; 4
     d9c:	6d 91       	ld	r22, X+
     d9e:	7c 91       	ld	r23, X
     da0:	15 97       	sbiw	r26, 0x05	; 5
     da2:	07 2e       	mov	r0, r23
     da4:	00 0c       	add	r0, r0
     da6:	88 0b       	sbc	r24, r24
     da8:	99 0b       	sbc	r25, r25
     daa:	0e 94 c1 22 	call	0x4582	; 0x4582 <__floatsisf>
     dae:	9b 01       	movw	r18, r22
     db0:	ac 01       	movw	r20, r24
     db2:	c7 01       	movw	r24, r14
     db4:	b6 01       	movw	r22, r12
     db6:	0e 94 2c 24 	call	0x4858	; 0x4858 <__gesf2>
     dba:	88 23       	and	r24, r24
     dbc:	0c f4       	brge	.+2      	; 0xdc0 <DrvLegApplyPosition+0x33a>
     dbe:	68 c0       	rjmp	.+208    	; 0xe90 <DrvLegApplyPosition+0x40a>
     dc0:	f1 01       	movw	r30, r2
     dc2:	60 85       	ldd	r22, Z+8	; 0x08
     dc4:	71 85       	ldd	r23, Z+9	; 0x09
     dc6:	07 2e       	mov	r0, r23
     dc8:	00 0c       	add	r0, r0
     dca:	88 0b       	sbc	r24, r24
     dcc:	99 0b       	sbc	r25, r25
     dce:	0e 94 c1 22 	call	0x4582	; 0x4582 <__floatsisf>
     dd2:	9b 01       	movw	r18, r22
     dd4:	ac 01       	movw	r20, r24
     dd6:	c7 01       	movw	r24, r14
     dd8:	b6 01       	movw	r22, r12
     dda:	0e 94 22 22 	call	0x4444	; 0x4444 <__cmpsf2>
     dde:	18 16       	cp	r1, r24
     de0:	0c f4       	brge	.+2      	; 0xde4 <DrvLegApplyPosition+0x35e>
     de2:	58 c0       	rjmp	.+176    	; 0xe94 <DrvLegApplyPosition+0x40e>
     de4:	89 85       	ldd	r24, Y+9	; 0x09
     de6:	88 0f       	add	r24, r24
     de8:	f9 85       	ldd	r31, Y+9	; 0x09
     dea:	f8 0f       	add	r31, r24
     dec:	fd 83       	std	Y+5, r31	; 0x05
     dee:	c3 01       	movw	r24, r6
     df0:	b2 01       	movw	r22, r4
     df2:	0e 94 9a 24 	call	0x4934	; 0x4934 <round>
     df6:	2b 01       	movw	r4, r22
     df8:	3c 01       	movw	r6, r24
     dfa:	69 81       	ldd	r22, Y+1	; 0x01
     dfc:	7a 81       	ldd	r23, Y+2	; 0x02
     dfe:	8b 81       	ldd	r24, Y+3	; 0x03
     e00:	9c 81       	ldd	r25, Y+4	; 0x04
     e02:	0e 94 9a 24 	call	0x4934	; 0x4934 <round>
     e06:	69 83       	std	Y+1, r22	; 0x01
     e08:	7a 83       	std	Y+2, r23	; 0x02
     e0a:	8b 83       	std	Y+3, r24	; 0x03
     e0c:	9c 83       	std	Y+4, r25	; 0x04
     e0e:	c7 01       	movw	r24, r14
     e10:	b6 01       	movw	r22, r12
     e12:	0e 94 9a 24 	call	0x4934	; 0x4934 <round>
     e16:	6b 01       	movw	r12, r22
     e18:	7c 01       	movw	r14, r24
     e1a:	c3 01       	movw	r24, r6
     e1c:	b2 01       	movw	r22, r4
     e1e:	0e 94 8e 22 	call	0x451c	; 0x451c <__fixsfsi>
     e22:	a5 01       	movw	r20, r10
     e24:	8d 81       	ldd	r24, Y+5	; 0x05
     e26:	9e d5       	rcall	.+2876   	; 0x1964 <DrvServoSetTarget>
     e28:	88 0f       	add	r24, r24
     e2a:	98 2f       	mov	r25, r24
     e2c:	99 0f       	add	r25, r25
     e2e:	99 0f       	add	r25, r25
     e30:	78 2e       	mov	r7, r24
     e32:	79 0e       	add	r7, r25
     e34:	69 81       	ldd	r22, Y+1	; 0x01
     e36:	7a 81       	ldd	r23, Y+2	; 0x02
     e38:	8b 81       	ldd	r24, Y+3	; 0x03
     e3a:	9c 81       	ldd	r25, Y+4	; 0x04
     e3c:	0e 94 8e 22 	call	0x451c	; 0x451c <__fixsfsi>
     e40:	a5 01       	movw	r20, r10
     e42:	8d 81       	ldd	r24, Y+5	; 0x05
     e44:	8f 5f       	subi	r24, 0xFF	; 255
     e46:	8e d5       	rcall	.+2844   	; 0x1964 <DrvServoSetTarget>
     e48:	87 0d       	add	r24, r7
     e4a:	88 0f       	add	r24, r24
     e4c:	98 2f       	mov	r25, r24
     e4e:	99 0f       	add	r25, r25
     e50:	99 0f       	add	r25, r25
     e52:	18 2f       	mov	r17, r24
     e54:	19 0f       	add	r17, r25
     e56:	c7 01       	movw	r24, r14
     e58:	b6 01       	movw	r22, r12
     e5a:	0e 94 8e 22 	call	0x451c	; 0x451c <__fixsfsi>
     e5e:	a5 01       	movw	r20, r10
     e60:	8d 81       	ldd	r24, Y+5	; 0x05
     e62:	8e 5f       	subi	r24, 0xFE	; 254
     e64:	7f d5       	rcall	.+2814   	; 0x1964 <DrvServoSetTarget>
     e66:	91 2f       	mov	r25, r17
     e68:	98 0f       	add	r25, r24
     e6a:	81 e0       	ldi	r24, 0x01	; 1
     e6c:	9f 36       	cpi	r25, 0x6F	; 111
     e6e:	99 f0       	breq	.+38     	; 0xe96 <DrvLegApplyPosition+0x410>
     e70:	80 e0       	ldi	r24, 0x00	; 0
     e72:	11 c0       	rjmp	.+34     	; 0xe96 <DrvLegApplyPosition+0x410>
     e74:	80 e0       	ldi	r24, 0x00	; 0
     e76:	0f c0       	rjmp	.+30     	; 0xe96 <DrvLegApplyPosition+0x410>
     e78:	80 e0       	ldi	r24, 0x00	; 0
     e7a:	0d c0       	rjmp	.+26     	; 0xe96 <DrvLegApplyPosition+0x410>
     e7c:	80 e0       	ldi	r24, 0x00	; 0
     e7e:	0b c0       	rjmp	.+22     	; 0xe96 <DrvLegApplyPosition+0x410>
     e80:	80 e0       	ldi	r24, 0x00	; 0
     e82:	09 c0       	rjmp	.+18     	; 0xe96 <DrvLegApplyPosition+0x410>
     e84:	80 e0       	ldi	r24, 0x00	; 0
     e86:	07 c0       	rjmp	.+14     	; 0xe96 <DrvLegApplyPosition+0x410>
     e88:	80 e0       	ldi	r24, 0x00	; 0
     e8a:	05 c0       	rjmp	.+10     	; 0xe96 <DrvLegApplyPosition+0x410>
     e8c:	80 e0       	ldi	r24, 0x00	; 0
     e8e:	03 c0       	rjmp	.+6      	; 0xe96 <DrvLegApplyPosition+0x410>
     e90:	80 e0       	ldi	r24, 0x00	; 0
     e92:	01 c0       	rjmp	.+2      	; 0xe96 <DrvLegApplyPosition+0x410>
     e94:	80 e0       	ldi	r24, 0x00	; 0
     e96:	29 96       	adiw	r28, 0x09	; 9
     e98:	0f b6       	in	r0, 0x3f	; 63
     e9a:	f8 94       	cli
     e9c:	de bf       	out	0x3e, r29	; 62
     e9e:	0f be       	out	0x3f, r0	; 63
     ea0:	cd bf       	out	0x3d, r28	; 61
     ea2:	df 91       	pop	r29
     ea4:	cf 91       	pop	r28
     ea6:	1f 91       	pop	r17
     ea8:	0f 91       	pop	r16
     eaa:	ff 90       	pop	r15
     eac:	ef 90       	pop	r14
     eae:	df 90       	pop	r13
     eb0:	cf 90       	pop	r12
     eb2:	bf 90       	pop	r11
     eb4:	af 90       	pop	r10
     eb6:	7f 90       	pop	r7
     eb8:	6f 90       	pop	r6
     eba:	5f 90       	pop	r5
     ebc:	4f 90       	pop	r4
     ebe:	3f 90       	pop	r3
     ec0:	2f 90       	pop	r2
     ec2:	08 95       	ret

00000ec4 <DrvLegInit>:
     ec4:	cf 92       	push	r12
     ec6:	df 92       	push	r13
     ec8:	ef 92       	push	r14
     eca:	ff 92       	push	r15
     ecc:	0f 93       	push	r16
     ece:	1f 93       	push	r17
     ed0:	cf 93       	push	r28
     ed2:	df 93       	push	r29
     ed4:	20 d5       	rcall	.+2624   	; 0x1916 <DrvServoInit>
     ed6:	10 92 fc 02 	sts	0x02FC, r1	; 0x8002fc <legIndexInitialization>
     eda:	10 92 01 03 	sts	0x0301, r1	; 0x800301 <legs>
     ede:	c1 e0       	ldi	r28, 0x01	; 1
     ee0:	d3 e0       	ldi	r29, 0x03	; 3
     ee2:	10 e0       	ldi	r17, 0x00	; 0
     ee4:	00 e0       	ldi	r16, 0x00	; 0
     ee6:	09 83       	std	Y+1, r16	; 0x01
     ee8:	1a 82       	std	Y+2, r1	; 0x02
     eea:	1b 82       	std	Y+3, r1	; 0x03
     eec:	1c 82       	std	Y+4, r1	; 0x04
     eee:	81 2f       	mov	r24, r17
     ef0:	fc d5       	rcall	.+3064   	; 0x1aea <DrvServoGetStruture>
     ef2:	9e 83       	std	Y+6, r25	; 0x06
     ef4:	8d 83       	std	Y+5, r24	; 0x05
     ef6:	dc 01       	movw	r26, r24
     ef8:	1c 93       	st	X, r17
     efa:	ff 24       	eor	r15, r15
     efc:	f3 94       	inc	r15
     efe:	f1 0e       	add	r15, r17
     f00:	8f 2d       	mov	r24, r15
     f02:	f3 d5       	rcall	.+3046   	; 0x1aea <DrvServoGetStruture>
     f04:	98 87       	std	Y+8, r25	; 0x08
     f06:	8f 83       	std	Y+7, r24	; 0x07
     f08:	fc 01       	movw	r30, r24
     f0a:	f0 82       	st	Z, r15
     f0c:	68 94       	set
     f0e:	ff 24       	eor	r15, r15
     f10:	f1 f8       	bld	r15, 1
     f12:	f1 0e       	add	r15, r17
     f14:	8f 2d       	mov	r24, r15
     f16:	e9 d5       	rcall	.+3026   	; 0x1aea <DrvServoGetStruture>
     f18:	9a 87       	std	Y+10, r25	; 0x0a
     f1a:	89 87       	std	Y+9, r24	; 0x09
     f1c:	dc 01       	movw	r26, r24
     f1e:	fc 92       	st	X, r15
     f20:	0f 5f       	subi	r16, 0xFF	; 255
     f22:	aa 96       	adiw	r28, 0x2a	; 42
     f24:	1d 5f       	subi	r17, 0xFD	; 253
     f26:	06 30       	cpi	r16, 0x06	; 6
     f28:	f1 f6       	brne	.-68     	; 0xee6 <DrvLegInit+0x22>
     f2a:	e1 e0       	ldi	r30, 0x01	; 1
     f2c:	f3 e0       	ldi	r31, 0x03	; 3
     f2e:	c5 81       	ldd	r28, Z+5	; 0x05
     f30:	d6 81       	ldd	r29, Z+6	; 0x06
     f32:	0f 2e       	mov	r0, r31
     f34:	f8 e5       	ldi	r31, 0x58	; 88
     f36:	cf 2e       	mov	r12, r31
     f38:	f2 e0       	ldi	r31, 0x02	; 2
     f3a:	df 2e       	mov	r13, r31
     f3c:	f0 2d       	mov	r31, r0
     f3e:	db 82       	std	Y+3, r13	; 0x03
     f40:	ca 82       	std	Y+2, r12	; 0x02
     f42:	c5 81       	ldd	r28, Z+5	; 0x05
     f44:	d6 81       	ldd	r29, Z+6	; 0x06
     f46:	8e e5       	ldi	r24, 0x5E	; 94
     f48:	91 e0       	ldi	r25, 0x01	; 1
     f4a:	9b 87       	std	Y+11, r25	; 0x0b
     f4c:	8a 87       	std	Y+10, r24	; 0x0a
     f4e:	df 82       	std	Y+7, r13	; 0x07
     f50:	ce 82       	std	Y+6, r12	; 0x06
     f52:	c5 81       	ldd	r28, Z+5	; 0x05
     f54:	d6 81       	ldd	r29, Z+6	; 0x06
     f56:	9d 83       	std	Y+5, r25	; 0x05
     f58:	8c 83       	std	Y+4, r24	; 0x04
     f5a:	c5 81       	ldd	r28, Z+5	; 0x05
     f5c:	d6 81       	ldd	r29, Z+6	; 0x06
     f5e:	82 e5       	ldi	r24, 0x52	; 82
     f60:	93 e0       	ldi	r25, 0x03	; 3
     f62:	99 87       	std	Y+9, r25	; 0x09
     f64:	88 87       	std	Y+8, r24	; 0x08
     f66:	c7 81       	ldd	r28, Z+7	; 0x07
     f68:	d0 85       	ldd	r29, Z+8	; 0x08
     f6a:	20 eb       	ldi	r18, 0xB0	; 176
     f6c:	3f ef       	ldi	r19, 0xFF	; 255
     f6e:	3b 83       	std	Y+3, r19	; 0x03
     f70:	2a 83       	std	Y+2, r18	; 0x02
     f72:	c7 81       	ldd	r28, Z+7	; 0x07
     f74:	d0 85       	ldd	r29, Z+8	; 0x08
     f76:	3b 87       	std	Y+11, r19	; 0x0b
     f78:	2a 87       	std	Y+10, r18	; 0x0a
     f7a:	8e ee       	ldi	r24, 0xEE	; 238
     f7c:	9d ef       	ldi	r25, 0xFD	; 253
     f7e:	9f 83       	std	Y+7, r25	; 0x07
     f80:	8e 83       	std	Y+6, r24	; 0x06
     f82:	c7 81       	ldd	r28, Z+7	; 0x07
     f84:	d0 85       	ldd	r29, Z+8	; 0x08
     f86:	8c e2       	ldi	r24, 0x2C	; 44
     f88:	9c ef       	ldi	r25, 0xFC	; 252
     f8a:	9d 83       	std	Y+5, r25	; 0x05
     f8c:	8c 83       	std	Y+4, r24	; 0x04
     f8e:	c7 81       	ldd	r28, Z+7	; 0x07
     f90:	d0 85       	ldd	r29, Z+8	; 0x08
     f92:	39 87       	std	Y+9, r19	; 0x09
     f94:	28 87       	std	Y+8, r18	; 0x08
     f96:	c1 85       	ldd	r28, Z+9	; 0x09
     f98:	d2 85       	ldd	r29, Z+10	; 0x0a
     f9a:	84 e8       	ldi	r24, 0x84	; 132
     f9c:	93 e0       	ldi	r25, 0x03	; 3
     f9e:	9b 83       	std	Y+3, r25	; 0x03
     fa0:	8a 83       	std	Y+2, r24	; 0x02
     fa2:	c1 85       	ldd	r28, Z+9	; 0x09
     fa4:	d2 85       	ldd	r29, Z+10	; 0x0a
     fa6:	9b 87       	std	Y+11, r25	; 0x0b
     fa8:	8a 87       	std	Y+10, r24	; 0x0a
     faa:	c1 85       	ldd	r28, Z+9	; 0x09
     fac:	d2 85       	ldd	r29, Z+10	; 0x0a
     fae:	68 ec       	ldi	r22, 0xC8	; 200
     fb0:	70 e0       	ldi	r23, 0x00	; 0
     fb2:	7f 83       	std	Y+7, r23	; 0x07
     fb4:	6e 83       	std	Y+6, r22	; 0x06
     fb6:	c1 85       	ldd	r28, Z+9	; 0x09
     fb8:	d2 85       	ldd	r29, Z+10	; 0x0a
     fba:	4c e0       	ldi	r20, 0x0C	; 12
     fbc:	5e ef       	ldi	r21, 0xFE	; 254
     fbe:	5d 83       	std	Y+5, r21	; 0x05
     fc0:	4c 83       	std	Y+4, r20	; 0x04
     fc2:	c1 85       	ldd	r28, Z+9	; 0x09
     fc4:	d2 85       	ldd	r29, Z+10	; 0x0a
     fc6:	99 87       	std	Y+9, r25	; 0x09
     fc8:	88 87       	std	Y+8, r24	; 0x08
     fca:	07 a5       	ldd	r16, Z+47	; 0x2f
     fcc:	10 a9       	ldd	r17, Z+48	; 0x30
     fce:	c2 e3       	ldi	r28, 0x32	; 50
     fd0:	d0 e0       	ldi	r29, 0x00	; 0
     fd2:	d8 01       	movw	r26, r16
     fd4:	13 96       	adiw	r26, 0x03	; 3
     fd6:	dc 93       	st	X, r29
     fd8:	ce 93       	st	-X, r28
     fda:	12 97       	sbiw	r26, 0x02	; 2
     fdc:	07 a5       	ldd	r16, Z+47	; 0x2f
     fde:	10 a9       	ldd	r17, Z+48	; 0x30
     fe0:	d8 01       	movw	r26, r16
     fe2:	1b 96       	adiw	r26, 0x0b	; 11
     fe4:	dc 93       	st	X, r29
     fe6:	ce 93       	st	-X, r28
     fe8:	1a 97       	sbiw	r26, 0x0a	; 10
     fea:	07 a5       	ldd	r16, Z+47	; 0x2f
     fec:	10 a9       	ldd	r17, Z+48	; 0x30
     fee:	d8 01       	movw	r26, r16
     ff0:	17 96       	adiw	r26, 0x07	; 7
     ff2:	dc 93       	st	X, r29
     ff4:	ce 93       	st	-X, r28
     ff6:	16 97       	sbiw	r26, 0x06	; 6
     ff8:	c7 a5       	ldd	r28, Z+47	; 0x2f
     ffa:	d0 a9       	ldd	r29, Z+48	; 0x30
     ffc:	08 e3       	ldi	r16, 0x38	; 56
     ffe:	1f ef       	ldi	r17, 0xFF	; 255
    1000:	1d 83       	std	Y+5, r17	; 0x05
    1002:	0c 83       	std	Y+4, r16	; 0x04
    1004:	c7 a5       	ldd	r28, Z+47	; 0x2f
    1006:	d0 a9       	ldd	r29, Z+48	; 0x30
    1008:	0c e2       	ldi	r16, 0x2C	; 44
    100a:	11 e0       	ldi	r17, 0x01	; 1
    100c:	19 87       	std	Y+9, r17	; 0x09
    100e:	08 87       	std	Y+8, r16	; 0x08
    1010:	01 a9       	ldd	r16, Z+49	; 0x31
    1012:	12 a9       	ldd	r17, Z+50	; 0x32
    1014:	ca e6       	ldi	r28, 0x6A	; 106
    1016:	df ef       	ldi	r29, 0xFF	; 255
    1018:	d8 01       	movw	r26, r16
    101a:	13 96       	adiw	r26, 0x03	; 3
    101c:	dc 93       	st	X, r29
    101e:	ce 93       	st	-X, r28
    1020:	12 97       	sbiw	r26, 0x02	; 2
    1022:	01 a9       	ldd	r16, Z+49	; 0x31
    1024:	12 a9       	ldd	r17, Z+50	; 0x32
    1026:	d8 01       	movw	r26, r16
    1028:	1b 96       	adiw	r26, 0x0b	; 11
    102a:	dc 93       	st	X, r29
    102c:	ce 93       	st	-X, r28
    102e:	1a 97       	sbiw	r26, 0x0a	; 10
    1030:	01 a9       	ldd	r16, Z+49	; 0x31
    1032:	12 a9       	ldd	r17, Z+50	; 0x32
    1034:	0f 2e       	mov	r0, r31
    1036:	f8 ea       	ldi	r31, 0xA8	; 168
    1038:	ef 2e       	mov	r14, r31
    103a:	fd ef       	ldi	r31, 0xFD	; 253
    103c:	ff 2e       	mov	r15, r31
    103e:	f0 2d       	mov	r31, r0
    1040:	d8 01       	movw	r26, r16
    1042:	17 96       	adiw	r26, 0x07	; 7
    1044:	fc 92       	st	X, r15
    1046:	ee 92       	st	-X, r14
    1048:	16 97       	sbiw	r26, 0x06	; 6
    104a:	01 a9       	ldd	r16, Z+49	; 0x31
    104c:	12 a9       	ldd	r17, Z+50	; 0x32
    104e:	0f 2e       	mov	r0, r31
    1050:	f6 ee       	ldi	r31, 0xE6	; 230
    1052:	ef 2e       	mov	r14, r31
    1054:	fb ef       	ldi	r31, 0xFB	; 251
    1056:	ff 2e       	mov	r15, r31
    1058:	f0 2d       	mov	r31, r0
    105a:	d8 01       	movw	r26, r16
    105c:	15 96       	adiw	r26, 0x05	; 5
    105e:	fc 92       	st	X, r15
    1060:	ee 92       	st	-X, r14
    1062:	14 97       	sbiw	r26, 0x04	; 4
    1064:	01 a9       	ldd	r16, Z+49	; 0x31
    1066:	12 a9       	ldd	r17, Z+50	; 0x32
    1068:	d8 01       	movw	r26, r16
    106a:	19 96       	adiw	r26, 0x09	; 9
    106c:	dc 93       	st	X, r29
    106e:	ce 93       	st	-X, r28
    1070:	18 97       	sbiw	r26, 0x08	; 8
    1072:	c3 a9       	ldd	r28, Z+51	; 0x33
    1074:	d4 a9       	ldd	r29, Z+52	; 0x34
    1076:	9b 83       	std	Y+3, r25	; 0x03
    1078:	8a 83       	std	Y+2, r24	; 0x02
    107a:	c3 a9       	ldd	r28, Z+51	; 0x33
    107c:	d4 a9       	ldd	r29, Z+52	; 0x34
    107e:	9b 87       	std	Y+11, r25	; 0x0b
    1080:	8a 87       	std	Y+10, r24	; 0x0a
    1082:	c3 a9       	ldd	r28, Z+51	; 0x33
    1084:	d4 a9       	ldd	r29, Z+52	; 0x34
    1086:	7f 83       	std	Y+7, r23	; 0x07
    1088:	6e 83       	std	Y+6, r22	; 0x06
    108a:	c3 a9       	ldd	r28, Z+51	; 0x33
    108c:	d4 a9       	ldd	r29, Z+52	; 0x34
    108e:	5d 83       	std	Y+5, r21	; 0x05
    1090:	4c 83       	std	Y+4, r20	; 0x04
    1092:	03 a8       	ldd	r0, Z+51	; 0x33
    1094:	f4 a9       	ldd	r31, Z+52	; 0x34
    1096:	e0 2d       	mov	r30, r0
    1098:	91 87       	std	Z+9, r25	; 0x09
    109a:	80 87       	std	Z+8, r24	; 0x08
    109c:	ea e5       	ldi	r30, 0x5A	; 90
    109e:	f3 e0       	ldi	r31, 0x03	; 3
    10a0:	c0 81       	ld	r28, Z
    10a2:	d1 81       	ldd	r29, Z+1	; 0x01
    10a4:	02 ef       	ldi	r16, 0xF2	; 242
    10a6:	1e ef       	ldi	r17, 0xFE	; 254
    10a8:	1b 83       	std	Y+3, r17	; 0x03
    10aa:	0a 83       	std	Y+2, r16	; 0x02
    10ac:	e0 80       	ld	r14, Z
    10ae:	f1 80       	ldd	r15, Z+1	; 0x01
    10b0:	cc ee       	ldi	r28, 0xEC	; 236
    10b2:	df ef       	ldi	r29, 0xFF	; 255
    10b4:	d7 01       	movw	r26, r14
    10b6:	1b 96       	adiw	r26, 0x0b	; 11
    10b8:	dc 93       	st	X, r29
    10ba:	ce 93       	st	-X, r28
    10bc:	1a 97       	sbiw	r26, 0x0a	; 10
    10be:	e0 80       	ld	r14, Z
    10c0:	f1 80       	ldd	r15, Z+1	; 0x01
    10c2:	d7 01       	movw	r26, r14
    10c4:	17 96       	adiw	r26, 0x07	; 7
    10c6:	1c 93       	st	X, r17
    10c8:	0e 93       	st	-X, r16
    10ca:	16 97       	sbiw	r26, 0x06	; 6
    10cc:	00 81       	ld	r16, Z
    10ce:	11 81       	ldd	r17, Z+1	; 0x01
    10d0:	0f 2e       	mov	r0, r31
    10d2:	f8 ef       	ldi	r31, 0xF8	; 248
    10d4:	ef 2e       	mov	r14, r31
    10d6:	fd ef       	ldi	r31, 0xFD	; 253
    10d8:	ff 2e       	mov	r15, r31
    10da:	f0 2d       	mov	r31, r0
    10dc:	d8 01       	movw	r26, r16
    10de:	15 96       	adiw	r26, 0x05	; 5
    10e0:	fc 92       	st	X, r15
    10e2:	ee 92       	st	-X, r14
    10e4:	14 97       	sbiw	r26, 0x04	; 4
    10e6:	01 90       	ld	r0, Z+
    10e8:	f0 81       	ld	r31, Z
    10ea:	e0 2d       	mov	r30, r0
    10ec:	d1 87       	std	Z+9, r29	; 0x09
    10ee:	c0 87       	std	Z+8, r28	; 0x08
    10f0:	ec e5       	ldi	r30, 0x5C	; 92
    10f2:	f3 e0       	ldi	r31, 0x03	; 3
    10f4:	00 81       	ld	r16, Z
    10f6:	11 81       	ldd	r17, Z+1	; 0x01
    10f8:	cc e9       	ldi	r28, 0x9C	; 156
    10fa:	df ef       	ldi	r29, 0xFF	; 255
    10fc:	d8 01       	movw	r26, r16
    10fe:	13 96       	adiw	r26, 0x03	; 3
    1100:	dc 93       	st	X, r29
    1102:	ce 93       	st	-X, r28
    1104:	12 97       	sbiw	r26, 0x02	; 2
    1106:	00 81       	ld	r16, Z
    1108:	11 81       	ldd	r17, Z+1	; 0x01
    110a:	d8 01       	movw	r26, r16
    110c:	1b 96       	adiw	r26, 0x0b	; 11
    110e:	dc 93       	st	X, r29
    1110:	ce 93       	st	-X, r28
    1112:	1a 97       	sbiw	r26, 0x0a	; 10
    1114:	00 81       	ld	r16, Z
    1116:	11 81       	ldd	r17, Z+1	; 0x01
    1118:	0f 2e       	mov	r0, r31
    111a:	fa ed       	ldi	r31, 0xDA	; 218
    111c:	ef 2e       	mov	r14, r31
    111e:	fd ef       	ldi	r31, 0xFD	; 253
    1120:	ff 2e       	mov	r15, r31
    1122:	f0 2d       	mov	r31, r0
    1124:	d8 01       	movw	r26, r16
    1126:	17 96       	adiw	r26, 0x07	; 7
    1128:	fc 92       	st	X, r15
    112a:	ee 92       	st	-X, r14
    112c:	16 97       	sbiw	r26, 0x06	; 6
    112e:	00 81       	ld	r16, Z
    1130:	11 81       	ldd	r17, Z+1	; 0x01
    1132:	0f 2e       	mov	r0, r31
    1134:	f8 e1       	ldi	r31, 0x18	; 24
    1136:	ef 2e       	mov	r14, r31
    1138:	fc ef       	ldi	r31, 0xFC	; 252
    113a:	ff 2e       	mov	r15, r31
    113c:	f0 2d       	mov	r31, r0
    113e:	d8 01       	movw	r26, r16
    1140:	15 96       	adiw	r26, 0x05	; 5
    1142:	fc 92       	st	X, r15
    1144:	ee 92       	st	-X, r14
    1146:	14 97       	sbiw	r26, 0x04	; 4
    1148:	01 90       	ld	r0, Z+
    114a:	f0 81       	ld	r31, Z
    114c:	e0 2d       	mov	r30, r0
    114e:	d1 87       	std	Z+9, r29	; 0x09
    1150:	c0 87       	std	Z+8, r28	; 0x08
    1152:	ee e5       	ldi	r30, 0x5E	; 94
    1154:	f3 e0       	ldi	r31, 0x03	; 3
    1156:	00 81       	ld	r16, Z
    1158:	11 81       	ldd	r17, Z+1	; 0x01
    115a:	d8 01       	movw	r26, r16
    115c:	13 96       	adiw	r26, 0x03	; 3
    115e:	9c 93       	st	X, r25
    1160:	8e 93       	st	-X, r24
    1162:	12 97       	sbiw	r26, 0x02	; 2
    1164:	00 81       	ld	r16, Z
    1166:	11 81       	ldd	r17, Z+1	; 0x01
    1168:	d8 01       	movw	r26, r16
    116a:	1b 96       	adiw	r26, 0x0b	; 11
    116c:	9c 93       	st	X, r25
    116e:	8e 93       	st	-X, r24
    1170:	1a 97       	sbiw	r26, 0x0a	; 10
    1172:	00 81       	ld	r16, Z
    1174:	11 81       	ldd	r17, Z+1	; 0x01
    1176:	d8 01       	movw	r26, r16
    1178:	17 96       	adiw	r26, 0x07	; 7
    117a:	7c 93       	st	X, r23
    117c:	6e 93       	st	-X, r22
    117e:	16 97       	sbiw	r26, 0x06	; 6
    1180:	60 81       	ld	r22, Z
    1182:	71 81       	ldd	r23, Z+1	; 0x01
    1184:	db 01       	movw	r26, r22
    1186:	15 96       	adiw	r26, 0x05	; 5
    1188:	5c 93       	st	X, r21
    118a:	4e 93       	st	-X, r20
    118c:	14 97       	sbiw	r26, 0x04	; 4
    118e:	01 90       	ld	r0, Z+
    1190:	f0 81       	ld	r31, Z
    1192:	e0 2d       	mov	r30, r0
    1194:	91 87       	std	Z+9, r25	; 0x09
    1196:	80 87       	std	Z+8, r24	; 0x08
    1198:	e4 e8       	ldi	r30, 0x84	; 132
    119a:	f3 e0       	ldi	r31, 0x03	; 3
    119c:	80 81       	ld	r24, Z
    119e:	91 81       	ldd	r25, Z+1	; 0x01
    11a0:	4e e8       	ldi	r20, 0x8E	; 142
    11a2:	5e ef       	ldi	r21, 0xFE	; 254
    11a4:	dc 01       	movw	r26, r24
    11a6:	13 96       	adiw	r26, 0x03	; 3
    11a8:	5c 93       	st	X, r21
    11aa:	4e 93       	st	-X, r20
    11ac:	12 97       	sbiw	r26, 0x02	; 2
    11ae:	60 81       	ld	r22, Z
    11b0:	71 81       	ldd	r23, Z+1	; 0x01
    11b2:	88 e8       	ldi	r24, 0x88	; 136
    11b4:	9f ef       	ldi	r25, 0xFF	; 255
    11b6:	db 01       	movw	r26, r22
    11b8:	1b 96       	adiw	r26, 0x0b	; 11
    11ba:	9c 93       	st	X, r25
    11bc:	8e 93       	st	-X, r24
    11be:	1a 97       	sbiw	r26, 0x0a	; 10
    11c0:	60 81       	ld	r22, Z
    11c2:	71 81       	ldd	r23, Z+1	; 0x01
    11c4:	db 01       	movw	r26, r22
    11c6:	17 96       	adiw	r26, 0x07	; 7
    11c8:	5c 93       	st	X, r21
    11ca:	4e 93       	st	-X, r20
    11cc:	16 97       	sbiw	r26, 0x06	; 6
    11ce:	40 81       	ld	r20, Z
    11d0:	51 81       	ldd	r21, Z+1	; 0x01
    11d2:	64 e9       	ldi	r22, 0x94	; 148
    11d4:	7d ef       	ldi	r23, 0xFD	; 253
    11d6:	da 01       	movw	r26, r20
    11d8:	15 96       	adiw	r26, 0x05	; 5
    11da:	7c 93       	st	X, r23
    11dc:	6e 93       	st	-X, r22
    11de:	14 97       	sbiw	r26, 0x04	; 4
    11e0:	01 90       	ld	r0, Z+
    11e2:	f0 81       	ld	r31, Z
    11e4:	e0 2d       	mov	r30, r0
    11e6:	91 87       	std	Z+9, r25	; 0x09
    11e8:	80 87       	std	Z+8, r24	; 0x08
    11ea:	e6 e8       	ldi	r30, 0x86	; 134
    11ec:	f3 e0       	ldi	r31, 0x03	; 3
    11ee:	40 81       	ld	r20, Z
    11f0:	51 81       	ldd	r21, Z+1	; 0x01
    11f2:	8c e3       	ldi	r24, 0x3C	; 60
    11f4:	90 e0       	ldi	r25, 0x00	; 0
    11f6:	da 01       	movw	r26, r20
    11f8:	13 96       	adiw	r26, 0x03	; 3
    11fa:	9c 93       	st	X, r25
    11fc:	8e 93       	st	-X, r24
    11fe:	12 97       	sbiw	r26, 0x02	; 2
    1200:	40 81       	ld	r20, Z
    1202:	51 81       	ldd	r21, Z+1	; 0x01
    1204:	da 01       	movw	r26, r20
    1206:	1b 96       	adiw	r26, 0x0b	; 11
    1208:	9c 93       	st	X, r25
    120a:	8e 93       	st	-X, r24
    120c:	1a 97       	sbiw	r26, 0x0a	; 10
    120e:	60 81       	ld	r22, Z
    1210:	71 81       	ldd	r23, Z+1	; 0x01
    1212:	4e ef       	ldi	r20, 0xFE	; 254
    1214:	51 e0       	ldi	r21, 0x01	; 1
    1216:	db 01       	movw	r26, r22
    1218:	17 96       	adiw	r26, 0x07	; 7
    121a:	5c 93       	st	X, r21
    121c:	4e 93       	st	-X, r20
    121e:	16 97       	sbiw	r26, 0x06	; 6
    1220:	60 81       	ld	r22, Z
    1222:	71 81       	ldd	r23, Z+1	; 0x01
    1224:	db 01       	movw	r26, r22
    1226:	15 96       	adiw	r26, 0x05	; 5
    1228:	9c 93       	st	X, r25
    122a:	8e 93       	st	-X, r24
    122c:	14 97       	sbiw	r26, 0x04	; 4
    122e:	01 90       	ld	r0, Z+
    1230:	f0 81       	ld	r31, Z
    1232:	e0 2d       	mov	r30, r0
    1234:	60 ec       	ldi	r22, 0xC0	; 192
    1236:	73 e0       	ldi	r23, 0x03	; 3
    1238:	71 87       	std	Z+9, r23	; 0x09
    123a:	60 87       	std	Z+8, r22	; 0x08
    123c:	e8 e8       	ldi	r30, 0x88	; 136
    123e:	f3 e0       	ldi	r31, 0x03	; 3
    1240:	e0 80       	ld	r14, Z
    1242:	f1 80       	ldd	r15, Z+1	; 0x01
    1244:	00 ee       	ldi	r16, 0xE0	; 224
    1246:	1c ef       	ldi	r17, 0xFC	; 252
    1248:	d7 01       	movw	r26, r14
    124a:	13 96       	adiw	r26, 0x03	; 3
    124c:	1c 93       	st	X, r17
    124e:	0e 93       	st	-X, r16
    1250:	12 97       	sbiw	r26, 0x02	; 2
    1252:	e0 80       	ld	r14, Z
    1254:	f1 80       	ldd	r15, Z+1	; 0x01
    1256:	d7 01       	movw	r26, r14
    1258:	1b 96       	adiw	r26, 0x0b	; 11
    125a:	1c 93       	st	X, r17
    125c:	0e 93       	st	-X, r16
    125e:	1a 97       	sbiw	r26, 0x0a	; 10
    1260:	e0 80       	ld	r14, Z
    1262:	f1 80       	ldd	r15, Z+1	; 0x01
    1264:	d7 01       	movw	r26, r14
    1266:	17 96       	adiw	r26, 0x07	; 7
    1268:	dc 93       	st	X, r29
    126a:	ce 93       	st	-X, r28
    126c:	16 97       	sbiw	r26, 0x06	; 6
    126e:	c0 81       	ld	r28, Z
    1270:	d1 81       	ldd	r29, Z+1	; 0x01
    1272:	1d 83       	std	Y+5, r17	; 0x05
    1274:	0c 83       	std	Y+4, r16	; 0x04
    1276:	01 90       	ld	r0, Z+
    1278:	f0 81       	ld	r31, Z
    127a:	e0 2d       	mov	r30, r0
    127c:	d1 86       	std	Z+9, r13	; 0x09
    127e:	c0 86       	std	Z+8, r12	; 0x08
    1280:	ee ea       	ldi	r30, 0xAE	; 174
    1282:	f3 e0       	ldi	r31, 0x03	; 3
    1284:	a0 81       	ld	r26, Z
    1286:	b1 81       	ldd	r27, Z+1	; 0x01
    1288:	13 96       	adiw	r26, 0x03	; 3
    128a:	3c 93       	st	X, r19
    128c:	2e 93       	st	-X, r18
    128e:	12 97       	sbiw	r26, 0x02	; 2
    1290:	a0 81       	ld	r26, Z
    1292:	b1 81       	ldd	r27, Z+1	; 0x01
    1294:	1b 96       	adiw	r26, 0x0b	; 11
    1296:	3c 93       	st	X, r19
    1298:	2e 93       	st	-X, r18
    129a:	1a 97       	sbiw	r26, 0x0a	; 10
    129c:	a0 81       	ld	r26, Z
    129e:	b1 81       	ldd	r27, Z+1	; 0x01
    12a0:	17 96       	adiw	r26, 0x07	; 7
    12a2:	3c 93       	st	X, r19
    12a4:	2e 93       	st	-X, r18
    12a6:	16 97       	sbiw	r26, 0x06	; 6
    12a8:	a0 81       	ld	r26, Z
    12aa:	b1 81       	ldd	r27, Z+1	; 0x01
    12ac:	26 eb       	ldi	r18, 0xB6	; 182
    12ae:	3e ef       	ldi	r19, 0xFE	; 254
    12b0:	15 96       	adiw	r26, 0x05	; 5
    12b2:	3c 93       	st	X, r19
    12b4:	2e 93       	st	-X, r18
    12b6:	14 97       	sbiw	r26, 0x04	; 4
    12b8:	01 90       	ld	r0, Z+
    12ba:	f0 81       	ld	r31, Z
    12bc:	e0 2d       	mov	r30, r0
    12be:	2a ea       	ldi	r18, 0xAA	; 170
    12c0:	30 e0       	ldi	r19, 0x00	; 0
    12c2:	31 87       	std	Z+9, r19	; 0x09
    12c4:	20 87       	std	Z+8, r18	; 0x08
    12c6:	e0 eb       	ldi	r30, 0xB0	; 176
    12c8:	f3 e0       	ldi	r31, 0x03	; 3
    12ca:	a0 81       	ld	r26, Z
    12cc:	b1 81       	ldd	r27, Z+1	; 0x01
    12ce:	26 e4       	ldi	r18, 0x46	; 70
    12d0:	30 e0       	ldi	r19, 0x00	; 0
    12d2:	13 96       	adiw	r26, 0x03	; 3
    12d4:	3c 93       	st	X, r19
    12d6:	2e 93       	st	-X, r18
    12d8:	12 97       	sbiw	r26, 0x02	; 2
    12da:	a0 81       	ld	r26, Z
    12dc:	b1 81       	ldd	r27, Z+1	; 0x01
    12de:	1b 96       	adiw	r26, 0x0b	; 11
    12e0:	3c 93       	st	X, r19
    12e2:	2e 93       	st	-X, r18
    12e4:	1a 97       	sbiw	r26, 0x0a	; 10
    12e6:	a0 81       	ld	r26, Z
    12e8:	b1 81       	ldd	r27, Z+1	; 0x01
    12ea:	c8 e0       	ldi	r28, 0x08	; 8
    12ec:	d2 e0       	ldi	r29, 0x02	; 2
    12ee:	17 96       	adiw	r26, 0x07	; 7
    12f0:	dc 93       	st	X, r29
    12f2:	ce 93       	st	-X, r28
    12f4:	16 97       	sbiw	r26, 0x06	; 6
    12f6:	a0 81       	ld	r26, Z
    12f8:	b1 81       	ldd	r27, Z+1	; 0x01
    12fa:	15 96       	adiw	r26, 0x05	; 5
    12fc:	3c 93       	st	X, r19
    12fe:	2e 93       	st	-X, r18
    1300:	14 97       	sbiw	r26, 0x04	; 4
    1302:	01 90       	ld	r0, Z+
    1304:	f0 81       	ld	r31, Z
    1306:	e0 2d       	mov	r30, r0
    1308:	2a ec       	ldi	r18, 0xCA	; 202
    130a:	33 e0       	ldi	r19, 0x03	; 3
    130c:	31 87       	std	Z+9, r19	; 0x09
    130e:	20 87       	std	Z+8, r18	; 0x08
    1310:	e2 eb       	ldi	r30, 0xB2	; 178
    1312:	f3 e0       	ldi	r31, 0x03	; 3
    1314:	a0 81       	ld	r26, Z
    1316:	b1 81       	ldd	r27, Z+1	; 0x01
    1318:	28 e0       	ldi	r18, 0x08	; 8
    131a:	3d ef       	ldi	r19, 0xFD	; 253
    131c:	13 96       	adiw	r26, 0x03	; 3
    131e:	3c 93       	st	X, r19
    1320:	2e 93       	st	-X, r18
    1322:	12 97       	sbiw	r26, 0x02	; 2
    1324:	a0 81       	ld	r26, Z
    1326:	b1 81       	ldd	r27, Z+1	; 0x01
    1328:	1b 96       	adiw	r26, 0x0b	; 11
    132a:	3c 93       	st	X, r19
    132c:	2e 93       	st	-X, r18
    132e:	1a 97       	sbiw	r26, 0x0a	; 10
    1330:	a0 81       	ld	r26, Z
    1332:	b1 81       	ldd	r27, Z+1	; 0x01
    1334:	c4 ec       	ldi	r28, 0xC4	; 196
    1336:	df ef       	ldi	r29, 0xFF	; 255
    1338:	17 96       	adiw	r26, 0x07	; 7
    133a:	dc 93       	st	X, r29
    133c:	ce 93       	st	-X, r28
    133e:	16 97       	sbiw	r26, 0x06	; 6
    1340:	a0 81       	ld	r26, Z
    1342:	b1 81       	ldd	r27, Z+1	; 0x01
    1344:	15 96       	adiw	r26, 0x05	; 5
    1346:	3c 93       	st	X, r19
    1348:	2e 93       	st	-X, r18
    134a:	14 97       	sbiw	r26, 0x04	; 4
    134c:	01 90       	ld	r0, Z+
    134e:	f0 81       	ld	r31, Z
    1350:	e0 2d       	mov	r30, r0
    1352:	20 e8       	ldi	r18, 0x80	; 128
    1354:	32 e0       	ldi	r19, 0x02	; 2
    1356:	31 87       	std	Z+9, r19	; 0x09
    1358:	20 87       	std	Z+8, r18	; 0x08
    135a:	e8 ed       	ldi	r30, 0xD8	; 216
    135c:	f3 e0       	ldi	r31, 0x03	; 3
    135e:	c0 81       	ld	r28, Z
    1360:	d1 81       	ldd	r29, Z+1	; 0x01
    1362:	aa e5       	ldi	r26, 0x5A	; 90
    1364:	b0 e0       	ldi	r27, 0x00	; 0
    1366:	bb 83       	std	Y+3, r27	; 0x03
    1368:	aa 83       	std	Y+2, r26	; 0x02
    136a:	c0 81       	ld	r28, Z
    136c:	d1 81       	ldd	r29, Z+1	; 0x01
    136e:	20 e6       	ldi	r18, 0x60	; 96
    1370:	3f ef       	ldi	r19, 0xFF	; 255
    1372:	3b 87       	std	Y+11, r19	; 0x0b
    1374:	2a 87       	std	Y+10, r18	; 0x0a
    1376:	c0 81       	ld	r28, Z
    1378:	d1 81       	ldd	r29, Z+1	; 0x01
    137a:	bf 83       	std	Y+7, r27	; 0x07
    137c:	ae 83       	std	Y+6, r26	; 0x06
    137e:	a0 81       	ld	r26, Z
    1380:	b1 81       	ldd	r27, Z+1	; 0x01
    1382:	15 96       	adiw	r26, 0x05	; 5
    1384:	3c 93       	st	X, r19
    1386:	2e 93       	st	-X, r18
    1388:	14 97       	sbiw	r26, 0x04	; 4
    138a:	01 90       	ld	r0, Z+
    138c:	f0 81       	ld	r31, Z
    138e:	e0 2d       	mov	r30, r0
    1390:	a4 e5       	ldi	r26, 0x54	; 84
    1392:	b1 e0       	ldi	r27, 0x01	; 1
    1394:	b1 87       	std	Z+9, r27	; 0x09
    1396:	a0 87       	std	Z+8, r26	; 0x08
    1398:	ea ed       	ldi	r30, 0xDA	; 218
    139a:	f3 e0       	ldi	r31, 0x03	; 3
    139c:	a0 81       	ld	r26, Z
    139e:	b1 81       	ldd	r27, Z+1	; 0x01
    13a0:	13 96       	adiw	r26, 0x03	; 3
    13a2:	9c 93       	st	X, r25
    13a4:	8e 93       	st	-X, r24
    13a6:	12 97       	sbiw	r26, 0x02	; 2
    13a8:	a0 81       	ld	r26, Z
    13aa:	b1 81       	ldd	r27, Z+1	; 0x01
    13ac:	1b 96       	adiw	r26, 0x0b	; 11
    13ae:	9c 93       	st	X, r25
    13b0:	8e 93       	st	-X, r24
    13b2:	1a 97       	sbiw	r26, 0x0a	; 10
    13b4:	a0 81       	ld	r26, Z
    13b6:	b1 81       	ldd	r27, Z+1	; 0x01
    13b8:	17 96       	adiw	r26, 0x07	; 7
    13ba:	5c 93       	st	X, r21
    13bc:	4e 93       	st	-X, r20
    13be:	16 97       	sbiw	r26, 0x06	; 6
    13c0:	a0 81       	ld	r26, Z
    13c2:	b1 81       	ldd	r27, Z+1	; 0x01
    13c4:	15 96       	adiw	r26, 0x05	; 5
    13c6:	9c 93       	st	X, r25
    13c8:	8e 93       	st	-X, r24
    13ca:	14 97       	sbiw	r26, 0x04	; 4
    13cc:	01 90       	ld	r0, Z+
    13ce:	f0 81       	ld	r31, Z
    13d0:	e0 2d       	mov	r30, r0
    13d2:	71 87       	std	Z+9, r23	; 0x09
    13d4:	60 87       	std	Z+8, r22	; 0x08
    13d6:	ec ed       	ldi	r30, 0xDC	; 220
    13d8:	f3 e0       	ldi	r31, 0x03	; 3
    13da:	a0 81       	ld	r26, Z
    13dc:	b1 81       	ldd	r27, Z+1	; 0x01
    13de:	84 ea       	ldi	r24, 0xA4	; 164
    13e0:	9c ef       	ldi	r25, 0xFC	; 252
    13e2:	13 96       	adiw	r26, 0x03	; 3
    13e4:	9c 93       	st	X, r25
    13e6:	8e 93       	st	-X, r24
    13e8:	12 97       	sbiw	r26, 0x02	; 2
    13ea:	a0 81       	ld	r26, Z
    13ec:	b1 81       	ldd	r27, Z+1	; 0x01
    13ee:	1b 96       	adiw	r26, 0x0b	; 11
    13f0:	9c 93       	st	X, r25
    13f2:	8e 93       	st	-X, r24
    13f4:	1a 97       	sbiw	r26, 0x0a	; 10
    13f6:	a0 81       	ld	r26, Z
    13f8:	b1 81       	ldd	r27, Z+1	; 0x01
    13fa:	17 96       	adiw	r26, 0x07	; 7
    13fc:	3c 93       	st	X, r19
    13fe:	2e 93       	st	-X, r18
    1400:	16 97       	sbiw	r26, 0x06	; 6
    1402:	a0 81       	ld	r26, Z
    1404:	b1 81       	ldd	r27, Z+1	; 0x01
    1406:	15 96       	adiw	r26, 0x05	; 5
    1408:	9c 93       	st	X, r25
    140a:	8e 93       	st	-X, r24
    140c:	14 97       	sbiw	r26, 0x04	; 4
    140e:	01 90       	ld	r0, Z+
    1410:	f0 81       	ld	r31, Z
    1412:	e0 2d       	mov	r30, r0
    1414:	8c e1       	ldi	r24, 0x1C	; 28
    1416:	92 e0       	ldi	r25, 0x02	; 2
    1418:	91 87       	std	Z+9, r25	; 0x09
    141a:	80 87       	std	Z+8, r24	; 0x08
    141c:	81 e0       	ldi	r24, 0x01	; 1
    141e:	df 91       	pop	r29
    1420:	cf 91       	pop	r28
    1422:	1f 91       	pop	r17
    1424:	0f 91       	pop	r16
    1426:	ff 90       	pop	r15
    1428:	ef 90       	pop	r14
    142a:	df 90       	pop	r13
    142c:	cf 90       	pop	r12
    142e:	08 95       	ret

00001430 <DrvLegGetStruct>:
    1430:	2a e2       	ldi	r18, 0x2A	; 42
    1432:	82 9f       	mul	r24, r18
    1434:	c0 01       	movw	r24, r0
    1436:	11 24       	eor	r1, r1
    1438:	8e 5f       	subi	r24, 0xFE	; 254
    143a:	9c 4f       	sbci	r25, 0xFC	; 252
    143c:	08 95       	ret

0000143e <DrvLegSetTarget>:
    143e:	af 92       	push	r10
    1440:	bf 92       	push	r11
    1442:	cf 92       	push	r12
    1444:	df 92       	push	r13
    1446:	ef 92       	push	r14
    1448:	ff 92       	push	r15
    144a:	0f 93       	push	r16
    144c:	1f 93       	push	r17
    144e:	cf 93       	push	r28
    1450:	df 93       	push	r29
    1452:	cd b7       	in	r28, 0x3d	; 61
    1454:	de b7       	in	r29, 0x3e	; 62
    1456:	2c 97       	sbiw	r28, 0x0c	; 12
    1458:	0f b6       	in	r0, 0x3f	; 63
    145a:	f8 94       	cli
    145c:	de bf       	out	0x3e, r29	; 62
    145e:	0f be       	out	0x3f, r0	; 63
    1460:	cd bf       	out	0x3d, r28	; 61
    1462:	c9 82       	std	Y+1, r12	; 0x01
    1464:	da 82       	std	Y+2, r13	; 0x02
    1466:	eb 82       	std	Y+3, r14	; 0x03
    1468:	fc 82       	std	Y+4, r15	; 0x04
    146a:	0d 83       	std	Y+5, r16	; 0x05
    146c:	1e 83       	std	Y+6, r17	; 0x06
    146e:	2f 83       	std	Y+7, r18	; 0x07
    1470:	38 87       	std	Y+8, r19	; 0x08
    1472:	49 87       	std	Y+9, r20	; 0x09
    1474:	5a 87       	std	Y+10, r21	; 0x0a
    1476:	6b 87       	std	Y+11, r22	; 0x0b
    1478:	7c 87       	std	Y+12, r23	; 0x0c
    147a:	28 2f       	mov	r18, r24
    147c:	30 e0       	ldi	r19, 0x00	; 0
    147e:	9a e2       	ldi	r25, 0x2A	; 42
    1480:	89 9f       	mul	r24, r25
    1482:	f0 01       	movw	r30, r0
    1484:	11 24       	eor	r1, r1
    1486:	ef 5f       	subi	r30, 0xFF	; 255
    1488:	fc 4f       	sbci	r31, 0xFC	; 252
    148a:	84 81       	ldd	r24, Z+4	; 0x04
    148c:	81 11       	cpse	r24, r1
    148e:	31 c0       	rjmp	.+98     	; 0x14f2 <DrvLegSetTarget+0xb4>
    1490:	8a e2       	ldi	r24, 0x2A	; 42
    1492:	82 9f       	mul	r24, r18
    1494:	80 01       	movw	r16, r0
    1496:	83 9f       	mul	r24, r19
    1498:	10 0d       	add	r17, r0
    149a:	11 24       	eor	r1, r1
    149c:	0f 5f       	subi	r16, 0xFF	; 255
    149e:	1c 4f       	sbci	r17, 0xFC	; 252
    14a0:	89 81       	ldd	r24, Y+1	; 0x01
    14a2:	9a 81       	ldd	r25, Y+2	; 0x02
    14a4:	ab 81       	ldd	r26, Y+3	; 0x03
    14a6:	bc 81       	ldd	r27, Y+4	; 0x04
    14a8:	f8 01       	movw	r30, r16
    14aa:	87 8b       	std	Z+23, r24	; 0x17
    14ac:	90 8f       	std	Z+24, r25	; 0x18
    14ae:	a1 8f       	std	Z+25, r26	; 0x19
    14b0:	b2 8f       	std	Z+26, r27	; 0x1a
    14b2:	8d 81       	ldd	r24, Y+5	; 0x05
    14b4:	9e 81       	ldd	r25, Y+6	; 0x06
    14b6:	af 81       	ldd	r26, Y+7	; 0x07
    14b8:	b8 85       	ldd	r27, Y+8	; 0x08
    14ba:	83 8f       	std	Z+27, r24	; 0x1b
    14bc:	94 8f       	std	Z+28, r25	; 0x1c
    14be:	a5 8f       	std	Z+29, r26	; 0x1d
    14c0:	b6 8f       	std	Z+30, r27	; 0x1e
    14c2:	89 85       	ldd	r24, Y+9	; 0x09
    14c4:	9a 85       	ldd	r25, Y+10	; 0x0a
    14c6:	ab 85       	ldd	r26, Y+11	; 0x0b
    14c8:	bc 85       	ldd	r27, Y+12	; 0x0c
    14ca:	87 8f       	std	Z+31, r24	; 0x1f
    14cc:	90 a3       	std	Z+32, r25	; 0x20
    14ce:	a1 a3       	std	Z+33, r26	; 0x21
    14d0:	b2 a3       	std	Z+34, r27	; 0x22
    14d2:	6e d3       	rcall	.+1756   	; 0x1bb0 <DrvTickGetTimeMs>
    14d4:	f8 01       	movw	r30, r16
    14d6:	63 a3       	std	Z+35, r22	; 0x23
    14d8:	74 a3       	std	Z+36, r23	; 0x24
    14da:	85 a3       	std	Z+37, r24	; 0x25
    14dc:	96 a3       	std	Z+38, r25	; 0x26
    14de:	c5 01       	movw	r24, r10
    14e0:	a0 e0       	ldi	r26, 0x00	; 0
    14e2:	b0 e0       	ldi	r27, 0x00	; 0
    14e4:	87 a3       	std	Z+39, r24	; 0x27
    14e6:	90 a7       	std	Z+40, r25	; 0x28
    14e8:	a1 a7       	std	Z+41, r26	; 0x29
    14ea:	b2 a7       	std	Z+42, r27	; 0x2a
    14ec:	81 e0       	ldi	r24, 0x01	; 1
    14ee:	84 83       	std	Z+4, r24	; 0x04
    14f0:	01 c0       	rjmp	.+2      	; 0x14f4 <DrvLegSetTarget+0xb6>
    14f2:	80 e0       	ldi	r24, 0x00	; 0
    14f4:	2c 96       	adiw	r28, 0x0c	; 12
    14f6:	0f b6       	in	r0, 0x3f	; 63
    14f8:	f8 94       	cli
    14fa:	de bf       	out	0x3e, r29	; 62
    14fc:	0f be       	out	0x3f, r0	; 63
    14fe:	cd bf       	out	0x3d, r28	; 61
    1500:	df 91       	pop	r29
    1502:	cf 91       	pop	r28
    1504:	1f 91       	pop	r17
    1506:	0f 91       	pop	r16
    1508:	ff 90       	pop	r15
    150a:	ef 90       	pop	r14
    150c:	df 90       	pop	r13
    150e:	cf 90       	pop	r12
    1510:	bf 90       	pop	r11
    1512:	af 90       	pop	r10
    1514:	08 95       	ret

00001516 <DrvLegUpdate>:

Int32U prevMillisLegUpdate = 0U;
Boolean DrvLegUpdate( void )
{
    1516:	2f 92       	push	r2
    1518:	3f 92       	push	r3
    151a:	4f 92       	push	r4
    151c:	5f 92       	push	r5
    151e:	7f 92       	push	r7
    1520:	8f 92       	push	r8
    1522:	9f 92       	push	r9
    1524:	af 92       	push	r10
    1526:	bf 92       	push	r11
    1528:	cf 92       	push	r12
    152a:	df 92       	push	r13
    152c:	ef 92       	push	r14
    152e:	ff 92       	push	r15
    1530:	0f 93       	push	r16
    1532:	1f 93       	push	r17
    1534:	cf 93       	push	r28
    1536:	df 93       	push	r29
    1538:	cd b7       	in	r28, 0x3d	; 61
    153a:	de b7       	in	r29, 0x3e	; 62
    153c:	a0 97       	sbiw	r28, 0x20	; 32
    153e:	0f b6       	in	r0, 0x3f	; 63
    1540:	f8 94       	cli
    1542:	de bf       	out	0x3e, r29	; 62
    1544:	0f be       	out	0x3f, r0	; 63
    1546:	cd bf       	out	0x3d, r28	; 61
	//if servos are initializing 
	if (DrvLegIsInitialized() == FALSE)
    1548:	80 91 01 03 	lds	r24, 0x0301	; 0x800301 <legs>
    154c:	81 11       	cpse	r24, r1
    154e:	97 c0       	rjmp	.+302    	; 0x167e <DrvLegUpdate+0x168>
}

static void DrvLegInititalizing( void )
{
	//if initializing time
	if((DrvTickGetTimeMs() - prevMillisServosInitialize) > SERVO_INTIALIZATION_PERIOD)
    1550:	2f d3       	rcall	.+1630   	; 0x1bb0 <DrvTickGetTimeMs>
    1552:	00 91 fd 02 	lds	r16, 0x02FD	; 0x8002fd <prevMillisServosInitialize>
    1556:	10 91 fe 02 	lds	r17, 0x02FE	; 0x8002fe <prevMillisServosInitialize+0x1>
    155a:	20 91 ff 02 	lds	r18, 0x02FF	; 0x8002ff <prevMillisServosInitialize+0x2>
    155e:	30 91 00 03 	lds	r19, 0x0300	; 0x800300 <prevMillisServosInitialize+0x3>
    1562:	dc 01       	movw	r26, r24
    1564:	cb 01       	movw	r24, r22
    1566:	80 1b       	sub	r24, r16
    1568:	91 0b       	sbc	r25, r17
    156a:	a2 0b       	sbc	r26, r18
    156c:	b3 0b       	sbc	r27, r19
    156e:	8b 3f       	cpi	r24, 0xFB	; 251
    1570:	91 05       	cpc	r25, r1
    1572:	a1 05       	cpc	r26, r1
    1574:	b1 05       	cpc	r27, r1
    1576:	08 f4       	brcc	.+2      	; 0x157a <DrvLegUpdate+0x64>
    1578:	85 c1       	rjmp	.+778    	; 0x1884 <DrvLegUpdate+0x36e>
	{
		if(legIndexInitialization < E_NB_LEGS )
    157a:	80 91 fc 02 	lds	r24, 0x02FC	; 0x8002fc <legIndexInitialization>
    157e:	86 30       	cpi	r24, 0x06	; 6
    1580:	08 f0       	brcs	.+2      	; 0x1584 <DrvLegUpdate+0x6e>
    1582:	6b c0       	rjmp	.+214    	; 0x165a <DrvLegUpdate+0x144>
		{
			AxisFloat position = {.x=0,.y=0,.z=0};
    1584:	19 82       	std	Y+1, r1	; 0x01
    1586:	1a 82       	std	Y+2, r1	; 0x02
    1588:	1b 82       	std	Y+3, r1	; 0x03
    158a:	1c 82       	std	Y+4, r1	; 0x04
    158c:	1d 82       	std	Y+5, r1	; 0x05
    158e:	1e 82       	std	Y+6, r1	; 0x06
    1590:	1f 82       	std	Y+7, r1	; 0x07
    1592:	18 86       	std	Y+8, r1	; 0x08
    1594:	19 86       	std	Y+9, r1	; 0x09
    1596:	1a 86       	std	Y+10, r1	; 0x0a
    1598:	1b 86       	std	Y+11, r1	; 0x0b
    159a:	1c 86       	std	Y+12, r1	; 0x0c
			float coxaAngle  = 0;
    159c:	1d 8a       	std	Y+21, r1	; 0x15
    159e:	1e 8a       	std	Y+22, r1	; 0x16
    15a0:	1f 8a       	std	Y+23, r1	; 0x17
    15a2:	18 8e       	std	Y+24, r1	; 0x18
			float femurAngle = 0;
    15a4:	19 8a       	std	Y+17, r1	; 0x11
    15a6:	1a 8a       	std	Y+18, r1	; 0x12
    15a8:	1b 8a       	std	Y+19, r1	; 0x13
    15aa:	1c 8a       	std	Y+20, r1	; 0x14
			float tibiaAngle = 0;
    15ac:	1d 86       	std	Y+13, r1	; 0x0d
    15ae:	1e 86       	std	Y+14, r1	; 0x0e
    15b0:	1f 86       	std	Y+15, r1	; 0x0f
    15b2:	18 8a       	std	Y+16, r1	; 0x10
			DrvLegComputeInverseKinematics(
    15b4:	ce 01       	movw	r24, r28
    15b6:	0d 96       	adiw	r24, 0x0d	; 13
    15b8:	4c 01       	movw	r8, r24
    15ba:	de 01       	movw	r26, r28
    15bc:	51 96       	adiw	r26, 0x11	; 17
    15be:	5d 01       	movw	r10, r26
    15c0:	fe 01       	movw	r30, r28
    15c2:	75 96       	adiw	r30, 0x15	; 21
    15c4:	6f 01       	movw	r12, r30
    15c6:	e1 2c       	mov	r14, r1
    15c8:	fa 80       	ldd	r15, Y+2	; 0x02
    15ca:	0b 81       	ldd	r16, Y+3	; 0x03
    15cc:	1c 81       	ldd	r17, Y+4	; 0x04
    15ce:	20 e0       	ldi	r18, 0x00	; 0
    15d0:	3e 81       	ldd	r19, Y+6	; 0x06
    15d2:	4f 81       	ldd	r20, Y+7	; 0x07
    15d4:	58 85       	ldd	r21, Y+8	; 0x08
    15d6:	60 e0       	ldi	r22, 0x00	; 0
    15d8:	7a 85       	ldd	r23, Y+10	; 0x0a
    15da:	8b 85       	ldd	r24, Y+11	; 0x0b
    15dc:	9c 85       	ldd	r25, Y+12	; 0x0c
    15de:	ea d8       	rcall	.-3628   	; 0x7b4 <DrvLegComputeInverseKinematics>
				position,
				&coxaAngle,
				&femurAngle,
				&tibiaAngle);
			//apply new position
			DrvLegApplyPosition(legIndexInitialization,
    15e0:	cd 84       	ldd	r12, Y+13	; 0x0d
    15e2:	de 84       	ldd	r13, Y+14	; 0x0e
    15e4:	ef 84       	ldd	r14, Y+15	; 0x0f
    15e6:	f8 88       	ldd	r15, Y+16	; 0x10
    15e8:	09 89       	ldd	r16, Y+17	; 0x11
    15ea:	1a 89       	ldd	r17, Y+18	; 0x12
    15ec:	2b 89       	ldd	r18, Y+19	; 0x13
    15ee:	3c 89       	ldd	r19, Y+20	; 0x14
    15f0:	4d 89       	ldd	r20, Y+21	; 0x15
    15f2:	5e 89       	ldd	r21, Y+22	; 0x16
    15f4:	6f 89       	ldd	r22, Y+23	; 0x17
    15f6:	78 8d       	ldd	r23, Y+24	; 0x18
    15f8:	0f 2e       	mov	r0, r31
    15fa:	f8 ee       	ldi	r31, 0xE8	; 232
    15fc:	af 2e       	mov	r10, r31
    15fe:	f3 e0       	ldi	r31, 0x03	; 3
    1600:	bf 2e       	mov	r11, r31
    1602:	f0 2d       	mov	r31, r0
    1604:	80 91 fc 02 	lds	r24, 0x02FC	; 0x8002fc <legIndexInitialization>
    1608:	3e da       	rcall	.-2948   	; 0xa86 <DrvLegApplyPosition>
				coxaAngle,
				femurAngle ,
				tibiaAngle,
				1000);
			//enable servo
			DrvServoActivate((legIndexInitialization * NB_SERVOS_PER_LEG) + 0,TRUE);
    160a:	80 91 fc 02 	lds	r24, 0x02FC	; 0x8002fc <legIndexInitialization>
    160e:	98 2f       	mov	r25, r24
    1610:	99 0f       	add	r25, r25
    1612:	61 e0       	ldi	r22, 0x01	; 1
    1614:	89 0f       	add	r24, r25
    1616:	ee d1       	rcall	.+988    	; 0x19f4 <DrvServoActivate>
			DrvServoActivate((legIndexInitialization * NB_SERVOS_PER_LEG) + 1,TRUE);
    1618:	80 91 fc 02 	lds	r24, 0x02FC	; 0x8002fc <legIndexInitialization>
    161c:	98 2f       	mov	r25, r24
    161e:	99 0f       	add	r25, r25
    1620:	89 0f       	add	r24, r25
    1622:	61 e0       	ldi	r22, 0x01	; 1
    1624:	8f 5f       	subi	r24, 0xFF	; 255
    1626:	e6 d1       	rcall	.+972    	; 0x19f4 <DrvServoActivate>
			DrvServoActivate((legIndexInitialization * NB_SERVOS_PER_LEG) + 2,TRUE);
    1628:	80 91 fc 02 	lds	r24, 0x02FC	; 0x8002fc <legIndexInitialization>
    162c:	98 2f       	mov	r25, r24
    162e:	99 0f       	add	r25, r25
    1630:	89 0f       	add	r24, r25
    1632:	61 e0       	ldi	r22, 0x01	; 1
    1634:	8e 5f       	subi	r24, 0xFE	; 254
    1636:	de d1       	rcall	.+956    	; 0x19f4 <DrvServoActivate>
			//leg is now enable
			legs.leg[legIndexInitialization / NB_SERVOS_PER_LEG].enable = TRUE ;
    1638:	80 91 fc 02 	lds	r24, 0x02FC	; 0x8002fc <legIndexInitialization>
    163c:	eb ea       	ldi	r30, 0xAB	; 171
    163e:	8e 9f       	mul	r24, r30
    1640:	e1 2d       	mov	r30, r1
    1642:	11 24       	eor	r1, r1
    1644:	e6 95       	lsr	r30
    1646:	8a e2       	ldi	r24, 0x2A	; 42
    1648:	e8 9f       	mul	r30, r24
    164a:	f0 01       	movw	r30, r0
    164c:	11 24       	eor	r1, r1
    164e:	ef 5f       	subi	r30, 0xFF	; 255
    1650:	fc 4f       	sbci	r31, 0xFC	; 252
    1652:	81 e0       	ldi	r24, 0x01	; 1
    1654:	82 83       	std	Z+2, r24	; 0x02
			//leg is now initialized
			legs.leg[legIndexInitialization / NB_SERVOS_PER_LEG].initialized = TRUE ;
    1656:	83 83       	std	Z+3, r24	; 0x03
    1658:	03 c0       	rjmp	.+6      	; 0x1660 <DrvLegUpdate+0x14a>
		}
		else
		{
			//initialization done
			legs.isInitialized = TRUE;
    165a:	81 e0       	ldi	r24, 0x01	; 1
    165c:	80 93 01 03 	sts	0x0301, r24	; 0x800301 <legs>
		}
		//prepare for next servo
		legIndexInitialization++;
    1660:	80 91 fc 02 	lds	r24, 0x02FC	; 0x8002fc <legIndexInitialization>
    1664:	8f 5f       	subi	r24, 0xFF	; 255
    1666:	80 93 fc 02 	sts	0x02FC, r24	; 0x8002fc <legIndexInitialization>
		prevMillisServosInitialize = DrvTickGetTimeMs();
    166a:	a2 d2       	rcall	.+1348   	; 0x1bb0 <DrvTickGetTimeMs>
    166c:	60 93 fd 02 	sts	0x02FD, r22	; 0x8002fd <prevMillisServosInitialize>
    1670:	70 93 fe 02 	sts	0x02FE, r23	; 0x8002fe <prevMillisServosInitialize+0x1>
    1674:	80 93 ff 02 	sts	0x02FF, r24	; 0x8002ff <prevMillisServosInitialize+0x2>
    1678:	90 93 00 03 	sts	0x0300, r25	; 0x800300 <prevMillisServosInitialize+0x3>
    167c:	03 c1       	rjmp	.+518    	; 0x1884 <DrvLegUpdate+0x36e>
    167e:	0f 2e       	mov	r0, r31
    1680:	f1 e0       	ldi	r31, 0x01	; 1
    1682:	2f 2e       	mov	r2, r31
    1684:	f3 e0       	ldi	r31, 0x03	; 3
    1686:	3f 2e       	mov	r3, r31
    1688:	f0 2d       	mov	r31, r0
	}
	else
	{
		for(Int8U indexLeg = 0U ; indexLeg < E_NB_LEGS ; indexLeg++ )
		{
			if(legs.leg[ indexLeg ].newPosition)
    168a:	71 2c       	mov	r7, r1
    168c:	d1 01       	movw	r26, r2
    168e:	14 96       	adiw	r26, 0x04	; 4
    1690:	8c 91       	ld	r24, X
    1692:	88 23       	and	r24, r24
    1694:	09 f4       	brne	.+2      	; 0x1698 <DrvLegUpdate+0x182>
			{
				AxisFloat position;
				float percentage = (DrvTickGetTimeMs() - legs.leg[ indexLeg ].startTime) / (float)legs.leg[ indexLeg ].speed;
    1696:	ef c0       	rjmp	.+478    	; 0x1876 <DrvLegUpdate+0x360>
    1698:	8b d2       	rcall	.+1302   	; 0x1bb0 <DrvTickGetTimeMs>
    169a:	f1 01       	movw	r30, r2
    169c:	03 a1       	ldd	r16, Z+35	; 0x23
    169e:	14 a1       	ldd	r17, Z+36	; 0x24
    16a0:	25 a1       	ldd	r18, Z+37	; 0x25
    16a2:	36 a1       	ldd	r19, Z+38	; 0x26
    16a4:	60 1b       	sub	r22, r16
    16a6:	71 0b       	sbc	r23, r17
    16a8:	82 0b       	sbc	r24, r18
    16aa:	93 0b       	sbc	r25, r19
    16ac:	0e 94 bf 22 	call	0x457e	; 0x457e <__floatunsisf>
    16b0:	6b 01       	movw	r12, r22
    16b2:	7c 01       	movw	r14, r24
    16b4:	d1 01       	movw	r26, r2
    16b6:	97 96       	adiw	r26, 0x27	; 39
    16b8:	6d 91       	ld	r22, X+
    16ba:	7d 91       	ld	r23, X+
    16bc:	8d 91       	ld	r24, X+
    16be:	9c 91       	ld	r25, X
    16c0:	9a 97       	sbiw	r26, 0x2a	; 42
    16c2:	0e 94 bf 22 	call	0x457e	; 0x457e <__floatunsisf>
    16c6:	9b 01       	movw	r18, r22
    16c8:	ac 01       	movw	r20, r24
    16ca:	c7 01       	movw	r24, r14
    16cc:	b6 01       	movw	r22, r12
    16ce:	0e 94 26 22 	call	0x444c	; 0x444c <__divsf3>
    16d2:	69 8f       	std	Y+25, r22	; 0x19
    16d4:	7a 8f       	std	Y+26, r23	; 0x1a
    16d6:	8b 8f       	std	Y+27, r24	; 0x1b
    16d8:	9c 8f       	std	Y+28, r25	; 0x1c
    16da:	d1 01       	movw	r26, r2
    16dc:	1b 96       	adiw	r26, 0x0b	; 11
    16de:	8d 91       	ld	r24, X+
    16e0:	9d 91       	ld	r25, X+
    16e2:	0d 90       	ld	r0, X+
    16e4:	bc 91       	ld	r27, X
    16e6:	a0 2d       	mov	r26, r0
    16e8:	8d 8f       	std	Y+29, r24	; 0x1d
    16ea:	9e 8f       	std	Y+30, r25	; 0x1e
    16ec:	af 8f       	std	Y+31, r26	; 0x1f
    16ee:	b8 a3       	std	Y+32, r27	; 0x20
    16f0:	f1 01       	movw	r30, r2
    16f2:	87 84       	ldd	r8, Z+15	; 0x0f
    16f4:	90 88       	ldd	r9, Z+16	; 0x10
    16f6:	a1 88       	ldd	r10, Z+17	; 0x11
    16f8:	b2 88       	ldd	r11, Z+18	; 0x12
    16fa:	c3 88       	ldd	r12, Z+19	; 0x13
    16fc:	d4 88       	ldd	r13, Z+20	; 0x14
    16fe:	e5 88       	ldd	r14, Z+21	; 0x15
    1700:	f6 88       	ldd	r15, Z+22	; 0x16
	return Flip(sqrt(Flip(t)));
}

static inline float LerpSimple(float start_value, float end_value, float pct)
{
	return (start_value + (end_value - start_value) * pct);
    1702:	a5 01       	movw	r20, r10
    1704:	94 01       	movw	r18, r8
    1706:	63 8d       	ldd	r22, Z+27	; 0x1b
    1708:	74 8d       	ldd	r23, Z+28	; 0x1c
    170a:	85 8d       	ldd	r24, Z+29	; 0x1d
    170c:	96 8d       	ldd	r25, Z+30	; 0x1e
    170e:	0e 94 95 21 	call	0x432a	; 0x432a <__subsf3>
    1712:	29 8d       	ldd	r18, Y+25	; 0x19
    1714:	3a 8d       	ldd	r19, Y+26	; 0x1a
    1716:	4b 8d       	ldd	r20, Y+27	; 0x1b
    1718:	5c 8d       	ldd	r21, Y+28	; 0x1c
    171a:	0e 94 37 24 	call	0x486e	; 0x486e <__mulsf3>
    171e:	a5 01       	movw	r20, r10
    1720:	94 01       	movw	r18, r8
    1722:	0e 94 96 21 	call	0x432c	; 0x432c <__addsf3>
    1726:	b6 2e       	mov	r11, r22
    1728:	a7 2e       	mov	r10, r23
    172a:	98 2e       	mov	r9, r24
    172c:	89 2e       	mov	r8, r25
    172e:	a7 01       	movw	r20, r14
    1730:	96 01       	movw	r18, r12
    1732:	d1 01       	movw	r26, r2
    1734:	5f 96       	adiw	r26, 0x1f	; 31
    1736:	6d 91       	ld	r22, X+
    1738:	7d 91       	ld	r23, X+
    173a:	8d 91       	ld	r24, X+
    173c:	9c 91       	ld	r25, X
    173e:	92 97       	sbiw	r26, 0x22	; 34
    1740:	0e 94 95 21 	call	0x432a	; 0x432a <__subsf3>
    1744:	29 8d       	ldd	r18, Y+25	; 0x19
    1746:	3a 8d       	ldd	r19, Y+26	; 0x1a
    1748:	4b 8d       	ldd	r20, Y+27	; 0x1b
    174a:	5c 8d       	ldd	r21, Y+28	; 0x1c
    174c:	0e 94 37 24 	call	0x486e	; 0x486e <__mulsf3>
    1750:	a7 01       	movw	r20, r14
    1752:	96 01       	movw	r18, r12
    1754:	0e 94 96 21 	call	0x432c	; 0x432c <__addsf3>
    1758:	f6 2e       	mov	r15, r22
    175a:	d7 2e       	mov	r13, r23
    175c:	c8 2e       	mov	r12, r24
    175e:	19 2f       	mov	r17, r25
{
	AxisFloat position;
	position.x = LerpSimple(start_value.x,end_value.x,t);
	position.y = LerpSimple(start_value.y,end_value.y,t);
	position.z = LerpSimple(start_value.z,end_value.z,t);
	return position;
    1760:	2d 8d       	ldd	r18, Y+29	; 0x1d
    1762:	3e 8d       	ldd	r19, Y+30	; 0x1e
    1764:	4f 8d       	ldd	r20, Y+31	; 0x1f
    1766:	58 a1       	ldd	r21, Y+32	; 0x20
    1768:	f1 01       	movw	r30, r2
    176a:	67 89       	ldd	r22, Z+23	; 0x17
    176c:	70 8d       	ldd	r23, Z+24	; 0x18
    176e:	81 8d       	ldd	r24, Z+25	; 0x19
    1770:	92 8d       	ldd	r25, Z+26	; 0x1a
    1772:	0e 94 95 21 	call	0x432a	; 0x432a <__subsf3>
    1776:	29 8d       	ldd	r18, Y+25	; 0x19
    1778:	3a 8d       	ldd	r19, Y+26	; 0x1a
    177a:	4b 8d       	ldd	r20, Y+27	; 0x1b
    177c:	5c 8d       	ldd	r21, Y+28	; 0x1c
    177e:	0e 94 37 24 	call	0x486e	; 0x486e <__mulsf3>
    1782:	2d 8d       	ldd	r18, Y+29	; 0x1d
    1784:	3e 8d       	ldd	r19, Y+30	; 0x1e
    1786:	4f 8d       	ldd	r20, Y+31	; 0x1f
    1788:	58 a1       	ldd	r21, Y+32	; 0x20
    178a:	0e 94 96 21 	call	0x432c	; 0x432c <__addsf3>
    178e:	e6 2e       	mov	r14, r22
    1790:	46 2f       	mov	r20, r22
    1792:	57 2f       	mov	r21, r23
    1794:	68 2f       	mov	r22, r24
    1796:	79 2f       	mov	r23, r25
    1798:	49 83       	std	Y+1, r20	; 0x01
    179a:	5a 83       	std	Y+2, r21	; 0x02
    179c:	6b 83       	std	Y+3, r22	; 0x03
    179e:	7c 83       	std	Y+4, r23	; 0x04
    17a0:	2b 2d       	mov	r18, r11
    17a2:	8b 2d       	mov	r24, r11
    17a4:	9a 2d       	mov	r25, r10
    17a6:	a9 2d       	mov	r26, r9
    17a8:	b8 2d       	mov	r27, r8
    17aa:	8d 83       	std	Y+5, r24	; 0x05
    17ac:	9e 83       	std	Y+6, r25	; 0x06
    17ae:	af 83       	std	Y+7, r26	; 0x07
    17b0:	b8 87       	std	Y+8, r27	; 0x08
    17b2:	6f 2d       	mov	r22, r15
    17b4:	8f 2d       	mov	r24, r15
    17b6:	9d 2d       	mov	r25, r13
    17b8:	ac 2d       	mov	r26, r12
    17ba:	b1 2f       	mov	r27, r17
    17bc:	89 87       	std	Y+9, r24	; 0x09
    17be:	9a 87       	std	Y+10, r25	; 0x0a
    17c0:	ab 87       	std	Y+11, r26	; 0x0b
    17c2:	bc 87       	std	Y+12, r27	; 0x0c
				position = LerpAxis(legs.leg[ indexLeg ].startPosition,legs.leg[ indexLeg ].targetPosition,percentage);
				
				//position.x = DrvLegGetXFromCoxaAngle(position.x,position.y);
				
				float coxaAngle  = 0;
    17c4:	1d 8a       	std	Y+21, r1	; 0x15
    17c6:	1e 8a       	std	Y+22, r1	; 0x16
    17c8:	1f 8a       	std	Y+23, r1	; 0x17
    17ca:	18 8e       	std	Y+24, r1	; 0x18
				float femurAngle = 0;
    17cc:	19 8a       	std	Y+17, r1	; 0x11
    17ce:	1a 8a       	std	Y+18, r1	; 0x12
    17d0:	1b 8a       	std	Y+19, r1	; 0x13
    17d2:	1c 8a       	std	Y+20, r1	; 0x14
				float tibiaAngle = 0;
    17d4:	1d 86       	std	Y+13, r1	; 0x0d
    17d6:	1e 86       	std	Y+14, r1	; 0x0e
    17d8:	1f 86       	std	Y+15, r1	; 0x0f
    17da:	18 8a       	std	Y+16, r1	; 0x10
				DrvLegComputeInverseKinematics(
    17dc:	ce 01       	movw	r24, r28
    17de:	0d 96       	adiw	r24, 0x0d	; 13
    17e0:	4c 01       	movw	r8, r24
    17e2:	de 01       	movw	r26, r28
    17e4:	51 96       	adiw	r26, 0x11	; 17
    17e6:	5d 01       	movw	r10, r26
    17e8:	fe 01       	movw	r30, r28
    17ea:	75 96       	adiw	r30, 0x15	; 21
    17ec:	6f 01       	movw	r12, r30
    17ee:	fa 80       	ldd	r15, Y+2	; 0x02
    17f0:	0b 81       	ldd	r16, Y+3	; 0x03
    17f2:	1c 81       	ldd	r17, Y+4	; 0x04
    17f4:	3e 81       	ldd	r19, Y+6	; 0x06
    17f6:	4f 81       	ldd	r20, Y+7	; 0x07
    17f8:	58 85       	ldd	r21, Y+8	; 0x08
    17fa:	7a 85       	ldd	r23, Y+10	; 0x0a
    17fc:	8b 85       	ldd	r24, Y+11	; 0x0b
    17fe:	9c 85       	ldd	r25, Y+12	; 0x0c
    1800:	0e 94 da 03 	call	0x7b4	; 0x7b4 <DrvLegComputeInverseKinematics>
					position,
					&coxaAngle,
					&femurAngle,
					&tibiaAngle);
				//apply new position
				DrvLegApplyPosition(indexLeg,
    1804:	d1 01       	movw	r26, r2
    1806:	97 96       	adiw	r26, 0x27	; 39
    1808:	ad 90       	ld	r10, X+
    180a:	bc 90       	ld	r11, X
    180c:	98 97       	sbiw	r26, 0x28	; 40
    180e:	cd 84       	ldd	r12, Y+13	; 0x0d
    1810:	de 84       	ldd	r13, Y+14	; 0x0e
    1812:	ef 84       	ldd	r14, Y+15	; 0x0f
    1814:	f8 88       	ldd	r15, Y+16	; 0x10
    1816:	09 89       	ldd	r16, Y+17	; 0x11
    1818:	1a 89       	ldd	r17, Y+18	; 0x12
    181a:	2b 89       	ldd	r18, Y+19	; 0x13
    181c:	3c 89       	ldd	r19, Y+20	; 0x14
    181e:	4d 89       	ldd	r20, Y+21	; 0x15
    1820:	5e 89       	ldd	r21, Y+22	; 0x16
    1822:	6f 89       	ldd	r22, Y+23	; 0x17
    1824:	78 8d       	ldd	r23, Y+24	; 0x18
    1826:	87 2d       	mov	r24, r7
    1828:	2e d9       	rcall	.-3492   	; 0xa86 <DrvLegApplyPosition>
					coxaAngle,
					femurAngle ,
					tibiaAngle,
					legs.leg[ indexLeg ].speed);
				
				if(percentage >= 1.0)
    182a:	20 e0       	ldi	r18, 0x00	; 0
    182c:	30 e0       	ldi	r19, 0x00	; 0
    182e:	40 e8       	ldi	r20, 0x80	; 128
    1830:	5f e3       	ldi	r21, 0x3F	; 63
    1832:	69 8d       	ldd	r22, Y+25	; 0x19
    1834:	7a 8d       	ldd	r23, Y+26	; 0x1a
    1836:	8b 8d       	ldd	r24, Y+27	; 0x1b
    1838:	9c 8d       	ldd	r25, Y+28	; 0x1c
    183a:	0e 94 2c 24 	call	0x4858	; 0x4858 <__gesf2>
    183e:	88 23       	and	r24, r24
    1840:	d4 f0       	brlt	.+52     	; 0x1876 <DrvLegUpdate+0x360>
				{
					legs.leg[ indexLeg ].newPosition = FALSE;
    1842:	f1 01       	movw	r30, r2
    1844:	14 82       	std	Z+4, r1	; 0x04
					legs.leg[ indexLeg ].startPosition.x = legs.leg[ indexLeg ].targetPosition.x;
    1846:	87 89       	ldd	r24, Z+23	; 0x17
    1848:	90 8d       	ldd	r25, Z+24	; 0x18
    184a:	a1 8d       	ldd	r26, Z+25	; 0x19
    184c:	b2 8d       	ldd	r27, Z+26	; 0x1a
    184e:	83 87       	std	Z+11, r24	; 0x0b
    1850:	94 87       	std	Z+12, r25	; 0x0c
    1852:	a5 87       	std	Z+13, r26	; 0x0d
    1854:	b6 87       	std	Z+14, r27	; 0x0e
					legs.leg[ indexLeg ].startPosition.y = legs.leg[ indexLeg ].targetPosition.y;
    1856:	83 8d       	ldd	r24, Z+27	; 0x1b
    1858:	94 8d       	ldd	r25, Z+28	; 0x1c
    185a:	a5 8d       	ldd	r26, Z+29	; 0x1d
    185c:	b6 8d       	ldd	r27, Z+30	; 0x1e
    185e:	87 87       	std	Z+15, r24	; 0x0f
    1860:	90 8b       	std	Z+16, r25	; 0x10
    1862:	a1 8b       	std	Z+17, r26	; 0x11
    1864:	b2 8b       	std	Z+18, r27	; 0x12
					legs.leg[ indexLeg ].startPosition.z = legs.leg[ indexLeg ].targetPosition.z;
    1866:	87 8d       	ldd	r24, Z+31	; 0x1f
    1868:	90 a1       	ldd	r25, Z+32	; 0x20
    186a:	a1 a1       	ldd	r26, Z+33	; 0x21
    186c:	b2 a1       	ldd	r27, Z+34	; 0x22
    186e:	83 8b       	std	Z+19, r24	; 0x13
    1870:	94 8b       	std	Z+20, r25	; 0x14
    1872:	a5 8b       	std	Z+21, r26	; 0x15
		//activating servos step by step
		DrvLegInititalizing();
	}
	else
	{
		for(Int8U indexLeg = 0U ; indexLeg < E_NB_LEGS ; indexLeg++ )
    1874:	b6 8b       	std	Z+22, r27	; 0x16
    1876:	73 94       	inc	r7
    1878:	fa e2       	ldi	r31, 0x2A	; 42
    187a:	2f 0e       	add	r2, r31
    187c:	31 1c       	adc	r3, r1
    187e:	86 e0       	ldi	r24, 0x06	; 6
    1880:	78 12       	cpse	r7, r24
				}
			}
		}
	}
	//update each servo
	DrvServoUpdate();
    1882:	04 cf       	rjmp	.-504    	; 0x168c <DrvLegUpdate+0x176>
    1884:	c6 d0       	rcall	.+396    	; 0x1a12 <DrvServoUpdate>
	return TRUE;
}
    1886:	81 e0       	ldi	r24, 0x01	; 1
    1888:	a0 96       	adiw	r28, 0x20	; 32
    188a:	0f b6       	in	r0, 0x3f	; 63
    188c:	f8 94       	cli
    188e:	de bf       	out	0x3e, r29	; 62
    1890:	0f be       	out	0x3f, r0	; 63
    1892:	cd bf       	out	0x3d, r28	; 61
    1894:	df 91       	pop	r29
    1896:	cf 91       	pop	r28
    1898:	1f 91       	pop	r17
    189a:	0f 91       	pop	r16
    189c:	ff 90       	pop	r15
    189e:	ef 90       	pop	r14
    18a0:	df 90       	pop	r13
    18a2:	cf 90       	pop	r12
    18a4:	bf 90       	pop	r11
    18a6:	af 90       	pop	r10
    18a8:	9f 90       	pop	r9
    18aa:	8f 90       	pop	r8
    18ac:	7f 90       	pop	r7
    18ae:	5f 90       	pop	r5
    18b0:	4f 90       	pop	r4
    18b2:	3f 90       	pop	r3
    18b4:	2f 90       	pop	r2
    18b6:	08 95       	ret

000018b8 <DrvLegGetXFromCoxaAngle>:

float DrvLegGetXFromCoxaAngle( float angle , float y)
{
    18b8:	8f 92       	push	r8
    18ba:	9f 92       	push	r9
    18bc:	af 92       	push	r10
    18be:	bf 92       	push	r11
    18c0:	cf 92       	push	r12
    18c2:	df 92       	push	r13
    18c4:	ef 92       	push	r14
    18c6:	ff 92       	push	r15
    18c8:	49 01       	movw	r8, r18
    18ca:	5a 01       	movw	r10, r20
	return (y + LEG_COCYX_LENGTH) * tan(ToRad(angle));
    18cc:	2b ed       	ldi	r18, 0xDB	; 219
    18ce:	3f e0       	ldi	r19, 0x0F	; 15
    18d0:	49 e4       	ldi	r20, 0x49	; 73
    18d2:	50 e4       	ldi	r21, 0x40	; 64
    18d4:	0e 94 37 24 	call	0x486e	; 0x486e <__mulsf3>
    18d8:	20 e0       	ldi	r18, 0x00	; 0
    18da:	30 e0       	ldi	r19, 0x00	; 0
    18dc:	44 e3       	ldi	r20, 0x34	; 52
    18de:	53 e4       	ldi	r21, 0x43	; 67
    18e0:	0e 94 26 22 	call	0x444c	; 0x444c <__divsf3>
    18e4:	0e 94 ff 24 	call	0x49fe	; 0x49fe <tan>
    18e8:	6b 01       	movw	r12, r22
    18ea:	7c 01       	movw	r14, r24
    18ec:	20 e0       	ldi	r18, 0x00	; 0
    18ee:	30 e0       	ldi	r19, 0x00	; 0
    18f0:	40 ef       	ldi	r20, 0xF0	; 240
    18f2:	51 e4       	ldi	r21, 0x41	; 65
    18f4:	c5 01       	movw	r24, r10
    18f6:	b4 01       	movw	r22, r8
    18f8:	0e 94 96 21 	call	0x432c	; 0x432c <__addsf3>
    18fc:	a7 01       	movw	r20, r14
    18fe:	96 01       	movw	r18, r12
    1900:	0e 94 37 24 	call	0x486e	; 0x486e <__mulsf3>
}
    1904:	ff 90       	pop	r15
    1906:	ef 90       	pop	r14
    1908:	df 90       	pop	r13
    190a:	cf 90       	pop	r12
    190c:	bf 90       	pop	r11
    190e:	af 90       	pop	r10
    1910:	9f 90       	pop	r9
    1912:	8f 90       	pop	r8
    1914:	08 95       	ret

00001916 <DrvServoInit>:

// get the target of the selected servo
Int16S DrvServoGetTarget( Int8U index )
{
	return servos[ index ].currentPosition;
}
    1916:	ef ef       	ldi	r30, 0xFF	; 255
    1918:	f3 e0       	ldi	r31, 0x03	; 3
    191a:	80 e0       	ldi	r24, 0x00	; 0
    191c:	44 e8       	ldi	r20, 0x84	; 132
    191e:	53 e0       	ldi	r21, 0x03	; 3
    1920:	28 e0       	ldi	r18, 0x08	; 8
    1922:	37 e0       	ldi	r19, 0x07	; 7
    1924:	80 83       	st	Z, r24
    1926:	11 82       	std	Z+1, r1	; 0x01
    1928:	13 82       	std	Z+3, r1	; 0x03
    192a:	12 82       	std	Z+2, r1	; 0x02
    192c:	13 86       	std	Z+11, r1	; 0x0b
    192e:	12 86       	std	Z+10, r1	; 0x0a
    1930:	15 82       	std	Z+5, r1	; 0x05
    1932:	14 82       	std	Z+4, r1	; 0x04
    1934:	57 83       	std	Z+7, r21	; 0x07
    1936:	46 83       	std	Z+6, r20	; 0x06
    1938:	31 87       	std	Z+9, r19	; 0x09
    193a:	20 87       	std	Z+8, r18	; 0x08
    193c:	8f 5f       	subi	r24, 0xFF	; 255
    193e:	3c 96       	adiw	r30, 0x0c	; 12
    1940:	83 31       	cpi	r24, 0x13	; 19
    1942:	81 f7       	brne	.-32     	; 0x1924 <DrvServoInit+0xe>
    1944:	40 e0       	ldi	r20, 0x00	; 0
    1946:	50 e0       	ldi	r21, 0x00	; 0
    1948:	60 e7       	ldi	r22, 0x70	; 112
    194a:	72 e4       	ldi	r23, 0x42	; 66
    194c:	80 e4       	ldi	r24, 0x40	; 64
    194e:	0e 94 13 02 	call	0x426	; 0x426 <CmpPCA9685Init>
    1952:	40 e0       	ldi	r20, 0x00	; 0
    1954:	50 e0       	ldi	r21, 0x00	; 0
    1956:	60 e7       	ldi	r22, 0x70	; 112
    1958:	72 e4       	ldi	r23, 0x42	; 66
    195a:	81 e4       	ldi	r24, 0x41	; 65
    195c:	0e 94 13 02 	call	0x426	; 0x426 <CmpPCA9685Init>
    1960:	81 e0       	ldi	r24, 0x01	; 1
    1962:	08 95       	ret

00001964 <DrvServoSetTarget>:
    1964:	83 31       	cpi	r24, 0x13	; 19
    1966:	f0 f5       	brcc	.+124    	; 0x19e4 <DrvServoSetTarget+0x80>
    1968:	28 2f       	mov	r18, r24
    196a:	30 e0       	ldi	r19, 0x00	; 0
    196c:	f9 01       	movw	r30, r18
    196e:	ee 0f       	add	r30, r30
    1970:	ff 1f       	adc	r31, r31
    1972:	e2 0f       	add	r30, r18
    1974:	f3 1f       	adc	r31, r19
    1976:	ee 0f       	add	r30, r30
    1978:	ff 1f       	adc	r31, r31
    197a:	ee 0f       	add	r30, r30
    197c:	ff 1f       	adc	r31, r31
    197e:	e1 50       	subi	r30, 0x01	; 1
    1980:	fc 4f       	sbci	r31, 0xFC	; 252
    1982:	81 81       	ldd	r24, Z+1	; 0x01
    1984:	81 30       	cpi	r24, 0x01	; 1
    1986:	81 f5       	brne	.+96     	; 0x19e8 <DrvServoSetTarget+0x84>
    1988:	f9 01       	movw	r30, r18
    198a:	ee 0f       	add	r30, r30
    198c:	ff 1f       	adc	r31, r31
    198e:	e2 0f       	add	r30, r18
    1990:	f3 1f       	adc	r31, r19
    1992:	ee 0f       	add	r30, r30
    1994:	ff 1f       	adc	r31, r31
    1996:	ee 0f       	add	r30, r30
    1998:	ff 1f       	adc	r31, r31
    199a:	e1 50       	subi	r30, 0x01	; 1
    199c:	fc 4f       	sbci	r31, 0xFC	; 252
    199e:	44 81       	ldd	r20, Z+4	; 0x04
    19a0:	55 81       	ldd	r21, Z+5	; 0x05
    19a2:	64 17       	cp	r22, r20
    19a4:	75 07       	cpc	r23, r21
    19a6:	14 f1       	brlt	.+68     	; 0x19ec <DrvServoSetTarget+0x88>
    19a8:	f9 01       	movw	r30, r18
    19aa:	ee 0f       	add	r30, r30
    19ac:	ff 1f       	adc	r31, r31
    19ae:	e2 0f       	add	r30, r18
    19b0:	f3 1f       	adc	r31, r19
    19b2:	ee 0f       	add	r30, r30
    19b4:	ff 1f       	adc	r31, r31
    19b6:	ee 0f       	add	r30, r30
    19b8:	ff 1f       	adc	r31, r31
    19ba:	e1 50       	subi	r30, 0x01	; 1
    19bc:	fc 4f       	sbci	r31, 0xFC	; 252
    19be:	40 85       	ldd	r20, Z+8	; 0x08
    19c0:	51 85       	ldd	r21, Z+9	; 0x09
    19c2:	46 17       	cp	r20, r22
    19c4:	57 07       	cpc	r21, r23
    19c6:	a4 f0       	brlt	.+40     	; 0x19f0 <DrvServoSetTarget+0x8c>
    19c8:	f9 01       	movw	r30, r18
    19ca:	ee 0f       	add	r30, r30
    19cc:	ff 1f       	adc	r31, r31
    19ce:	e2 0f       	add	r30, r18
    19d0:	f3 1f       	adc	r31, r19
    19d2:	ee 0f       	add	r30, r30
    19d4:	ff 1f       	adc	r31, r31
    19d6:	ee 0f       	add	r30, r30
    19d8:	ff 1f       	adc	r31, r31
    19da:	e1 50       	subi	r30, 0x01	; 1
    19dc:	fc 4f       	sbci	r31, 0xFC	; 252
    19de:	73 83       	std	Z+3, r23	; 0x03
    19e0:	62 83       	std	Z+2, r22	; 0x02
    19e2:	08 95       	ret
    19e4:	80 e0       	ldi	r24, 0x00	; 0
    19e6:	08 95       	ret
    19e8:	80 e0       	ldi	r24, 0x00	; 0
    19ea:	08 95       	ret
    19ec:	80 e0       	ldi	r24, 0x00	; 0
    19ee:	08 95       	ret
    19f0:	80 e0       	ldi	r24, 0x00	; 0
    19f2:	08 95       	ret

000019f4 <DrvServoActivate>:
    19f4:	90 e0       	ldi	r25, 0x00	; 0
    19f6:	fc 01       	movw	r30, r24
    19f8:	ee 0f       	add	r30, r30
    19fa:	ff 1f       	adc	r31, r31
    19fc:	e8 0f       	add	r30, r24
    19fe:	f9 1f       	adc	r31, r25
    1a00:	ee 0f       	add	r30, r30
    1a02:	ff 1f       	adc	r31, r31
    1a04:	ee 0f       	add	r30, r30
    1a06:	ff 1f       	adc	r31, r31
    1a08:	e1 50       	subi	r30, 0x01	; 1
    1a0a:	fc 4f       	sbci	r31, 0xFC	; 252
    1a0c:	61 83       	std	Z+1, r22	; 0x01
    1a0e:	81 e0       	ldi	r24, 0x01	; 1
    1a10:	08 95       	ret

00001a12 <DrvServoUpdate>:

//permits to send not in a same time to the 2 PCA9685
Boolean switchPCA9685 = FALSE;
//call every loop in order to send the new position to PCA9585
void DrvServoUpdate ( void )
{ 
    1a12:	cf 92       	push	r12
    1a14:	df 92       	push	r13
    1a16:	ef 92       	push	r14
    1a18:	ff 92       	push	r15
    1a1a:	0f 93       	push	r16
    1a1c:	1f 93       	push	r17
    1a1e:	cf 93       	push	r28
    1a20:	00 e0       	ldi	r16, 0x00	; 0
    1a22:	14 e0       	ldi	r17, 0x04	; 4
	float angle = 0;
	//structure of PCA9585 tab representing pwm
	SPCA9685Pwm *pwm;
	//fill the pwm for each servos
	for (Int8U index = 0U; index < NB_SERVOS ; index++)
    1a24:	c0 e0       	ldi	r28, 0x00	; 0
			pwm->off = (Int16U)(SetRange(angle, SERVO_ANGLE_MIN, SERVO_ANGLE_MAX, 195.0, 480.0));
		}
		else
		{
			//servo disable set output to LOW
			pwm->off = 4096;
    1a26:	c1 2c       	mov	r12, r1
    1a28:	68 94       	set
    1a2a:	dd 24       	eor	r13, r13
    1a2c:	d4 f8       	bld	r13, 4
	for (Int8U index = 0U; index < NB_SERVOS ; index++)
	{
		//get structure of current index for the 2 PCA9685 components
		//the PCA9685_ADDRESS_1 has 9 servos index 0 up to 8
		//the PCA9685_ADDRESS_0 has 10 servos index 9 up to 19
		if(index < NB_SERVOS_ON_PCA9685_ADDRESS_1)
    1a2e:	c9 30       	cpi	r28, 0x09	; 9
    1a30:	30 f4       	brcc	.+12     	; 0x1a3e <DrvServoUpdate+0x2c>
		{
			pwm = CmpPCA9685GetPwmTab(PCA9685_ADDRESS_1, index);
    1a32:	6c 2f       	mov	r22, r28
    1a34:	81 e4       	ldi	r24, 0x41	; 65
    1a36:	0e 94 e0 01 	call	0x3c0	; 0x3c0 <CmpPCA9685GetPwmTab>
    1a3a:	7c 01       	movw	r14, r24
    1a3c:	06 c0       	rjmp	.+12     	; 0x1a4a <DrvServoUpdate+0x38>
		}
		else
		{
			pwm = CmpPCA9685GetPwmTab(PCA9685_ADDRESS_0, index - NB_SERVOS_ON_PCA9685_ADDRESS_1);
    1a3e:	67 ef       	ldi	r22, 0xF7	; 247
    1a40:	6c 0f       	add	r22, r28
    1a42:	80 e4       	ldi	r24, 0x40	; 64
    1a44:	0e 94 e0 01 	call	0x3c0	; 0x3c0 <CmpPCA9685GetPwmTab>
    1a48:	7c 01       	movw	r14, r24
		}
		//always equals to 0
		pwm->on = 0U;
    1a4a:	f7 01       	movw	r30, r14
    1a4c:	11 82       	std	Z+1, r1	; 0x01
    1a4e:	10 82       	st	Z, r1
		//only if servo activate and position need to move to target
		if(servos[ index ].enable == TRUE)
    1a50:	f8 01       	movw	r30, r16
    1a52:	80 81       	ld	r24, Z
    1a54:	81 30       	cpi	r24, 0x01	; 1
    1a56:	31 f5       	brne	.+76     	; 0x1aa4 <DrvServoUpdate+0x92>
		{
			//get current angle
			angle = servos[index].currentPosition;
    1a58:	61 81       	ldd	r22, Z+1	; 0x01
    1a5a:	72 81       	ldd	r23, Z+2	; 0x02
    1a5c:	07 2e       	mov	r0, r23
    1a5e:	00 0c       	add	r0, r0
    1a60:	88 0b       	sbc	r24, r24
    1a62:	99 0b       	sbc	r25, r25
    1a64:	0e 94 c1 22 	call	0x4582	; 0x4582 <__floatsisf>
			//convert -900deg to 900deg => 0deg to 1800deg
			angle += 900;
			//do range for PCA9585
			pwm->off = (Int16U)(SetRange(angle, SERVO_ANGLE_MIN, SERVO_ANGLE_MAX, 195.0, 480.0));
    1a68:	20 e0       	ldi	r18, 0x00	; 0
    1a6a:	30 e0       	ldi	r19, 0x00	; 0
    1a6c:	41 e6       	ldi	r20, 0x61	; 97
    1a6e:	54 e4       	ldi	r21, 0x44	; 68
    1a70:	0e 94 96 21 	call	0x432c	; 0x432c <__addsf3>
    1a74:	20 e0       	ldi	r18, 0x00	; 0
    1a76:	30 e8       	ldi	r19, 0x80	; 128
    1a78:	4e e8       	ldi	r20, 0x8E	; 142
    1a7a:	53 e4       	ldi	r21, 0x43	; 67
    1a7c:	0e 94 37 24 	call	0x486e	; 0x486e <__mulsf3>
    1a80:	20 e0       	ldi	r18, 0x00	; 0
    1a82:	30 e0       	ldi	r19, 0x00	; 0
    1a84:	41 ee       	ldi	r20, 0xE1	; 225
    1a86:	54 e4       	ldi	r21, 0x44	; 68
    1a88:	0e 94 26 22 	call	0x444c	; 0x444c <__divsf3>
    1a8c:	20 e0       	ldi	r18, 0x00	; 0
    1a8e:	30 e0       	ldi	r19, 0x00	; 0
    1a90:	43 e4       	ldi	r20, 0x43	; 67
    1a92:	53 e4       	ldi	r21, 0x43	; 67
    1a94:	0e 94 96 21 	call	0x432c	; 0x432c <__addsf3>
    1a98:	0e 94 93 22 	call	0x4526	; 0x4526 <__fixunssfsi>
    1a9c:	f7 01       	movw	r30, r14
    1a9e:	73 83       	std	Z+3, r23	; 0x03
    1aa0:	62 83       	std	Z+2, r22	; 0x02
    1aa2:	03 c0       	rjmp	.+6      	; 0x1aaa <DrvServoUpdate+0x98>
		}
		else
		{
			//servo disable set output to LOW
			pwm->off = 4096;
    1aa4:	f7 01       	movw	r30, r14
    1aa6:	d3 82       	std	Z+3, r13	; 0x03
    1aa8:	c2 82       	std	Z+2, r12	; 0x02
{ 
	float angle = 0;
	//structure of PCA9585 tab representing pwm
	SPCA9685Pwm *pwm;
	//fill the pwm for each servos
	for (Int8U index = 0U; index < NB_SERVOS ; index++)
    1aaa:	cf 5f       	subi	r28, 0xFF	; 255
    1aac:	04 5f       	subi	r16, 0xF4	; 244
    1aae:	1f 4f       	sbci	r17, 0xFF	; 255
    1ab0:	c3 31       	cpi	r28, 0x13	; 19
    1ab2:	09 f0       	breq	.+2      	; 0x1ab6 <DrvServoUpdate+0xa4>
    1ab4:	bc cf       	rjmp	.-136    	; 0x1a2e <DrvServoUpdate+0x1c>
			//servo disable set output to LOW
			pwm->off = 4096;
		}
	}
	//send to each component
	if(switchPCA9685)
    1ab6:	80 91 fe 03 	lds	r24, 0x03FE	; 0x8003fe <switchPCA9685>
    1aba:	88 23       	and	r24, r24
    1abc:	39 f0       	breq	.+14     	; 0x1acc <DrvServoUpdate+0xba>
	{
		switchPCA9685 = FALSE;
    1abe:	10 92 fe 03 	sts	0x03FE, r1	; 0x8003fe <switchPCA9685>
		//there are 9 servos on left side legs
		CmpPCA9685SendBuffer(PCA9685_ADDRESS_1, NB_SERVOS_ON_PCA9685_ADDRESS_1);
    1ac2:	69 e0       	ldi	r22, 0x09	; 9
    1ac4:	81 e4       	ldi	r24, 0x41	; 65
    1ac6:	0e 94 fb 01 	call	0x3f6	; 0x3f6 <CmpPCA9685SendBuffer>
    1aca:	07 c0       	rjmp	.+14     	; 0x1ada <DrvServoUpdate+0xc8>
	}
	else
	{
		switchPCA9685 = TRUE;
    1acc:	81 e0       	ldi	r24, 0x01	; 1
    1ace:	80 93 fe 03 	sts	0x03FE, r24	; 0x8003fe <switchPCA9685>
		//there are 9 servos on right side legs + 1 servo for the head
		CmpPCA9685SendBuffer(PCA9685_ADDRESS_0,NB_SERVOS_ON_PCA9685_ADDRESS_0);
    1ad2:	6a e0       	ldi	r22, 0x0A	; 10
    1ad4:	80 e4       	ldi	r24, 0x40	; 64
    1ad6:	0e 94 fb 01 	call	0x3f6	; 0x3f6 <CmpPCA9685SendBuffer>
	}
}
    1ada:	cf 91       	pop	r28
    1adc:	1f 91       	pop	r17
    1ade:	0f 91       	pop	r16
    1ae0:	ff 90       	pop	r15
    1ae2:	ef 90       	pop	r14
    1ae4:	df 90       	pop	r13
    1ae6:	cf 90       	pop	r12
    1ae8:	08 95       	ret

00001aea <DrvServoGetStruture>:

// get the servo structure pointer at index
SServo* DrvServoGetStruture( Int8U index )
{
	//check index
	if( index < NB_SERVOS )
    1aea:	83 31       	cpi	r24, 0x13	; 19
    1aec:	68 f4       	brcc	.+26     	; 0x1b08 <DrvServoGetStruture+0x1e>
	{
		//return right servo structure
		return &servos[ index ];
    1aee:	90 e0       	ldi	r25, 0x00	; 0
    1af0:	9c 01       	movw	r18, r24
    1af2:	22 0f       	add	r18, r18
    1af4:	33 1f       	adc	r19, r19
    1af6:	82 0f       	add	r24, r18
    1af8:	93 1f       	adc	r25, r19
    1afa:	88 0f       	add	r24, r24
    1afc:	99 1f       	adc	r25, r25
    1afe:	88 0f       	add	r24, r24
    1b00:	99 1f       	adc	r25, r25
    1b02:	81 50       	subi	r24, 0x01	; 1
    1b04:	9c 4f       	sbci	r25, 0xFC	; 252
    1b06:	08 95       	ret
	}
	//return null if wrong
	return NULL;
    1b08:	80 e0       	ldi	r24, 0x00	; 0
    1b0a:	90 e0       	ldi	r25, 0x00	; 0
}
    1b0c:	08 95       	ret

00001b0e <__vector_19>:


////////////////////////////////////////ISR FUNCTIONS/////////////////////////////////////////

ISR(SPI_STC_vect)
{
    1b0e:	1f 92       	push	r1
    1b10:	0f 92       	push	r0
    1b12:	0f b6       	in	r0, 0x3f	; 63
    1b14:	0f 92       	push	r0
    1b16:	11 24       	eor	r1, r1
    1b18:	8f 93       	push	r24
	SPDR = data;
    1b1a:	80 91 e3 04 	lds	r24, 0x04E3	; 0x8004e3 <data>
    1b1e:	8e bd       	out	0x2e, r24	; 46
}
    1b20:	8f 91       	pop	r24
    1b22:	0f 90       	pop	r0
    1b24:	0f be       	out	0x3f, r0	; 63
    1b26:	0f 90       	pop	r0
    1b28:	1f 90       	pop	r1
    1b2a:	18 95       	reti

00001b2c <DrvTickInit>:
Int32U DrvTickGetTimeSec(void)
{
	Int32U ms = 0U;
	ms = DrvTickGetTimeMs();
    return (Int32U)(ms / 1000U) ;
}
    1b2c:	10 92 e4 04 	sts	0x04E4, r1	; 0x8004e4 <tickCounter>
    1b30:	10 92 e5 04 	sts	0x04E5, r1	; 0x8004e5 <tickCounter+0x1>
    1b34:	10 92 e6 04 	sts	0x04E6, r1	; 0x8004e6 <tickCounter+0x2>
    1b38:	10 92 e7 04 	sts	0x04E7, r1	; 0x8004e7 <tickCounter+0x3>
    1b3c:	14 bc       	out	0x24, r1	; 36
    1b3e:	16 bc       	out	0x26, r1	; 38
    1b40:	84 b5       	in	r24, 0x24	; 36
    1b42:	8e 7f       	andi	r24, 0xFE	; 254
    1b44:	84 bd       	out	0x24, r24	; 36
    1b46:	84 b5       	in	r24, 0x24	; 36
    1b48:	8d 7f       	andi	r24, 0xFD	; 253
    1b4a:	84 bd       	out	0x24, r24	; 36
    1b4c:	85 b5       	in	r24, 0x25	; 37
    1b4e:	87 7f       	andi	r24, 0xF7	; 247
    1b50:	85 bd       	out	0x25, r24	; 37
    1b52:	85 b5       	in	r24, 0x25	; 37
    1b54:	82 60       	ori	r24, 0x02	; 2
    1b56:	85 bd       	out	0x25, r24	; 37
    1b58:	85 b5       	in	r24, 0x25	; 37
    1b5a:	8e 7f       	andi	r24, 0xFE	; 254
    1b5c:	85 bd       	out	0x25, r24	; 37
    1b5e:	ee e6       	ldi	r30, 0x6E	; 110
    1b60:	f0 e0       	ldi	r31, 0x00	; 0
    1b62:	80 81       	ld	r24, Z
    1b64:	81 60       	ori	r24, 0x01	; 1
    1b66:	80 83       	st	Z, r24
    1b68:	81 e0       	ldi	r24, 0x01	; 1
    1b6a:	08 95       	ret

00001b6c <DrvTickGetTimeUs>:
    1b6c:	3f b7       	in	r19, 0x3f	; 63
    1b6e:	f8 94       	cli
    1b70:	80 91 e4 04 	lds	r24, 0x04E4	; 0x8004e4 <tickCounter>
    1b74:	90 91 e5 04 	lds	r25, 0x04E5	; 0x8004e5 <tickCounter+0x1>
    1b78:	a0 91 e6 04 	lds	r26, 0x04E6	; 0x8004e6 <tickCounter+0x2>
    1b7c:	b0 91 e7 04 	lds	r27, 0x04E7	; 0x8004e7 <tickCounter+0x3>
    1b80:	26 b5       	in	r18, 0x26	; 38
    1b82:	a8 9b       	sbis	0x15, 0	; 21
    1b84:	05 c0       	rjmp	.+10     	; 0x1b90 <DrvTickGetTimeUs+0x24>
    1b86:	2f 3f       	cpi	r18, 0xFF	; 255
    1b88:	19 f0       	breq	.+6      	; 0x1b90 <DrvTickGetTimeUs+0x24>
    1b8a:	01 96       	adiw	r24, 0x01	; 1
    1b8c:	a1 1d       	adc	r26, r1
    1b8e:	b1 1d       	adc	r27, r1
    1b90:	3f bf       	out	0x3f, r19	; 63
    1b92:	ba 2f       	mov	r27, r26
    1b94:	a9 2f       	mov	r26, r25
    1b96:	98 2f       	mov	r25, r24
    1b98:	88 27       	eor	r24, r24
    1b9a:	82 0f       	add	r24, r18
    1b9c:	91 1d       	adc	r25, r1
    1b9e:	a1 1d       	adc	r26, r1
    1ba0:	b1 1d       	adc	r27, r1
    1ba2:	bc 01       	movw	r22, r24
    1ba4:	cd 01       	movw	r24, r26
    1ba6:	96 95       	lsr	r25
    1ba8:	87 95       	ror	r24
    1baa:	77 95       	ror	r23
    1bac:	67 95       	ror	r22
    1bae:	08 95       	ret

00001bb0 <DrvTickGetTimeMs>:
    1bb0:	dd df       	rcall	.-70     	; 0x1b6c <DrvTickGetTimeUs>
    1bb2:	28 ee       	ldi	r18, 0xE8	; 232
    1bb4:	33 e0       	ldi	r19, 0x03	; 3
    1bb6:	40 e0       	ldi	r20, 0x00	; 0
    1bb8:	50 e0       	ldi	r21, 0x00	; 0
    1bba:	0e 94 5e 25 	call	0x4abc	; 0x4abc <__udivmodsi4>
    1bbe:	ca 01       	movw	r24, r20
    1bc0:	b9 01       	movw	r22, r18
    1bc2:	08 95       	ret

00001bc4 <DrvTickDelayUs>:
	DrvTickDelayUs(delay_ms * 1000UL);
}


void DrvTickDelayUs( Int32U delay_us )
{
    1bc4:	cf 92       	push	r12
    1bc6:	df 92       	push	r13
    1bc8:	ef 92       	push	r14
    1bca:	ff 92       	push	r15
    1bcc:	6b 01       	movw	r12, r22
    1bce:	7c 01       	movw	r14, r24
	Int32U timeToWait = 0UL;
	timeToWait = (Int32U)(DrvTickGetTimeUs() + (Int32U)delay_us);
    1bd0:	cd df       	rcall	.-102    	; 0x1b6c <DrvTickGetTimeUs>
    1bd2:	c6 0e       	add	r12, r22
    1bd4:	d7 1e       	adc	r13, r23
    1bd6:	e8 1e       	adc	r14, r24
    1bd8:	f9 1e       	adc	r15, r25
	do 
	{
		if(DrvTickGetTimeUs() >= timeToWait)
    1bda:	c8 df       	rcall	.-112    	; 0x1b6c <DrvTickGetTimeUs>
    1bdc:	6c 15       	cp	r22, r12
    1bde:	7d 05       	cpc	r23, r13
    1be0:	8e 05       	cpc	r24, r14
    1be2:	9f 05       	cpc	r25, r15
    1be4:	d0 f3       	brcs	.-12     	; 0x1bda <DrvTickDelayUs+0x16>
    1be6:	ff 90       	pop	r15
		{
			break;
		}
	} while (TRUE);
}
    1be8:	ef 90       	pop	r14
    1bea:	df 90       	pop	r13
    1bec:	cf 90       	pop	r12
    1bee:	08 95       	ret

00001bf0 <DrvTickDelayMs>:
    1bf0:	9c 01       	movw	r18, r24
}


void DrvTickDelayMs( Int16U delay_ms )
{
	DrvTickDelayUs(delay_ms * 1000UL);
    1bf2:	a8 ee       	ldi	r26, 0xE8	; 232
    1bf4:	b3 e0       	ldi	r27, 0x03	; 3
    1bf6:	0e 94 89 25 	call	0x4b12	; 0x4b12 <__umulhisi3>
    1bfa:	e4 cf       	rjmp	.-56     	; 0x1bc4 <DrvTickDelayUs>
    1bfc:	08 95       	ret

00001bfe <__vector_18>:


///////////////////////////////////////////ISR FUNCTIONS//////////////////////////////////////////
//ISR timer system 0.5s * 256 =  0.128 ms
ISR(TIMER0_OVF_vect) 
{
    1bfe:	1f 92       	push	r1
    1c00:	0f 92       	push	r0
    1c02:	0f b6       	in	r0, 0x3f	; 63
    1c04:	0f 92       	push	r0
    1c06:	11 24       	eor	r1, r1
    1c08:	8f 93       	push	r24
    1c0a:	9f 93       	push	r25
    1c0c:	af 93       	push	r26
    1c0e:	bf 93       	push	r27
	tickCounter += 1UL ;
    1c10:	80 91 e4 04 	lds	r24, 0x04E4	; 0x8004e4 <tickCounter>
    1c14:	90 91 e5 04 	lds	r25, 0x04E5	; 0x8004e5 <tickCounter+0x1>
    1c18:	a0 91 e6 04 	lds	r26, 0x04E6	; 0x8004e6 <tickCounter+0x2>
    1c1c:	b0 91 e7 04 	lds	r27, 0x04E7	; 0x8004e7 <tickCounter+0x3>
    1c20:	01 96       	adiw	r24, 0x01	; 1
    1c22:	a1 1d       	adc	r26, r1
    1c24:	b1 1d       	adc	r27, r1
    1c26:	80 93 e4 04 	sts	0x04E4, r24	; 0x8004e4 <tickCounter>
    1c2a:	90 93 e5 04 	sts	0x04E5, r25	; 0x8004e5 <tickCounter+0x1>
    1c2e:	a0 93 e6 04 	sts	0x04E6, r26	; 0x8004e6 <tickCounter+0x2>
    1c32:	b0 93 e7 04 	sts	0x04E7, r27	; 0x8004e7 <tickCounter+0x3>
}
    1c36:	bf 91       	pop	r27
    1c38:	af 91       	pop	r26
    1c3a:	9f 91       	pop	r25
    1c3c:	8f 91       	pop	r24
    1c3e:	0f 90       	pop	r0
    1c40:	0f be       	out	0x3f, r0	; 63
    1c42:	0f 90       	pop	r0
    1c44:	1f 90       	pop	r1
    1c46:	18 95       	reti

00001c48 <DrvTimerInit>:

//fct qui fixe un delay au timer
void DrvTimerDelayTimer( Int8U index_timer , Int16U delay)
{
	MesTimers[ index_timer ].cpt_delay = 0U;	
	MesTimers[ index_timer ].delay	  = delay;
    1c48:	e3 e4       	ldi	r30, 0x43	; 67
    1c4a:	fe e0       	ldi	r31, 0x0E	; 14
    1c4c:	10 82       	st	Z, r1
    1c4e:	10 86       	std	Z+8, r1	; 0x08
    1c50:	17 82       	std	Z+7, r1	; 0x07
    1c52:	10 92 b0 00 	sts	0x00B0, r1	; 0x8000b0 <__TEXT_REGION_LENGTH__+0x7e00b0>
    1c56:	10 92 b2 00 	sts	0x00B2, r1	; 0x8000b2 <__TEXT_REGION_LENGTH__+0x7e00b2>
    1c5a:	e1 eb       	ldi	r30, 0xB1	; 177
    1c5c:	f0 e0       	ldi	r31, 0x00	; 0
    1c5e:	80 81       	ld	r24, Z
    1c60:	81 60       	ori	r24, 0x01	; 1
    1c62:	80 83       	st	Z, r24
    1c64:	80 81       	ld	r24, Z
    1c66:	84 60       	ori	r24, 0x04	; 4
    1c68:	80 83       	st	Z, r24
    1c6a:	8d e7       	ldi	r24, 0x7D	; 125
    1c6c:	80 93 b3 00 	sts	0x00B3, r24	; 0x8000b3 <__TEXT_REGION_LENGTH__+0x7e00b3>
    1c70:	b9 9a       	sbi	0x17, 1	; 23
    1c72:	e0 e7       	ldi	r30, 0x70	; 112
    1c74:	f0 e0       	ldi	r31, 0x00	; 0
    1c76:	80 81       	ld	r24, Z
    1c78:	82 60       	ori	r24, 0x02	; 2
    1c7a:	80 83       	st	Z, r24
    1c7c:	81 e0       	ldi	r24, 0x01	; 1
    1c7e:	08 95       	ret

00001c80 <DrvTimerStopTimer>:
    1c80:	90 e0       	ldi	r25, 0x00	; 0
    1c82:	fc 01       	movw	r30, r24
    1c84:	ee 0f       	add	r30, r30
    1c86:	ff 1f       	adc	r31, r31
    1c88:	ee 0f       	add	r30, r30
    1c8a:	ff 1f       	adc	r31, r31
    1c8c:	ee 0f       	add	r30, r30
    1c8e:	ff 1f       	adc	r31, r31
    1c90:	8e 0f       	add	r24, r30
    1c92:	9f 1f       	adc	r25, r31
    1c94:	fc 01       	movw	r30, r24
    1c96:	ed 5b       	subi	r30, 0xBD	; 189
    1c98:	f1 4f       	sbci	r31, 0xF1	; 241
    1c9a:	10 82       	st	Z, r1
    1c9c:	12 82       	std	Z+2, r1	; 0x02
    1c9e:	11 82       	std	Z+1, r1	; 0x01
    1ca0:	14 82       	std	Z+4, r1	; 0x04
    1ca2:	13 82       	std	Z+3, r1	; 0x03
    1ca4:	82 e0       	ldi	r24, 0x02	; 2
    1ca6:	85 83       	std	Z+5, r24	; 0x05
    1ca8:	10 86       	std	Z+8, r1	; 0x08
    1caa:	17 82       	std	Z+7, r1	; 0x07
    1cac:	08 95       	ret

00001cae <DrvTimerTickReset>:

//on reset tt les timers
void DrvTimerTickReset(void)
{
	//stop IT
	BIT_LOW(TIMSK2,OCIE2A);
    1cae:	e0 e7       	ldi	r30, 0x70	; 112
    1cb0:	f0 e0       	ldi	r31, 0x00	; 0
    1cb2:	80 81       	ld	r24, Z
    1cb4:	8d 7f       	andi	r24, 0xFD	; 253
    1cb6:	80 83       	st	Z, r24
	//set the threshold
	OCR2A   = TIMER2_OFFSET_COMPA;
    1cb8:	8d e7       	ldi	r24, 0x7D	; 125
    1cba:	80 93 b3 00 	sts	0x00B3, r24	; 0x8000b3 <__TEXT_REGION_LENGTH__+0x7e00b3>
	//on configure les timers autre que le timer event
	for(Int8U loop_index = 0U; loop_index < E_NB_TIMER ; loop_index++ )
	{
		MesTimers[ loop_index ].cpt_delay = 0U;	
    1cbe:	10 92 47 0e 	sts	0x0E47, r1	; 0x800e47 <MesTimers+0x4>
    1cc2:	10 92 46 0e 	sts	0x0E46, r1	; 0x800e46 <MesTimers+0x3>
	}
	//reset the counter
	TCNT2	= 0U;
    1cc6:	10 92 b2 00 	sts	0x00B2, r1	; 0x8000b2 <__TEXT_REGION_LENGTH__+0x7e00b2>
	//enable the IT
	BIT_HIGH(TIMSK2,OCIE2A);
    1cca:	80 81       	ld	r24, Z
    1ccc:	82 60       	ori	r24, 0x02	; 2
    1cce:	80 83       	st	Z, r24
    1cd0:	08 95       	ret

00001cd2 <__vector_9>:


/////////////////////////////////////ISR PRIVATE FUNCTIONS////////////////////////////////////////
//ISR timer event 1ms
ISR(TIMER2_COMPA_vect)
{
    1cd2:	1f 92       	push	r1
    1cd4:	0f 92       	push	r0
    1cd6:	0f b6       	in	r0, 0x3f	; 63
    1cd8:	0f 92       	push	r0
    1cda:	11 24       	eor	r1, r1
    1cdc:	0b b6       	in	r0, 0x3b	; 59
    1cde:	0f 92       	push	r0
    1ce0:	0f 93       	push	r16
    1ce2:	1f 93       	push	r17
    1ce4:	2f 93       	push	r18
    1ce6:	3f 93       	push	r19
    1ce8:	4f 93       	push	r20
    1cea:	5f 93       	push	r21
    1cec:	6f 93       	push	r22
    1cee:	7f 93       	push	r23
    1cf0:	8f 93       	push	r24
    1cf2:	9f 93       	push	r25
    1cf4:	af 93       	push	r26
    1cf6:	bf 93       	push	r27
    1cf8:	cf 93       	push	r28
    1cfa:	ef 93       	push	r30
    1cfc:	ff 93       	push	r31
	//on prend le temps de debut d'interruption
	Int8U tcnt2_start = TCNT2;
    1cfe:	c0 91 b2 00 	lds	r28, 0x00B2	; 0x8000b2 <__TEXT_REGION_LENGTH__+0x7e00b2>
	for(Int8U loop_index = 0U; loop_index < E_NB_TIMER ; loop_index++ )
	{
		//si le timer est activ
		if( MesTimers[ loop_index ].enable == TRUE )
    1d02:	80 91 43 0e 	lds	r24, 0x0E43	; 0x800e43 <MesTimers>
    1d06:	81 30       	cpi	r24, 0x01	; 1
    1d08:	69 f5       	brne	.+90     	; 0x1d64 <__vector_9+0x92>
		{
			//on incremente le compteur
			MesTimers[ loop_index ].cpt_delay++;
    1d0a:	e3 e4       	ldi	r30, 0x43	; 67
    1d0c:	fe e0       	ldi	r31, 0x0E	; 14
    1d0e:	83 81       	ldd	r24, Z+3	; 0x03
    1d10:	94 81       	ldd	r25, Z+4	; 0x04
    1d12:	01 96       	adiw	r24, 0x01	; 1
    1d14:	94 83       	std	Z+4, r25	; 0x04
    1d16:	83 83       	std	Z+3, r24	; 0x03
			
			//on test par rapport a la valeur utilisateur
			if(MesTimers[ loop_index ].cpt_delay == MesTimers[ loop_index ].delay )
    1d18:	23 81       	ldd	r18, Z+3	; 0x03
    1d1a:	34 81       	ldd	r19, Z+4	; 0x04
    1d1c:	81 81       	ldd	r24, Z+1	; 0x01
    1d1e:	92 81       	ldd	r25, Z+2	; 0x02
    1d20:	28 17       	cp	r18, r24
    1d22:	39 07       	cpc	r19, r25
    1d24:	f9 f4       	brne	.+62     	; 0x1d64 <__vector_9+0x92>
			{
				if( MesTimers[ loop_index ].mode != E_TIMER_MODE_NONE )
    1d26:	80 91 48 0e 	lds	r24, 0x0E48	; 0x800e48 <MesTimers+0x5>
    1d2a:	82 30       	cpi	r24, 0x02	; 2
    1d2c:	d9 f0       	breq	.+54     	; 0x1d64 <__vector_9+0x92>
				{
					//on remet a zero le compteur
					MesTimers[ loop_index ].cpt_delay = 0U;
    1d2e:	14 82       	std	Z+4, r1	; 0x04
    1d30:	13 82       	std	Z+3, r1	; 0x03
					
					//si on est en mode ONE SHOT 
					//on atteind le temp, on supprime le timer
					if (MesTimers[ loop_index ].mode == E_TIMER_MODE_ONE_SHOT)
    1d32:	85 81       	ldd	r24, Z+5	; 0x05
    1d34:	81 11       	cpse	r24, r1
    1d36:	0b c0       	rjmp	.+22     	; 0x1d4e <__vector_9+0x7c>
					{
						//on garde la fonction appel avant de tt effacer
						ptrfct_Isr_Callback_Timer ptrfct = MesTimers[ loop_index ].ptrfct;
    1d38:	00 91 4a 0e 	lds	r16, 0x0E4A	; 0x800e4a <MesTimers+0x7>
    1d3c:	10 91 4b 0e 	lds	r17, 0x0E4B	; 0x800e4b <MesTimers+0x8>
						//on supprime le timer One Shot
						DrvTimerStopTimer( loop_index );
    1d40:	9f df       	rcall	.-194    	; 0x1c80 <DrvTimerStopTimer>
						//on appelle la fonction
						if( ptrfct != NULL )
    1d42:	01 15       	cp	r16, r1
    1d44:	11 05       	cpc	r17, r1
    1d46:	71 f0       	breq	.+28     	; 0x1d64 <__vector_9+0x92>
						{
							ptrfct();
    1d48:	f8 01       	movw	r30, r16
    1d4a:	09 95       	icall
    1d4c:	0b c0       	rjmp	.+22     	; 0x1d64 <__vector_9+0x92>
						}
					}
					else
					{
						//on appelle la fonction
						if( MesTimers[ loop_index ].ptrfct != NULL )
    1d4e:	80 91 4a 0e 	lds	r24, 0x0E4A	; 0x800e4a <MesTimers+0x7>
    1d52:	90 91 4b 0e 	lds	r25, 0x0E4B	; 0x800e4b <MesTimers+0x8>
    1d56:	89 2b       	or	r24, r25
    1d58:	29 f0       	breq	.+10     	; 0x1d64 <__vector_9+0x92>
						{
							MesTimers[ loop_index ].ptrfct();
    1d5a:	e0 91 4a 0e 	lds	r30, 0x0E4A	; 0x800e4a <MesTimers+0x7>
    1d5e:	f0 91 4b 0e 	lds	r31, 0x0E4B	; 0x800e4b <MesTimers+0x8>
    1d62:	09 95       	icall
				}
			}
		}			
	}
	//on prend le temps de fin d'interruption
	Int8U tcnt2_end = TCNT2;
    1d64:	80 91 b2 00 	lds	r24, 0x00B2	; 0x8000b2 <__TEXT_REGION_LENGTH__+0x7e00b2>
	//reenclanche le timer dans 1ms
	OCR2A = tcnt2_end + TIMER2_OFFSET_COMPA - (tcnt2_end - tcnt2_start) - 1U ;
    1d68:	c4 58       	subi	r28, 0x84	; 132
    1d6a:	c0 93 b3 00 	sts	0x00B3, r28	; 0x8000b3 <__TEXT_REGION_LENGTH__+0x7e00b3>
    1d6e:	ff 91       	pop	r31
    1d70:	ef 91       	pop	r30
    1d72:	cf 91       	pop	r28
    1d74:	bf 91       	pop	r27
    1d76:	af 91       	pop	r26
    1d78:	9f 91       	pop	r25
    1d7a:	8f 91       	pop	r24
    1d7c:	7f 91       	pop	r23
    1d7e:	6f 91       	pop	r22
    1d80:	5f 91       	pop	r21
    1d82:	4f 91       	pop	r20
    1d84:	3f 91       	pop	r19
    1d86:	2f 91       	pop	r18
    1d88:	1f 91       	pop	r17
    1d8a:	0f 91       	pop	r16
    1d8c:	0f 90       	pop	r0
    1d8e:	0b be       	out	0x3b, r0	; 59
    1d90:	0f 90       	pop	r0
    1d92:	0f be       	out	0x3f, r0	; 63
    1d94:	0f 90       	pop	r0
    1d96:	1f 90       	pop	r1
    1d98:	18 95       	reti

00001d9a <DrvTwiWaitTransmission>:
				}
			}
		}
	}
	return read_no_error; 
}	
    1d9a:	8f ef       	ldi	r24, 0xFF	; 255
    1d9c:	ec eb       	ldi	r30, 0xBC	; 188
    1d9e:	f0 e0       	ldi	r31, 0x00	; 0
    1da0:	0e c0       	rjmp	.+28     	; 0x1dbe <DrvTwiWaitTransmission+0x24>
    1da2:	81 50       	subi	r24, 0x01	; 1
    1da4:	61 f4       	brne	.+24     	; 0x1dbe <DrvTwiWaitTransmission+0x24>
    1da6:	80 91 e8 04 	lds	r24, 0x04E8	; 0x8004e8 <errorsCount>
    1daa:	90 91 e9 04 	lds	r25, 0x04E9	; 0x8004e9 <errorsCount+0x1>
    1dae:	01 96       	adiw	r24, 0x01	; 1
    1db0:	90 93 e9 04 	sts	0x04E9, r25	; 0x8004e9 <errorsCount+0x1>
    1db4:	80 93 e8 04 	sts	0x04E8, r24	; 0x8004e8 <errorsCount>
    1db8:	10 92 bc 00 	sts	0x00BC, r1	; 0x8000bc <__TEXT_REGION_LENGTH__+0x7e00bc>
    1dbc:	08 95       	ret
    1dbe:	90 81       	ld	r25, Z
    1dc0:	99 23       	and	r25, r25
    1dc2:	7c f7       	brge	.-34     	; 0x1da2 <DrvTwiWaitTransmission+0x8>
    1dc4:	08 95       	ret

00001dc6 <DrvTwiInit>:
    1dc6:	cf 93       	push	r28
    1dc8:	df 93       	push	r29
    1dca:	c2 e0       	ldi	r28, 0x02	; 2
    1dcc:	d1 e0       	ldi	r29, 0x01	; 1
    1dce:	88 81       	ld	r24, Y
    1dd0:	0e 94 8d 03 	call	0x71a	; 0x71a <DrvIoSetPinOutput>
    1dd4:	89 81       	ldd	r24, Y+1	; 0x01
    1dd6:	0e 94 8d 03 	call	0x71a	; 0x71a <DrvIoSetPinOutput>
    1dda:	8c e5       	ldi	r24, 0x5C	; 92
    1ddc:	80 93 b8 00 	sts	0x00B8, r24	; 0x8000b8 <__TEXT_REGION_LENGTH__+0x7e00b8>
    1de0:	10 92 b9 00 	sts	0x00B9, r1	; 0x8000b9 <__TEXT_REGION_LENGTH__+0x7e00b9>
    1de4:	84 e0       	ldi	r24, 0x04	; 4
    1de6:	80 93 bc 00 	sts	0x00BC, r24	; 0x8000bc <__TEXT_REGION_LENGTH__+0x7e00bc>
    1dea:	10 92 e9 04 	sts	0x04E9, r1	; 0x8004e9 <errorsCount+0x1>
    1dee:	10 92 e8 04 	sts	0x04E8, r1	; 0x8004e8 <errorsCount>
    1df2:	81 e0       	ldi	r24, 0x01	; 1
    1df4:	df 91       	pop	r29
    1df6:	cf 91       	pop	r28
    1df8:	08 95       	ret

00001dfa <DrvTwiReadReg>:
    1dfa:	0f 93       	push	r16
    1dfc:	1f 93       	push	r17
    1dfe:	cf 93       	push	r28
    1e00:	df 93       	push	r29
    1e02:	c8 2f       	mov	r28, r24
    1e04:	d6 2f       	mov	r29, r22
    1e06:	8a 01       	movw	r16, r20
    1e08:	84 ea       	ldi	r24, 0xA4	; 164
    1e0a:	80 93 bc 00 	sts	0x00BC, r24	; 0x8000bc <__TEXT_REGION_LENGTH__+0x7e00bc>
    1e0e:	c5 df       	rcall	.-118    	; 0x1d9a <DrvTwiWaitTransmission>
    1e10:	80 91 b9 00 	lds	r24, 0x00B9	; 0x8000b9 <__TEXT_REGION_LENGTH__+0x7e00b9>
    1e14:	88 30       	cpi	r24, 0x08	; 8
    1e16:	29 f0       	breq	.+10     	; 0x1e22 <DrvTwiReadReg+0x28>
    1e18:	80 91 b9 00 	lds	r24, 0x00B9	; 0x8000b9 <__TEXT_REGION_LENGTH__+0x7e00b9>
    1e1c:	80 31       	cpi	r24, 0x10	; 16
    1e1e:	09 f0       	breq	.+2      	; 0x1e22 <DrvTwiReadReg+0x28>
    1e20:	49 c0       	rjmp	.+146    	; 0x1eb4 <DrvTwiReadReg+0xba>
    1e22:	8c 2f       	mov	r24, r28
    1e24:	88 0f       	add	r24, r24
    1e26:	80 93 bb 00 	sts	0x00BB, r24	; 0x8000bb <__TEXT_REGION_LENGTH__+0x7e00bb>
    1e2a:	84 e8       	ldi	r24, 0x84	; 132
    1e2c:	80 93 bc 00 	sts	0x00BC, r24	; 0x8000bc <__TEXT_REGION_LENGTH__+0x7e00bc>
    1e30:	b4 df       	rcall	.-152    	; 0x1d9a <DrvTwiWaitTransmission>
    1e32:	80 91 b9 00 	lds	r24, 0x00B9	; 0x8000b9 <__TEXT_REGION_LENGTH__+0x7e00b9>
    1e36:	88 31       	cpi	r24, 0x18	; 24
    1e38:	09 f0       	breq	.+2      	; 0x1e3c <DrvTwiReadReg+0x42>
    1e3a:	3e c0       	rjmp	.+124    	; 0x1eb8 <DrvTwiReadReg+0xbe>
    1e3c:	d0 93 bb 00 	sts	0x00BB, r29	; 0x8000bb <__TEXT_REGION_LENGTH__+0x7e00bb>
    1e40:	84 e8       	ldi	r24, 0x84	; 132
    1e42:	80 93 bc 00 	sts	0x00BC, r24	; 0x8000bc <__TEXT_REGION_LENGTH__+0x7e00bc>
    1e46:	a9 df       	rcall	.-174    	; 0x1d9a <DrvTwiWaitTransmission>
    1e48:	80 91 b9 00 	lds	r24, 0x00B9	; 0x8000b9 <__TEXT_REGION_LENGTH__+0x7e00b9>
    1e4c:	88 32       	cpi	r24, 0x28	; 40
    1e4e:	b1 f5       	brne	.+108    	; 0x1ebc <DrvTwiReadReg+0xc2>
    1e50:	84 ea       	ldi	r24, 0xA4	; 164
    1e52:	80 93 bc 00 	sts	0x00BC, r24	; 0x8000bc <__TEXT_REGION_LENGTH__+0x7e00bc>
    1e56:	a1 df       	rcall	.-190    	; 0x1d9a <DrvTwiWaitTransmission>
    1e58:	80 91 b9 00 	lds	r24, 0x00B9	; 0x8000b9 <__TEXT_REGION_LENGTH__+0x7e00b9>
    1e5c:	80 31       	cpi	r24, 0x10	; 16
    1e5e:	81 f5       	brne	.+96     	; 0x1ec0 <DrvTwiReadReg+0xc6>
    1e60:	cc 0f       	add	r28, r28
    1e62:	c1 60       	ori	r28, 0x01	; 1
    1e64:	c0 93 bb 00 	sts	0x00BB, r28	; 0x8000bb <__TEXT_REGION_LENGTH__+0x7e00bb>
    1e68:	84 e8       	ldi	r24, 0x84	; 132
    1e6a:	80 93 bc 00 	sts	0x00BC, r24	; 0x8000bc <__TEXT_REGION_LENGTH__+0x7e00bc>
    1e6e:	95 df       	rcall	.-214    	; 0x1d9a <DrvTwiWaitTransmission>
    1e70:	80 91 b9 00 	lds	r24, 0x00B9	; 0x8000b9 <__TEXT_REGION_LENGTH__+0x7e00b9>
    1e74:	80 34       	cpi	r24, 0x40	; 64
    1e76:	31 f5       	brne	.+76     	; 0x1ec4 <DrvTwiReadReg+0xca>
    1e78:	84 e8       	ldi	r24, 0x84	; 132
    1e7a:	80 93 bc 00 	sts	0x00BC, r24	; 0x8000bc <__TEXT_REGION_LENGTH__+0x7e00bc>
    1e7e:	8d df       	rcall	.-230    	; 0x1d9a <DrvTwiWaitTransmission>
    1e80:	80 91 b9 00 	lds	r24, 0x00B9	; 0x8000b9 <__TEXT_REGION_LENGTH__+0x7e00b9>
    1e84:	88 35       	cpi	r24, 0x58	; 88
    1e86:	01 f5       	brne	.+64     	; 0x1ec8 <DrvTwiReadReg+0xce>
    1e88:	80 91 bb 00 	lds	r24, 0x00BB	; 0x8000bb <__TEXT_REGION_LENGTH__+0x7e00bb>
    1e8c:	f8 01       	movw	r30, r16
    1e8e:	80 83       	st	Z, r24
    1e90:	84 e9       	ldi	r24, 0x94	; 148
    1e92:	80 93 bc 00 	sts	0x00BC, r24	; 0x8000bc <__TEXT_REGION_LENGTH__+0x7e00bc>
    1e96:	80 91 b9 00 	lds	r24, 0x00B9	; 0x8000b9 <__TEXT_REGION_LENGTH__+0x7e00b9>
    1e9a:	88 3f       	cpi	r24, 0xF8	; 248
    1e9c:	b9 f0       	breq	.+46     	; 0x1ecc <DrvTwiReadReg+0xd2>
    1e9e:	80 91 e8 04 	lds	r24, 0x04E8	; 0x8004e8 <errorsCount>
    1ea2:	90 91 e9 04 	lds	r25, 0x04E9	; 0x8004e9 <errorsCount+0x1>
    1ea6:	01 96       	adiw	r24, 0x01	; 1
    1ea8:	90 93 e9 04 	sts	0x04E9, r25	; 0x8004e9 <errorsCount+0x1>
    1eac:	80 93 e8 04 	sts	0x04E8, r24	; 0x8004e8 <errorsCount>
    1eb0:	80 e0       	ldi	r24, 0x00	; 0
    1eb2:	0d c0       	rjmp	.+26     	; 0x1ece <DrvTwiReadReg+0xd4>
    1eb4:	80 e0       	ldi	r24, 0x00	; 0
    1eb6:	0b c0       	rjmp	.+22     	; 0x1ece <DrvTwiReadReg+0xd4>
    1eb8:	80 e0       	ldi	r24, 0x00	; 0
    1eba:	09 c0       	rjmp	.+18     	; 0x1ece <DrvTwiReadReg+0xd4>
    1ebc:	80 e0       	ldi	r24, 0x00	; 0
    1ebe:	07 c0       	rjmp	.+14     	; 0x1ece <DrvTwiReadReg+0xd4>
    1ec0:	80 e0       	ldi	r24, 0x00	; 0
    1ec2:	05 c0       	rjmp	.+10     	; 0x1ece <DrvTwiReadReg+0xd4>
    1ec4:	80 e0       	ldi	r24, 0x00	; 0
    1ec6:	03 c0       	rjmp	.+6      	; 0x1ece <DrvTwiReadReg+0xd4>
    1ec8:	80 e0       	ldi	r24, 0x00	; 0
    1eca:	01 c0       	rjmp	.+2      	; 0x1ece <DrvTwiReadReg+0xd4>
    1ecc:	81 e0       	ldi	r24, 0x01	; 1
    1ece:	df 91       	pop	r29
    1ed0:	cf 91       	pop	r28
    1ed2:	1f 91       	pop	r17
    1ed4:	0f 91       	pop	r16
    1ed6:	08 95       	ret

00001ed8 <DrvTwiWriteReg>:
    1ed8:	1f 93       	push	r17
    1eda:	cf 93       	push	r28
    1edc:	df 93       	push	r29
    1ede:	c8 2f       	mov	r28, r24
    1ee0:	d6 2f       	mov	r29, r22
    1ee2:	14 2f       	mov	r17, r20
    1ee4:	84 ea       	ldi	r24, 0xA4	; 164
    1ee6:	80 93 bc 00 	sts	0x00BC, r24	; 0x8000bc <__TEXT_REGION_LENGTH__+0x7e00bc>
    1eea:	57 df       	rcall	.-338    	; 0x1d9a <DrvTwiWaitTransmission>
    1eec:	80 91 b9 00 	lds	r24, 0x00B9	; 0x8000b9 <__TEXT_REGION_LENGTH__+0x7e00b9>
    1ef0:	88 30       	cpi	r24, 0x08	; 8
    1ef2:	21 f0       	breq	.+8      	; 0x1efc <DrvTwiWriteReg+0x24>
    1ef4:	80 91 b9 00 	lds	r24, 0x00B9	; 0x8000b9 <__TEXT_REGION_LENGTH__+0x7e00b9>
    1ef8:	80 31       	cpi	r24, 0x10	; 16
    1efa:	89 f5       	brne	.+98     	; 0x1f5e <DrvTwiWriteReg+0x86>
    1efc:	cc 0f       	add	r28, r28
    1efe:	c0 93 bb 00 	sts	0x00BB, r28	; 0x8000bb <__TEXT_REGION_LENGTH__+0x7e00bb>
    1f02:	84 e8       	ldi	r24, 0x84	; 132
    1f04:	80 93 bc 00 	sts	0x00BC, r24	; 0x8000bc <__TEXT_REGION_LENGTH__+0x7e00bc>
    1f08:	48 df       	rcall	.-368    	; 0x1d9a <DrvTwiWaitTransmission>
    1f0a:	80 91 b9 00 	lds	r24, 0x00B9	; 0x8000b9 <__TEXT_REGION_LENGTH__+0x7e00b9>
    1f0e:	88 31       	cpi	r24, 0x18	; 24
    1f10:	41 f5       	brne	.+80     	; 0x1f62 <DrvTwiWriteReg+0x8a>
    1f12:	d0 93 bb 00 	sts	0x00BB, r29	; 0x8000bb <__TEXT_REGION_LENGTH__+0x7e00bb>
    1f16:	84 e8       	ldi	r24, 0x84	; 132
    1f18:	80 93 bc 00 	sts	0x00BC, r24	; 0x8000bc <__TEXT_REGION_LENGTH__+0x7e00bc>
    1f1c:	3e df       	rcall	.-388    	; 0x1d9a <DrvTwiWaitTransmission>
    1f1e:	80 91 b9 00 	lds	r24, 0x00B9	; 0x8000b9 <__TEXT_REGION_LENGTH__+0x7e00b9>
    1f22:	88 32       	cpi	r24, 0x28	; 40
    1f24:	01 f5       	brne	.+64     	; 0x1f66 <DrvTwiWriteReg+0x8e>
    1f26:	10 93 bb 00 	sts	0x00BB, r17	; 0x8000bb <__TEXT_REGION_LENGTH__+0x7e00bb>
    1f2a:	84 e8       	ldi	r24, 0x84	; 132
    1f2c:	80 93 bc 00 	sts	0x00BC, r24	; 0x8000bc <__TEXT_REGION_LENGTH__+0x7e00bc>
    1f30:	34 df       	rcall	.-408    	; 0x1d9a <DrvTwiWaitTransmission>
    1f32:	80 91 b9 00 	lds	r24, 0x00B9	; 0x8000b9 <__TEXT_REGION_LENGTH__+0x7e00b9>
    1f36:	88 32       	cpi	r24, 0x28	; 40
    1f38:	c1 f4       	brne	.+48     	; 0x1f6a <DrvTwiWriteReg+0x92>
    1f3a:	84 e9       	ldi	r24, 0x94	; 148
    1f3c:	80 93 bc 00 	sts	0x00BC, r24	; 0x8000bc <__TEXT_REGION_LENGTH__+0x7e00bc>
    1f40:	80 91 b9 00 	lds	r24, 0x00B9	; 0x8000b9 <__TEXT_REGION_LENGTH__+0x7e00b9>
    1f44:	88 3f       	cpi	r24, 0xF8	; 248
    1f46:	99 f0       	breq	.+38     	; 0x1f6e <DrvTwiWriteReg+0x96>
    1f48:	80 91 e8 04 	lds	r24, 0x04E8	; 0x8004e8 <errorsCount>
    1f4c:	90 91 e9 04 	lds	r25, 0x04E9	; 0x8004e9 <errorsCount+0x1>
    1f50:	01 96       	adiw	r24, 0x01	; 1
    1f52:	90 93 e9 04 	sts	0x04E9, r25	; 0x8004e9 <errorsCount+0x1>
    1f56:	80 93 e8 04 	sts	0x04E8, r24	; 0x8004e8 <errorsCount>
    1f5a:	80 e0       	ldi	r24, 0x00	; 0
    1f5c:	09 c0       	rjmp	.+18     	; 0x1f70 <DrvTwiWriteReg+0x98>
    1f5e:	80 e0       	ldi	r24, 0x00	; 0
    1f60:	07 c0       	rjmp	.+14     	; 0x1f70 <DrvTwiWriteReg+0x98>
    1f62:	80 e0       	ldi	r24, 0x00	; 0
    1f64:	05 c0       	rjmp	.+10     	; 0x1f70 <DrvTwiWriteReg+0x98>
    1f66:	80 e0       	ldi	r24, 0x00	; 0
    1f68:	03 c0       	rjmp	.+6      	; 0x1f70 <DrvTwiWriteReg+0x98>
    1f6a:	80 e0       	ldi	r24, 0x00	; 0
    1f6c:	01 c0       	rjmp	.+2      	; 0x1f70 <DrvTwiWriteReg+0x98>
    1f6e:	81 e0       	ldi	r24, 0x01	; 1
    1f70:	df 91       	pop	r29
    1f72:	cf 91       	pop	r28
    1f74:	1f 91       	pop	r17
    1f76:	08 95       	ret

00001f78 <DrvTwiWriteRegBuf>:

/************************************************************************/
/*Write many registers                                                  */
/************************************************************************/
Boolean DrvTwiWriteRegBuf(Int8U slave_address, Int8U slave_register, Int8U *buffer, Int8U buffer_size)
{
    1f78:	9f 92       	push	r9
    1f7a:	af 92       	push	r10
    1f7c:	bf 92       	push	r11
    1f7e:	cf 92       	push	r12
    1f80:	df 92       	push	r13
    1f82:	ef 92       	push	r14
    1f84:	ff 92       	push	r15
    1f86:	0f 93       	push	r16
    1f88:	1f 93       	push	r17
    1f8a:	cf 93       	push	r28
    1f8c:	df 93       	push	r29
    1f8e:	c8 2f       	mov	r28, r24
    1f90:	f6 2e       	mov	r15, r22
    1f92:	8a 01       	movw	r16, r20
    1f94:	d2 2f       	mov	r29, r18
	Boolean o_success = TRUE;
	
	TWCR = (1U<<TWINT)|(1U<<TWSTA)|(1U<<TWEN);           // SEND START
    1f96:	84 ea       	ldi	r24, 0xA4	; 164
    1f98:	80 93 bc 00 	sts	0x00BC, r24	; 0x8000bc <__TEXT_REGION_LENGTH__+0x7e00bc>
	DrvTwiWaitTransmission();
    1f9c:	fe de       	rcall	.-516    	; 0x1d9a <DrvTwiWaitTransmission>

	if  ( ((TWSR==TW_START) || (TWSR==TW_REP_START)) )
    1f9e:	80 91 b9 00 	lds	r24, 0x00B9	; 0x8000b9 <__TEXT_REGION_LENGTH__+0x7e00b9>
    1fa2:	88 30       	cpi	r24, 0x08	; 8
    1fa4:	29 f0       	breq	.+10     	; 0x1fb0 <DrvTwiWriteRegBuf+0x38>
    1fa6:	80 91 b9 00 	lds	r24, 0x00B9	; 0x8000b9 <__TEXT_REGION_LENGTH__+0x7e00b9>
    1faa:	80 31       	cpi	r24, 0x10	; 16
    1fac:	09 f0       	breq	.+2      	; 0x1fb0 <DrvTwiWriteRegBuf+0x38>
    1fae:	51 c0       	rjmp	.+162    	; 0x2052 <DrvTwiWriteRegBuf+0xda>
	{
		//send slave address
		TWDR =  (slave_address << 1 ) | TW_WRITE;
    1fb0:	cc 0f       	add	r28, r28
    1fb2:	c0 93 bb 00 	sts	0x00BB, r28	; 0x8000bb <__TEXT_REGION_LENGTH__+0x7e00bb>
		TWCR = (1U << TWINT) | (1U << TWEN);
    1fb6:	84 e8       	ldi	r24, 0x84	; 132
    1fb8:	80 93 bc 00 	sts	0x00BC, r24	; 0x8000bc <__TEXT_REGION_LENGTH__+0x7e00bc>
		DrvTwiWaitTransmission();
    1fbc:	ee de       	rcall	.-548    	; 0x1d9a <DrvTwiWaitTransmission>
		if ( (TWSR==TW_MT_SLA_ACK) )
    1fbe:	80 91 b9 00 	lds	r24, 0x00B9	; 0x8000b9 <__TEXT_REGION_LENGTH__+0x7e00b9>
    1fc2:	88 31       	cpi	r24, 0x18	; 24
    1fc4:	09 f0       	breq	.+2      	; 0x1fc8 <DrvTwiWriteRegBuf+0x50>
    1fc6:	47 c0       	rjmp	.+142    	; 0x2056 <DrvTwiWriteRegBuf+0xde>
		{
			//send register address
			TWDR = slave_register;
    1fc8:	f0 92 bb 00 	sts	0x00BB, r15	; 0x8000bb <__TEXT_REGION_LENGTH__+0x7e00bb>
			TWCR = (1U<<TWINT) | (1U<<TWEN);
    1fcc:	84 e8       	ldi	r24, 0x84	; 132
    1fce:	80 93 bc 00 	sts	0x00BC, r24	; 0x8000bc <__TEXT_REGION_LENGTH__+0x7e00bc>
			DrvTwiWaitTransmission();
    1fd2:	e3 de       	rcall	.-570    	; 0x1d9a <DrvTwiWaitTransmission>
			if ( (TWSR==TW_MT_DATA_ACK) )
    1fd4:	80 91 b9 00 	lds	r24, 0x00B9	; 0x8000b9 <__TEXT_REGION_LENGTH__+0x7e00b9>
    1fd8:	88 32       	cpi	r24, 0x28	; 40
    1fda:	09 f0       	breq	.+2      	; 0x1fde <DrvTwiWriteRegBuf+0x66>
    1fdc:	3e c0       	rjmp	.+124    	; 0x205a <DrvTwiWriteRegBuf+0xe2>
			{
				for ( Int8U loop_write_twi = 0 ; loop_write_twi < buffer_size; loop_write_twi++ )
    1fde:	dd 23       	and	r29, r29
    1fe0:	99 f1       	breq	.+102    	; 0x2048 <DrvTwiWriteRegBuf+0xd0>
    1fe2:	78 01       	movw	r14, r16
    1fe4:	d1 50       	subi	r29, 0x01	; 1
    1fe6:	cd 2f       	mov	r28, r29
    1fe8:	d0 e0       	ldi	r29, 0x00	; 0
    1fea:	21 96       	adiw	r28, 0x01	; 1
    1fec:	c0 0f       	add	r28, r16
    1fee:	d1 1f       	adc	r29, r17
				{
					TWDR =  *buffer++;                                     // DATA TO WRITE
    1ff0:	0f 2e       	mov	r0, r31
    1ff2:	fb eb       	ldi	r31, 0xBB	; 187
    1ff4:	af 2e       	mov	r10, r31
    1ff6:	b1 2c       	mov	r11, r1
    1ff8:	f0 2d       	mov	r31, r0
					TWCR = (1U<<TWINT) | (1U<<TWEN);                       // send clock
    1ffa:	0f 2e       	mov	r0, r31
    1ffc:	fc eb       	ldi	r31, 0xBC	; 188
    1ffe:	cf 2e       	mov	r12, r31
    2000:	d1 2c       	mov	r13, r1
    2002:	f0 2d       	mov	r31, r0
    2004:	0f 2e       	mov	r0, r31
    2006:	f4 e8       	ldi	r31, 0x84	; 132
    2008:	9f 2e       	mov	r9, r31
    200a:	f0 2d       	mov	r31, r0
					DrvTwiWaitTransmission();
					
					if ( (TWSR!=TW_MT_DATA_ACK) )  
    200c:	09 eb       	ldi	r16, 0xB9	; 185
    200e:	10 e0       	ldi	r17, 0x00	; 0
			DrvTwiWaitTransmission();
			if ( (TWSR==TW_MT_DATA_ACK) )
			{
				for ( Int8U loop_write_twi = 0 ; loop_write_twi < buffer_size; loop_write_twi++ )
				{
					TWDR =  *buffer++;                                     // DATA TO WRITE
    2010:	f7 01       	movw	r30, r14
    2012:	81 91       	ld	r24, Z+
    2014:	7f 01       	movw	r14, r30
    2016:	f5 01       	movw	r30, r10
					TWCR = (1U<<TWINT) | (1U<<TWEN);                       // send clock
    2018:	80 83       	st	Z, r24
    201a:	f6 01       	movw	r30, r12
					DrvTwiWaitTransmission();
    201c:	90 82       	st	Z, r9
    201e:	bd de       	rcall	.-646    	; 0x1d9a <DrvTwiWaitTransmission>
					
					if ( (TWSR!=TW_MT_DATA_ACK) )  
    2020:	f8 01       	movw	r30, r16
    2022:	80 81       	ld	r24, Z
    2024:	88 32       	cpi	r24, 0x28	; 40
    2026:	59 f0       	breq	.+22     	; 0x203e <DrvTwiWriteRegBuf+0xc6>
					{
						o_success = FALSE;
						errorsCount++;
    2028:	80 91 e8 04 	lds	r24, 0x04E8	; 0x8004e8 <errorsCount>
    202c:	90 91 e9 04 	lds	r25, 0x04E9	; 0x8004e9 <errorsCount+0x1>
    2030:	01 96       	adiw	r24, 0x01	; 1
    2032:	90 93 e9 04 	sts	0x04E9, r25	; 0x8004e9 <errorsCount+0x1>
    2036:	80 93 e8 04 	sts	0x04E8, r24	; 0x8004e8 <errorsCount>
					TWCR = (1U<<TWINT) | (1U<<TWEN);                       // send clock
					DrvTwiWaitTransmission();
					
					if ( (TWSR!=TW_MT_DATA_ACK) )  
					{
						o_success = FALSE;
    203a:	80 e0       	ldi	r24, 0x00	; 0
						errorsCount++;
						break;
    203c:	06 c0       	rjmp	.+12     	; 0x204a <DrvTwiWriteRegBuf+0xd2>
			TWDR = slave_register;
			TWCR = (1U<<TWINT) | (1U<<TWEN);
			DrvTwiWaitTransmission();
			if ( (TWSR==TW_MT_DATA_ACK) )
			{
				for ( Int8U loop_write_twi = 0 ; loop_write_twi < buffer_size; loop_write_twi++ )
    203e:	ce 15       	cp	r28, r14
    2040:	df 05       	cpc	r29, r15
    2042:	31 f7       	brne	.-52     	; 0x2010 <DrvTwiWriteRegBuf+0x98>
/************************************************************************/
/*Write many registers                                                  */
/************************************************************************/
Boolean DrvTwiWriteRegBuf(Int8U slave_address, Int8U slave_register, Int8U *buffer, Int8U buffer_size)
{
	Boolean o_success = TRUE;
    2044:	81 e0       	ldi	r24, 0x01	; 1
    2046:	01 c0       	rjmp	.+2      	; 0x204a <DrvTwiWriteRegBuf+0xd2>
    2048:	81 e0       	ldi	r24, 0x01	; 1
						o_success = FALSE;
						errorsCount++;
						break;
					}
				}
				TWCR = (1U<<TWINT) | (1U<<TWEN)| (1U<<TWSTO);       // send stop
    204a:	94 e9       	ldi	r25, 0x94	; 148
    204c:	90 93 bc 00 	sts	0x00BC, r25	; 0x8000bc <__TEXT_REGION_LENGTH__+0x7e00bc>
    2050:	05 c0       	rjmp	.+10     	; 0x205c <DrvTwiWriteRegBuf+0xe4>
/************************************************************************/
/*Write many registers                                                  */
/************************************************************************/
Boolean DrvTwiWriteRegBuf(Int8U slave_address, Int8U slave_register, Int8U *buffer, Int8U buffer_size)
{
	Boolean o_success = TRUE;
    2052:	81 e0       	ldi	r24, 0x01	; 1
    2054:	03 c0       	rjmp	.+6      	; 0x205c <DrvTwiWriteRegBuf+0xe4>
    2056:	81 e0       	ldi	r24, 0x01	; 1
    2058:	01 c0       	rjmp	.+2      	; 0x205c <DrvTwiWriteRegBuf+0xe4>
    205a:	81 e0       	ldi	r24, 0x01	; 1
				TWCR = (1U<<TWINT) | (1U<<TWEN)| (1U<<TWSTO);       // send stop
			}
		}
	}
	return o_success;
}
    205c:	df 91       	pop	r29
    205e:	cf 91       	pop	r28
    2060:	1f 91       	pop	r17
    2062:	0f 91       	pop	r16
    2064:	ff 90       	pop	r15
    2066:	ef 90       	pop	r14
    2068:	df 90       	pop	r13
    206a:	cf 90       	pop	r12
    206c:	bf 90       	pop	r11
    206e:	af 90       	pop	r10
    2070:	9f 90       	pop	r9
    2072:	08 95       	ret

00002074 <DrvUartInit>:

Int8U DrvUartDataUsedTXBuff(Int8U indexUart) 
{
	Int8U nbDataUsed = uartRingBuffer[indexUart].Tx.Head - uartRingBuffer[indexUart].Tx.Tail;
	return nbDataUsed % MAX_BUFFER;
}
    2074:	cf 93       	push	r28
    2076:	df 93       	push	r29
    2078:	c4 e0       	ldi	r28, 0x04	; 4
    207a:	d1 e0       	ldi	r29, 0x01	; 1
    207c:	89 81       	ldd	r24, Y+1	; 0x01
    207e:	0e 94 8d 03 	call	0x71a	; 0x71a <DrvIoSetPinOutput>
    2082:	88 81       	ld	r24, Y
    2084:	0e 94 a6 03 	call	0x74c	; 0x74c <DrvIoSetPinInput>
    2088:	84 e1       	ldi	r24, 0x14	; 20
    208a:	90 e0       	ldi	r25, 0x00	; 0
    208c:	90 93 c5 00 	sts	0x00C5, r25	; 0x8000c5 <__TEXT_REGION_LENGTH__+0x7e00c5>
    2090:	80 93 c4 00 	sts	0x00C4, r24	; 0x8000c4 <__TEXT_REGION_LENGTH__+0x7e00c4>
    2094:	e0 ec       	ldi	r30, 0xC0	; 192
    2096:	f0 e0       	ldi	r31, 0x00	; 0
    2098:	80 81       	ld	r24, Z
    209a:	82 60       	ori	r24, 0x02	; 2
    209c:	80 83       	st	Z, r24
    209e:	e1 ec       	ldi	r30, 0xC1	; 193
    20a0:	f0 e0       	ldi	r31, 0x00	; 0
    20a2:	80 81       	ld	r24, Z
    20a4:	80 61       	ori	r24, 0x10	; 16
    20a6:	80 83       	st	Z, r24
    20a8:	80 81       	ld	r24, Z
    20aa:	88 60       	ori	r24, 0x08	; 8
    20ac:	80 83       	st	Z, r24
    20ae:	a2 ec       	ldi	r26, 0xC2	; 194
    20b0:	b0 e0       	ldi	r27, 0x00	; 0
    20b2:	8c 91       	ld	r24, X
    20b4:	82 60       	ori	r24, 0x02	; 2
    20b6:	8c 93       	st	X, r24
    20b8:	80 81       	ld	r24, Z
    20ba:	8f 7b       	andi	r24, 0xBF	; 191
    20bc:	80 83       	st	Z, r24
    20be:	80 81       	ld	r24, Z
    20c0:	8f 7d       	andi	r24, 0xDF	; 223
    20c2:	80 83       	st	Z, r24
    20c4:	80 81       	ld	r24, Z
    20c6:	80 68       	ori	r24, 0x80	; 128
    20c8:	80 83       	st	Z, r24
    20ca:	81 e0       	ldi	r24, 0x01	; 1
    20cc:	df 91       	pop	r29
    20ce:	cf 91       	pop	r28
    20d0:	08 95       	ret

000020d2 <DrvUartFillTxBuffer>:
    20d2:	24 e0       	ldi	r18, 0x04	; 4
    20d4:	34 e0       	ldi	r19, 0x04	; 4
    20d6:	48 2f       	mov	r20, r24
    20d8:	42 9f       	mul	r20, r18
    20da:	c0 01       	movw	r24, r0
    20dc:	43 9f       	mul	r20, r19
    20de:	90 0d       	add	r25, r0
    20e0:	11 24       	eor	r1, r1
    20e2:	86 51       	subi	r24, 0x16	; 22
    20e4:	9b 4f       	sbci	r25, 0xFB	; 251
    20e6:	dc 01       	movw	r26, r24
    20e8:	ae 5f       	subi	r26, 0xFE	; 254
    20ea:	bd 4f       	sbci	r27, 0xFD	; 253
    20ec:	2c 91       	ld	r18, X
    20ee:	2f 5f       	subi	r18, 0xFF	; 255
    20f0:	82 0f       	add	r24, r18
    20f2:	91 1d       	adc	r25, r1
    20f4:	fc 01       	movw	r30, r24
    20f6:	ec 5f       	subi	r30, 0xFC	; 252
    20f8:	fd 4f       	sbci	r31, 0xFD	; 253
    20fa:	60 83       	st	Z, r22
    20fc:	2c 93       	st	X, r18
    20fe:	81 e0       	ldi	r24, 0x01	; 1
    2100:	08 95       	ret

00002102 <DrvUartSendData>:
    2102:	81 11       	cpse	r24, r1
    2104:	07 c0       	rjmp	.+14     	; 0x2114 <DrvUartSendData+0x12>
    2106:	e1 ec       	ldi	r30, 0xC1	; 193
    2108:	f0 e0       	ldi	r31, 0x00	; 0
    210a:	80 81       	ld	r24, Z
    210c:	80 62       	ori	r24, 0x20	; 32
    210e:	80 83       	st	Z, r24
    2110:	81 e0       	ldi	r24, 0x01	; 1
    2112:	08 95       	ret
    2114:	80 e0       	ldi	r24, 0x00	; 0
    2116:	08 95       	ret

00002118 <DrvUartReadData>:
    2118:	28 2f       	mov	r18, r24
    211a:	30 e0       	ldi	r19, 0x00	; 0
    211c:	84 e0       	ldi	r24, 0x04	; 4
    211e:	94 e0       	ldi	r25, 0x04	; 4
    2120:	28 9f       	mul	r18, r24
    2122:	f0 01       	movw	r30, r0
    2124:	29 9f       	mul	r18, r25
    2126:	f0 0d       	add	r31, r0
    2128:	38 9f       	mul	r19, r24
    212a:	f0 0d       	add	r31, r0
    212c:	11 24       	eor	r1, r1
    212e:	e6 51       	subi	r30, 0x16	; 22
    2130:	fb 4f       	sbci	r31, 0xFB	; 251
    2132:	91 81       	ldd	r25, Z+1	; 0x01
    2134:	df 01       	movw	r26, r30
    2136:	a9 0f       	add	r26, r25
    2138:	b1 1d       	adc	r27, r1
    213a:	12 96       	adiw	r26, 0x02	; 2
    213c:	8c 91       	ld	r24, X
    213e:	40 81       	ld	r20, Z
    2140:	94 17       	cp	r25, r20
    2142:	69 f0       	breq	.+26     	; 0x215e <DrvUartReadData+0x46>
    2144:	9f 5f       	subi	r25, 0xFF	; 255
    2146:	44 e0       	ldi	r20, 0x04	; 4
    2148:	54 e0       	ldi	r21, 0x04	; 4
    214a:	24 9f       	mul	r18, r20
    214c:	f0 01       	movw	r30, r0
    214e:	25 9f       	mul	r18, r21
    2150:	f0 0d       	add	r31, r0
    2152:	34 9f       	mul	r19, r20
    2154:	f0 0d       	add	r31, r0
    2156:	11 24       	eor	r1, r1
    2158:	e6 51       	subi	r30, 0x16	; 22
    215a:	fb 4f       	sbci	r31, 0xFB	; 251
    215c:	91 83       	std	Z+1, r25	; 0x01
    215e:	08 95       	ret

00002160 <DrvUartDataAvailable>:
    2160:	24 e0       	ldi	r18, 0x04	; 4
    2162:	34 e0       	ldi	r19, 0x04	; 4
    2164:	48 2f       	mov	r20, r24
    2166:	42 9f       	mul	r20, r18
    2168:	c0 01       	movw	r24, r0
    216a:	43 9f       	mul	r20, r19
    216c:	90 0d       	add	r25, r0
    216e:	11 24       	eor	r1, r1
    2170:	fc 01       	movw	r30, r24
    2172:	e6 51       	subi	r30, 0x16	; 22
    2174:	fb 4f       	sbci	r31, 0xFB	; 251
    2176:	80 81       	ld	r24, Z
    2178:	91 81       	ldd	r25, Z+1	; 0x01
    217a:	89 1b       	sub	r24, r25
    217c:	08 95       	ret

0000217e <__vector_20>:
	ISR(USART0_RX_vect)
#endif
#ifdef USART_RX_vect
	ISR(USART_RX_vect)
#endif
{
    217e:	1f 92       	push	r1
    2180:	0f 92       	push	r0
    2182:	0f b6       	in	r0, 0x3f	; 63
    2184:	0f 92       	push	r0
    2186:	11 24       	eor	r1, r1
    2188:	0b b6       	in	r0, 0x3b	; 59
    218a:	0f 92       	push	r0
    218c:	8f 93       	push	r24
    218e:	9f 93       	push	r25
    2190:	af 93       	push	r26
    2192:	bf 93       	push	r27
    2194:	ef 93       	push	r30
    2196:	ff 93       	push	r31
	Int8U head = uartRingBuffer[E_UART_0].Rx.Head;
    2198:	aa ee       	ldi	r26, 0xEA	; 234
    219a:	b4 e0       	ldi	r27, 0x04	; 4
    219c:	ec 91       	ld	r30, X
	uartRingBuffer[E_UART_0].Rx.Buffer[head++] = UDR0;
    219e:	81 e0       	ldi	r24, 0x01	; 1
    21a0:	8e 0f       	add	r24, r30
    21a2:	f0 e0       	ldi	r31, 0x00	; 0
    21a4:	90 91 c6 00 	lds	r25, 0x00C6	; 0x8000c6 <__TEXT_REGION_LENGTH__+0x7e00c6>
    21a8:	e6 51       	subi	r30, 0x16	; 22
    21aa:	fb 4f       	sbci	r31, 0xFB	; 251
    21ac:	92 83       	std	Z+2, r25	; 0x02
	if (head >= MAX_BUFFER)
	{
		head = 0U;
	}
	uartRingBuffer[E_UART_0].Rx.Head = head;
    21ae:	8c 93       	st	X, r24
}
    21b0:	ff 91       	pop	r31
    21b2:	ef 91       	pop	r30
    21b4:	bf 91       	pop	r27
    21b6:	af 91       	pop	r26
    21b8:	9f 91       	pop	r25
    21ba:	8f 91       	pop	r24
    21bc:	0f 90       	pop	r0
    21be:	0b be       	out	0x3b, r0	; 59
    21c0:	0f 90       	pop	r0
    21c2:	0f be       	out	0x3f, r0	; 63
    21c4:	0f 90       	pop	r0
    21c6:	1f 90       	pop	r1
    21c8:	18 95       	reti

000021ca <__vector_21>:
ISR(USART_UDRE_vect)
#endif
#ifdef USART0_UDRE_vect
ISR(USART0_UDRE_vect)
#endif
{
    21ca:	1f 92       	push	r1
    21cc:	0f 92       	push	r0
    21ce:	0f b6       	in	r0, 0x3f	; 63
    21d0:	0f 92       	push	r0
    21d2:	11 24       	eor	r1, r1
    21d4:	0b b6       	in	r0, 0x3b	; 59
    21d6:	0f 92       	push	r0
    21d8:	8f 93       	push	r24
    21da:	9f 93       	push	r25
    21dc:	ef 93       	push	r30
    21de:	ff 93       	push	r31
	Int8U tail = uartRingBuffer[E_UART_0].Tx.Tail;
    21e0:	90 91 ed 06 	lds	r25, 0x06ED	; 0x8006ed <uartRingBuffer+0x203>
	if (uartRingBuffer[E_UART_0].Tx.Head != tail)
    21e4:	80 91 ec 06 	lds	r24, 0x06EC	; 0x8006ec <uartRingBuffer+0x202>
    21e8:	98 17       	cp	r25, r24
    21ea:	59 f0       	breq	.+22     	; 0x2202 <__vector_21+0x38>
	{
		if (++tail >= MAX_BUFFER)
    21ec:	81 e0       	ldi	r24, 0x01	; 1
    21ee:	89 0f       	add	r24, r25
		{
			tail = 0U;
		}
		UDR0 = uartRingBuffer[E_UART_0].Tx.Buffer[tail];
    21f0:	e8 2f       	mov	r30, r24
    21f2:	f0 e0       	ldi	r31, 0x00	; 0
    21f4:	e2 51       	subi	r30, 0x12	; 18
    21f6:	f9 4f       	sbci	r31, 0xF9	; 249
    21f8:	90 81       	ld	r25, Z
    21fa:	90 93 c6 00 	sts	0x00C6, r25	; 0x8000c6 <__TEXT_REGION_LENGTH__+0x7e00c6>
		uartRingBuffer[E_UART_0].Tx.Tail = tail;
    21fe:	80 93 ed 06 	sts	0x06ED, r24	; 0x8006ed <uartRingBuffer+0x203>
	}
	if (tail == uartRingBuffer[E_UART_0].Tx.Head)
    2202:	90 91 ec 06 	lds	r25, 0x06EC	; 0x8006ec <uartRingBuffer+0x202>
    2206:	89 13       	cpse	r24, r25
    2208:	05 c0       	rjmp	.+10     	; 0x2214 <__vector_21+0x4a>
	{
		BIT_LOW(UCSR0B,UDRIE0);
    220a:	e1 ec       	ldi	r30, 0xC1	; 193
    220c:	f0 e0       	ldi	r31, 0x00	; 0
    220e:	80 81       	ld	r24, Z
    2210:	8f 7d       	andi	r24, 0xDF	; 223
    2212:	80 83       	st	Z, r24
	}
}
    2214:	ff 91       	pop	r31
    2216:	ef 91       	pop	r30
    2218:	9f 91       	pop	r25
    221a:	8f 91       	pop	r24
    221c:	0f 90       	pop	r0
    221e:	0b be       	out	0x3b, r0	; 59
    2220:	0f 90       	pop	r0
    2222:	0f be       	out	0x3f, r0	; 63
    2224:	0f 90       	pop	r0
    2226:	1f 90       	pop	r1
    2228:	18 95       	reti

0000222a <__vector_22>:
ISR(USART_TX_vect)
#endif
#ifdef USART0_TX_vect
ISR(USART0_TX_vect)
#endif
{
    222a:	1f 92       	push	r1
    222c:	0f 92       	push	r0
    222e:	0f b6       	in	r0, 0x3f	; 63
    2230:	0f 92       	push	r0
    2232:	11 24       	eor	r1, r1

}
    2234:	0f 90       	pop	r0
    2236:	0f be       	out	0x3f, r0	; 63
    2238:	0f 90       	pop	r0
    223a:	1f 90       	pop	r1
    223c:	18 95       	reti

0000223e <__vector_28>:
#endif // UART_1_PINS


#ifdef UDR1
ISR(USART1_RX_vect)
{
    223e:	1f 92       	push	r1
    2240:	0f 92       	push	r0
    2242:	0f b6       	in	r0, 0x3f	; 63
    2244:	0f 92       	push	r0
    2246:	11 24       	eor	r1, r1
    2248:	0b b6       	in	r0, 0x3b	; 59
    224a:	0f 92       	push	r0
    224c:	8f 93       	push	r24
    224e:	9f 93       	push	r25
    2250:	af 93       	push	r26
    2252:	bf 93       	push	r27
    2254:	ef 93       	push	r30
    2256:	ff 93       	push	r31
	Int8U head = uartRingBuffer[E_UART_0].Rx.Head;
    2258:	aa ee       	ldi	r26, 0xEA	; 234
    225a:	b4 e0       	ldi	r27, 0x04	; 4
    225c:	ec 91       	ld	r30, X
	uartRingBuffer[E_UART_0].Rx.Buffer[head++] = UDR1;
    225e:	81 e0       	ldi	r24, 0x01	; 1
    2260:	8e 0f       	add	r24, r30
    2262:	f0 e0       	ldi	r31, 0x00	; 0
    2264:	90 91 ce 00 	lds	r25, 0x00CE	; 0x8000ce <__TEXT_REGION_LENGTH__+0x7e00ce>
    2268:	e6 51       	subi	r30, 0x16	; 22
    226a:	fb 4f       	sbci	r31, 0xFB	; 251
    226c:	92 83       	std	Z+2, r25	; 0x02
	if (head >= MAX_BUFFER)
	{
		head = 0U;
	}
	uartRingBuffer[E_UART_0].Rx.Head = head;
    226e:	8c 93       	st	X, r24
}
    2270:	ff 91       	pop	r31
    2272:	ef 91       	pop	r30
    2274:	bf 91       	pop	r27
    2276:	af 91       	pop	r26
    2278:	9f 91       	pop	r25
    227a:	8f 91       	pop	r24
    227c:	0f 90       	pop	r0
    227e:	0b be       	out	0x3b, r0	; 59
    2280:	0f 90       	pop	r0
    2282:	0f be       	out	0x3f, r0	; 63
    2284:	0f 90       	pop	r0
    2286:	1f 90       	pop	r1
    2288:	18 95       	reti

0000228a <__vector_29>:

ISR(USART1_UDRE_vect)
{
    228a:	1f 92       	push	r1
    228c:	0f 92       	push	r0
    228e:	0f b6       	in	r0, 0x3f	; 63
    2290:	0f 92       	push	r0
    2292:	11 24       	eor	r1, r1
    2294:	0b b6       	in	r0, 0x3b	; 59
    2296:	0f 92       	push	r0
    2298:	8f 93       	push	r24
    229a:	9f 93       	push	r25
    229c:	ef 93       	push	r30
    229e:	ff 93       	push	r31
	Int8U tail = uartRingBuffer[E_UART_0].Tx.Tail;
    22a0:	90 91 ed 06 	lds	r25, 0x06ED	; 0x8006ed <uartRingBuffer+0x203>
	if (uartRingBuffer[E_UART_0].Tx.Head != tail)
    22a4:	80 91 ec 06 	lds	r24, 0x06EC	; 0x8006ec <uartRingBuffer+0x202>
    22a8:	98 17       	cp	r25, r24
    22aa:	59 f0       	breq	.+22     	; 0x22c2 <__vector_29+0x38>
	{
		if (++tail >= MAX_BUFFER)
    22ac:	81 e0       	ldi	r24, 0x01	; 1
    22ae:	89 0f       	add	r24, r25
		{
			tail = 0U;
		}
		UDR1 = uartRingBuffer[E_UART_0].Tx.Buffer[tail];
    22b0:	e8 2f       	mov	r30, r24
    22b2:	f0 e0       	ldi	r31, 0x00	; 0
    22b4:	e2 51       	subi	r30, 0x12	; 18
    22b6:	f9 4f       	sbci	r31, 0xF9	; 249
    22b8:	90 81       	ld	r25, Z
    22ba:	90 93 ce 00 	sts	0x00CE, r25	; 0x8000ce <__TEXT_REGION_LENGTH__+0x7e00ce>
		uartRingBuffer[E_UART_0].Tx.Tail = tail;
    22be:	80 93 ed 06 	sts	0x06ED, r24	; 0x8006ed <uartRingBuffer+0x203>
	}
	if (tail == uartRingBuffer[E_UART_0].Tx.Head)
    22c2:	90 91 ec 06 	lds	r25, 0x06EC	; 0x8006ec <uartRingBuffer+0x202>
    22c6:	89 13       	cpse	r24, r25
    22c8:	05 c0       	rjmp	.+10     	; 0x22d4 <__vector_29+0x4a>
	{
		BIT_LOW(UCSR1B,UDRIE1);	
    22ca:	e9 ec       	ldi	r30, 0xC9	; 201
    22cc:	f0 e0       	ldi	r31, 0x00	; 0
    22ce:	80 81       	ld	r24, Z
    22d0:	8f 7d       	andi	r24, 0xDF	; 223
    22d2:	80 83       	st	Z, r24
	}
}
    22d4:	ff 91       	pop	r31
    22d6:	ef 91       	pop	r30
    22d8:	9f 91       	pop	r25
    22da:	8f 91       	pop	r24
    22dc:	0f 90       	pop	r0
    22de:	0b be       	out	0x3b, r0	; 59
    22e0:	0f 90       	pop	r0
    22e2:	0f be       	out	0x3f, r0	; 63
    22e4:	0f 90       	pop	r0
    22e6:	1f 90       	pop	r1
    22e8:	18 95       	reti

000022ea <__vector_30>:

ISR(USART1_TX_vect)
{
    22ea:	1f 92       	push	r1
    22ec:	0f 92       	push	r0
    22ee:	0f b6       	in	r0, 0x3f	; 63
    22f0:	0f 92       	push	r0
    22f2:	11 24       	eor	r1, r1

}
    22f4:	0f 90       	pop	r0
    22f6:	0f be       	out	0x3f, r0	; 63
    22f8:	0f 90       	pop	r0
    22fa:	1f 90       	pop	r1
    22fc:	18 95       	reti

000022fe <main>:
int main(void)
{	
	// ********************* Reset Cause **********************************************
	//imu.status.lastResetCause = MCUSR;
	//reset status register
	MCUSR = 0U;
    22fe:	14 be       	out	0x34, r1	; 52
	
	// ********************* Interrupt Vectors ****************************************
	// Enable change of interrupt vectors
	MCUCR |= (1<<IVCE);
    2300:	85 b7       	in	r24, 0x35	; 53
    2302:	81 60       	ori	r24, 0x01	; 1
    2304:	85 bf       	out	0x35, r24	; 53
	// Move interrupts to app flash section
	MCUCR &= ~(1<<IVSEL);
    2306:	85 b7       	in	r24, 0x35	; 53
    2308:	8d 7f       	andi	r24, 0xFD	; 253
    230a:	85 bf       	out	0x35, r24	; 53

	// ********************* Interrupt Disable ****************************************
	cli();
    230c:	f8 94       	cli
				: "r0"
		);
	}
	else
	{
		__asm__ __volatile__ (
    230e:	9e e0       	ldi	r25, 0x0E	; 14
    2310:	88 e1       	ldi	r24, 0x18	; 24
    2312:	0f b6       	in	r0, 0x3f	; 63
    2314:	f8 94       	cli
    2316:	a8 95       	wdr
    2318:	80 93 60 00 	sts	0x0060, r24	; 0x800060 <__TEXT_REGION_LENGTH__+0x7e0060>
    231c:	0f be       	out	0x3f, r0	; 63
    231e:	90 93 60 00 	sts	0x0060, r25	; 0x800060 <__TEXT_REGION_LENGTH__+0x7e0060>
	
	// ********************* WatchDog Enable ******************************************
	wdt_enable(WDTO_1S);
	
	// ********************* Interrupt Enable *****************************************
	sei();
    2322:	78 94       	sei

	// ********************* Core init ****************************************
	SrvCoreInit();
    2324:	0e 94 31 1f 	call	0x3e62	; 0x3e62 <SrvCoreInit>
    2328:	d8 e1       	ldi	r29, 0x18	; 24
    232a:	ce e0       	ldi	r28, 0x0E	; 14
    232c:	0f b6       	in	r0, 0x3f	; 63
    232e:	f8 94       	cli
    2330:	a8 95       	wdr
    2332:	d0 93 60 00 	sts	0x0060, r29	; 0x800060 <__TEXT_REGION_LENGTH__+0x7e0060>
    2336:	0f be       	out	0x3f, r0	; 63
    2338:	c0 93 60 00 	sts	0x0060, r28	; 0x800060 <__TEXT_REGION_LENGTH__+0x7e0060>
	{
		// ********************* Watchdog *********************************************
		wdt_enable(WDTO_1S);
								
		// ********************* Call services******************
		SrvCoreLoop();
    233c:	0e 94 db 1f 	call	0x3fb6	; 0x3fb6 <SrvCoreLoop>
    2340:	f5 cf       	rjmp	.-22     	; 0x232c <main+0x2e>

00002342 <SrvGaitInit>:



//Fonction d'initialisation
Boolean SrvGaitInit ( void ) 
{
    2342:	0f 93       	push	r16
    2344:	1f 93       	push	r17
	positionPath[0].x = 0;
    2346:	ec e4       	ldi	r30, 0x4C	; 76
    2348:	fe e0       	ldi	r31, 0x0E	; 14
    234a:	10 82       	st	Z, r1
    234c:	11 82       	std	Z+1, r1	; 0x01
    234e:	12 82       	std	Z+2, r1	; 0x02
    2350:	13 82       	std	Z+3, r1	; 0x03
	positionPath[0].y = 65;
    2352:	80 e0       	ldi	r24, 0x00	; 0
    2354:	90 e0       	ldi	r25, 0x00	; 0
    2356:	a2 e8       	ldi	r26, 0x82	; 130
    2358:	b2 e4       	ldi	r27, 0x42	; 66
    235a:	84 83       	std	Z+4, r24	; 0x04
    235c:	95 83       	std	Z+5, r25	; 0x05
    235e:	a6 83       	std	Z+6, r26	; 0x06
    2360:	b7 83       	std	Z+7, r27	; 0x07
	positionPath[0].z = 20;
    2362:	40 e0       	ldi	r20, 0x00	; 0
    2364:	50 e0       	ldi	r21, 0x00	; 0
    2366:	60 ea       	ldi	r22, 0xA0	; 160
    2368:	71 e4       	ldi	r23, 0x41	; 65
    236a:	40 87       	std	Z+8, r20	; 0x08
    236c:	51 87       	std	Z+9, r21	; 0x09
    236e:	62 87       	std	Z+10, r22	; 0x0a
    2370:	73 87       	std	Z+11, r23	; 0x0b
	positionPath[1].x = 45;
    2372:	00 e0       	ldi	r16, 0x00	; 0
    2374:	10 e0       	ldi	r17, 0x00	; 0
    2376:	24 e3       	ldi	r18, 0x34	; 52
    2378:	32 e4       	ldi	r19, 0x42	; 66
    237a:	04 87       	std	Z+12, r16	; 0x0c
    237c:	15 87       	std	Z+13, r17	; 0x0d
    237e:	26 87       	std	Z+14, r18	; 0x0e
    2380:	37 87       	std	Z+15, r19	; 0x0f
	positionPath[1].y = 65;
    2382:	80 8b       	std	Z+16, r24	; 0x10
    2384:	91 8b       	std	Z+17, r25	; 0x11
    2386:	a2 8b       	std	Z+18, r26	; 0x12
    2388:	b3 8b       	std	Z+19, r27	; 0x13
	positionPath[1].z = 0;
    238a:	14 8a       	std	Z+20, r1	; 0x14
    238c:	15 8a       	std	Z+21, r1	; 0x15
    238e:	16 8a       	std	Z+22, r1	; 0x16
    2390:	17 8a       	std	Z+23, r1	; 0x17
	positionPath[2].x = 60;
    2392:	00 e0       	ldi	r16, 0x00	; 0
    2394:	10 e0       	ldi	r17, 0x00	; 0
    2396:	20 e7       	ldi	r18, 0x70	; 112
    2398:	32 e4       	ldi	r19, 0x42	; 66
    239a:	00 8f       	std	Z+24, r16	; 0x18
    239c:	11 8f       	std	Z+25, r17	; 0x19
    239e:	22 8f       	std	Z+26, r18	; 0x1a
    23a0:	33 8f       	std	Z+27, r19	; 0x1b
	positionPath[2].y = 65;
    23a2:	84 8f       	std	Z+28, r24	; 0x1c
    23a4:	95 8f       	std	Z+29, r25	; 0x1d
    23a6:	a6 8f       	std	Z+30, r26	; 0x1e
    23a8:	b7 8f       	std	Z+31, r27	; 0x1f
	positionPath[2].z = 20;
    23aa:	40 a3       	std	Z+32, r20	; 0x20
    23ac:	51 a3       	std	Z+33, r21	; 0x21
    23ae:	62 a3       	std	Z+34, r22	; 0x22
    23b0:	73 a3       	std	Z+35, r23	; 0x23
	return DrvLegInit();
    23b2:	0e 94 62 07 	call	0xec4	; 0xec4 <DrvLegInit>
	return TRUE;
}
    23b6:	1f 91       	pop	r17
    23b8:	0f 91       	pop	r16
    23ba:	08 95       	ret

000023bc <SrvGaitUpdate>:
static Int8U toto = 0;

//Fonction de dispatching d'evenements
void SrvGaitUpdate (void)
{
    23bc:	af 92       	push	r10
    23be:	bf 92       	push	r11
    23c0:	cf 92       	push	r12
    23c2:	df 92       	push	r13
    23c4:	ef 92       	push	r14
    23c6:	ff 92       	push	r15
    23c8:	0f 93       	push	r16
    23ca:	1f 93       	push	r17
	DrvLegUpdate();
    23cc:	a4 d8       	rcall	.-3768   	; 0x1516 <DrvLegUpdate>
	if ((DrvTickGetTimeMs() - prevMillisGait) > 5000U)
    23ce:	f0 db       	rcall	.-2080   	; 0x1bb0 <DrvTickGetTimeMs>
    23d0:	00 91 f3 0c 	lds	r16, 0x0CF3	; 0x800cf3 <prevMillisGait>
    23d4:	10 91 f4 0c 	lds	r17, 0x0CF4	; 0x800cf4 <prevMillisGait+0x1>
    23d8:	20 91 f5 0c 	lds	r18, 0x0CF5	; 0x800cf5 <prevMillisGait+0x2>
    23dc:	30 91 f6 0c 	lds	r19, 0x0CF6	; 0x800cf6 <prevMillisGait+0x3>
    23e0:	dc 01       	movw	r26, r24
    23e2:	cb 01       	movw	r24, r22
    23e4:	80 1b       	sub	r24, r16
    23e6:	91 0b       	sbc	r25, r17
    23e8:	a2 0b       	sbc	r26, r18
    23ea:	b3 0b       	sbc	r27, r19
    23ec:	89 38       	cpi	r24, 0x89	; 137
    23ee:	93 41       	sbci	r25, 0x13	; 19
    23f0:	a1 05       	cpc	r26, r1
    23f2:	b1 05       	cpc	r27, r1
    23f4:	70 f1       	brcs	.+92     	; 0x2452 <SrvGaitUpdate+0x96>
    23f6:	80 91 f2 0c 	lds	r24, 0x0CF2	; 0x800cf2 <toto>
	{
		if(DrvLegSetTarget(E_LEG_F_L,positionPath[toto],1000U))
    23fa:	90 e0       	ldi	r25, 0x00	; 0
    23fc:	fc 01       	movw	r30, r24
    23fe:	ee 0f       	add	r30, r30
    2400:	ff 1f       	adc	r31, r31
    2402:	e8 0f       	add	r30, r24
    2404:	f9 1f       	adc	r31, r25
    2406:	ee 0f       	add	r30, r30
    2408:	ff 1f       	adc	r31, r31
    240a:	ee 0f       	add	r30, r30
    240c:	ff 1f       	adc	r31, r31
    240e:	e4 5b       	subi	r30, 0xB4	; 180
    2410:	f1 4f       	sbci	r31, 0xF1	; 241
    2412:	0f 2e       	mov	r0, r31
    2414:	f8 ee       	ldi	r31, 0xE8	; 232
    2416:	af 2e       	mov	r10, r31
    2418:	f3 e0       	ldi	r31, 0x03	; 3
    241a:	bf 2e       	mov	r11, r31
    241c:	f0 2d       	mov	r31, r0
    241e:	c0 80       	ld	r12, Z
    2420:	d1 80       	ldd	r13, Z+1	; 0x01
    2422:	e2 80       	ldd	r14, Z+2	; 0x02
    2424:	f3 80       	ldd	r15, Z+3	; 0x03
    2426:	04 81       	ldd	r16, Z+4	; 0x04
    2428:	15 81       	ldd	r17, Z+5	; 0x05
    242a:	26 81       	ldd	r18, Z+6	; 0x06
    242c:	37 81       	ldd	r19, Z+7	; 0x07
    242e:	40 85       	ldd	r20, Z+8	; 0x08
    2430:	51 85       	ldd	r21, Z+9	; 0x09
    2432:	62 85       	ldd	r22, Z+10	; 0x0a
    2434:	73 85       	ldd	r23, Z+11	; 0x0b
    2436:	80 e0       	ldi	r24, 0x00	; 0
    2438:	02 d8       	rcall	.-4092   	; 0x143e <DrvLegSetTarget>
    243a:	88 23       	and	r24, r24
    243c:	51 f0       	breq	.+20     	; 0x2452 <SrvGaitUpdate+0x96>
    243e:	80 91 f2 0c 	lds	r24, 0x0CF2	; 0x800cf2 <toto>
		{		
			toto++;
    2442:	8f 5f       	subi	r24, 0xFF	; 255
    2444:	83 30       	cpi	r24, 0x03	; 3
			if(toto == 3) 
    2446:	19 f0       	breq	.+6      	; 0x244e <SrvGaitUpdate+0x92>
    2448:	80 93 f2 0c 	sts	0x0CF2, r24	; 0x800cf2 <toto>
	DrvLegUpdate();
	if ((DrvTickGetTimeMs() - prevMillisGait) > 5000U)
	{
		if(DrvLegSetTarget(E_LEG_F_L,positionPath[toto],1000U))
		{		
			toto++;
    244c:	02 c0       	rjmp	.+4      	; 0x2452 <SrvGaitUpdate+0x96>
    244e:	10 92 f2 0c 	sts	0x0CF2, r1	; 0x800cf2 <toto>
			if(toto == 3) 
			{
				toto = 0;
    2452:	1f 91       	pop	r17
			}
			//prevMillisGait = DrvTickGetTimeMs();
		}

	}
}
    2454:	0f 91       	pop	r16
    2456:	ff 90       	pop	r15
    2458:	ef 90       	pop	r14
    245a:	df 90       	pop	r13
    245c:	cf 90       	pop	r12
    245e:	bf 90       	pop	r11
    2460:	af 90       	pop	r10
    2462:	08 95       	ret

00002464 <SrvBodyMoveGetStruct>:
    2464:	80 e7       	ldi	r24, 0x70	; 112
}
//Get Ground Size
float SrvBodyMoveGetGroundSize ( void )
{
	return bodyMove.groundSize;
}
    2466:	9e e0       	ldi	r25, 0x0E	; 14
    2468:	08 95       	ret

0000246a <SrvBodyMoveComputeLegRotationAndTranslation>:
    246a:	8f 92       	push	r8
    246c:	9f 92       	push	r9
    246e:	af 92       	push	r10
    2470:	bf 92       	push	r11
    2472:	cf 92       	push	r12
    2474:	df 92       	push	r13
    2476:	ef 92       	push	r14
    2478:	ff 92       	push	r15
    247a:	0f 93       	push	r16
    247c:	1f 93       	push	r17
    247e:	cf 93       	push	r28
    2480:	df 93       	push	r29
    2482:	ec 01       	movw	r28, r24
    2484:	61 11       	cpse	r22, r1
    2486:	4f c0       	rjmp	.+158    	; 0x2526 <SrvBodyMoveComputeLegRotationAndTranslation+0xbc>
    2488:	00 e7       	ldi	r16, 0x70	; 112
    248a:	1e e0       	ldi	r17, 0x0E	; 14
    248c:	f8 01       	movw	r30, r16
    248e:	21 8d       	ldd	r18, Z+25	; 0x19
    2490:	32 8d       	ldd	r19, Z+26	; 0x1a
    2492:	43 8d       	ldd	r20, Z+27	; 0x1b
    2494:	54 8d       	ldd	r21, Z+28	; 0x1c
    2496:	65 81       	ldd	r22, Z+5	; 0x05
    2498:	76 81       	ldd	r23, Z+6	; 0x06
    249a:	87 81       	ldd	r24, Z+7	; 0x07
    249c:	90 85       	ldd	r25, Z+8	; 0x08
    249e:	0e 94 95 21 	call	0x432a	; 0x432a <__subsf3>
    24a2:	6b 01       	movw	r12, r22
    24a4:	7c 01       	movw	r14, r24
    24a6:	20 e0       	ldi	r18, 0x00	; 0
    24a8:	30 e0       	ldi	r19, 0x00	; 0
    24aa:	40 e7       	ldi	r20, 0x70	; 112
    24ac:	51 e4       	ldi	r21, 0x41	; 65
    24ae:	f8 01       	movw	r30, r16
    24b0:	61 89       	ldd	r22, Z+17	; 0x11
    24b2:	72 89       	ldd	r23, Z+18	; 0x12
    24b4:	83 89       	ldd	r24, Z+19	; 0x13
    24b6:	94 89       	ldd	r25, Z+20	; 0x14
    24b8:	0e 94 96 21 	call	0x432c	; 0x432c <__addsf3>
    24bc:	f8 01       	movw	r30, r16
    24be:	25 89       	ldd	r18, Z+21	; 0x15
    24c0:	36 89       	ldd	r19, Z+22	; 0x16
    24c2:	47 89       	ldd	r20, Z+23	; 0x17
    24c4:	50 8d       	ldd	r21, Z+24	; 0x18
    24c6:	0e 94 95 21 	call	0x432a	; 0x432a <__subsf3>
    24ca:	a7 01       	movw	r20, r14
    24cc:	96 01       	movw	r18, r12
    24ce:	f4 d9       	rcall	.-3096   	; 0x18b8 <DrvLegGetXFromCoxaAngle>
    24d0:	6b 01       	movw	r12, r22
    24d2:	7c 01       	movw	r14, r24
    24d4:	f8 01       	movw	r30, r16
    24d6:	21 8d       	ldd	r18, Z+25	; 0x19
    24d8:	32 8d       	ldd	r19, Z+26	; 0x1a
    24da:	43 8d       	ldd	r20, Z+27	; 0x1b
    24dc:	54 8d       	ldd	r21, Z+28	; 0x1c
    24de:	65 81       	ldd	r22, Z+5	; 0x05
    24e0:	76 81       	ldd	r23, Z+6	; 0x06
    24e2:	87 81       	ldd	r24, Z+7	; 0x07
    24e4:	90 85       	ldd	r25, Z+8	; 0x08
    24e6:	0e 94 95 21 	call	0x432a	; 0x432a <__subsf3>
    24ea:	4b 01       	movw	r8, r22
    24ec:	5c 01       	movw	r10, r24
    24ee:	f8 01       	movw	r30, r16
    24f0:	21 85       	ldd	r18, Z+9	; 0x09
    24f2:	32 85       	ldd	r19, Z+10	; 0x0a
    24f4:	43 85       	ldd	r20, Z+11	; 0x0b
    24f6:	54 85       	ldd	r21, Z+12	; 0x0c
    24f8:	61 81       	ldd	r22, Z+1	; 0x01
    24fa:	72 81       	ldd	r23, Z+2	; 0x02
    24fc:	83 81       	ldd	r24, Z+3	; 0x03
    24fe:	94 81       	ldd	r25, Z+4	; 0x04
    2500:	0e 94 96 21 	call	0x432c	; 0x432c <__addsf3>
    2504:	f8 01       	movw	r30, r16
    2506:	25 85       	ldd	r18, Z+13	; 0x0d
    2508:	36 85       	ldd	r19, Z+14	; 0x0e
    250a:	47 85       	ldd	r20, Z+15	; 0x0f
    250c:	50 89       	ldd	r21, Z+16	; 0x10
    250e:	0e 94 96 21 	call	0x432c	; 0x432c <__addsf3>
    2512:	f8 01       	movw	r30, r16
    2514:	25 8d       	ldd	r18, Z+29	; 0x1d
    2516:	36 8d       	ldd	r19, Z+30	; 0x1e
    2518:	47 8d       	ldd	r20, Z+31	; 0x1f
    251a:	50 a1       	ldd	r21, Z+32	; 0x20
    251c:	0e 94 96 21 	call	0x432c	; 0x432c <__addsf3>
    2520:	8b 01       	movw	r16, r22
    2522:	9c 01       	movw	r18, r24
    2524:	85 c1       	rjmp	.+778    	; 0x2830 <SrvBodyMoveComputeLegRotationAndTranslation+0x3c6>
    2526:	61 30       	cpi	r22, 0x01	; 1
    2528:	09 f0       	breq	.+2      	; 0x252c <SrvBodyMoveComputeLegRotationAndTranslation+0xc2>
    252a:	41 c0       	rjmp	.+130    	; 0x25ae <SrvBodyMoveComputeLegRotationAndTranslation+0x144>
    252c:	00 e7       	ldi	r16, 0x70	; 112
    252e:	1e e0       	ldi	r17, 0x0E	; 14
    2530:	f8 01       	movw	r30, r16
    2532:	21 8d       	ldd	r18, Z+25	; 0x19
    2534:	32 8d       	ldd	r19, Z+26	; 0x1a
    2536:	43 8d       	ldd	r20, Z+27	; 0x1b
    2538:	54 8d       	ldd	r21, Z+28	; 0x1c
    253a:	65 81       	ldd	r22, Z+5	; 0x05
    253c:	76 81       	ldd	r23, Z+6	; 0x06
    253e:	87 81       	ldd	r24, Z+7	; 0x07
    2540:	90 85       	ldd	r25, Z+8	; 0x08
    2542:	0e 94 95 21 	call	0x432a	; 0x432a <__subsf3>
    2546:	6b 01       	movw	r12, r22
    2548:	7c 01       	movw	r14, r24
    254a:	f8 01       	movw	r30, r16
    254c:	25 89       	ldd	r18, Z+21	; 0x15
    254e:	36 89       	ldd	r19, Z+22	; 0x16
    2550:	47 89       	ldd	r20, Z+23	; 0x17
    2552:	50 8d       	ldd	r21, Z+24	; 0x18
    2554:	61 89       	ldd	r22, Z+17	; 0x11
    2556:	72 89       	ldd	r23, Z+18	; 0x12
    2558:	83 89       	ldd	r24, Z+19	; 0x13
    255a:	94 89       	ldd	r25, Z+20	; 0x14
    255c:	0e 94 95 21 	call	0x432a	; 0x432a <__subsf3>
    2560:	a7 01       	movw	r20, r14
    2562:	96 01       	movw	r18, r12
    2564:	a9 d9       	rcall	.-3246   	; 0x18b8 <DrvLegGetXFromCoxaAngle>
    2566:	6b 01       	movw	r12, r22
    2568:	7c 01       	movw	r14, r24
    256a:	f8 01       	movw	r30, r16
    256c:	21 8d       	ldd	r18, Z+25	; 0x19
    256e:	32 8d       	ldd	r19, Z+26	; 0x1a
    2570:	43 8d       	ldd	r20, Z+27	; 0x1b
    2572:	54 8d       	ldd	r21, Z+28	; 0x1c
    2574:	65 81       	ldd	r22, Z+5	; 0x05
    2576:	76 81       	ldd	r23, Z+6	; 0x06
    2578:	87 81       	ldd	r24, Z+7	; 0x07
    257a:	90 85       	ldd	r25, Z+8	; 0x08
    257c:	0e 94 95 21 	call	0x432a	; 0x432a <__subsf3>
    2580:	4b 01       	movw	r8, r22
    2582:	5c 01       	movw	r10, r24
    2584:	f8 01       	movw	r30, r16
    2586:	25 85       	ldd	r18, Z+13	; 0x0d
    2588:	36 85       	ldd	r19, Z+14	; 0x0e
    258a:	47 85       	ldd	r20, Z+15	; 0x0f
    258c:	50 89       	ldd	r21, Z+16	; 0x10
    258e:	61 81       	ldd	r22, Z+1	; 0x01
    2590:	72 81       	ldd	r23, Z+2	; 0x02
    2592:	83 81       	ldd	r24, Z+3	; 0x03
    2594:	94 81       	ldd	r25, Z+4	; 0x04
    2596:	0e 94 96 21 	call	0x432c	; 0x432c <__addsf3>
    259a:	f8 01       	movw	r30, r16
    259c:	25 8d       	ldd	r18, Z+29	; 0x1d
    259e:	36 8d       	ldd	r19, Z+30	; 0x1e
    25a0:	47 8d       	ldd	r20, Z+31	; 0x1f
    25a2:	50 a1       	ldd	r21, Z+32	; 0x20
    25a4:	0e 94 96 21 	call	0x432c	; 0x432c <__addsf3>
    25a8:	8b 01       	movw	r16, r22
    25aa:	9c 01       	movw	r18, r24
    25ac:	41 c1       	rjmp	.+642    	; 0x2830 <SrvBodyMoveComputeLegRotationAndTranslation+0x3c6>
    25ae:	62 30       	cpi	r22, 0x02	; 2
    25b0:	09 f0       	breq	.+2      	; 0x25b4 <SrvBodyMoveComputeLegRotationAndTranslation+0x14a>
    25b2:	53 c0       	rjmp	.+166    	; 0x265a <SrvBodyMoveComputeLegRotationAndTranslation+0x1f0>
    25b4:	00 e7       	ldi	r16, 0x70	; 112
    25b6:	1e e0       	ldi	r17, 0x0E	; 14
    25b8:	f8 01       	movw	r30, r16
    25ba:	21 8d       	ldd	r18, Z+25	; 0x19
    25bc:	32 8d       	ldd	r19, Z+26	; 0x1a
    25be:	43 8d       	ldd	r20, Z+27	; 0x1b
    25c0:	54 8d       	ldd	r21, Z+28	; 0x1c
    25c2:	65 81       	ldd	r22, Z+5	; 0x05
    25c4:	76 81       	ldd	r23, Z+6	; 0x06
    25c6:	87 81       	ldd	r24, Z+7	; 0x07
    25c8:	90 85       	ldd	r25, Z+8	; 0x08
    25ca:	0e 94 95 21 	call	0x432a	; 0x432a <__subsf3>
    25ce:	6b 01       	movw	r12, r22
    25d0:	7c 01       	movw	r14, r24
    25d2:	f8 01       	movw	r30, r16
    25d4:	21 89       	ldd	r18, Z+17	; 0x11
    25d6:	32 89       	ldd	r19, Z+18	; 0x12
    25d8:	43 89       	ldd	r20, Z+19	; 0x13
    25da:	54 89       	ldd	r21, Z+20	; 0x14
    25dc:	60 e0       	ldi	r22, 0x00	; 0
    25de:	70 e0       	ldi	r23, 0x00	; 0
    25e0:	80 e7       	ldi	r24, 0x70	; 112
    25e2:	91 e4       	ldi	r25, 0x41	; 65
    25e4:	0e 94 95 21 	call	0x432a	; 0x432a <__subsf3>
    25e8:	f8 01       	movw	r30, r16
    25ea:	25 89       	ldd	r18, Z+21	; 0x15
    25ec:	36 89       	ldd	r19, Z+22	; 0x16
    25ee:	47 89       	ldd	r20, Z+23	; 0x17
    25f0:	50 8d       	ldd	r21, Z+24	; 0x18
    25f2:	0e 94 96 21 	call	0x432c	; 0x432c <__addsf3>
    25f6:	a7 01       	movw	r20, r14
    25f8:	96 01       	movw	r18, r12
    25fa:	5e d9       	rcall	.-3396   	; 0x18b8 <DrvLegGetXFromCoxaAngle>
    25fc:	6b 01       	movw	r12, r22
    25fe:	7c 01       	movw	r14, r24
    2600:	f7 fa       	bst	r15, 7
    2602:	f0 94       	com	r15
    2604:	f7 f8       	bld	r15, 7
    2606:	f0 94       	com	r15
    2608:	f8 01       	movw	r30, r16
    260a:	21 8d       	ldd	r18, Z+25	; 0x19
    260c:	32 8d       	ldd	r19, Z+26	; 0x1a
    260e:	43 8d       	ldd	r20, Z+27	; 0x1b
    2610:	54 8d       	ldd	r21, Z+28	; 0x1c
    2612:	65 81       	ldd	r22, Z+5	; 0x05
    2614:	76 81       	ldd	r23, Z+6	; 0x06
    2616:	87 81       	ldd	r24, Z+7	; 0x07
    2618:	90 85       	ldd	r25, Z+8	; 0x08
    261a:	0e 94 95 21 	call	0x432a	; 0x432a <__subsf3>
    261e:	4b 01       	movw	r8, r22
    2620:	5c 01       	movw	r10, r24
    2622:	f8 01       	movw	r30, r16
    2624:	21 85       	ldd	r18, Z+9	; 0x09
    2626:	32 85       	ldd	r19, Z+10	; 0x0a
    2628:	43 85       	ldd	r20, Z+11	; 0x0b
    262a:	54 85       	ldd	r21, Z+12	; 0x0c
    262c:	61 81       	ldd	r22, Z+1	; 0x01
    262e:	72 81       	ldd	r23, Z+2	; 0x02
    2630:	83 81       	ldd	r24, Z+3	; 0x03
    2632:	94 81       	ldd	r25, Z+4	; 0x04
    2634:	0e 94 95 21 	call	0x432a	; 0x432a <__subsf3>
    2638:	f8 01       	movw	r30, r16
    263a:	25 85       	ldd	r18, Z+13	; 0x0d
    263c:	36 85       	ldd	r19, Z+14	; 0x0e
    263e:	47 85       	ldd	r20, Z+15	; 0x0f
    2640:	50 89       	ldd	r21, Z+16	; 0x10
    2642:	0e 94 96 21 	call	0x432c	; 0x432c <__addsf3>
    2646:	f8 01       	movw	r30, r16
    2648:	25 8d       	ldd	r18, Z+29	; 0x1d
    264a:	36 8d       	ldd	r19, Z+30	; 0x1e
    264c:	47 8d       	ldd	r20, Z+31	; 0x1f
    264e:	50 a1       	ldd	r21, Z+32	; 0x20
    2650:	0e 94 96 21 	call	0x432c	; 0x432c <__addsf3>
    2654:	8b 01       	movw	r16, r22
    2656:	9c 01       	movw	r18, r24
    2658:	eb c0       	rjmp	.+470    	; 0x2830 <SrvBodyMoveComputeLegRotationAndTranslation+0x3c6>
    265a:	63 30       	cpi	r22, 0x03	; 3
    265c:	09 f0       	breq	.+2      	; 0x2660 <SrvBodyMoveComputeLegRotationAndTranslation+0x1f6>
    265e:	53 c0       	rjmp	.+166    	; 0x2706 <SrvBodyMoveComputeLegRotationAndTranslation+0x29c>
    2660:	00 e7       	ldi	r16, 0x70	; 112
    2662:	1e e0       	ldi	r17, 0x0E	; 14
    2664:	f8 01       	movw	r30, r16
    2666:	21 8d       	ldd	r18, Z+25	; 0x19
    2668:	32 8d       	ldd	r19, Z+26	; 0x1a
    266a:	43 8d       	ldd	r20, Z+27	; 0x1b
    266c:	54 8d       	ldd	r21, Z+28	; 0x1c
    266e:	65 81       	ldd	r22, Z+5	; 0x05
    2670:	76 81       	ldd	r23, Z+6	; 0x06
    2672:	87 81       	ldd	r24, Z+7	; 0x07
    2674:	90 85       	ldd	r25, Z+8	; 0x08
    2676:	0e 94 96 21 	call	0x432c	; 0x432c <__addsf3>
    267a:	6b 01       	movw	r12, r22
    267c:	7c 01       	movw	r14, r24
    267e:	f8 01       	movw	r30, r16
    2680:	21 89       	ldd	r18, Z+17	; 0x11
    2682:	32 89       	ldd	r19, Z+18	; 0x12
    2684:	43 89       	ldd	r20, Z+19	; 0x13
    2686:	54 89       	ldd	r21, Z+20	; 0x14
    2688:	60 e0       	ldi	r22, 0x00	; 0
    268a:	70 e0       	ldi	r23, 0x00	; 0
    268c:	80 e7       	ldi	r24, 0x70	; 112
    268e:	91 e4       	ldi	r25, 0x41	; 65
    2690:	0e 94 95 21 	call	0x432a	; 0x432a <__subsf3>
    2694:	f8 01       	movw	r30, r16
    2696:	25 89       	ldd	r18, Z+21	; 0x15
    2698:	36 89       	ldd	r19, Z+22	; 0x16
    269a:	47 89       	ldd	r20, Z+23	; 0x17
    269c:	50 8d       	ldd	r21, Z+24	; 0x18
    269e:	0e 94 95 21 	call	0x432a	; 0x432a <__subsf3>
    26a2:	a7 01       	movw	r20, r14
    26a4:	96 01       	movw	r18, r12
    26a6:	08 d9       	rcall	.-3568   	; 0x18b8 <DrvLegGetXFromCoxaAngle>
    26a8:	6b 01       	movw	r12, r22
    26aa:	7c 01       	movw	r14, r24
    26ac:	f7 fa       	bst	r15, 7
    26ae:	f0 94       	com	r15
    26b0:	f7 f8       	bld	r15, 7
    26b2:	f0 94       	com	r15
    26b4:	f8 01       	movw	r30, r16
    26b6:	21 8d       	ldd	r18, Z+25	; 0x19
    26b8:	32 8d       	ldd	r19, Z+26	; 0x1a
    26ba:	43 8d       	ldd	r20, Z+27	; 0x1b
    26bc:	54 8d       	ldd	r21, Z+28	; 0x1c
    26be:	65 81       	ldd	r22, Z+5	; 0x05
    26c0:	76 81       	ldd	r23, Z+6	; 0x06
    26c2:	87 81       	ldd	r24, Z+7	; 0x07
    26c4:	90 85       	ldd	r25, Z+8	; 0x08
    26c6:	0e 94 96 21 	call	0x432c	; 0x432c <__addsf3>
    26ca:	4b 01       	movw	r8, r22
    26cc:	5c 01       	movw	r10, r24
    26ce:	f8 01       	movw	r30, r16
    26d0:	21 85       	ldd	r18, Z+9	; 0x09
    26d2:	32 85       	ldd	r19, Z+10	; 0x0a
    26d4:	43 85       	ldd	r20, Z+11	; 0x0b
    26d6:	54 85       	ldd	r21, Z+12	; 0x0c
    26d8:	61 81       	ldd	r22, Z+1	; 0x01
    26da:	72 81       	ldd	r23, Z+2	; 0x02
    26dc:	83 81       	ldd	r24, Z+3	; 0x03
    26de:	94 81       	ldd	r25, Z+4	; 0x04
    26e0:	0e 94 96 21 	call	0x432c	; 0x432c <__addsf3>
    26e4:	f8 01       	movw	r30, r16
    26e6:	25 85       	ldd	r18, Z+13	; 0x0d
    26e8:	36 85       	ldd	r19, Z+14	; 0x0e
    26ea:	47 85       	ldd	r20, Z+15	; 0x0f
    26ec:	50 89       	ldd	r21, Z+16	; 0x10
    26ee:	0e 94 95 21 	call	0x432a	; 0x432a <__subsf3>
    26f2:	f8 01       	movw	r30, r16
    26f4:	25 8d       	ldd	r18, Z+29	; 0x1d
    26f6:	36 8d       	ldd	r19, Z+30	; 0x1e
    26f8:	47 8d       	ldd	r20, Z+31	; 0x1f
    26fa:	50 a1       	ldd	r21, Z+32	; 0x20
    26fc:	0e 94 96 21 	call	0x432c	; 0x432c <__addsf3>
    2700:	8b 01       	movw	r16, r22
    2702:	9c 01       	movw	r18, r24
    2704:	95 c0       	rjmp	.+298    	; 0x2830 <SrvBodyMoveComputeLegRotationAndTranslation+0x3c6>
    2706:	64 30       	cpi	r22, 0x04	; 4
    2708:	09 f0       	breq	.+2      	; 0x270c <SrvBodyMoveComputeLegRotationAndTranslation+0x2a2>
    270a:	41 c0       	rjmp	.+130    	; 0x278e <SrvBodyMoveComputeLegRotationAndTranslation+0x324>
    270c:	00 e7       	ldi	r16, 0x70	; 112
    270e:	1e e0       	ldi	r17, 0x0E	; 14
    2710:	f8 01       	movw	r30, r16
    2712:	21 8d       	ldd	r18, Z+25	; 0x19
    2714:	32 8d       	ldd	r19, Z+26	; 0x1a
    2716:	43 8d       	ldd	r20, Z+27	; 0x1b
    2718:	54 8d       	ldd	r21, Z+28	; 0x1c
    271a:	65 81       	ldd	r22, Z+5	; 0x05
    271c:	76 81       	ldd	r23, Z+6	; 0x06
    271e:	87 81       	ldd	r24, Z+7	; 0x07
    2720:	90 85       	ldd	r25, Z+8	; 0x08
    2722:	0e 94 96 21 	call	0x432c	; 0x432c <__addsf3>
    2726:	6b 01       	movw	r12, r22
    2728:	7c 01       	movw	r14, r24
    272a:	f8 01       	movw	r30, r16
    272c:	25 89       	ldd	r18, Z+21	; 0x15
    272e:	36 89       	ldd	r19, Z+22	; 0x16
    2730:	47 89       	ldd	r20, Z+23	; 0x17
    2732:	50 8d       	ldd	r21, Z+24	; 0x18
    2734:	61 89       	ldd	r22, Z+17	; 0x11
    2736:	72 89       	ldd	r23, Z+18	; 0x12
    2738:	83 89       	ldd	r24, Z+19	; 0x13
    273a:	94 89       	ldd	r25, Z+20	; 0x14
    273c:	0e 94 96 21 	call	0x432c	; 0x432c <__addsf3>
    2740:	a7 01       	movw	r20, r14
    2742:	96 01       	movw	r18, r12
    2744:	b9 d8       	rcall	.-3726   	; 0x18b8 <DrvLegGetXFromCoxaAngle>
    2746:	6b 01       	movw	r12, r22
    2748:	7c 01       	movw	r14, r24
    274a:	f8 01       	movw	r30, r16
    274c:	21 8d       	ldd	r18, Z+25	; 0x19
    274e:	32 8d       	ldd	r19, Z+26	; 0x1a
    2750:	43 8d       	ldd	r20, Z+27	; 0x1b
    2752:	54 8d       	ldd	r21, Z+28	; 0x1c
    2754:	65 81       	ldd	r22, Z+5	; 0x05
    2756:	76 81       	ldd	r23, Z+6	; 0x06
    2758:	87 81       	ldd	r24, Z+7	; 0x07
    275a:	90 85       	ldd	r25, Z+8	; 0x08
    275c:	0e 94 96 21 	call	0x432c	; 0x432c <__addsf3>
    2760:	4b 01       	movw	r8, r22
    2762:	5c 01       	movw	r10, r24
    2764:	f8 01       	movw	r30, r16
    2766:	25 85       	ldd	r18, Z+13	; 0x0d
    2768:	36 85       	ldd	r19, Z+14	; 0x0e
    276a:	47 85       	ldd	r20, Z+15	; 0x0f
    276c:	50 89       	ldd	r21, Z+16	; 0x10
    276e:	61 81       	ldd	r22, Z+1	; 0x01
    2770:	72 81       	ldd	r23, Z+2	; 0x02
    2772:	83 81       	ldd	r24, Z+3	; 0x03
    2774:	94 81       	ldd	r25, Z+4	; 0x04
    2776:	0e 94 95 21 	call	0x432a	; 0x432a <__subsf3>
    277a:	f8 01       	movw	r30, r16
    277c:	25 8d       	ldd	r18, Z+29	; 0x1d
    277e:	36 8d       	ldd	r19, Z+30	; 0x1e
    2780:	47 8d       	ldd	r20, Z+31	; 0x1f
    2782:	50 a1       	ldd	r21, Z+32	; 0x20
    2784:	0e 94 96 21 	call	0x432c	; 0x432c <__addsf3>
    2788:	8b 01       	movw	r16, r22
    278a:	9c 01       	movw	r18, r24
    278c:	51 c0       	rjmp	.+162    	; 0x2830 <SrvBodyMoveComputeLegRotationAndTranslation+0x3c6>
    278e:	65 30       	cpi	r22, 0x05	; 5
    2790:	09 f0       	breq	.+2      	; 0x2794 <SrvBodyMoveComputeLegRotationAndTranslation+0x32a>
    2792:	4e c0       	rjmp	.+156    	; 0x2830 <SrvBodyMoveComputeLegRotationAndTranslation+0x3c6>
    2794:	00 e7       	ldi	r16, 0x70	; 112
    2796:	1e e0       	ldi	r17, 0x0E	; 14
    2798:	f8 01       	movw	r30, r16
    279a:	21 8d       	ldd	r18, Z+25	; 0x19
    279c:	32 8d       	ldd	r19, Z+26	; 0x1a
    279e:	43 8d       	ldd	r20, Z+27	; 0x1b
    27a0:	54 8d       	ldd	r21, Z+28	; 0x1c
    27a2:	65 81       	ldd	r22, Z+5	; 0x05
    27a4:	76 81       	ldd	r23, Z+6	; 0x06
    27a6:	87 81       	ldd	r24, Z+7	; 0x07
    27a8:	90 85       	ldd	r25, Z+8	; 0x08
    27aa:	0e 94 96 21 	call	0x432c	; 0x432c <__addsf3>
    27ae:	6b 01       	movw	r12, r22
    27b0:	7c 01       	movw	r14, r24
    27b2:	20 e0       	ldi	r18, 0x00	; 0
    27b4:	30 e0       	ldi	r19, 0x00	; 0
    27b6:	40 e7       	ldi	r20, 0x70	; 112
    27b8:	51 e4       	ldi	r21, 0x41	; 65
    27ba:	f8 01       	movw	r30, r16
    27bc:	61 89       	ldd	r22, Z+17	; 0x11
    27be:	72 89       	ldd	r23, Z+18	; 0x12
    27c0:	83 89       	ldd	r24, Z+19	; 0x13
    27c2:	94 89       	ldd	r25, Z+20	; 0x14
    27c4:	0e 94 96 21 	call	0x432c	; 0x432c <__addsf3>
    27c8:	f8 01       	movw	r30, r16
    27ca:	25 89       	ldd	r18, Z+21	; 0x15
    27cc:	36 89       	ldd	r19, Z+22	; 0x16
    27ce:	47 89       	ldd	r20, Z+23	; 0x17
    27d0:	50 8d       	ldd	r21, Z+24	; 0x18
    27d2:	0e 94 96 21 	call	0x432c	; 0x432c <__addsf3>
    27d6:	a7 01       	movw	r20, r14
    27d8:	96 01       	movw	r18, r12
    27da:	6e d8       	rcall	.-3876   	; 0x18b8 <DrvLegGetXFromCoxaAngle>
    27dc:	6b 01       	movw	r12, r22
    27de:	7c 01       	movw	r14, r24
    27e0:	f8 01       	movw	r30, r16
    27e2:	21 8d       	ldd	r18, Z+25	; 0x19
    27e4:	32 8d       	ldd	r19, Z+26	; 0x1a
    27e6:	43 8d       	ldd	r20, Z+27	; 0x1b
    27e8:	54 8d       	ldd	r21, Z+28	; 0x1c
    27ea:	65 81       	ldd	r22, Z+5	; 0x05
    27ec:	76 81       	ldd	r23, Z+6	; 0x06
    27ee:	87 81       	ldd	r24, Z+7	; 0x07
    27f0:	90 85       	ldd	r25, Z+8	; 0x08
    27f2:	0e 94 96 21 	call	0x432c	; 0x432c <__addsf3>
    27f6:	4b 01       	movw	r8, r22
    27f8:	5c 01       	movw	r10, r24
    27fa:	f8 01       	movw	r30, r16
    27fc:	21 85       	ldd	r18, Z+9	; 0x09
    27fe:	32 85       	ldd	r19, Z+10	; 0x0a
    2800:	43 85       	ldd	r20, Z+11	; 0x0b
    2802:	54 85       	ldd	r21, Z+12	; 0x0c
    2804:	61 81       	ldd	r22, Z+1	; 0x01
    2806:	72 81       	ldd	r23, Z+2	; 0x02
    2808:	83 81       	ldd	r24, Z+3	; 0x03
    280a:	94 81       	ldd	r25, Z+4	; 0x04
    280c:	0e 94 95 21 	call	0x432a	; 0x432a <__subsf3>
    2810:	f8 01       	movw	r30, r16
    2812:	25 85       	ldd	r18, Z+13	; 0x0d
    2814:	36 85       	ldd	r19, Z+14	; 0x0e
    2816:	47 85       	ldd	r20, Z+15	; 0x0f
    2818:	50 89       	ldd	r21, Z+16	; 0x10
    281a:	0e 94 95 21 	call	0x432a	; 0x432a <__subsf3>
    281e:	f8 01       	movw	r30, r16
    2820:	25 8d       	ldd	r18, Z+29	; 0x1d
    2822:	36 8d       	ldd	r19, Z+30	; 0x1e
    2824:	47 8d       	ldd	r20, Z+31	; 0x1f
    2826:	50 a1       	ldd	r21, Z+32	; 0x20
    2828:	0e 94 96 21 	call	0x432c	; 0x432c <__addsf3>
    282c:	8b 01       	movw	r16, r22
    282e:	9c 01       	movw	r18, r24
    2830:	c8 82       	st	Y, r12
    2832:	d9 82       	std	Y+1, r13	; 0x01
    2834:	ea 82       	std	Y+2, r14	; 0x02
    2836:	fb 82       	std	Y+3, r15	; 0x03
    2838:	8c 82       	std	Y+4, r8	; 0x04
    283a:	9d 82       	std	Y+5, r9	; 0x05
    283c:	ae 82       	std	Y+6, r10	; 0x06
    283e:	bf 82       	std	Y+7, r11	; 0x07
    2840:	08 87       	std	Y+8, r16	; 0x08
    2842:	19 87       	std	Y+9, r17	; 0x09
    2844:	2a 87       	std	Y+10, r18	; 0x0a
    2846:	3b 87       	std	Y+11, r19	; 0x0b
    2848:	ce 01       	movw	r24, r28
    284a:	df 91       	pop	r29
    284c:	cf 91       	pop	r28
    284e:	1f 91       	pop	r17
    2850:	0f 91       	pop	r16
    2852:	ff 90       	pop	r15
    2854:	ef 90       	pop	r14
    2856:	df 90       	pop	r13
    2858:	cf 90       	pop	r12
    285a:	bf 90       	pop	r11
    285c:	af 90       	pop	r10
    285e:	9f 90       	pop	r9
    2860:	8f 90       	pop	r8
    2862:	08 95       	ret

00002864 <SrvBodyMoveSetRotationAndTranslation>:
    2864:	af 92       	push	r10
    2866:	bf 92       	push	r11
    2868:	cf 92       	push	r12
    286a:	df 92       	push	r13
    286c:	ef 92       	push	r14
    286e:	ff 92       	push	r15
    2870:	0f 93       	push	r16
    2872:	1f 93       	push	r17
    2874:	cf 93       	push	r28
    2876:	df 93       	push	r29
    2878:	cd b7       	in	r28, 0x3d	; 61
    287a:	de b7       	in	r29, 0x3e	; 62
    287c:	e0 e7       	ldi	r30, 0x70	; 112
    287e:	fe e0       	ldi	r31, 0x0E	; 14
    2880:	61 87       	std	Z+9, r22	; 0x09
    2882:	72 87       	std	Z+10, r23	; 0x0a
    2884:	83 87       	std	Z+11, r24	; 0x0b
    2886:	94 87       	std	Z+12, r25	; 0x0c
    2888:	25 87       	std	Z+13, r18	; 0x0d
    288a:	36 87       	std	Z+14, r19	; 0x0e
    288c:	47 87       	std	Z+15, r20	; 0x0f
    288e:	50 8b       	std	Z+16, r21	; 0x10
    2890:	e1 8a       	std	Z+17, r14	; 0x11
    2892:	f2 8a       	std	Z+18, r15	; 0x12
    2894:	03 8b       	std	Z+19, r16	; 0x13
    2896:	14 8b       	std	Z+20, r17	; 0x14
    2898:	a5 8a       	std	Z+21, r10	; 0x15
    289a:	b6 8a       	std	Z+22, r11	; 0x16
    289c:	c7 8a       	std	Z+23, r12	; 0x17
    289e:	d0 8e       	std	Z+24, r13	; 0x18
    28a0:	8d 85       	ldd	r24, Y+13	; 0x0d
    28a2:	9e 85       	ldd	r25, Y+14	; 0x0e
    28a4:	af 85       	ldd	r26, Y+15	; 0x0f
    28a6:	b8 89       	ldd	r27, Y+16	; 0x10
    28a8:	81 8f       	std	Z+25, r24	; 0x19
    28aa:	92 8f       	std	Z+26, r25	; 0x1a
    28ac:	a3 8f       	std	Z+27, r26	; 0x1b
    28ae:	b4 8f       	std	Z+28, r27	; 0x1c
    28b0:	89 89       	ldd	r24, Y+17	; 0x11
    28b2:	9a 89       	ldd	r25, Y+18	; 0x12
    28b4:	ab 89       	ldd	r26, Y+19	; 0x13
    28b6:	bc 89       	ldd	r27, Y+20	; 0x14
    28b8:	85 8f       	std	Z+29, r24	; 0x1d
    28ba:	96 8f       	std	Z+30, r25	; 0x1e
    28bc:	a7 8f       	std	Z+31, r26	; 0x1f
    28be:	b0 a3       	std	Z+32, r27	; 0x20
    28c0:	81 e0       	ldi	r24, 0x01	; 1
    28c2:	df 91       	pop	r29
    28c4:	cf 91       	pop	r28
    28c6:	1f 91       	pop	r17
    28c8:	0f 91       	pop	r16
    28ca:	ff 90       	pop	r15
    28cc:	ef 90       	pop	r14
    28ce:	df 90       	pop	r13
    28d0:	cf 90       	pop	r12
    28d2:	bf 90       	pop	r11
    28d4:	af 90       	pop	r10
    28d6:	08 95       	ret

000028d8 <SrvBodyMoveApplyRotationAndTranslation>:
    28d8:	1f 93       	push	r17
    28da:	cf 93       	push	r28
    28dc:	df 93       	push	r29
    28de:	cd b7       	in	r28, 0x3d	; 61
    28e0:	de b7       	in	r29, 0x3e	; 62
    28e2:	2c 97       	sbiw	r28, 0x0c	; 12
    28e4:	0f b6       	in	r0, 0x3f	; 63
    28e6:	f8 94       	cli
    28e8:	de bf       	out	0x3e, r29	; 62
    28ea:	0f be       	out	0x3f, r0	; 63
    28ec:	cd bf       	out	0x3d, r28	; 61
    28ee:	10 e0       	ldi	r17, 0x00	; 0
    28f0:	61 2f       	mov	r22, r17
    28f2:	ce 01       	movw	r24, r28
    28f4:	01 96       	adiw	r24, 0x01	; 1
    28f6:	b9 dd       	rcall	.-1166   	; 0x246a <SrvBodyMoveComputeLegRotationAndTranslation>
    28f8:	1f 5f       	subi	r17, 0xFF	; 255
    28fa:	16 30       	cpi	r17, 0x06	; 6
    28fc:	c9 f7       	brne	.-14     	; 0x28f0 <SrvBodyMoveApplyRotationAndTranslation+0x18>
    28fe:	81 e0       	ldi	r24, 0x01	; 1
    2900:	2c 96       	adiw	r28, 0x0c	; 12
    2902:	0f b6       	in	r0, 0x3f	; 63
    2904:	f8 94       	cli
    2906:	de bf       	out	0x3e, r29	; 62
    2908:	0f be       	out	0x3f, r0	; 63
    290a:	cd bf       	out	0x3d, r28	; 61
    290c:	df 91       	pop	r29
    290e:	cf 91       	pop	r28
    2910:	1f 91       	pop	r17
    2912:	08 95       	ret

00002914 <SrvBodyMoveGetPosition>:
    2914:	80 91 70 0e 	lds	r24, 0x0E70	; 0x800e70 <bodyMove>
    2918:	08 95       	ret

0000291a <SrvBodyMoveSetPosition>:
    291a:	80 93 70 0e 	sts	0x0E70, r24	; 0x800e70 <bodyMove>
    291e:	82 30       	cpi	r24, 0x02	; 2
    2920:	70 f0       	brcs	.+28     	; 0x293e <SrvBodyMoveSetPosition+0x24>
    2922:	82 30       	cpi	r24, 0x02	; 2
    2924:	71 f4       	brne	.+28     	; 0x2942 <SrvBodyMoveSetPosition+0x28>
    2926:	e0 e7       	ldi	r30, 0x70	; 112
    2928:	fe e0       	ldi	r31, 0x0E	; 14
    292a:	15 82       	std	Z+5, r1	; 0x05
    292c:	16 82       	std	Z+6, r1	; 0x06
    292e:	17 82       	std	Z+7, r1	; 0x07
    2930:	10 86       	std	Z+8, r1	; 0x08
    2932:	11 82       	std	Z+1, r1	; 0x01
    2934:	12 82       	std	Z+2, r1	; 0x02
    2936:	13 82       	std	Z+3, r1	; 0x03
    2938:	14 82       	std	Z+4, r1	; 0x04
    293a:	81 e0       	ldi	r24, 0x01	; 1
    293c:	08 95       	ret
    293e:	81 e0       	ldi	r24, 0x01	; 1
    2940:	08 95       	ret
    2942:	80 e0       	ldi	r24, 0x00	; 0
    2944:	08 95       	ret

00002946 <SrvBodyMoveSetGroundSize>:
    2946:	60 93 75 0e 	sts	0x0E75, r22	; 0x800e75 <bodyMove+0x5>
    294a:	70 93 76 0e 	sts	0x0E76, r23	; 0x800e76 <bodyMove+0x6>
    294e:	80 93 77 0e 	sts	0x0E77, r24	; 0x800e77 <bodyMove+0x7>
    2952:	90 93 78 0e 	sts	0x0E78, r25	; 0x800e78 <bodyMove+0x8>
    2956:	81 e0       	ldi	r24, 0x01	; 1
    2958:	08 95       	ret

0000295a <SrvBodyMoveSetElevation>:
//Set Elevation
Boolean SrvBodyMoveSetElevation ( float elevation )
{
	bodyMove.elevation = elevation;
    295a:	60 93 71 0e 	sts	0x0E71, r22	; 0x800e71 <bodyMove+0x1>
    295e:	70 93 72 0e 	sts	0x0E72, r23	; 0x800e72 <bodyMove+0x2>
    2962:	80 93 73 0e 	sts	0x0E73, r24	; 0x800e73 <bodyMove+0x3>
    2966:	90 93 74 0e 	sts	0x0E74, r25	; 0x800e74 <bodyMove+0x4>
	return TRUE;
}
    296a:	81 e0       	ldi	r24, 0x01	; 1
    296c:	08 95       	ret

0000296e <SrvCommWriteMessage>:
	 cmd,
	 size);
}
//send message
static Boolean SrvCommWriteMessage(uint8_t len )
{
    296e:	0f 93       	push	r16
    2970:	1f 93       	push	r17
    2972:	cf 93       	push	r28
    2974:	df 93       	push	r29
    2976:	08 2f       	mov	r16, r24
	DrvUartFillTxBuffer(uartUsing,'<');
    2978:	6c e3       	ldi	r22, 0x3C	; 60
    297a:	80 91 f9 0c 	lds	r24, 0x0CF9	; 0x800cf9 <uartUsing>
    297e:	a9 db       	rcall	.-2222   	; 0x20d2 <DrvUartFillTxBuffer>
	//fill buffer
	for(Int16U loop = 0U; loop < len ; loop++)
    2980:	10 e0       	ldi	r17, 0x00	; 0
    2982:	01 15       	cp	r16, r1
    2984:	11 05       	cpc	r17, r1
    2986:	59 f0       	breq	.+22     	; 0x299e <SrvCommWriteMessage+0x30>
    2988:	cf ef       	ldi	r28, 0xFF	; 255
    298a:	dc e0       	ldi	r29, 0x0C	; 12
    298c:	01 50       	subi	r16, 0x01	; 1
    298e:	13 4f       	sbci	r17, 0xF3	; 243
	{
		//get pointer and loop on each useful data
		DrvUartFillTxBuffer(uartUsing,((Int8U *)response)[loop]);
    2990:	69 91       	ld	r22, Y+
    2992:	80 91 f9 0c 	lds	r24, 0x0CF9	; 0x800cf9 <uartUsing>
    2996:	9d db       	rcall	.-2246   	; 0x20d2 <DrvUartFillTxBuffer>
//send message
static Boolean SrvCommWriteMessage(uint8_t len )
{
	DrvUartFillTxBuffer(uartUsing,'<');
	//fill buffer
	for(Int16U loop = 0U; loop < len ; loop++)
    2998:	c0 17       	cp	r28, r16
    299a:	d1 07       	cpc	r29, r17
    299c:	c9 f7       	brne	.-14     	; 0x2990 <SrvCommWriteMessage+0x22>
	{
		//get pointer and loop on each useful data
		DrvUartFillTxBuffer(uartUsing,((Int8U *)response)[loop]);
	}
	DrvUartFillTxBuffer(uartUsing,'>');
    299e:	6e e3       	ldi	r22, 0x3E	; 62
    29a0:	80 91 f9 0c 	lds	r24, 0x0CF9	; 0x800cf9 <uartUsing>
    29a4:	96 db       	rcall	.-2260   	; 0x20d2 <DrvUartFillTxBuffer>
	
	//can send over uart
	return DrvUartSendData(uartUsing);
    29a6:	80 91 f9 0c 	lds	r24, 0x0CF9	; 0x800cf9 <uartUsing>
    29aa:	ab db       	rcall	.-2218   	; 0x2102 <DrvUartSendData>
    29ac:	df 91       	pop	r29
}
    29ae:	cf 91       	pop	r28
    29b0:	1f 91       	pop	r17
    29b2:	0f 91       	pop	r16
    29b4:	08 95       	ret

000029b6 <SrvCommPrepareMessage>:
    29b6:	1f 92       	push	r1
	return oSuccess;
}
//create message
static int SrvCommPrepareMessage(ECluster cluster, uint8_t cmd,  uint8_t size)
{
	return sprintf((char *)response,"%d%02X%02X%02X",
    29b8:	4f 93       	push	r20
    29ba:	1f 92       	push	r1
    29bc:	6f 93       	push	r22
    29be:	1f 92       	push	r1
    29c0:	8f 93       	push	r24
    29c2:	1f 92       	push	r1
    29c4:	1f 92       	push	r1
    29c6:	83 ec       	ldi	r24, 0xC3	; 195
    29c8:	92 e0       	ldi	r25, 0x02	; 2
    29ca:	9f 93       	push	r25
    29cc:	8f 93       	push	r24
    29ce:	8f ef       	ldi	r24, 0xFF	; 255
    29d0:	9c e0       	ldi	r25, 0x0C	; 12
    29d2:	9f 93       	push	r25
    29d4:	8f 93       	push	r24
    29d6:	0e 94 98 25 	call	0x4b30	; 0x4b30 <sprintf>
    29da:	2d b7       	in	r18, 0x3d	; 61
    29dc:	3e b7       	in	r19, 0x3e	; 62
    29de:	24 5f       	subi	r18, 0xF4	; 244
    29e0:	3f 4f       	sbci	r19, 0xFF	; 255
    29e2:	0f b6       	in	r0, 0x3f	; 63
    29e4:	f8 94       	cli
    29e6:	3e bf       	out	0x3e, r19	; 62
    29e8:	0f be       	out	0x3f, r0	; 63
    29ea:	2d bf       	out	0x3d, r18	; 61
	 COMM_HEADER_MESSAGE,
	 cluster,
	 cmd,
	 size);
}
    29ec:	08 95       	ret

000029ee <SrvCommExecuteMessage>:
}


//permits to execute the incoming data
static Boolean SrvCommExecuteMessage( void )
{
    29ee:	2f 92       	push	r2
    29f0:	3f 92       	push	r3
    29f2:	4f 92       	push	r4
    29f4:	5f 92       	push	r5
    29f6:	6f 92       	push	r6
    29f8:	7f 92       	push	r7
    29fa:	8f 92       	push	r8
    29fc:	9f 92       	push	r9
    29fe:	af 92       	push	r10
    2a00:	bf 92       	push	r11
    2a02:	cf 92       	push	r12
    2a04:	df 92       	push	r13
    2a06:	ef 92       	push	r14
    2a08:	ff 92       	push	r15
    2a0a:	0f 93       	push	r16
    2a0c:	1f 93       	push	r17
    2a0e:	cf 93       	push	r28
    2a10:	df 93       	push	r29
    2a12:	cd b7       	in	r28, 0x3d	; 61
    2a14:	de b7       	in	r29, 0x3e	; 62
    2a16:	2e 97       	sbiw	r28, 0x0e	; 14
    2a18:	0f b6       	in	r0, 0x3f	; 63
    2a1a:	f8 94       	cli
    2a1c:	de bf       	out	0x3e, r29	; 62
    2a1e:	0f be       	out	0x3f, r0	; 63
    2a20:	cd bf       	out	0x3d, r28	; 61
	Boolean oSuccess = FALSE;
	//check command 
	if( inMessage.cluster == COMM_CLUSTER_GENARAL)
    2a22:	80 91 64 0d 	lds	r24, 0x0D64	; 0x800d64 <inMessage+0x1>
    2a26:	81 11       	cpse	r24, r1
    2a28:	45 c0       	rjmp	.+138    	; 0x2ab4 <SrvCommExecuteMessage+0xc6>


//permits to execute the incoming data in cluster
static Boolean SrvCommExecuteClusterGeneral( void )
{
	if(( inMessage.command == COMM_CLUSTER_GENARAL_COMMAND_VERSION) && (inMessage.size == 0U))
    2a2a:	80 91 65 0d 	lds	r24, 0x0D65	; 0x800d65 <inMessage+0x2>
    2a2e:	81 11       	cpse	r24, r1
    2a30:	24 c0       	rjmp	.+72     	; 0x2a7a <SrvCommExecuteMessage+0x8c>
    2a32:	80 91 66 0d 	lds	r24, 0x0D66	; 0x800d66 <inMessage+0x3>
    2a36:	81 11       	cpse	r24, r1
    2a38:	20 c0       	rjmp	.+64     	; 0x2a7a <SrvCommExecuteMessage+0x8c>
	{
		//prepare output string
		uint8_t nbData = SrvCommPrepareMessage( COMM_CLUSTER_GENARAL,COMM_CLUSTER_GENARAL_COMMAND_VERSION, 2U);
    2a3a:	42 e0       	ldi	r20, 0x02	; 2
    2a3c:	60 e0       	ldi	r22, 0x00	; 0
    2a3e:	bb df       	rcall	.-138    	; 0x29b6 <SrvCommPrepareMessage>
    2a40:	9a 83       	std	Y+2, r25	; 0x02
    2a42:	89 83       	std	Y+1, r24	; 0x01
		nbData += sprintf((char*)&response[ nbData ],"%01X%01X", VERSION_SOFTWARE, VERSION_HARDWARE);
    2a44:	1f 92       	push	r1
    2a46:	81 e0       	ldi	r24, 0x01	; 1
    2a48:	8f 93       	push	r24
    2a4a:	1f 92       	push	r1
    2a4c:	8f 93       	push	r24
    2a4e:	82 ed       	ldi	r24, 0xD2	; 210
    2a50:	92 e0       	ldi	r25, 0x02	; 2
    2a52:	9f 93       	push	r25
    2a54:	8f 93       	push	r24
    2a56:	89 81       	ldd	r24, Y+1	; 0x01
    2a58:	9a 81       	ldd	r25, Y+2	; 0x02
    2a5a:	99 27       	eor	r25, r25
    2a5c:	81 50       	subi	r24, 0x01	; 1
    2a5e:	93 4f       	sbci	r25, 0xF3	; 243
    2a60:	9f 93       	push	r25
    2a62:	8f 93       	push	r24
    2a64:	0e 94 98 25 	call	0x4b30	; 0x4b30 <sprintf>
		return SrvCommWriteMessage(nbData);
    2a68:	29 81       	ldd	r18, Y+1	; 0x01
    2a6a:	82 0f       	add	r24, r18
    2a6c:	80 df       	rcall	.-256    	; 0x296e <SrvCommWriteMessage>
    2a6e:	0f b6       	in	r0, 0x3f	; 63
    2a70:	f8 94       	cli
    2a72:	de bf       	out	0x3e, r29	; 62
    2a74:	0f be       	out	0x3f, r0	; 63
    2a76:	cd bf       	out	0x3d, r28	; 61
    2a78:	86 c7       	rjmp	.+3852   	; 0x3986 <SrvCommExecuteMessage+0xf98>
	}
	else if(( inMessage.command == COMM_CLUSTER_GENARAL_COMMAND_START_PERIODIC) && (inMessage.size == 0U))
    2a7a:	80 91 65 0d 	lds	r24, 0x0D65	; 0x800d65 <inMessage+0x2>
    2a7e:	81 30       	cpi	r24, 0x01	; 1
    2a80:	41 f4       	brne	.+16     	; 0x2a92 <SrvCommExecuteMessage+0xa4>
    2a82:	80 91 66 0d 	lds	r24, 0x0D66	; 0x800d66 <inMessage+0x3>
    2a86:	81 11       	cpse	r24, r1
    2a88:	04 c0       	rjmp	.+8      	; 0x2a92 <SrvCommExecuteMessage+0xa4>
	{
		sendPeriodic = TRUE;
    2a8a:	81 e0       	ldi	r24, 0x01	; 1
    2a8c:	80 93 fa 0c 	sts	0x0CFA, r24	; 0x800cfa <sendPeriodic>
    2a90:	7a c7       	rjmp	.+3828   	; 0x3986 <SrvCommExecuteMessage+0xf98>
		return TRUE;
	}
	else if(( inMessage.command == COMM_CLUSTER_GENARAL_COMMAND_STOP_PERIODIC) && (inMessage.size == 0U))
    2a92:	80 91 65 0d 	lds	r24, 0x0D65	; 0x800d65 <inMessage+0x2>
    2a96:	82 30       	cpi	r24, 0x02	; 2
    2a98:	41 f4       	brne	.+16     	; 0x2aaa <SrvCommExecuteMessage+0xbc>
    2a9a:	80 91 66 0d 	lds	r24, 0x0D66	; 0x800d66 <inMessage+0x3>
    2a9e:	81 11       	cpse	r24, r1
    2aa0:	04 c0       	rjmp	.+8      	; 0x2aaa <SrvCommExecuteMessage+0xbc>
	{
		sendPeriodic = FALSE;
    2aa2:	10 92 fa 0c 	sts	0x0CFA, r1	; 0x800cfa <sendPeriodic>
		return TRUE;
    2aa6:	81 e0       	ldi	r24, 0x01	; 1
    2aa8:	6e c7       	rjmp	.+3804   	; 0x3986 <SrvCommExecuteMessage+0xf98>
	}
	else
	{
		errorMessage = COMM_ERROR_UNKNOWN_COMMAND;
    2aaa:	83 e0       	ldi	r24, 0x03	; 3
    2aac:	80 93 f8 0c 	sts	0x0CF8, r24	; 0x800cf8 <errorMessage>
	}
	return FALSE;
    2ab0:	80 e0       	ldi	r24, 0x00	; 0
    2ab2:	69 c7       	rjmp	.+3794   	; 0x3986 <SrvCommExecuteMessage+0xf98>
	//check command 
	if( inMessage.cluster == COMM_CLUSTER_GENARAL)
	{
		oSuccess = SrvCommExecuteClusterGeneral();
	}
	else if( inMessage.cluster == COMM_CLUSTER_BEHAVIOR)
    2ab4:	80 91 64 0d 	lds	r24, 0x0D64	; 0x800d64 <inMessage+0x1>
    2ab8:	81 30       	cpi	r24, 0x01	; 1
    2aba:	09 f0       	breq	.+2      	; 0x2abe <SrvCommExecuteMessage+0xd0>
    2abc:	65 c3       	rjmp	.+1738   	; 0x3188 <SrvCommExecuteMessage+0x79a>
	}
	return FALSE;
}
static Boolean SrvCommExecuteClusterBehavior( void )
{
	if(( inMessage.command == COMM_CLUSTER_BEHAVIOR_COMMAND_GET_POSITION) && (inMessage.size == 0U))
    2abe:	80 91 65 0d 	lds	r24, 0x0D65	; 0x800d65 <inMessage+0x2>
    2ac2:	81 11       	cpse	r24, r1
    2ac4:	24 c0       	rjmp	.+72     	; 0x2b0e <SrvCommExecuteMessage+0x120>
    2ac6:	80 91 66 0d 	lds	r24, 0x0D66	; 0x800d66 <inMessage+0x3>
    2aca:	81 11       	cpse	r24, r1
    2acc:	20 c0       	rjmp	.+64     	; 0x2b0e <SrvCommExecuteMessage+0x120>
	{
		//prepare output string
		uint8_t nbData = SrvCommPrepareMessage(COMM_CLUSTER_BEHAVIOR,COMM_CLUSTER_BEHAVIOR_COMMAND_GET_POSITION, 1U);
    2ace:	41 e0       	ldi	r20, 0x01	; 1
    2ad0:	60 e0       	ldi	r22, 0x00	; 0
    2ad2:	81 e0       	ldi	r24, 0x01	; 1
    2ad4:	70 df       	rcall	.-288    	; 0x29b6 <SrvCommPrepareMessage>
    2ad6:	9a 83       	std	Y+2, r25	; 0x02
		nbData += sprintf((char*)&response[ nbData ],"%01X", SrvBodyMoveGetPosition());
    2ad8:	89 83       	std	Y+1, r24	; 0x01
    2ada:	1c df       	rcall	.-456    	; 0x2914 <SrvBodyMoveGetPosition>
    2adc:	1f 92       	push	r1
    2ade:	8f 93       	push	r24
    2ae0:	86 ed       	ldi	r24, 0xD6	; 214
    2ae2:	92 e0       	ldi	r25, 0x02	; 2
    2ae4:	9f 93       	push	r25
    2ae6:	8f 93       	push	r24
    2ae8:	89 81       	ldd	r24, Y+1	; 0x01
    2aea:	9a 81       	ldd	r25, Y+2	; 0x02
    2aec:	99 27       	eor	r25, r25
    2aee:	81 50       	subi	r24, 0x01	; 1
    2af0:	93 4f       	sbci	r25, 0xF3	; 243
    2af2:	9f 93       	push	r25
    2af4:	8f 93       	push	r24
    2af6:	0e 94 98 25 	call	0x4b30	; 0x4b30 <sprintf>
		return SrvCommWriteMessage(nbData);
    2afa:	59 81       	ldd	r21, Y+1	; 0x01
    2afc:	85 0f       	add	r24, r21
    2afe:	37 df       	rcall	.-402    	; 0x296e <SrvCommWriteMessage>
    2b00:	0f 90       	pop	r0
    2b02:	0f 90       	pop	r0
    2b04:	0f 90       	pop	r0
    2b06:	0f 90       	pop	r0
    2b08:	0f 90       	pop	r0
    2b0a:	0f 90       	pop	r0
    2b0c:	3c c7       	rjmp	.+3704   	; 0x3986 <SrvCommExecuteMessage+0xf98>
	}
	else if(( inMessage.command == COMM_CLUSTER_BEHAVIOR_COMMAND_SET_POSITION) && (inMessage.size == 5U))
    2b0e:	80 91 65 0d 	lds	r24, 0x0D65	; 0x800d65 <inMessage+0x2>
    2b12:	81 30       	cpi	r24, 0x01	; 1
    2b14:	49 f5       	brne	.+82     	; 0x2b68 <SrvCommExecuteMessage+0x17a>
    2b16:	80 91 66 0d 	lds	r24, 0x0D66	; 0x800d66 <inMessage+0x3>
    2b1a:	85 30       	cpi	r24, 0x05	; 5
    2b1c:	29 f5       	brne	.+74     	; 0x2b68 <SrvCommExecuteMessage+0x17a>
	{
		//prepare output string
		uint16_t delay = inMessage.data[ 1U ] * 4096 + inMessage.data[ 2U ] * 256 + inMessage.data[ 3U ] * 16 + inMessage.data[ 4U ];
    2b1e:	e0 90 68 0d 	lds	r14, 0x0D68	; 0x800d68 <inMessage+0x5>
    2b22:	00 91 69 0d 	lds	r16, 0x0D69	; 0x800d69 <inMessage+0x6>
    2b26:	f0 90 6a 0d 	lds	r15, 0x0D6A	; 0x800d6a <inMessage+0x7>
    2b2a:	10 91 6b 0d 	lds	r17, 0x0D6B	; 0x800d6b <inMessage+0x8>
		SrvWalkStopWalk();
    2b2e:	0e 94 d3 20 	call	0x41a6	; 0x41a6 <SrvWalkStopWalk>
		return SrvBodyMoveSetPosition(inMessage.data[ 0U ], delay);
    2b32:	80 91 67 0d 	lds	r24, 0x0D67	; 0x800d67 <inMessage+0x4>
    2b36:	60 2f       	mov	r22, r16
    2b38:	70 e0       	ldi	r23, 0x00	; 0
    2b3a:	90 e1       	ldi	r25, 0x10	; 16
    2b3c:	e9 9e       	mul	r14, r25
    2b3e:	60 0d       	add	r22, r0
    2b40:	71 1d       	adc	r23, r1
    2b42:	11 24       	eor	r1, r1
    2b44:	62 95       	swap	r22
    2b46:	72 95       	swap	r23
    2b48:	70 7f       	andi	r23, 0xF0	; 240
    2b4a:	76 27       	eor	r23, r22
    2b4c:	60 7f       	andi	r22, 0xF0	; 240
    2b4e:	76 27       	eor	r23, r22
    2b50:	6f 0d       	add	r22, r15
    2b52:	71 1d       	adc	r23, r1
    2b54:	62 95       	swap	r22
    2b56:	72 95       	swap	r23
    2b58:	70 7f       	andi	r23, 0xF0	; 240
    2b5a:	76 27       	eor	r23, r22
    2b5c:	60 7f       	andi	r22, 0xF0	; 240
    2b5e:	76 27       	eor	r23, r22
    2b60:	61 0f       	add	r22, r17
    2b62:	71 1d       	adc	r23, r1
    2b64:	da de       	rcall	.-588    	; 0x291a <SrvBodyMoveSetPosition>
    2b66:	0f c7       	rjmp	.+3614   	; 0x3986 <SrvCommExecuteMessage+0xf98>
	}
	else if(( inMessage.command == COMM_CLUSTER_BEHAVIOR_COMMAND_SET_ROTATION_TRANSLATION) && (inMessage.size == 16U))
    2b68:	80 91 65 0d 	lds	r24, 0x0D65	; 0x800d65 <inMessage+0x2>
    2b6c:	82 30       	cpi	r24, 0x02	; 2
    2b6e:	09 f0       	breq	.+2      	; 0x2b72 <SrvCommExecuteMessage+0x184>
    2b70:	a8 c0       	rjmp	.+336    	; 0x2cc2 <SrvCommExecuteMessage+0x2d4>
    2b72:	80 91 66 0d 	lds	r24, 0x0D66	; 0x800d66 <inMessage+0x3>
    2b76:	80 31       	cpi	r24, 0x10	; 16
    2b78:	09 f0       	breq	.+2      	; 0x2b7c <SrvCommExecuteMessage+0x18e>
    2b7a:	a3 c0       	rjmp	.+326    	; 0x2cc2 <SrvCommExecuteMessage+0x2d4>
	{
		//prepare output string
		Int8S roll = (Int8S)(inMessage.data[ 0U ] * 16 + inMessage.data[ 1U ] );
    2b7c:	e3 e6       	ldi	r30, 0x63	; 99
    2b7e:	fd e0       	ldi	r31, 0x0D	; 13
    2b80:	e4 80       	ldd	r14, Z+4	; 0x04
    2b82:	15 81       	ldd	r17, Z+5	; 0x05
		Int8S pitch = (Int8S)(inMessage.data[ 2U ] * 16 + inMessage.data[ 3U ] );
    2b84:	66 80       	ldd	r6, Z+6	; 0x06
    2b86:	77 80       	ldd	r7, Z+7	; 0x07
		Int8S yaw = (Int8S)(inMessage.data[ 4U ] * 16 + inMessage.data[ 5U ] );
    2b88:	20 84       	ldd	r2, Z+8	; 0x08
    2b8a:	31 84       	ldd	r3, Z+9	; 0x09
		Int8S x = (Int8S)(inMessage.data[ 6U ] * 16 + inMessage.data[ 7U ] );
    2b8c:	82 85       	ldd	r24, Z+10	; 0x0a
    2b8e:	63 85       	ldd	r22, Z+11	; 0x0b
		Int8S y = (Int8S)(inMessage.data[ 8U ] * 16 + inMessage.data[ 9U ] );
    2b90:	04 85       	ldd	r16, Z+12	; 0x0c
    2b92:	25 85       	ldd	r18, Z+13	; 0x0d
    2b94:	2d 87       	std	Y+13, r18	; 0x0d
		Int8S z = (Int8S)(inMessage.data[ 10U ] * 16 + inMessage.data[ 11U ] );
    2b96:	f6 84       	ldd	r15, Z+14	; 0x0e
    2b98:	37 85       	ldd	r19, Z+15	; 0x0f
    2b9a:	3e 87       	std	Y+14, r19	; 0x0e
		uint16_t delay = inMessage.data[ 12U ] * 4096 + inMessage.data[ 13U ] * 256 + inMessage.data[ 14U ] * 16 + inMessage.data[ 15U ];
    2b9c:	80 88       	ldd	r8, Z+16	; 0x10
    2b9e:	91 88       	ldd	r9, Z+17	; 0x11
    2ba0:	52 88       	ldd	r5, Z+18	; 0x12
    2ba2:	43 88       	ldd	r4, Z+19	; 0x13
		SrvBodyMoveSetRotationAndTranslation(roll,pitch,yaw,x,y,z);
    2ba4:	40 e1       	ldi	r20, 0x10	; 16
    2ba6:	84 9f       	mul	r24, r20
    2ba8:	60 0d       	add	r22, r0
    2baa:	11 24       	eor	r1, r1
    2bac:	06 2e       	mov	r0, r22
    2bae:	00 0c       	add	r0, r0
    2bb0:	77 0b       	sbc	r23, r23
    2bb2:	88 0b       	sbc	r24, r24
    2bb4:	99 0b       	sbc	r25, r25
    2bb6:	0e 94 c1 22 	call	0x4582	; 0x4582 <__floatsisf>
    2bba:	5b 01       	movw	r10, r22
    2bbc:	6c 01       	movw	r12, r24
    2bbe:	63 2d       	mov	r22, r3
    2bc0:	50 e1       	ldi	r21, 0x10	; 16
    2bc2:	25 9e       	mul	r2, r21
    2bc4:	60 0d       	add	r22, r0
    2bc6:	11 24       	eor	r1, r1
    2bc8:	06 2e       	mov	r0, r22
    2bca:	00 0c       	add	r0, r0
    2bcc:	77 0b       	sbc	r23, r23
    2bce:	88 0b       	sbc	r24, r24
    2bd0:	99 0b       	sbc	r25, r25
    2bd2:	0e 94 c1 22 	call	0x4582	; 0x4582 <__floatsisf>
    2bd6:	69 83       	std	Y+1, r22	; 0x01
    2bd8:	7a 83       	std	Y+2, r23	; 0x02
    2bda:	8b 83       	std	Y+3, r24	; 0x03
    2bdc:	9c 83       	std	Y+4, r25	; 0x04
    2bde:	67 2d       	mov	r22, r7
    2be0:	80 e1       	ldi	r24, 0x10	; 16
    2be2:	68 9e       	mul	r6, r24
    2be4:	60 0d       	add	r22, r0
    2be6:	11 24       	eor	r1, r1
    2be8:	06 2e       	mov	r0, r22
    2bea:	00 0c       	add	r0, r0
    2bec:	77 0b       	sbc	r23, r23
    2bee:	88 0b       	sbc	r24, r24
    2bf0:	99 0b       	sbc	r25, r25
    2bf2:	0e 94 c1 22 	call	0x4582	; 0x4582 <__floatsisf>
    2bf6:	6d 83       	std	Y+5, r22	; 0x05
    2bf8:	7e 83       	std	Y+6, r23	; 0x06
    2bfa:	8f 83       	std	Y+7, r24	; 0x07
    2bfc:	98 87       	std	Y+8, r25	; 0x08
    2bfe:	61 2f       	mov	r22, r17
    2c00:	90 e1       	ldi	r25, 0x10	; 16
    2c02:	e9 9e       	mul	r14, r25
    2c04:	60 0d       	add	r22, r0
    2c06:	11 24       	eor	r1, r1
    2c08:	06 2e       	mov	r0, r22
    2c0a:	00 0c       	add	r0, r0
    2c0c:	77 0b       	sbc	r23, r23
    2c0e:	88 0b       	sbc	r24, r24
    2c10:	99 0b       	sbc	r25, r25
    2c12:	0e 94 c1 22 	call	0x4582	; 0x4582 <__floatsisf>
    2c16:	69 87       	std	Y+9, r22	; 0x09
    2c18:	7a 87       	std	Y+10, r23	; 0x0a
    2c1a:	8b 87       	std	Y+11, r24	; 0x0b
    2c1c:	9c 87       	std	Y+12, r25	; 0x0c
    2c1e:	fe 85       	ldd	r31, Y+14	; 0x0e
    2c20:	e0 e1       	ldi	r30, 0x10	; 16
    2c22:	fe 9e       	mul	r15, r30
    2c24:	f0 0d       	add	r31, r0
    2c26:	11 24       	eor	r1, r1
    2c28:	6f 2f       	mov	r22, r31
    2c2a:	ff 0f       	add	r31, r31
    2c2c:	77 0b       	sbc	r23, r23
    2c2e:	88 0b       	sbc	r24, r24
    2c30:	99 0b       	sbc	r25, r25
    2c32:	0e 94 c1 22 	call	0x4582	; 0x4582 <__floatsisf>
    2c36:	9f 93       	push	r25
    2c38:	8f 93       	push	r24
    2c3a:	7f 93       	push	r23
    2c3c:	6f 93       	push	r22
    2c3e:	3d 85       	ldd	r19, Y+13	; 0x0d
    2c40:	20 e1       	ldi	r18, 0x10	; 16
    2c42:	02 9f       	mul	r16, r18
    2c44:	30 0d       	add	r19, r0
    2c46:	11 24       	eor	r1, r1
    2c48:	63 2f       	mov	r22, r19
    2c4a:	33 0f       	add	r19, r19
    2c4c:	77 0b       	sbc	r23, r23
    2c4e:	88 0b       	sbc	r24, r24
    2c50:	99 0b       	sbc	r25, r25
    2c52:	0e 94 c1 22 	call	0x4582	; 0x4582 <__floatsisf>
    2c56:	9f 93       	push	r25
    2c58:	8f 93       	push	r24
    2c5a:	7f 93       	push	r23
    2c5c:	6f 93       	push	r22
    2c5e:	e9 80       	ldd	r14, Y+1	; 0x01
    2c60:	fa 80       	ldd	r15, Y+2	; 0x02
    2c62:	0b 81       	ldd	r16, Y+3	; 0x03
    2c64:	1c 81       	ldd	r17, Y+4	; 0x04
    2c66:	2d 81       	ldd	r18, Y+5	; 0x05
    2c68:	3e 81       	ldd	r19, Y+6	; 0x06
    2c6a:	4f 81       	ldd	r20, Y+7	; 0x07
    2c6c:	58 85       	ldd	r21, Y+8	; 0x08
    2c6e:	69 85       	ldd	r22, Y+9	; 0x09
    2c70:	7a 85       	ldd	r23, Y+10	; 0x0a
    2c72:	8b 85       	ldd	r24, Y+11	; 0x0b
    2c74:	9c 85       	ldd	r25, Y+12	; 0x0c
    2c76:	f6 dd       	rcall	.-1044   	; 0x2864 <SrvBodyMoveSetRotationAndTranslation>
		SWalk *walk = SrvWalkGetStruct();
    2c78:	0e 94 bd 20 	call	0x417a	; 0x417a <SrvWalkGetStruct>
		if(walk->walking == E_WALK_STOP) return SrvBodyMoveApplyRotationAndTranslation(delay);
    2c7c:	0f b6       	in	r0, 0x3f	; 63
    2c7e:	f8 94       	cli
    2c80:	de bf       	out	0x3e, r29	; 62
    2c82:	0f be       	out	0x3f, r0	; 63
    2c84:	cd bf       	out	0x3d, r28	; 61
    2c86:	fc 01       	movw	r30, r24
    2c88:	81 81       	ldd	r24, Z+1	; 0x01
    2c8a:	82 30       	cpi	r24, 0x02	; 2
    2c8c:	09 f0       	breq	.+2      	; 0x2c90 <SrvCommExecuteMessage+0x2a2>
    2c8e:	66 c6       	rjmp	.+3276   	; 0x395c <SrvCommExecuteMessage+0xf6e>
    2c90:	89 2d       	mov	r24, r9
    2c92:	90 e0       	ldi	r25, 0x00	; 0
    2c94:	f0 e1       	ldi	r31, 0x10	; 16
    2c96:	8f 9e       	mul	r8, r31
    2c98:	80 0d       	add	r24, r0
    2c9a:	91 1d       	adc	r25, r1
    2c9c:	11 24       	eor	r1, r1
    2c9e:	82 95       	swap	r24
    2ca0:	92 95       	swap	r25
    2ca2:	90 7f       	andi	r25, 0xF0	; 240
    2ca4:	98 27       	eor	r25, r24
    2ca6:	80 7f       	andi	r24, 0xF0	; 240
    2ca8:	98 27       	eor	r25, r24
    2caa:	85 0d       	add	r24, r5
    2cac:	91 1d       	adc	r25, r1
    2cae:	82 95       	swap	r24
    2cb0:	92 95       	swap	r25
    2cb2:	90 7f       	andi	r25, 0xF0	; 240
    2cb4:	98 27       	eor	r25, r24
    2cb6:	80 7f       	andi	r24, 0xF0	; 240
    2cb8:	98 27       	eor	r25, r24
    2cba:	84 0d       	add	r24, r4
    2cbc:	91 1d       	adc	r25, r1
    2cbe:	0c de       	rcall	.-1000   	; 0x28d8 <SrvBodyMoveApplyRotationAndTranslation>
    2cc0:	62 c6       	rjmp	.+3268   	; 0x3986 <SrvCommExecuteMessage+0xf98>
		return TRUE;
	}
	else if(( inMessage.command == COMM_CLUSTER_BEHAVIOR_COMMAND_SET_WALK) && (inMessage.size == 10U))
    2cc2:	80 91 65 0d 	lds	r24, 0x0D65	; 0x800d65 <inMessage+0x2>
    2cc6:	83 30       	cpi	r24, 0x03	; 3
    2cc8:	b1 f5       	brne	.+108    	; 0x2d36 <SrvCommExecuteMessage+0x348>
    2cca:	80 91 66 0d 	lds	r24, 0x0D66	; 0x800d66 <inMessage+0x3>
    2cce:	8a 30       	cpi	r24, 0x0A	; 10
    2cd0:	91 f5       	brne	.+100    	; 0x2d36 <SrvCommExecuteMessage+0x348>
	{
		//prepare output string
		E_GAIT gait = (E_GAIT)inMessage.data[ 0U ];
    2cd2:	e3 e6       	ldi	r30, 0x63	; 99
    2cd4:	fd e0       	ldi	r31, 0x0D	; 13
    2cd6:	84 81       	ldd	r24, Z+4	; 0x04
		E_WALK walk = (E_WALK)inMessage.data[ 1U ];
    2cd8:	65 81       	ldd	r22, Z+5	; 0x05
		Int8S amplitude = (Int8S)(inMessage.data[ 2U ] * 16 + inMessage.data[ 3U ] );
    2cda:	96 81       	ldd	r25, Z+6	; 0x06
    2cdc:	47 81       	ldd	r20, Z+7	; 0x07
		Int8S direction =  (Int8S)(inMessage.data[ 4U ] * 16 + inMessage.data[ 5U ] );
    2cde:	30 85       	ldd	r19, Z+8	; 0x08
    2ce0:	21 85       	ldd	r18, Z+9	; 0x09
		uint16_t delay = inMessage.data[ 6U ] * 4096 + inMessage.data[ 7U ] * 256 + inMessage.data[ 8U ] * 16 + inMessage.data[ 9U ];
    2ce2:	a2 85       	ldd	r26, Z+10	; 0x0a
    2ce4:	03 85       	ldd	r16, Z+11	; 0x0b
    2ce6:	74 85       	ldd	r23, Z+12	; 0x0c
    2ce8:	55 85       	ldd	r21, Z+13	; 0x0d
		if(walk == E_WALK_STOP) return SrvWalkStopWalk();
    2cea:	62 30       	cpi	r22, 0x02	; 2
    2cec:	19 f4       	brne	.+6      	; 0x2cf4 <SrvCommExecuteMessage+0x306>
    2cee:	0e 94 d3 20 	call	0x41a6	; 0x41a6 <SrvWalkStopWalk>
    2cf2:	49 c6       	rjmp	.+3218   	; 0x3986 <SrvCommExecuteMessage+0xf98>
		return SrvWalkSetWalk(gait,walk,amplitude,direction,delay);
    2cf4:	10 e0       	ldi	r17, 0x00	; 0
    2cf6:	e0 e1       	ldi	r30, 0x10	; 16
    2cf8:	ae 9f       	mul	r26, r30
    2cfa:	00 0d       	add	r16, r0
    2cfc:	11 1d       	adc	r17, r1
    2cfe:	11 24       	eor	r1, r1
    2d00:	02 95       	swap	r16
    2d02:	12 95       	swap	r17
    2d04:	10 7f       	andi	r17, 0xF0	; 240
    2d06:	10 27       	eor	r17, r16
    2d08:	00 7f       	andi	r16, 0xF0	; 240
    2d0a:	10 27       	eor	r17, r16
    2d0c:	07 0f       	add	r16, r23
    2d0e:	11 1d       	adc	r17, r1
    2d10:	02 95       	swap	r16
    2d12:	12 95       	swap	r17
    2d14:	10 7f       	andi	r17, 0xF0	; 240
    2d16:	10 27       	eor	r17, r16
    2d18:	00 7f       	andi	r16, 0xF0	; 240
    2d1a:	10 27       	eor	r17, r16
    2d1c:	05 0f       	add	r16, r21
    2d1e:	11 1d       	adc	r17, r1
    2d20:	f0 e1       	ldi	r31, 0x10	; 16
    2d22:	3f 9f       	mul	r19, r31
    2d24:	20 0d       	add	r18, r0
    2d26:	11 24       	eor	r1, r1
    2d28:	30 e1       	ldi	r19, 0x10	; 16
    2d2a:	93 9f       	mul	r25, r19
    2d2c:	40 0d       	add	r20, r0
    2d2e:	11 24       	eor	r1, r1
    2d30:	0e 94 f5 20 	call	0x41ea	; 0x41ea <SrvWalkSetWalk>
    2d34:	28 c6       	rjmp	.+3152   	; 0x3986 <SrvCommExecuteMessage+0xf98>
	}
	else if(( inMessage.command == COMM_CLUSTER_BEHAVIOR_COMMAND_GET_WALK) && (inMessage.size == 0U))
    2d36:	80 91 65 0d 	lds	r24, 0x0D65	; 0x800d65 <inMessage+0x2>
    2d3a:	84 30       	cpi	r24, 0x04	; 4
    2d3c:	41 f5       	brne	.+80     	; 0x2d8e <SrvCommExecuteMessage+0x3a0>
    2d3e:	80 91 66 0d 	lds	r24, 0x0D66	; 0x800d66 <inMessage+0x3>
    2d42:	81 11       	cpse	r24, r1
	{
		SWalk *walk = SrvWalkGetStruct();
    2d44:	24 c0       	rjmp	.+72     	; 0x2d8e <SrvCommExecuteMessage+0x3a0>
    2d46:	0e 94 bd 20 	call	0x417a	; 0x417a <SrvWalkGetStruct>
		//prepare output string
		uint8_t nbData = SrvCommPrepareMessage(COMM_CLUSTER_BEHAVIOR,COMM_CLUSTER_BEHAVIOR_COMMAND_GET_WALK, 1U);
    2d4a:	8c 01       	movw	r16, r24
    2d4c:	41 e0       	ldi	r20, 0x01	; 1
    2d4e:	64 e0       	ldi	r22, 0x04	; 4
    2d50:	81 e0       	ldi	r24, 0x01	; 1
    2d52:	31 de       	rcall	.-926    	; 0x29b6 <SrvCommPrepareMessage>
    2d54:	9a 83       	std	Y+2, r25	; 0x02
    2d56:	89 83       	std	Y+1, r24	; 0x01
		nbData += sprintf((char*)&response[ nbData ],"%01X", walk->walking);
    2d58:	f8 01       	movw	r30, r16
    2d5a:	81 81       	ldd	r24, Z+1	; 0x01
    2d5c:	1f 92       	push	r1
    2d5e:	8f 93       	push	r24
    2d60:	86 ed       	ldi	r24, 0xD6	; 214
    2d62:	92 e0       	ldi	r25, 0x02	; 2
    2d64:	9f 93       	push	r25
    2d66:	8f 93       	push	r24
    2d68:	89 81       	ldd	r24, Y+1	; 0x01
    2d6a:	9a 81       	ldd	r25, Y+2	; 0x02
    2d6c:	99 27       	eor	r25, r25
    2d6e:	81 50       	subi	r24, 0x01	; 1
    2d70:	93 4f       	sbci	r25, 0xF3	; 243
    2d72:	9f 93       	push	r25
    2d74:	8f 93       	push	r24
    2d76:	0e 94 98 25 	call	0x4b30	; 0x4b30 <sprintf>
		return SrvCommWriteMessage(nbData);
    2d7a:	f9 81       	ldd	r31, Y+1	; 0x01
    2d7c:	8f 0f       	add	r24, r31
    2d7e:	f7 dd       	rcall	.-1042   	; 0x296e <SrvCommWriteMessage>
    2d80:	0f 90       	pop	r0
    2d82:	0f 90       	pop	r0
    2d84:	0f 90       	pop	r0
    2d86:	0f 90       	pop	r0
    2d88:	0f 90       	pop	r0
    2d8a:	0f 90       	pop	r0
    2d8c:	fc c5       	rjmp	.+3064   	; 0x3986 <SrvCommExecuteMessage+0xf98>
	}
	else if(( inMessage.command == COMM_CLUSTER_BEHAVIOR_COMMAND_SET_GROUND_SIZE) && (inMessage.size == 6U))
    2d8e:	80 91 65 0d 	lds	r24, 0x0D65	; 0x800d65 <inMessage+0x2>
    2d92:	85 30       	cpi	r24, 0x05	; 5
    2d94:	09 f0       	breq	.+2      	; 0x2d98 <SrvCommExecuteMessage+0x3aa>
    2d96:	3d c0       	rjmp	.+122    	; 0x2e12 <SrvCommExecuteMessage+0x424>
    2d98:	80 91 66 0d 	lds	r24, 0x0D66	; 0x800d66 <inMessage+0x3>
    2d9c:	86 30       	cpi	r24, 0x06	; 6
    2d9e:	c9 f5       	brne	.+114    	; 0x2e12 <SrvCommExecuteMessage+0x424>
	{
		//prepare output string
		uint16_t delay = inMessage.data[ 2U ] * 4096 + inMessage.data[ 3U ] * 256 + inMessage.data[ 4U ] * 16 + inMessage.data[ 5U ];
    2da0:	e3 e6       	ldi	r30, 0x63	; 99
    2da2:	fd e0       	ldi	r31, 0x0D	; 13
    2da4:	06 81       	ldd	r16, Z+6	; 0x06
    2da6:	17 81       	ldd	r17, Z+7	; 0x07
    2da8:	20 85       	ldd	r18, Z+8	; 0x08
    2daa:	2d 83       	std	Y+5, r18	; 0x05
    2dac:	31 85       	ldd	r19, Z+9	; 0x09
    2dae:	39 83       	std	Y+1, r19	; 0x01
		SrvBodyMoveSetGroundSize((inMessage.data[ 0U ] * 16 + inMessage.data[ 1U ] ) * 1.0);
    2db0:	84 81       	ldd	r24, Z+4	; 0x04
    2db2:	65 81       	ldd	r22, Z+5	; 0x05
    2db4:	70 e0       	ldi	r23, 0x00	; 0
    2db6:	40 e1       	ldi	r20, 0x10	; 16
    2db8:	84 9f       	mul	r24, r20
    2dba:	60 0d       	add	r22, r0
    2dbc:	71 1d       	adc	r23, r1
    2dbe:	11 24       	eor	r1, r1
    2dc0:	07 2e       	mov	r0, r23
    2dc2:	00 0c       	add	r0, r0
    2dc4:	88 0b       	sbc	r24, r24
    2dc6:	99 0b       	sbc	r25, r25
    2dc8:	0e 94 c1 22 	call	0x4582	; 0x4582 <__floatsisf>
    2dcc:	bc dd       	rcall	.-1160   	; 0x2946 <SrvBodyMoveSetGroundSize>
		
		SWalk *walk = SrvWalkGetStruct();
    2dce:	0e 94 bd 20 	call	0x417a	; 0x417a <SrvWalkGetStruct>
		if(walk->walking == E_WALK_STOP) return SrvBodyMoveApplyRotationAndTranslation(delay);
    2dd2:	fc 01       	movw	r30, r24
    2dd4:	81 81       	ldd	r24, Z+1	; 0x01
    2dd6:	82 30       	cpi	r24, 0x02	; 2
    2dd8:	09 f0       	breq	.+2      	; 0x2ddc <SrvCommExecuteMessage+0x3ee>
    2dda:	c2 c5       	rjmp	.+2948   	; 0x3960 <SrvCommExecuteMessage+0xf72>
    2ddc:	81 2f       	mov	r24, r17
    2dde:	90 e0       	ldi	r25, 0x00	; 0
    2de0:	f0 e1       	ldi	r31, 0x10	; 16
    2de2:	0f 9f       	mul	r16, r31
    2de4:	80 0d       	add	r24, r0
    2de6:	91 1d       	adc	r25, r1
    2de8:	11 24       	eor	r1, r1
    2dea:	82 95       	swap	r24
    2dec:	92 95       	swap	r25
    2dee:	90 7f       	andi	r25, 0xF0	; 240
    2df0:	98 27       	eor	r25, r24
    2df2:	80 7f       	andi	r24, 0xF0	; 240
    2df4:	98 27       	eor	r25, r24
    2df6:	2d 81       	ldd	r18, Y+5	; 0x05
    2df8:	82 0f       	add	r24, r18
    2dfa:	91 1d       	adc	r25, r1
    2dfc:	82 95       	swap	r24
    2dfe:	92 95       	swap	r25
    2e00:	90 7f       	andi	r25, 0xF0	; 240
    2e02:	98 27       	eor	r25, r24
    2e04:	80 7f       	andi	r24, 0xF0	; 240
    2e06:	98 27       	eor	r25, r24
    2e08:	39 81       	ldd	r19, Y+1	; 0x01
    2e0a:	83 0f       	add	r24, r19
    2e0c:	91 1d       	adc	r25, r1
    2e0e:	64 dd       	rcall	.-1336   	; 0x28d8 <SrvBodyMoveApplyRotationAndTranslation>
		return TRUE;
	}
	else if(( inMessage.command == COMM_CLUSTER_BEHAVIOR_COMMAND_GET_GROUND_SIZE) && (inMessage.size == 0U))
    2e10:	ba c5       	rjmp	.+2932   	; 0x3986 <SrvCommExecuteMessage+0xf98>
    2e12:	80 91 65 0d 	lds	r24, 0x0D65	; 0x800d65 <inMessage+0x2>
    2e16:	86 30       	cpi	r24, 0x06	; 6
    2e18:	61 f5       	brne	.+88     	; 0x2e72 <SrvCommExecuteMessage+0x484>
    2e1a:	80 91 66 0d 	lds	r24, 0x0D66	; 0x800d66 <inMessage+0x3>
	{
		SBodyMove *move = SrvBodyMoveGetStruct();
    2e1e:	81 11       	cpse	r24, r1
    2e20:	28 c0       	rjmp	.+80     	; 0x2e72 <SrvCommExecuteMessage+0x484>
    2e22:	20 db       	rcall	.-2496   	; 0x2464 <SrvBodyMoveGetStruct>
		//prepare output string
		uint8_t nbData = SrvCommPrepareMessage(COMM_CLUSTER_BEHAVIOR,COMM_CLUSTER_BEHAVIOR_COMMAND_GET_GROUND_SIZE, 2U);
    2e24:	8c 01       	movw	r16, r24
    2e26:	42 e0       	ldi	r20, 0x02	; 2
    2e28:	66 e0       	ldi	r22, 0x06	; 6
    2e2a:	81 e0       	ldi	r24, 0x01	; 1
    2e2c:	c4 dd       	rcall	.-1144   	; 0x29b6 <SrvCommPrepareMessage>
    2e2e:	9a 83       	std	Y+2, r25	; 0x02
    2e30:	89 83       	std	Y+1, r24	; 0x01
		nbData += sprintf((char*)&response[ nbData ],"%02X", (uint16_t)move->groundSize);
    2e32:	f8 01       	movw	r30, r16
    2e34:	65 81       	ldd	r22, Z+5	; 0x05
    2e36:	76 81       	ldd	r23, Z+6	; 0x06
    2e38:	87 81       	ldd	r24, Z+7	; 0x07
    2e3a:	90 85       	ldd	r25, Z+8	; 0x08
    2e3c:	0e 94 93 22 	call	0x4526	; 0x4526 <__fixunssfsi>
    2e40:	7f 93       	push	r23
    2e42:	6f 93       	push	r22
    2e44:	8d ec       	ldi	r24, 0xCD	; 205
    2e46:	92 e0       	ldi	r25, 0x02	; 2
    2e48:	9f 93       	push	r25
    2e4a:	8f 93       	push	r24
    2e4c:	89 81       	ldd	r24, Y+1	; 0x01
    2e4e:	9a 81       	ldd	r25, Y+2	; 0x02
    2e50:	99 27       	eor	r25, r25
    2e52:	81 50       	subi	r24, 0x01	; 1
    2e54:	93 4f       	sbci	r25, 0xF3	; 243
    2e56:	9f 93       	push	r25
    2e58:	8f 93       	push	r24
    2e5a:	0e 94 98 25 	call	0x4b30	; 0x4b30 <sprintf>
		return SrvCommWriteMessage(nbData);
    2e5e:	f9 81       	ldd	r31, Y+1	; 0x01
    2e60:	8f 0f       	add	r24, r31
    2e62:	85 dd       	rcall	.-1270   	; 0x296e <SrvCommWriteMessage>
    2e64:	0f 90       	pop	r0
    2e66:	0f 90       	pop	r0
    2e68:	0f 90       	pop	r0
    2e6a:	0f 90       	pop	r0
    2e6c:	0f 90       	pop	r0
    2e6e:	0f 90       	pop	r0
    2e70:	8a c5       	rjmp	.+2836   	; 0x3986 <SrvCommExecuteMessage+0xf98>
	}
	else if(( inMessage.command == COMM_CLUSTER_BEHAVIOR_COMMAND_SET_ELEVATION) && (inMessage.size == 6U))
    2e72:	80 91 65 0d 	lds	r24, 0x0D65	; 0x800d65 <inMessage+0x2>
    2e76:	87 30       	cpi	r24, 0x07	; 7
    2e78:	09 f0       	breq	.+2      	; 0x2e7c <SrvCommExecuteMessage+0x48e>
    2e7a:	3d c0       	rjmp	.+122    	; 0x2ef6 <SrvCommExecuteMessage+0x508>
    2e7c:	80 91 66 0d 	lds	r24, 0x0D66	; 0x800d66 <inMessage+0x3>
    2e80:	86 30       	cpi	r24, 0x06	; 6
    2e82:	c9 f5       	brne	.+114    	; 0x2ef6 <SrvCommExecuteMessage+0x508>
	{
		//prepare output string
		uint16_t delay = inMessage.data[ 2U ] * 4096 + inMessage.data[ 3U ] * 256 + inMessage.data[ 4U ] * 16 + inMessage.data[ 5U ];
    2e84:	e3 e6       	ldi	r30, 0x63	; 99
    2e86:	fd e0       	ldi	r31, 0x0D	; 13
    2e88:	06 81       	ldd	r16, Z+6	; 0x06
    2e8a:	27 81       	ldd	r18, Z+7	; 0x07
    2e8c:	29 83       	std	Y+1, r18	; 0x01
    2e8e:	10 85       	ldd	r17, Z+8	; 0x08
    2e90:	31 85       	ldd	r19, Z+9	; 0x09
		SrvBodyMoveSetElevation((inMessage.data[ 0U ] * 16 + inMessage.data[ 1U ] ) * 1.0);
    2e92:	3d 83       	std	Y+5, r19	; 0x05
    2e94:	84 81       	ldd	r24, Z+4	; 0x04
    2e96:	65 81       	ldd	r22, Z+5	; 0x05
    2e98:	70 e0       	ldi	r23, 0x00	; 0
    2e9a:	40 e1       	ldi	r20, 0x10	; 16
    2e9c:	84 9f       	mul	r24, r20
    2e9e:	60 0d       	add	r22, r0
    2ea0:	71 1d       	adc	r23, r1
    2ea2:	11 24       	eor	r1, r1
    2ea4:	07 2e       	mov	r0, r23
    2ea6:	00 0c       	add	r0, r0
    2ea8:	88 0b       	sbc	r24, r24
    2eaa:	99 0b       	sbc	r25, r25
    2eac:	0e 94 c1 22 	call	0x4582	; 0x4582 <__floatsisf>
    2eb0:	54 dd       	rcall	.-1368   	; 0x295a <SrvBodyMoveSetElevation>
		
		SWalk *walk = SrvWalkGetStruct();
    2eb2:	0e 94 bd 20 	call	0x417a	; 0x417a <SrvWalkGetStruct>
		if(walk->walking == E_WALK_STOP) return SrvBodyMoveApplyRotationAndTranslation(delay);
    2eb6:	fc 01       	movw	r30, r24
    2eb8:	81 81       	ldd	r24, Z+1	; 0x01
    2eba:	82 30       	cpi	r24, 0x02	; 2
    2ebc:	09 f0       	breq	.+2      	; 0x2ec0 <SrvCommExecuteMessage+0x4d2>
    2ebe:	52 c5       	rjmp	.+2724   	; 0x3964 <SrvCommExecuteMessage+0xf76>
    2ec0:	f9 81       	ldd	r31, Y+1	; 0x01
    2ec2:	8f 2f       	mov	r24, r31
    2ec4:	90 e0       	ldi	r25, 0x00	; 0
    2ec6:	20 e1       	ldi	r18, 0x10	; 16
    2ec8:	02 9f       	mul	r16, r18
    2eca:	80 0d       	add	r24, r0
    2ecc:	91 1d       	adc	r25, r1
    2ece:	11 24       	eor	r1, r1
    2ed0:	82 95       	swap	r24
    2ed2:	92 95       	swap	r25
    2ed4:	90 7f       	andi	r25, 0xF0	; 240
    2ed6:	98 27       	eor	r25, r24
    2ed8:	80 7f       	andi	r24, 0xF0	; 240
    2eda:	98 27       	eor	r25, r24
    2edc:	81 0f       	add	r24, r17
    2ede:	91 1d       	adc	r25, r1
    2ee0:	82 95       	swap	r24
    2ee2:	92 95       	swap	r25
    2ee4:	90 7f       	andi	r25, 0xF0	; 240
    2ee6:	98 27       	eor	r25, r24
    2ee8:	80 7f       	andi	r24, 0xF0	; 240
    2eea:	98 27       	eor	r25, r24
    2eec:	3d 81       	ldd	r19, Y+5	; 0x05
    2eee:	83 0f       	add	r24, r19
    2ef0:	91 1d       	adc	r25, r1
		return TRUE;
	}
	else if(( inMessage.command == COMM_CLUSTER_BEHAVIOR_COMMAND_GET_ELEVATION) && (inMessage.size == 0U))
    2ef2:	f2 dc       	rcall	.-1564   	; 0x28d8 <SrvBodyMoveApplyRotationAndTranslation>
    2ef4:	48 c5       	rjmp	.+2704   	; 0x3986 <SrvCommExecuteMessage+0xf98>
    2ef6:	80 91 65 0d 	lds	r24, 0x0D65	; 0x800d65 <inMessage+0x2>
    2efa:	88 30       	cpi	r24, 0x08	; 8
    2efc:	61 f5       	brne	.+88     	; 0x2f56 <SrvCommExecuteMessage+0x568>
    2efe:	80 91 66 0d 	lds	r24, 0x0D66	; 0x800d66 <inMessage+0x3>
	{
		SBodyMove *move = SrvBodyMoveGetStruct();
    2f02:	81 11       	cpse	r24, r1
    2f04:	28 c0       	rjmp	.+80     	; 0x2f56 <SrvCommExecuteMessage+0x568>
    2f06:	ae da       	rcall	.-2724   	; 0x2464 <SrvBodyMoveGetStruct>
		//prepare output string
		uint8_t nbData = SrvCommPrepareMessage(COMM_CLUSTER_BEHAVIOR,COMM_CLUSTER_BEHAVIOR_COMMAND_GET_ELEVATION, 2U);
    2f08:	8c 01       	movw	r16, r24
    2f0a:	42 e0       	ldi	r20, 0x02	; 2
    2f0c:	68 e0       	ldi	r22, 0x08	; 8
    2f0e:	81 e0       	ldi	r24, 0x01	; 1
    2f10:	52 dd       	rcall	.-1372   	; 0x29b6 <SrvCommPrepareMessage>
    2f12:	9a 83       	std	Y+2, r25	; 0x02
    2f14:	89 83       	std	Y+1, r24	; 0x01
		nbData += sprintf((char*)&response[ nbData ],"%02X", (uint16_t)move->elevation);
    2f16:	f8 01       	movw	r30, r16
    2f18:	61 81       	ldd	r22, Z+1	; 0x01
    2f1a:	72 81       	ldd	r23, Z+2	; 0x02
    2f1c:	83 81       	ldd	r24, Z+3	; 0x03
    2f1e:	94 81       	ldd	r25, Z+4	; 0x04
    2f20:	0e 94 93 22 	call	0x4526	; 0x4526 <__fixunssfsi>
    2f24:	7f 93       	push	r23
    2f26:	6f 93       	push	r22
    2f28:	8d ec       	ldi	r24, 0xCD	; 205
    2f2a:	92 e0       	ldi	r25, 0x02	; 2
    2f2c:	9f 93       	push	r25
    2f2e:	8f 93       	push	r24
    2f30:	89 81       	ldd	r24, Y+1	; 0x01
    2f32:	9a 81       	ldd	r25, Y+2	; 0x02
    2f34:	99 27       	eor	r25, r25
    2f36:	81 50       	subi	r24, 0x01	; 1
    2f38:	93 4f       	sbci	r25, 0xF3	; 243
    2f3a:	9f 93       	push	r25
    2f3c:	8f 93       	push	r24
    2f3e:	0e 94 98 25 	call	0x4b30	; 0x4b30 <sprintf>
		return SrvCommWriteMessage(nbData);
    2f42:	f9 81       	ldd	r31, Y+1	; 0x01
    2f44:	8f 0f       	add	r24, r31
    2f46:	13 dd       	rcall	.-1498   	; 0x296e <SrvCommWriteMessage>
    2f48:	0f 90       	pop	r0
    2f4a:	0f 90       	pop	r0
    2f4c:	0f 90       	pop	r0
    2f4e:	0f 90       	pop	r0
    2f50:	0f 90       	pop	r0
    2f52:	0f 90       	pop	r0
    2f54:	18 c5       	rjmp	.+2608   	; 0x3986 <SrvCommExecuteMessage+0xf98>
	}
	else if(( inMessage.command == COMM_CLUSTER_BEHAVIOR_COMMAND_SET_FEELING) && (inMessage.size == 1U))
    2f56:	80 91 65 0d 	lds	r24, 0x0D65	; 0x800d65 <inMessage+0x2>
    2f5a:	89 30       	cpi	r24, 0x09	; 9
    2f5c:	51 f4       	brne	.+20     	; 0x2f72 <SrvCommExecuteMessage+0x584>
    2f5e:	80 91 66 0d 	lds	r24, 0x0D66	; 0x800d66 <inMessage+0x3>
    2f62:	81 30       	cpi	r24, 0x01	; 1
    2f64:	31 f4       	brne	.+12     	; 0x2f72 <SrvCommExecuteMessage+0x584>
	{
		//prepare output string
		SrvFeelingSetFeelingStatus((EFeelingState)inMessage.data[ 0U ]);
    2f66:	80 91 67 0d 	lds	r24, 0x0D67	; 0x800d67 <inMessage+0x4>
    2f6a:	0e 94 64 20 	call	0x40c8	; 0x40c8 <SrvFeelingSetFeelingStatus>
		return TRUE;
    2f6e:	81 e0       	ldi	r24, 0x01	; 1
	}
	else if(( inMessage.command == COMM_CLUSTER_BEHAVIOR_COMMAND_GET_FEELING) && (inMessage.size == 0U))
    2f70:	0a c5       	rjmp	.+2580   	; 0x3986 <SrvCommExecuteMessage+0xf98>
    2f72:	80 91 65 0d 	lds	r24, 0x0D65	; 0x800d65 <inMessage+0x2>
    2f76:	8a 30       	cpi	r24, 0x0A	; 10
    2f78:	41 f5       	brne	.+80     	; 0x2fca <SrvCommExecuteMessage+0x5dc>
    2f7a:	80 91 66 0d 	lds	r24, 0x0D66	; 0x800d66 <inMessage+0x3>
    2f7e:	81 11       	cpse	r24, r1
	{
		SFeeling *feel = SrvFeelingGetFeeling();
    2f80:	24 c0       	rjmp	.+72     	; 0x2fca <SrvCommExecuteMessage+0x5dc>
    2f82:	0e 94 67 20 	call	0x40ce	; 0x40ce <SrvFeelingGetFeeling>
		//prepare output string
		uint8_t nbData = SrvCommPrepareMessage(COMM_CLUSTER_BEHAVIOR,COMM_CLUSTER_BEHAVIOR_COMMAND_GET_FEELING, 1U);
    2f86:	8c 01       	movw	r16, r24
    2f88:	41 e0       	ldi	r20, 0x01	; 1
    2f8a:	6a e0       	ldi	r22, 0x0A	; 10
    2f8c:	81 e0       	ldi	r24, 0x01	; 1
    2f8e:	13 dd       	rcall	.-1498   	; 0x29b6 <SrvCommPrepareMessage>
    2f90:	9a 83       	std	Y+2, r25	; 0x02
		nbData += sprintf((char*)&response[ nbData ],"%01X", feel->state);
    2f92:	89 83       	std	Y+1, r24	; 0x01
    2f94:	f8 01       	movw	r30, r16
    2f96:	81 81       	ldd	r24, Z+1	; 0x01
    2f98:	1f 92       	push	r1
    2f9a:	8f 93       	push	r24
    2f9c:	86 ed       	ldi	r24, 0xD6	; 214
    2f9e:	92 e0       	ldi	r25, 0x02	; 2
    2fa0:	9f 93       	push	r25
    2fa2:	8f 93       	push	r24
    2fa4:	89 81       	ldd	r24, Y+1	; 0x01
    2fa6:	9a 81       	ldd	r25, Y+2	; 0x02
    2fa8:	99 27       	eor	r25, r25
    2faa:	81 50       	subi	r24, 0x01	; 1
    2fac:	93 4f       	sbci	r25, 0xF3	; 243
    2fae:	9f 93       	push	r25
    2fb0:	8f 93       	push	r24
    2fb2:	0e 94 98 25 	call	0x4b30	; 0x4b30 <sprintf>
		return SrvCommWriteMessage(nbData);
    2fb6:	f9 81       	ldd	r31, Y+1	; 0x01
    2fb8:	8f 0f       	add	r24, r31
    2fba:	d9 dc       	rcall	.-1614   	; 0x296e <SrvCommWriteMessage>
    2fbc:	0f 90       	pop	r0
    2fbe:	0f 90       	pop	r0
    2fc0:	0f 90       	pop	r0
    2fc2:	0f 90       	pop	r0
    2fc4:	0f 90       	pop	r0
    2fc6:	0f 90       	pop	r0
    2fc8:	de c4       	rjmp	.+2492   	; 0x3986 <SrvCommExecuteMessage+0xf98>
	}
	else if(( inMessage.command == COMM_CLUSTER_BEHAVIOR_COMMAND_SET_SPEED) && (inMessage.size == 4U))
    2fca:	80 91 65 0d 	lds	r24, 0x0D65	; 0x800d65 <inMessage+0x2>
    2fce:	8b 30       	cpi	r24, 0x0B	; 11
    2fd0:	19 f5       	brne	.+70     	; 0x3018 <SrvCommExecuteMessage+0x62a>
    2fd2:	80 91 66 0d 	lds	r24, 0x0D66	; 0x800d66 <inMessage+0x3>
    2fd6:	84 30       	cpi	r24, 0x04	; 4
    2fd8:	f9 f4       	brne	.+62     	; 0x3018 <SrvCommExecuteMessage+0x62a>
	{
		Int16U delay = inMessage.data[ 0U ] * 4096 + inMessage.data[ 1U ] * 256 + inMessage.data[ 2U ] * 16 + inMessage.data[ 3U ];
    2fda:	e3 e6       	ldi	r30, 0x63	; 99
    2fdc:	fd e0       	ldi	r31, 0x0D	; 13
    2fde:	44 81       	ldd	r20, Z+4	; 0x04
    2fe0:	85 81       	ldd	r24, Z+5	; 0x05
    2fe2:	36 81       	ldd	r19, Z+6	; 0x06
    2fe4:	27 81       	ldd	r18, Z+7	; 0x07
		return SrvWalkSetSpeed(delay);
    2fe6:	90 e0       	ldi	r25, 0x00	; 0
    2fe8:	50 e1       	ldi	r21, 0x10	; 16
    2fea:	45 9f       	mul	r20, r21
    2fec:	80 0d       	add	r24, r0
    2fee:	91 1d       	adc	r25, r1
    2ff0:	11 24       	eor	r1, r1
    2ff2:	82 95       	swap	r24
    2ff4:	92 95       	swap	r25
    2ff6:	90 7f       	andi	r25, 0xF0	; 240
    2ff8:	98 27       	eor	r25, r24
    2ffa:	80 7f       	andi	r24, 0xF0	; 240
    2ffc:	98 27       	eor	r25, r24
    2ffe:	83 0f       	add	r24, r19
    3000:	91 1d       	adc	r25, r1
    3002:	82 95       	swap	r24
    3004:	92 95       	swap	r25
    3006:	90 7f       	andi	r25, 0xF0	; 240
    3008:	98 27       	eor	r25, r24
    300a:	80 7f       	andi	r24, 0xF0	; 240
    300c:	98 27       	eor	r25, r24
    300e:	82 0f       	add	r24, r18
    3010:	91 1d       	adc	r25, r1
    3012:	0e 94 c0 20 	call	0x4180	; 0x4180 <SrvWalkSetSpeed>
	}
	else if(( inMessage.command == COMM_CLUSTER_BEHAVIOR_COMMAND_GET_SPEED) && (inMessage.size == 0U))
    3016:	b7 c4       	rjmp	.+2414   	; 0x3986 <SrvCommExecuteMessage+0xf98>
    3018:	80 91 65 0d 	lds	r24, 0x0D65	; 0x800d65 <inMessage+0x2>
    301c:	8c 30       	cpi	r24, 0x0C	; 12
    301e:	29 f5       	brne	.+74     	; 0x306a <SrvCommExecuteMessage+0x67c>
    3020:	80 91 66 0d 	lds	r24, 0x0D66	; 0x800d66 <inMessage+0x3>
    3024:	81 11       	cpse	r24, r1
	{
		//prepare output string
		uint8_t nbData = SrvCommPrepareMessage(COMM_CLUSTER_BEHAVIOR,COMM_CLUSTER_BEHAVIOR_COMMAND_GET_SPEED, 4U);
    3026:	21 c0       	rjmp	.+66     	; 0x306a <SrvCommExecuteMessage+0x67c>
    3028:	44 e0       	ldi	r20, 0x04	; 4
    302a:	6c e0       	ldi	r22, 0x0C	; 12
    302c:	81 e0       	ldi	r24, 0x01	; 1
    302e:	c3 dc       	rcall	.-1658   	; 0x29b6 <SrvCommPrepareMessage>
    3030:	9a 83       	std	Y+2, r25	; 0x02
		nbData += sprintf((char*)&response[ nbData ],"%04X", SrvWalkGetSpeed());
    3032:	89 83       	std	Y+1, r24	; 0x01
    3034:	0e 94 ce 20 	call	0x419c	; 0x419c <SrvWalkGetSpeed>
    3038:	9f 93       	push	r25
    303a:	8f 93       	push	r24
    303c:	8b ed       	ldi	r24, 0xDB	; 219
    303e:	92 e0       	ldi	r25, 0x02	; 2
    3040:	9f 93       	push	r25
    3042:	8f 93       	push	r24
    3044:	89 81       	ldd	r24, Y+1	; 0x01
    3046:	9a 81       	ldd	r25, Y+2	; 0x02
    3048:	99 27       	eor	r25, r25
    304a:	81 50       	subi	r24, 0x01	; 1
    304c:	93 4f       	sbci	r25, 0xF3	; 243
    304e:	9f 93       	push	r25
    3050:	8f 93       	push	r24
    3052:	0e 94 98 25 	call	0x4b30	; 0x4b30 <sprintf>
		return SrvCommWriteMessage(nbData);
    3056:	69 81       	ldd	r22, Y+1	; 0x01
    3058:	86 0f       	add	r24, r22
    305a:	89 dc       	rcall	.-1774   	; 0x296e <SrvCommWriteMessage>
    305c:	0f 90       	pop	r0
    305e:	0f 90       	pop	r0
    3060:	0f 90       	pop	r0
    3062:	0f 90       	pop	r0
    3064:	0f 90       	pop	r0
    3066:	0f 90       	pop	r0
    3068:	8e c4       	rjmp	.+2332   	; 0x3986 <SrvCommExecuteMessage+0xf98>
	}
	else if(( inMessage.command == COMM_CLUSTER_BEHAVIOR_COMMAND_SET_AMPLITUDE) && (inMessage.size == 2U))
    306a:	80 91 65 0d 	lds	r24, 0x0D65	; 0x800d65 <inMessage+0x2>
    306e:	8d 30       	cpi	r24, 0x0D	; 13
    3070:	79 f4       	brne	.+30     	; 0x3090 <SrvCommExecuteMessage+0x6a2>
    3072:	80 91 66 0d 	lds	r24, 0x0D66	; 0x800d66 <inMessage+0x3>
    3076:	82 30       	cpi	r24, 0x02	; 2
	{
		Int8S amplitude = (Int8S)inMessage.data[ 0U ] * 16 + inMessage.data[ 1U ];
    3078:	59 f4       	brne	.+22     	; 0x3090 <SrvCommExecuteMessage+0x6a2>
    307a:	e3 e6       	ldi	r30, 0x63	; 99
    307c:	fd e0       	ldi	r31, 0x0D	; 13
    307e:	94 81       	ldd	r25, Z+4	; 0x04
		return SrvWalkSetAmplitude(amplitude);
    3080:	85 81       	ldd	r24, Z+5	; 0x05
    3082:	e0 e1       	ldi	r30, 0x10	; 16
    3084:	9e 9f       	mul	r25, r30
    3086:	80 0d       	add	r24, r0
    3088:	11 24       	eor	r1, r1
    308a:	0e 94 d8 20 	call	0x41b0	; 0x41b0 <SrvWalkSetAmplitude>
	}
	else if(( inMessage.command == COMM_CLUSTER_BEHAVIOR_COMMAND_GET_AMPLITUDE) && (inMessage.size == 0U))
    308e:	7b c4       	rjmp	.+2294   	; 0x3986 <SrvCommExecuteMessage+0xf98>
    3090:	80 91 65 0d 	lds	r24, 0x0D65	; 0x800d65 <inMessage+0x2>
    3094:	8e 30       	cpi	r24, 0x0E	; 14
    3096:	49 f5       	brne	.+82     	; 0x30ea <SrvCommExecuteMessage+0x6fc>
    3098:	80 91 66 0d 	lds	r24, 0x0D66	; 0x800d66 <inMessage+0x3>
    309c:	81 11       	cpse	r24, r1
	{
		//prepare output string
		uint8_t nbData = SrvCommPrepareMessage(COMM_CLUSTER_BEHAVIOR,COMM_CLUSTER_BEHAVIOR_COMMAND_GET_AMPLITUDE, 2U);
    309e:	25 c0       	rjmp	.+74     	; 0x30ea <SrvCommExecuteMessage+0x6fc>
    30a0:	42 e0       	ldi	r20, 0x02	; 2
    30a2:	6e e0       	ldi	r22, 0x0E	; 14
    30a4:	81 e0       	ldi	r24, 0x01	; 1
    30a6:	87 dc       	rcall	.-1778   	; 0x29b6 <SrvCommPrepareMessage>
    30a8:	9a 83       	std	Y+2, r25	; 0x02
		nbData += sprintf((char*)&response[ nbData ],"%02X", SrvWalkGetAmplitude());
    30aa:	89 83       	std	Y+1, r24	; 0x01
    30ac:	0e 94 77 21 	call	0x42ee	; 0x42ee <SrvWalkGetAmplitude>
    30b0:	28 2f       	mov	r18, r24
    30b2:	08 2e       	mov	r0, r24
    30b4:	00 0c       	add	r0, r0
    30b6:	33 0b       	sbc	r19, r19
    30b8:	3f 93       	push	r19
    30ba:	8f 93       	push	r24
    30bc:	8d ec       	ldi	r24, 0xCD	; 205
    30be:	92 e0       	ldi	r25, 0x02	; 2
    30c0:	9f 93       	push	r25
    30c2:	8f 93       	push	r24
    30c4:	89 81       	ldd	r24, Y+1	; 0x01
    30c6:	9a 81       	ldd	r25, Y+2	; 0x02
    30c8:	99 27       	eor	r25, r25
    30ca:	81 50       	subi	r24, 0x01	; 1
    30cc:	93 4f       	sbci	r25, 0xF3	; 243
    30ce:	9f 93       	push	r25
    30d0:	8f 93       	push	r24
    30d2:	0e 94 98 25 	call	0x4b30	; 0x4b30 <sprintf>
		return SrvCommWriteMessage(nbData);
    30d6:	f9 81       	ldd	r31, Y+1	; 0x01
    30d8:	8f 0f       	add	r24, r31
    30da:	49 dc       	rcall	.-1902   	; 0x296e <SrvCommWriteMessage>
    30dc:	0f 90       	pop	r0
    30de:	0f 90       	pop	r0
    30e0:	0f 90       	pop	r0
    30e2:	0f 90       	pop	r0
    30e4:	0f 90       	pop	r0
    30e6:	0f 90       	pop	r0
    30e8:	4e c4       	rjmp	.+2204   	; 0x3986 <SrvCommExecuteMessage+0xf98>
	}
	else if(( inMessage.command == COMM_CLUSTER_BEHAVIOR_COMMAND_SET_DIRECTION) && (inMessage.size == 2U))
    30ea:	80 91 65 0d 	lds	r24, 0x0D65	; 0x800d65 <inMessage+0x2>
    30ee:	8f 30       	cpi	r24, 0x0F	; 15
    30f0:	79 f4       	brne	.+30     	; 0x3110 <SrvCommExecuteMessage+0x722>
    30f2:	80 91 66 0d 	lds	r24, 0x0D66	; 0x800d66 <inMessage+0x3>
    30f6:	82 30       	cpi	r24, 0x02	; 2
	{
		Int8S direction = (Int8S)inMessage.data[ 0U ] * 16 + inMessage.data[ 1U ];
    30f8:	59 f4       	brne	.+22     	; 0x3110 <SrvCommExecuteMessage+0x722>
    30fa:	e3 e6       	ldi	r30, 0x63	; 99
    30fc:	fd e0       	ldi	r31, 0x0D	; 13
    30fe:	94 81       	ldd	r25, Z+4	; 0x04
		return SrvWalkSetDirection(direction);
    3100:	85 81       	ldd	r24, Z+5	; 0x05
    3102:	20 e1       	ldi	r18, 0x10	; 16
    3104:	92 9f       	mul	r25, r18
    3106:	80 0d       	add	r24, r0
    3108:	11 24       	eor	r1, r1
    310a:	0e 94 7a 21 	call	0x42f4	; 0x42f4 <SrvWalkSetDirection>
	}
	else if(( inMessage.command == COMM_CLUSTER_BEHAVIOR_COMMAND_GET_DIRECTION) && (inMessage.size == 0U))
    310e:	3b c4       	rjmp	.+2166   	; 0x3986 <SrvCommExecuteMessage+0xf98>
    3110:	80 91 65 0d 	lds	r24, 0x0D65	; 0x800d65 <inMessage+0x2>
    3114:	80 31       	cpi	r24, 0x10	; 16
    3116:	49 f5       	brne	.+82     	; 0x316a <SrvCommExecuteMessage+0x77c>
    3118:	80 91 66 0d 	lds	r24, 0x0D66	; 0x800d66 <inMessage+0x3>
    311c:	81 11       	cpse	r24, r1
	{
		//prepare output string
		uint8_t nbData = SrvCommPrepareMessage(COMM_CLUSTER_BEHAVIOR,COMM_CLUSTER_BEHAVIOR_COMMAND_GET_DIRECTION, 2U);
    311e:	25 c0       	rjmp	.+74     	; 0x316a <SrvCommExecuteMessage+0x77c>
    3120:	42 e0       	ldi	r20, 0x02	; 2
    3122:	60 e1       	ldi	r22, 0x10	; 16
    3124:	81 e0       	ldi	r24, 0x01	; 1
    3126:	47 dc       	rcall	.-1906   	; 0x29b6 <SrvCommPrepareMessage>
    3128:	9a 83       	std	Y+2, r25	; 0x02
		nbData += sprintf((char*)&response[ nbData ],"%02X", SrvWalkGetDirection());
    312a:	89 83       	std	Y+1, r24	; 0x01
    312c:	0e 94 84 21 	call	0x4308	; 0x4308 <SrvWalkGetDirection>
    3130:	28 2f       	mov	r18, r24
    3132:	08 2e       	mov	r0, r24
    3134:	00 0c       	add	r0, r0
    3136:	33 0b       	sbc	r19, r19
    3138:	3f 93       	push	r19
    313a:	8f 93       	push	r24
    313c:	8d ec       	ldi	r24, 0xCD	; 205
    313e:	92 e0       	ldi	r25, 0x02	; 2
    3140:	9f 93       	push	r25
    3142:	8f 93       	push	r24
    3144:	89 81       	ldd	r24, Y+1	; 0x01
    3146:	9a 81       	ldd	r25, Y+2	; 0x02
    3148:	99 27       	eor	r25, r25
    314a:	81 50       	subi	r24, 0x01	; 1
    314c:	93 4f       	sbci	r25, 0xF3	; 243
    314e:	9f 93       	push	r25
    3150:	8f 93       	push	r24
		return SrvCommWriteMessage(nbData);
    3152:	0e 94 98 25 	call	0x4b30	; 0x4b30 <sprintf>
    3156:	39 81       	ldd	r19, Y+1	; 0x01
    3158:	83 0f       	add	r24, r19
    315a:	09 dc       	rcall	.-2030   	; 0x296e <SrvCommWriteMessage>
    315c:	0f 90       	pop	r0
    315e:	0f 90       	pop	r0
    3160:	0f 90       	pop	r0
    3162:	0f 90       	pop	r0
    3164:	0f 90       	pop	r0
    3166:	0f 90       	pop	r0
	}
	else if(( inMessage.command == COMM_CLUSTER_BEHAVIOR_COMMAND_START_SCAN) && (inMessage.size == 0U))
    3168:	0e c4       	rjmp	.+2076   	; 0x3986 <SrvCommExecuteMessage+0xf98>
    316a:	80 91 65 0d 	lds	r24, 0x0D65	; 0x800d65 <inMessage+0x2>
    316e:	81 31       	cpi	r24, 0x11	; 17
    3170:	31 f4       	brne	.+12     	; 0x317e <SrvCommExecuteMessage+0x790>
    3172:	80 91 66 0d 	lds	r24, 0x0D66	; 0x800d66 <inMessage+0x3>
	{
		return SrvHeadScan();
    3176:	81 11       	cpse	r24, r1
    3178:	02 c0       	rjmp	.+4      	; 0x317e <SrvCommExecuteMessage+0x790>
    317a:	b7 d7       	rcall	.+3950   	; 0x40ea <SrvHeadScan>
	
	
	
	else
	{
		errorMessage = COMM_ERROR_UNKNOWN_COMMAND;
    317c:	04 c4       	rjmp	.+2056   	; 0x3986 <SrvCommExecuteMessage+0xf98>
    317e:	83 e0       	ldi	r24, 0x03	; 3
    3180:	80 93 f8 0c 	sts	0x0CF8, r24	; 0x800cf8 <errorMessage>
	}
	return FALSE;
    3184:	80 e0       	ldi	r24, 0x00	; 0
	}
	else if( inMessage.cluster == COMM_CLUSTER_BEHAVIOR)
	{
		oSuccess = SrvCommExecuteClusterBehavior();
	}
	else if( inMessage.cluster == COMM_CLUSTER_IMU)
    3186:	ff c3       	rjmp	.+2046   	; 0x3986 <SrvCommExecuteMessage+0xf98>
    3188:	80 91 64 0d 	lds	r24, 0x0D64	; 0x800d64 <inMessage+0x1>
    318c:	82 30       	cpi	r24, 0x02	; 2
    318e:	09 f0       	breq	.+2      	; 0x3192 <SrvCommExecuteMessage+0x7a4>
	}
	return FALSE;
}
static Boolean SrvCommExecuteClusterIMU( void )
{
	if(( inMessage.command == COMM_CLUSTER_IMU_COMMAND_GET_THRESHOLD) && (inMessage.size == 0U))
    3190:	02 c1       	rjmp	.+516    	; 0x3396 <SrvCommExecuteMessage+0x9a8>
    3192:	80 91 65 0d 	lds	r24, 0x0D65	; 0x800d65 <inMessage+0x2>
    3196:	81 11       	cpse	r24, r1
    3198:	24 c0       	rjmp	.+72     	; 0x31e2 <SrvCommExecuteMessage+0x7f4>
    319a:	80 91 66 0d 	lds	r24, 0x0D66	; 0x800d66 <inMessage+0x3>
	{
		//prepare output string
		uint8_t nbData = SrvCommPrepareMessage(COMM_CLUSTER_IMU,COMM_CLUSTER_IMU_COMMAND_GET_THRESHOLD, 2U);
    319e:	81 11       	cpse	r24, r1
    31a0:	20 c0       	rjmp	.+64     	; 0x31e2 <SrvCommExecuteMessage+0x7f4>
    31a2:	42 e0       	ldi	r20, 0x02	; 2
    31a4:	60 e0       	ldi	r22, 0x00	; 0
    31a6:	82 e0       	ldi	r24, 0x02	; 2
    31a8:	06 dc       	rcall	.-2036   	; 0x29b6 <SrvCommPrepareMessage>
    31aa:	9a 83       	std	Y+2, r25	; 0x02
		nbData += sprintf((char*)&response[ nbData ],"%02X", SrvImuSimpleGetThreshold());
    31ac:	89 83       	std	Y+1, r24	; 0x01
    31ae:	ad d7       	rcall	.+3930   	; 0x410a <SrvImuSimpleGetThreshold>
    31b0:	1f 92       	push	r1
    31b2:	8f 93       	push	r24
    31b4:	8d ec       	ldi	r24, 0xCD	; 205
    31b6:	92 e0       	ldi	r25, 0x02	; 2
    31b8:	9f 93       	push	r25
    31ba:	8f 93       	push	r24
    31bc:	89 81       	ldd	r24, Y+1	; 0x01
    31be:	9a 81       	ldd	r25, Y+2	; 0x02
    31c0:	99 27       	eor	r25, r25
    31c2:	81 50       	subi	r24, 0x01	; 1
    31c4:	93 4f       	sbci	r25, 0xF3	; 243
    31c6:	9f 93       	push	r25
    31c8:	8f 93       	push	r24
    31ca:	0e 94 98 25 	call	0x4b30	; 0x4b30 <sprintf>
		return SrvCommWriteMessage(nbData);
    31ce:	49 81       	ldd	r20, Y+1	; 0x01
    31d0:	84 0f       	add	r24, r20
    31d2:	cd db       	rcall	.-2150   	; 0x296e <SrvCommWriteMessage>
    31d4:	0f 90       	pop	r0
    31d6:	0f 90       	pop	r0
    31d8:	0f 90       	pop	r0
    31da:	0f 90       	pop	r0
    31dc:	0f 90       	pop	r0
    31de:	0f 90       	pop	r0
    31e0:	d2 c3       	rjmp	.+1956   	; 0x3986 <SrvCommExecuteMessage+0xf98>
	}
	else if(( inMessage.command == COMM_CLUSTER_IMU_COMMAND_SET_THRESHOLD) && (inMessage.size == 2U))
    31e2:	80 91 65 0d 	lds	r24, 0x0D65	; 0x800d65 <inMessage+0x2>
    31e6:	81 30       	cpi	r24, 0x01	; 1
    31e8:	79 f4       	brne	.+30     	; 0x3208 <SrvCommExecuteMessage+0x81a>
    31ea:	80 91 66 0d 	lds	r24, 0x0D66	; 0x800d66 <inMessage+0x3>
	{
		//prepare output string
		SrvImuSimpleSetThreshold((uint8_t)((inMessage.data[ 0U ] * 16U) + inMessage.data[ 1U ]));
    31ee:	82 30       	cpi	r24, 0x02	; 2
    31f0:	59 f4       	brne	.+22     	; 0x3208 <SrvCommExecuteMessage+0x81a>
    31f2:	e3 e6       	ldi	r30, 0x63	; 99
    31f4:	fd e0       	ldi	r31, 0x0D	; 13
    31f6:	94 81       	ldd	r25, Z+4	; 0x04
    31f8:	85 81       	ldd	r24, Z+5	; 0x05
    31fa:	50 e1       	ldi	r21, 0x10	; 16
    31fc:	95 9f       	mul	r25, r21
    31fe:	80 0d       	add	r24, r0
    3200:	11 24       	eor	r1, r1
		//can send data
		return TRUE;
    3202:	7f d7       	rcall	.+3838   	; 0x4102 <SrvImuSimpleSetThreshold>
    3204:	81 e0       	ldi	r24, 0x01	; 1
	}
	else if(( inMessage.command == COMM_CLUSTER_IMU_COMMAND_GET_ROLL_PITCH_YAW) && (inMessage.size == 0U))
    3206:	bf c3       	rjmp	.+1918   	; 0x3986 <SrvCommExecuteMessage+0xf98>
    3208:	80 91 65 0d 	lds	r24, 0x0D65	; 0x800d65 <inMessage+0x2>
    320c:	82 30       	cpi	r24, 0x02	; 2
    320e:	09 f0       	breq	.+2      	; 0x3212 <SrvCommExecuteMessage+0x824>
    3210:	45 c0       	rjmp	.+138    	; 0x329c <SrvCommExecuteMessage+0x8ae>
    3212:	80 91 66 0d 	lds	r24, 0x0D66	; 0x800d66 <inMessage+0x3>
	{
		//prepare output string
		uint8_t nbData = SrvCommPrepareMessage(COMM_CLUSTER_IMU,COMM_CLUSTER_IMU_COMMAND_GET_ROLL_PITCH_YAW, 12U);
    3216:	81 11       	cpse	r24, r1
    3218:	41 c0       	rjmp	.+130    	; 0x329c <SrvCommExecuteMessage+0x8ae>
    321a:	4c e0       	ldi	r20, 0x0C	; 12
    321c:	62 e0       	ldi	r22, 0x02	; 2
    321e:	82 e0       	ldi	r24, 0x02	; 2
    3220:	ca db       	rcall	.-2156   	; 0x29b6 <SrvCommPrepareMessage>
    3222:	9a 83       	std	Y+2, r25	; 0x02
		nbData += sprintf((char*)&response[ nbData ],"%04X", SrvImuSimpleGetRoll());
    3224:	89 83       	std	Y+1, r24	; 0x01
    3226:	74 d7       	rcall	.+3816   	; 0x4110 <SrvImuSimpleGetRoll>
    3228:	9f 93       	push	r25
    322a:	8f 93       	push	r24
    322c:	0b ed       	ldi	r16, 0xDB	; 219
    322e:	12 e0       	ldi	r17, 0x02	; 2
    3230:	1f 93       	push	r17
    3232:	0f 93       	push	r16
    3234:	89 81       	ldd	r24, Y+1	; 0x01
    3236:	9a 81       	ldd	r25, Y+2	; 0x02
    3238:	99 27       	eor	r25, r25
    323a:	81 50       	subi	r24, 0x01	; 1
    323c:	93 4f       	sbci	r25, 0xF3	; 243
    323e:	9f 93       	push	r25
    3240:	8f 93       	push	r24
    3242:	0e 94 98 25 	call	0x4b30	; 0x4b30 <sprintf>
    3246:	69 81       	ldd	r22, Y+1	; 0x01
    3248:	68 0f       	add	r22, r24
		nbData += sprintf((char*)&response[ nbData ],"%04X", SrvImuSimpleGetPitch());
    324a:	69 83       	std	Y+1, r22	; 0x01
    324c:	66 d7       	rcall	.+3788   	; 0x411a <SrvImuSimpleGetPitch>
    324e:	9f 93       	push	r25
    3250:	8f 93       	push	r24
    3252:	1f 93       	push	r17
    3254:	0f 93       	push	r16
    3256:	e9 81       	ldd	r30, Y+1	; 0x01
    3258:	8e 2f       	mov	r24, r30
    325a:	90 e0       	ldi	r25, 0x00	; 0
    325c:	81 50       	subi	r24, 0x01	; 1
    325e:	93 4f       	sbci	r25, 0xF3	; 243
    3260:	9f 93       	push	r25
    3262:	8f 93       	push	r24
    3264:	0e 94 98 25 	call	0x4b30	; 0x4b30 <sprintf>
    3268:	f9 81       	ldd	r31, Y+1	; 0x01
    326a:	f8 0f       	add	r31, r24
		nbData += sprintf((char*)&response[ nbData ],"%04X", SrvImuSimpleGetYaw());
    326c:	f9 83       	std	Y+1, r31	; 0x01
    326e:	5a d7       	rcall	.+3764   	; 0x4124 <SrvImuSimpleGetYaw>
    3270:	9f 93       	push	r25
    3272:	8f 93       	push	r24
    3274:	1f 93       	push	r17
    3276:	0f 93       	push	r16
    3278:	29 81       	ldd	r18, Y+1	; 0x01
    327a:	82 2f       	mov	r24, r18
    327c:	90 e0       	ldi	r25, 0x00	; 0
    327e:	81 50       	subi	r24, 0x01	; 1
    3280:	93 4f       	sbci	r25, 0xF3	; 243
    3282:	9f 93       	push	r25
    3284:	8f 93       	push	r24
    3286:	0e 94 98 25 	call	0x4b30	; 0x4b30 <sprintf>
		return SrvCommWriteMessage(nbData);
    328a:	39 81       	ldd	r19, Y+1	; 0x01
    328c:	83 0f       	add	r24, r19
    328e:	6f db       	rcall	.-2338   	; 0x296e <SrvCommWriteMessage>
    3290:	0f b6       	in	r0, 0x3f	; 63
    3292:	f8 94       	cli
    3294:	de bf       	out	0x3e, r29	; 62
    3296:	0f be       	out	0x3f, r0	; 63
    3298:	cd bf       	out	0x3d, r28	; 61
	}
	else if(( inMessage.command == COMM_CLUSTER_IMU_COMMAND_GET_ROLL) && (inMessage.size == 0U))
    329a:	75 c3       	rjmp	.+1770   	; 0x3986 <SrvCommExecuteMessage+0xf98>
    329c:	80 91 65 0d 	lds	r24, 0x0D65	; 0x800d65 <inMessage+0x2>
    32a0:	83 30       	cpi	r24, 0x03	; 3
    32a2:	21 f5       	brne	.+72     	; 0x32ec <SrvCommExecuteMessage+0x8fe>
    32a4:	80 91 66 0d 	lds	r24, 0x0D66	; 0x800d66 <inMessage+0x3>
    32a8:	81 11       	cpse	r24, r1
	{
		//prepare output string
		uint8_t nbData = SrvCommPrepareMessage(COMM_CLUSTER_IMU,COMM_CLUSTER_IMU_COMMAND_GET_ROLL, 4U);
    32aa:	20 c0       	rjmp	.+64     	; 0x32ec <SrvCommExecuteMessage+0x8fe>
    32ac:	44 e0       	ldi	r20, 0x04	; 4
    32ae:	63 e0       	ldi	r22, 0x03	; 3
    32b0:	82 e0       	ldi	r24, 0x02	; 2
    32b2:	81 db       	rcall	.-2302   	; 0x29b6 <SrvCommPrepareMessage>
    32b4:	9a 83       	std	Y+2, r25	; 0x02
		nbData += sprintf((char*)&response[ nbData ],"%04X", SrvImuSimpleGetRoll());
    32b6:	89 83       	std	Y+1, r24	; 0x01
    32b8:	2b d7       	rcall	.+3670   	; 0x4110 <SrvImuSimpleGetRoll>
    32ba:	9f 93       	push	r25
    32bc:	8f 93       	push	r24
    32be:	8b ed       	ldi	r24, 0xDB	; 219
    32c0:	92 e0       	ldi	r25, 0x02	; 2
    32c2:	9f 93       	push	r25
    32c4:	8f 93       	push	r24
    32c6:	89 81       	ldd	r24, Y+1	; 0x01
    32c8:	9a 81       	ldd	r25, Y+2	; 0x02
    32ca:	99 27       	eor	r25, r25
    32cc:	81 50       	subi	r24, 0x01	; 1
    32ce:	93 4f       	sbci	r25, 0xF3	; 243
    32d0:	9f 93       	push	r25
    32d2:	8f 93       	push	r24
    32d4:	0e 94 98 25 	call	0x4b30	; 0x4b30 <sprintf>
		return SrvCommWriteMessage(nbData);
    32d8:	59 81       	ldd	r21, Y+1	; 0x01
    32da:	85 0f       	add	r24, r21
    32dc:	48 db       	rcall	.-2416   	; 0x296e <SrvCommWriteMessage>
    32de:	0f 90       	pop	r0
    32e0:	0f 90       	pop	r0
    32e2:	0f 90       	pop	r0
    32e4:	0f 90       	pop	r0
    32e6:	0f 90       	pop	r0
    32e8:	0f 90       	pop	r0
	}
	else if(( inMessage.command == COMM_CLUSTER_IMU_COMMAND_GET_PITCH) && (inMessage.size == 0U))
    32ea:	4d c3       	rjmp	.+1690   	; 0x3986 <SrvCommExecuteMessage+0xf98>
    32ec:	80 91 65 0d 	lds	r24, 0x0D65	; 0x800d65 <inMessage+0x2>
    32f0:	84 30       	cpi	r24, 0x04	; 4
    32f2:	21 f5       	brne	.+72     	; 0x333c <SrvCommExecuteMessage+0x94e>
    32f4:	80 91 66 0d 	lds	r24, 0x0D66	; 0x800d66 <inMessage+0x3>
    32f8:	81 11       	cpse	r24, r1
	{
		//prepare output string
		uint8_t nbData = SrvCommPrepareMessage(COMM_CLUSTER_IMU,COMM_CLUSTER_IMU_COMMAND_GET_PITCH, 4U);
    32fa:	20 c0       	rjmp	.+64     	; 0x333c <SrvCommExecuteMessage+0x94e>
    32fc:	44 e0       	ldi	r20, 0x04	; 4
    32fe:	64 e0       	ldi	r22, 0x04	; 4
    3300:	82 e0       	ldi	r24, 0x02	; 2
    3302:	59 db       	rcall	.-2382   	; 0x29b6 <SrvCommPrepareMessage>
    3304:	9a 83       	std	Y+2, r25	; 0x02
		nbData += sprintf((char*)&response[ nbData ],"%04X", SrvImuSimpleGetPitch());
    3306:	89 83       	std	Y+1, r24	; 0x01
    3308:	08 d7       	rcall	.+3600   	; 0x411a <SrvImuSimpleGetPitch>
    330a:	9f 93       	push	r25
    330c:	8f 93       	push	r24
    330e:	8b ed       	ldi	r24, 0xDB	; 219
    3310:	92 e0       	ldi	r25, 0x02	; 2
    3312:	9f 93       	push	r25
    3314:	8f 93       	push	r24
    3316:	89 81       	ldd	r24, Y+1	; 0x01
    3318:	9a 81       	ldd	r25, Y+2	; 0x02
    331a:	99 27       	eor	r25, r25
    331c:	81 50       	subi	r24, 0x01	; 1
    331e:	93 4f       	sbci	r25, 0xF3	; 243
    3320:	9f 93       	push	r25
    3322:	8f 93       	push	r24
    3324:	0e 94 98 25 	call	0x4b30	; 0x4b30 <sprintf>
		return SrvCommWriteMessage(nbData);
    3328:	69 81       	ldd	r22, Y+1	; 0x01
    332a:	86 0f       	add	r24, r22
    332c:	20 db       	rcall	.-2496   	; 0x296e <SrvCommWriteMessage>
    332e:	0f 90       	pop	r0
    3330:	0f 90       	pop	r0
    3332:	0f 90       	pop	r0
    3334:	0f 90       	pop	r0
    3336:	0f 90       	pop	r0
    3338:	0f 90       	pop	r0
    333a:	25 c3       	rjmp	.+1610   	; 0x3986 <SrvCommExecuteMessage+0xf98>
	}
	else if(( inMessage.command == COMM_CLUSTER_IMU_COMMAND_GET_YAW) && (inMessage.size == 0U))
    333c:	80 91 65 0d 	lds	r24, 0x0D65	; 0x800d65 <inMessage+0x2>
    3340:	85 30       	cpi	r24, 0x05	; 5
    3342:	21 f5       	brne	.+72     	; 0x338c <SrvCommExecuteMessage+0x99e>
    3344:	80 91 66 0d 	lds	r24, 0x0D66	; 0x800d66 <inMessage+0x3>
    3348:	81 11       	cpse	r24, r1
    334a:	20 c0       	rjmp	.+64     	; 0x338c <SrvCommExecuteMessage+0x99e>
	{
		//prepare output string
		uint8_t nbData = SrvCommPrepareMessage(COMM_CLUSTER_IMU,COMM_CLUSTER_IMU_COMMAND_GET_YAW, 4U);
    334c:	44 e0       	ldi	r20, 0x04	; 4
    334e:	65 e0       	ldi	r22, 0x05	; 5
    3350:	82 e0       	ldi	r24, 0x02	; 2
    3352:	31 db       	rcall	.-2462   	; 0x29b6 <SrvCommPrepareMessage>
    3354:	9a 83       	std	Y+2, r25	; 0x02
    3356:	89 83       	std	Y+1, r24	; 0x01
    3358:	e5 d6       	rcall	.+3530   	; 0x4124 <SrvImuSimpleGetYaw>
		nbData += sprintf((char*)&response[ nbData ],"%04X", SrvImuSimpleGetYaw());
    335a:	9f 93       	push	r25
    335c:	8f 93       	push	r24
    335e:	8b ed       	ldi	r24, 0xDB	; 219
    3360:	92 e0       	ldi	r25, 0x02	; 2
    3362:	9f 93       	push	r25
    3364:	8f 93       	push	r24
    3366:	89 81       	ldd	r24, Y+1	; 0x01
    3368:	9a 81       	ldd	r25, Y+2	; 0x02
    336a:	99 27       	eor	r25, r25
    336c:	81 50       	subi	r24, 0x01	; 1
    336e:	93 4f       	sbci	r25, 0xF3	; 243
    3370:	9f 93       	push	r25
    3372:	8f 93       	push	r24
    3374:	0e 94 98 25 	call	0x4b30	; 0x4b30 <sprintf>
		return SrvCommWriteMessage(nbData);
    3378:	99 81       	ldd	r25, Y+1	; 0x01
    337a:	89 0f       	add	r24, r25
    337c:	f8 da       	rcall	.-2576   	; 0x296e <SrvCommWriteMessage>
    337e:	0f 90       	pop	r0
    3380:	0f 90       	pop	r0
    3382:	0f 90       	pop	r0
    3384:	0f 90       	pop	r0
    3386:	0f 90       	pop	r0
    3388:	0f 90       	pop	r0
    338a:	fd c2       	rjmp	.+1530   	; 0x3986 <SrvCommExecuteMessage+0xf98>
	}
	else
	{
		errorMessage = COMM_ERROR_UNKNOWN_COMMAND;
    338c:	83 e0       	ldi	r24, 0x03	; 3
    338e:	80 93 f8 0c 	sts	0x0CF8, r24	; 0x800cf8 <errorMessage>
	}
	return FALSE;
    3392:	80 e0       	ldi	r24, 0x00	; 0
    3394:	f8 c2       	rjmp	.+1520   	; 0x3986 <SrvCommExecuteMessage+0xf98>
	}
	else if( inMessage.cluster == COMM_CLUSTER_IMU)
	{
		oSuccess = SrvCommExecuteClusterIMU();
	}
	else if( inMessage.cluster == COMM_CLUSTER_DETECTION)
    3396:	80 91 64 0d 	lds	r24, 0x0D64	; 0x800d64 <inMessage+0x1>
    339a:	83 30       	cpi	r24, 0x03	; 3
    339c:	09 f0       	breq	.+2      	; 0x33a0 <SrvCommExecuteMessage+0x9b2>
    339e:	e2 c0       	rjmp	.+452    	; 0x3564 <SrvCommExecuteMessage+0xb76>
	}
	return FALSE;
}
static Boolean SrvCommExecuteClusterDetection( void )
{
	if(( inMessage.command == COMM_CLUSTER_DETECTION_ULTRASON_COMMAND_GET_THRESHOLD) && (inMessage.size == 0U))
    33a0:	80 91 65 0d 	lds	r24, 0x0D65	; 0x800d65 <inMessage+0x2>
    33a4:	81 11       	cpse	r24, r1
    33a6:	24 c0       	rjmp	.+72     	; 0x33f0 <SrvCommExecuteMessage+0xa02>
    33a8:	80 91 66 0d 	lds	r24, 0x0D66	; 0x800d66 <inMessage+0x3>
    33ac:	81 11       	cpse	r24, r1
    33ae:	20 c0       	rjmp	.+64     	; 0x33f0 <SrvCommExecuteMessage+0xa02>
	{
		//prepare output string
		uint8_t nbData = SrvCommPrepareMessage(COMM_CLUSTER_DETECTION,COMM_CLUSTER_DETECTION_ULTRASON_COMMAND_GET_THRESHOLD, 2U);
    33b0:	42 e0       	ldi	r20, 0x02	; 2
    33b2:	60 e0       	ldi	r22, 0x00	; 0
    33b4:	83 e0       	ldi	r24, 0x03	; 3
    33b6:	ff da       	rcall	.-2562   	; 0x29b6 <SrvCommPrepareMessage>
    33b8:	9a 83       	std	Y+2, r25	; 0x02
    33ba:	89 83       	std	Y+1, r24	; 0x01
		nbData += sprintf((char*)&response[ nbData ],"%02X", SrvDetectionGetThresholdUS());
    33bc:	cb d6       	rcall	.+3478   	; 0x4154 <SrvDetectionGetThresholdUS>
    33be:	9f 93       	push	r25
    33c0:	8f 93       	push	r24
    33c2:	8d ec       	ldi	r24, 0xCD	; 205
    33c4:	92 e0       	ldi	r25, 0x02	; 2
    33c6:	9f 93       	push	r25
    33c8:	8f 93       	push	r24
    33ca:	89 81       	ldd	r24, Y+1	; 0x01
    33cc:	9a 81       	ldd	r25, Y+2	; 0x02
    33ce:	99 27       	eor	r25, r25
    33d0:	81 50       	subi	r24, 0x01	; 1
    33d2:	93 4f       	sbci	r25, 0xF3	; 243
    33d4:	9f 93       	push	r25
    33d6:	8f 93       	push	r24
    33d8:	0e 94 98 25 	call	0x4b30	; 0x4b30 <sprintf>
		return SrvCommWriteMessage(nbData);
    33dc:	e9 81       	ldd	r30, Y+1	; 0x01
    33de:	8e 0f       	add	r24, r30
    33e0:	c6 da       	rcall	.-2676   	; 0x296e <SrvCommWriteMessage>
    33e2:	0f 90       	pop	r0
    33e4:	0f 90       	pop	r0
    33e6:	0f 90       	pop	r0
    33e8:	0f 90       	pop	r0
    33ea:	0f 90       	pop	r0
    33ec:	0f 90       	pop	r0
    33ee:	cb c2       	rjmp	.+1430   	; 0x3986 <SrvCommExecuteMessage+0xf98>
	}
	else if(( inMessage.command == COMM_CLUSTER_DETECTION_ULTRASON_COMMAND_SET_THRESHOLD) && (inMessage.size == 2U))
    33f0:	80 91 65 0d 	lds	r24, 0x0D65	; 0x800d65 <inMessage+0x2>
    33f4:	81 30       	cpi	r24, 0x01	; 1
    33f6:	81 f4       	brne	.+32     	; 0x3418 <SrvCommExecuteMessage+0xa2a>
    33f8:	80 91 66 0d 	lds	r24, 0x0D66	; 0x800d66 <inMessage+0x3>
    33fc:	82 30       	cpi	r24, 0x02	; 2
	{
		//prepare output string
		SrvDetectionSetThresholdUS((uint8_t)((inMessage.data[ 0U ] * 16U) + inMessage.data[ 1U ]));
    33fe:	61 f4       	brne	.+24     	; 0x3418 <SrvCommExecuteMessage+0xa2a>
    3400:	e3 e6       	ldi	r30, 0x63	; 99
    3402:	fd e0       	ldi	r31, 0x0D	; 13
    3404:	94 81       	ldd	r25, Z+4	; 0x04
    3406:	85 81       	ldd	r24, Z+5	; 0x05
    3408:	f0 e1       	ldi	r31, 0x10	; 16
    340a:	9f 9f       	mul	r25, r31
    340c:	80 0d       	add	r24, r0
    340e:	11 24       	eor	r1, r1
    3410:	90 e0       	ldi	r25, 0x00	; 0
    3412:	a5 d6       	rcall	.+3402   	; 0x415e <SrvDetectionSetThresholdUS>
		//can send data
		return TRUE;
    3414:	81 e0       	ldi	r24, 0x01	; 1
    3416:	b7 c2       	rjmp	.+1390   	; 0x3986 <SrvCommExecuteMessage+0xf98>
	}
	else if(( inMessage.command == COMM_CLUSTER_DETECTION_ULTRASON_COMMAND_GET_DISTANCE) && (inMessage.size == 0U))
    3418:	80 91 65 0d 	lds	r24, 0x0D65	; 0x800d65 <inMessage+0x2>
    341c:	82 30       	cpi	r24, 0x02	; 2
    341e:	c1 f5       	brne	.+112    	; 0x3490 <SrvCommExecuteMessage+0xaa2>
    3420:	80 91 66 0d 	lds	r24, 0x0D66	; 0x800d66 <inMessage+0x3>
    3424:	81 11       	cpse	r24, r1
	{
		//prepare output string
		uint8_t nbData = SrvCommPrepareMessage(COMM_CLUSTER_DETECTION,COMM_CLUSTER_DETECTION_ULTRASON_COMMAND_GET_DISTANCE, 4U);
    3426:	34 c0       	rjmp	.+104    	; 0x3490 <SrvCommExecuteMessage+0xaa2>
    3428:	44 e0       	ldi	r20, 0x04	; 4
    342a:	62 e0       	ldi	r22, 0x02	; 2
    342c:	83 e0       	ldi	r24, 0x03	; 3
    342e:	c3 da       	rcall	.-2682   	; 0x29b6 <SrvCommPrepareMessage>
    3430:	9a 83       	std	Y+2, r25	; 0x02
    3432:	89 83       	std	Y+1, r24	; 0x01
		nbData += sprintf((char*)&response[ nbData ], "%02X", (uint8_t)SrvDetectionGetDistanceUS(E_ULTRASON_0));
    3434:	80 e0       	ldi	r24, 0x00	; 0
    3436:	98 d6       	rcall	.+3376   	; 0x4168 <SrvDetectionGetDistanceUS>
    3438:	99 27       	eor	r25, r25
    343a:	9f 93       	push	r25
    343c:	8f 93       	push	r24
    343e:	0d ec       	ldi	r16, 0xCD	; 205
    3440:	12 e0       	ldi	r17, 0x02	; 2
    3442:	1f 93       	push	r17
    3444:	0f 93       	push	r16
    3446:	89 81       	ldd	r24, Y+1	; 0x01
    3448:	9a 81       	ldd	r25, Y+2	; 0x02
    344a:	99 27       	eor	r25, r25
    344c:	81 50       	subi	r24, 0x01	; 1
    344e:	93 4f       	sbci	r25, 0xF3	; 243
    3450:	9f 93       	push	r25
    3452:	8f 93       	push	r24
    3454:	0e 94 98 25 	call	0x4b30	; 0x4b30 <sprintf>
    3458:	29 81       	ldd	r18, Y+1	; 0x01
    345a:	28 0f       	add	r18, r24
		nbData += sprintf((char*)&response[ nbData ], "%02X", (uint8_t)SrvDetectionGetDistanceUS(E_ULTRASON_1));
    345c:	29 83       	std	Y+1, r18	; 0x01
    345e:	81 e0       	ldi	r24, 0x01	; 1
    3460:	83 d6       	rcall	.+3334   	; 0x4168 <SrvDetectionGetDistanceUS>
    3462:	99 27       	eor	r25, r25
    3464:	9f 93       	push	r25
    3466:	8f 93       	push	r24
    3468:	1f 93       	push	r17
    346a:	0f 93       	push	r16
    346c:	39 81       	ldd	r19, Y+1	; 0x01
    346e:	83 2f       	mov	r24, r19
    3470:	90 e0       	ldi	r25, 0x00	; 0
    3472:	81 50       	subi	r24, 0x01	; 1
    3474:	93 4f       	sbci	r25, 0xF3	; 243
    3476:	9f 93       	push	r25
    3478:	8f 93       	push	r24
    347a:	0e 94 98 25 	call	0x4b30	; 0x4b30 <sprintf>
		return SrvCommWriteMessage(nbData);
    347e:	49 81       	ldd	r20, Y+1	; 0x01
    3480:	84 0f       	add	r24, r20
    3482:	75 da       	rcall	.-2838   	; 0x296e <SrvCommWriteMessage>
    3484:	0f b6       	in	r0, 0x3f	; 63
    3486:	f8 94       	cli
    3488:	de bf       	out	0x3e, r29	; 62
    348a:	0f be       	out	0x3f, r0	; 63
    348c:	cd bf       	out	0x3d, r28	; 61
    348e:	7b c2       	rjmp	.+1270   	; 0x3986 <SrvCommExecuteMessage+0xf98>
	}
	else if(( inMessage.command == COMM_CLUSTER_DETECTION_LAZER_COMMAND_GET_THRESHOLD) && (inMessage.size == 0U))
    3490:	80 91 65 0d 	lds	r24, 0x0D65	; 0x800d65 <inMessage+0x2>
    3494:	83 30       	cpi	r24, 0x03	; 3
    3496:	21 f5       	brne	.+72     	; 0x34e0 <SrvCommExecuteMessage+0xaf2>
    3498:	80 91 66 0d 	lds	r24, 0x0D66	; 0x800d66 <inMessage+0x3>
    349c:	81 11       	cpse	r24, r1
	{
		//prepare output string
		uint8_t nbData = SrvCommPrepareMessage(COMM_CLUSTER_DETECTION,COMM_CLUSTER_DETECTION_LAZER_COMMAND_GET_THRESHOLD, 2U);
    349e:	20 c0       	rjmp	.+64     	; 0x34e0 <SrvCommExecuteMessage+0xaf2>
    34a0:	42 e0       	ldi	r20, 0x02	; 2
    34a2:	63 e0       	ldi	r22, 0x03	; 3
    34a4:	83 e0       	ldi	r24, 0x03	; 3
    34a6:	87 da       	rcall	.-2802   	; 0x29b6 <SrvCommPrepareMessage>
    34a8:	9a 83       	std	Y+2, r25	; 0x02
    34aa:	89 83       	std	Y+1, r24	; 0x01
		nbData += sprintf((char*)&response[ nbData ],"%02X", SrvDetectionGetThresholdLazer());
    34ac:	40 d6       	rcall	.+3200   	; 0x412e <SrvDetectionGetThresholdLazer>
    34ae:	9f 93       	push	r25
    34b0:	8f 93       	push	r24
    34b2:	8d ec       	ldi	r24, 0xCD	; 205
    34b4:	92 e0       	ldi	r25, 0x02	; 2
    34b6:	9f 93       	push	r25
    34b8:	8f 93       	push	r24
    34ba:	89 81       	ldd	r24, Y+1	; 0x01
    34bc:	9a 81       	ldd	r25, Y+2	; 0x02
    34be:	99 27       	eor	r25, r25
    34c0:	81 50       	subi	r24, 0x01	; 1
    34c2:	93 4f       	sbci	r25, 0xF3	; 243
    34c4:	9f 93       	push	r25
    34c6:	8f 93       	push	r24
    34c8:	0e 94 98 25 	call	0x4b30	; 0x4b30 <sprintf>
		return SrvCommWriteMessage(nbData);
    34cc:	f9 81       	ldd	r31, Y+1	; 0x01
    34ce:	8f 0f       	add	r24, r31
    34d0:	4e da       	rcall	.-2916   	; 0x296e <SrvCommWriteMessage>
    34d2:	0f 90       	pop	r0
    34d4:	0f 90       	pop	r0
    34d6:	0f 90       	pop	r0
    34d8:	0f 90       	pop	r0
    34da:	0f 90       	pop	r0
    34dc:	0f 90       	pop	r0
	}
	else if(( inMessage.command == COMM_CLUSTER_DETECTION_LAZER_COMMAND_SET_THRESHOLD) && (inMessage.size == 2U))
    34de:	53 c2       	rjmp	.+1190   	; 0x3986 <SrvCommExecuteMessage+0xf98>
    34e0:	80 91 65 0d 	lds	r24, 0x0D65	; 0x800d65 <inMessage+0x2>
    34e4:	84 30       	cpi	r24, 0x04	; 4
    34e6:	81 f4       	brne	.+32     	; 0x3508 <SrvCommExecuteMessage+0xb1a>
    34e8:	80 91 66 0d 	lds	r24, 0x0D66	; 0x800d66 <inMessage+0x3>
    34ec:	82 30       	cpi	r24, 0x02	; 2
	{
		//prepare output string
		SrvDetectionSetThresholdLazer((uint8_t)((inMessage.data[ 0U ] * 16U) + inMessage.data[ 1U ]));
    34ee:	61 f4       	brne	.+24     	; 0x3508 <SrvCommExecuteMessage+0xb1a>
    34f0:	e3 e6       	ldi	r30, 0x63	; 99
    34f2:	fd e0       	ldi	r31, 0x0D	; 13
    34f4:	94 81       	ldd	r25, Z+4	; 0x04
    34f6:	85 81       	ldd	r24, Z+5	; 0x05
    34f8:	20 e1       	ldi	r18, 0x10	; 16
    34fa:	92 9f       	mul	r25, r18
    34fc:	80 0d       	add	r24, r0
    34fe:	11 24       	eor	r1, r1
    3500:	90 e0       	ldi	r25, 0x00	; 0
    3502:	1a d6       	rcall	.+3124   	; 0x4138 <SrvDetectionSetThresholdLazer>
		//can send data
		return TRUE;
    3504:	81 e0       	ldi	r24, 0x01	; 1
    3506:	3f c2       	rjmp	.+1150   	; 0x3986 <SrvCommExecuteMessage+0xf98>
	}
	else if(( inMessage.command == COMM_CLUSTER_DETECTION_LAZER_COMMAND_GET_DISTANCE) && (inMessage.size == 0U))
    3508:	80 91 65 0d 	lds	r24, 0x0D65	; 0x800d65 <inMessage+0x2>
    350c:	85 30       	cpi	r24, 0x05	; 5
    350e:	29 f5       	brne	.+74     	; 0x355a <SrvCommExecuteMessage+0xb6c>
    3510:	80 91 66 0d 	lds	r24, 0x0D66	; 0x800d66 <inMessage+0x3>
    3514:	81 11       	cpse	r24, r1
    3516:	21 c0       	rjmp	.+66     	; 0x355a <SrvCommExecuteMessage+0xb6c>
	{
		//prepare output string
		uint8_t nbData = SrvCommPrepareMessage(COMM_CLUSTER_DETECTION,COMM_CLUSTER_DETECTION_LAZER_COMMAND_GET_DISTANCE, 4U);
    3518:	44 e0       	ldi	r20, 0x04	; 4
    351a:	65 e0       	ldi	r22, 0x05	; 5
    351c:	83 e0       	ldi	r24, 0x03	; 3
    351e:	4b da       	rcall	.-2922   	; 0x29b6 <SrvCommPrepareMessage>
    3520:	9a 83       	std	Y+2, r25	; 0x02
    3522:	89 83       	std	Y+1, r24	; 0x01
    3524:	80 e0       	ldi	r24, 0x00	; 0
		nbData += sprintf((char*)&response[ nbData ], "%04X", (uint16_t)SrvDetectionGetDistanceLazer(E_LAZER_0));
    3526:	0d d6       	rcall	.+3098   	; 0x4142 <SrvDetectionGetDistanceLazer>
    3528:	9f 93       	push	r25
    352a:	8f 93       	push	r24
    352c:	8b ed       	ldi	r24, 0xDB	; 219
    352e:	92 e0       	ldi	r25, 0x02	; 2
    3530:	9f 93       	push	r25
    3532:	8f 93       	push	r24
    3534:	89 81       	ldd	r24, Y+1	; 0x01
    3536:	9a 81       	ldd	r25, Y+2	; 0x02
    3538:	99 27       	eor	r25, r25
    353a:	81 50       	subi	r24, 0x01	; 1
    353c:	93 4f       	sbci	r25, 0xF3	; 243
    353e:	9f 93       	push	r25
    3540:	8f 93       	push	r24
    3542:	0e 94 98 25 	call	0x4b30	; 0x4b30 <sprintf>
    3546:	39 81       	ldd	r19, Y+1	; 0x01
		return SrvCommWriteMessage(nbData);
    3548:	83 0f       	add	r24, r19
    354a:	11 da       	rcall	.-3038   	; 0x296e <SrvCommWriteMessage>
    354c:	0f 90       	pop	r0
    354e:	0f 90       	pop	r0
    3550:	0f 90       	pop	r0
    3552:	0f 90       	pop	r0
    3554:	0f 90       	pop	r0
    3556:	0f 90       	pop	r0
    3558:	16 c2       	rjmp	.+1068   	; 0x3986 <SrvCommExecuteMessage+0xf98>
    355a:	83 e0       	ldi	r24, 0x03	; 3
	}
	else
	{
		errorMessage = COMM_ERROR_UNKNOWN_COMMAND;
    355c:	80 93 f8 0c 	sts	0x0CF8, r24	; 0x800cf8 <errorMessage>
    3560:	80 e0       	ldi	r24, 0x00	; 0
	}
	return FALSE;
    3562:	11 c2       	rjmp	.+1058   	; 0x3986 <SrvCommExecuteMessage+0xf98>
    3564:	80 91 64 0d 	lds	r24, 0x0D64	; 0x800d64 <inMessage+0x1>
	}
	else if( inMessage.cluster == COMM_CLUSTER_DETECTION)
	{
		oSuccess = SrvCommExecuteClusterDetection();
	}
	else if( inMessage.cluster == COMM_CLUSTER_SERVOS)
    3568:	84 30       	cpi	r24, 0x04	; 4
    356a:	09 f0       	breq	.+2      	; 0x356e <SrvCommExecuteMessage+0xb80>
    356c:	ab c1       	rjmp	.+854    	; 0x38c4 <SrvCommExecuteMessage+0xed6>
    356e:	80 91 65 0d 	lds	r24, 0x0D65	; 0x800d65 <inMessage+0x2>
}
static Boolean SrvCommExecuteClusterServo( void )
{
	uint8_t servoId = 0xFFU;
	SServo *servo;
	if(( inMessage.command ==  COMM_CLUSTER_SERVOS_COMMAND_STATUS_SERVO) && (inMessage.size == 2U))
    3572:	81 11       	cpse	r24, r1
    3574:	33 c0       	rjmp	.+102    	; 0x35dc <SrvCommExecuteMessage+0xbee>
    3576:	80 91 66 0d 	lds	r24, 0x0D66	; 0x800d66 <inMessage+0x3>
    357a:	82 30       	cpi	r24, 0x02	; 2
    357c:	79 f5       	brne	.+94     	; 0x35dc <SrvCommExecuteMessage+0xbee>
    357e:	e3 e6       	ldi	r30, 0x63	; 99
	{
		servoId = (uint8_t)((inMessage.data[ 0U ] * 16U) + inMessage.data[ 1U ]);
    3580:	fd e0       	ldi	r31, 0x0D	; 13
    3582:	84 81       	ldd	r24, Z+4	; 0x04
    3584:	45 81       	ldd	r20, Z+5	; 0x05
    3586:	50 e1       	ldi	r21, 0x10	; 16
    3588:	85 9f       	mul	r24, r21
    358a:	40 0d       	add	r20, r0
    358c:	11 24       	eor	r1, r1
    358e:	49 83       	std	Y+1, r20	; 0x01
    3590:	43 31       	cpi	r20, 0x13	; 19
		//if legs
		if(servoId < NB_SERVOS)
    3592:	08 f0       	brcs	.+2      	; 0x3596 <SrvCommExecuteMessage+0xba8>
    3594:	e9 c1       	rjmp	.+978    	; 0x3968 <SrvCommExecuteMessage+0xf7a>
    3596:	43 e0       	ldi	r20, 0x03	; 3
		{
			//prepare output string
			uint8_t nbData = SrvCommPrepareMessage(COMM_CLUSTER_SERVOS,COMM_CLUSTER_SERVOS_COMMAND_STATUS_SERVO, 3U);
    3598:	60 e0       	ldi	r22, 0x00	; 0
    359a:	84 e0       	ldi	r24, 0x04	; 4
    359c:	0c da       	rcall	.-3048   	; 0x29b6 <SrvCommPrepareMessage>
    359e:	8c 01       	movw	r16, r24
    35a0:	89 81       	ldd	r24, Y+1	; 0x01
    35a2:	0e 94 75 0d 	call	0x1aea	; 0x1aea <DrvServoGetStruture>
			servo = DrvServoGetStruture(servoId);
    35a6:	fc 01       	movw	r30, r24
    35a8:	81 81       	ldd	r24, Z+1	; 0x01
			nbData += sprintf((char*)&response[ nbData ],"%02X%01X",servoId,servo->enable);
    35aa:	1f 92       	push	r1
    35ac:	8f 93       	push	r24
    35ae:	1f 92       	push	r1
    35b0:	f9 81       	ldd	r31, Y+1	; 0x01
    35b2:	ff 93       	push	r31
    35b4:	80 ee       	ldi	r24, 0xE0	; 224
    35b6:	92 e0       	ldi	r25, 0x02	; 2
    35b8:	9f 93       	push	r25
    35ba:	8f 93       	push	r24
    35bc:	c8 01       	movw	r24, r16
    35be:	99 27       	eor	r25, r25
    35c0:	81 50       	subi	r24, 0x01	; 1
    35c2:	93 4f       	sbci	r25, 0xF3	; 243
    35c4:	9f 93       	push	r25
    35c6:	8f 93       	push	r24
    35c8:	0e 94 98 25 	call	0x4b30	; 0x4b30 <sprintf>
    35cc:	80 0f       	add	r24, r16
			return SrvCommWriteMessage(nbData);
    35ce:	cf d9       	rcall	.-3170   	; 0x296e <SrvCommWriteMessage>
    35d0:	0f b6       	in	r0, 0x3f	; 63
    35d2:	f8 94       	cli
    35d4:	de bf       	out	0x3e, r29	; 62
    35d6:	0f be       	out	0x3f, r0	; 63
    35d8:	cd bf       	out	0x3d, r28	; 61
    35da:	d5 c1       	rjmp	.+938    	; 0x3986 <SrvCommExecuteMessage+0xf98>
    35dc:	80 91 65 0d 	lds	r24, 0x0D65	; 0x800d65 <inMessage+0x2>
		}
	}
	else if(( inMessage.command ==  COMM_CLUSTER_SERVOS_COMMAND_ENABLE_SERVO) && (inMessage.size == 3U))
    35e0:	81 30       	cpi	r24, 0x01	; 1
    35e2:	a9 f4       	brne	.+42     	; 0x360e <SrvCommExecuteMessage+0xc20>
    35e4:	80 91 66 0d 	lds	r24, 0x0D66	; 0x800d66 <inMessage+0x3>
    35e8:	83 30       	cpi	r24, 0x03	; 3
    35ea:	89 f4       	brne	.+34     	; 0x360e <SrvCommExecuteMessage+0xc20>
    35ec:	e3 e6       	ldi	r30, 0x63	; 99
    35ee:	fd e0       	ldi	r31, 0x0D	; 13
	{
		servoId = (uint8_t)((inMessage.data[ 0U ] * 16U) + inMessage.data[ 1U ]);
    35f0:	94 81       	ldd	r25, Z+4	; 0x04
    35f2:	85 81       	ldd	r24, Z+5	; 0x05
    35f4:	30 e1       	ldi	r19, 0x10	; 16
    35f6:	93 9f       	mul	r25, r19
    35f8:	80 0d       	add	r24, r0
    35fa:	11 24       	eor	r1, r1
    35fc:	83 31       	cpi	r24, 0x13	; 19
    35fe:	08 f0       	brcs	.+2      	; 0x3602 <SrvCommExecuteMessage+0xc14>
		if(servoId < NB_SERVOS)
    3600:	b5 c1       	rjmp	.+874    	; 0x396c <SrvCommExecuteMessage+0xf7e>
    3602:	60 91 69 0d 	lds	r22, 0x0D69	; 0x800d69 <inMessage+0x6>
		{
			Boolean activate = inMessage.data[ 2U ];
    3606:	0e 94 fa 0c 	call	0x19f4	; 0x19f4 <DrvServoActivate>
			//can send data
			DrvServoActivate(servoId, activate);
    360a:	81 e0       	ldi	r24, 0x01	; 1
    360c:	bc c1       	rjmp	.+888    	; 0x3986 <SrvCommExecuteMessage+0xf98>
			return TRUE;
    360e:	80 91 65 0d 	lds	r24, 0x0D65	; 0x800d65 <inMessage+0x2>
		}
	}
	else if(( inMessage.command ==  COMM_CLUSTER_SERVOS_COMMAND_SERVO_READ) && (inMessage.size == 2U))
    3612:	82 30       	cpi	r24, 0x02	; 2
    3614:	09 f0       	breq	.+2      	; 0x3618 <SrvCommExecuteMessage+0xc2a>
    3616:	3f c0       	rjmp	.+126    	; 0x3696 <SrvCommExecuteMessage+0xca8>
    3618:	80 91 66 0d 	lds	r24, 0x0D66	; 0x800d66 <inMessage+0x3>
    361c:	82 30       	cpi	r24, 0x02	; 2
    361e:	d9 f5       	brne	.+118    	; 0x3696 <SrvCommExecuteMessage+0xca8>
    3620:	e3 e6       	ldi	r30, 0x63	; 99
	{
		servoId = (uint8_t)((inMessage.data[ 0U ] * 16U) + inMessage.data[ 1U ]);
    3622:	fd e0       	ldi	r31, 0x0D	; 13
    3624:	84 81       	ldd	r24, Z+4	; 0x04
    3626:	45 81       	ldd	r20, Z+5	; 0x05
    3628:	50 e1       	ldi	r21, 0x10	; 16
    362a:	85 9f       	mul	r24, r21
    362c:	40 0d       	add	r20, r0
    362e:	11 24       	eor	r1, r1
    3630:	49 83       	std	Y+1, r20	; 0x01
    3632:	43 31       	cpi	r20, 0x13	; 19
		//if legs
		if(servoId < NB_SERVOS)
    3634:	08 f0       	brcs	.+2      	; 0x3638 <SrvCommExecuteMessage+0xc4a>
    3636:	9c c1       	rjmp	.+824    	; 0x3970 <SrvCommExecuteMessage+0xf82>
    3638:	84 2f       	mov	r24, r20
		{
			//prepare output string
			servo = DrvServoGetStruture(servoId);
    363a:	0e 94 75 0d 	call	0x1aea	; 0x1aea <DrvServoGetStruture>
    363e:	7c 01       	movw	r14, r24
    3640:	44 e0       	ldi	r20, 0x04	; 4
			uint8_t nbData = SrvCommPrepareMessage(COMM_CLUSTER_SERVOS,COMM_CLUSTER_SERVOS_COMMAND_SERVO_READ, 4U);
    3642:	62 e0       	ldi	r22, 0x02	; 2
    3644:	84 e0       	ldi	r24, 0x04	; 4
    3646:	b7 d9       	rcall	.-3218   	; 0x29b6 <SrvCommPrepareMessage>
    3648:	8c 01       	movw	r16, r24
    364a:	f7 01       	movw	r30, r14
    364c:	82 81       	ldd	r24, Z+2	; 0x02
			Int8U servoPos = (Int8U)((servo->currentPosition - servo->offset) / 10);
			nbData += sprintf((char*)&response[ nbData ],"%02X%02X",servoId,servoPos);
    364e:	93 81       	ldd	r25, Z+3	; 0x03
    3650:	22 85       	ldd	r18, Z+10	; 0x0a
    3652:	33 85       	ldd	r19, Z+11	; 0x0b
    3654:	82 1b       	sub	r24, r18
    3656:	93 0b       	sbc	r25, r19
    3658:	6a e0       	ldi	r22, 0x0A	; 10
    365a:	70 e0       	ldi	r23, 0x00	; 0
    365c:	0e 94 4b 25 	call	0x4a96	; 0x4a96 <__divmodhi4>
    3660:	cb 01       	movw	r24, r22
    3662:	99 27       	eor	r25, r25
    3664:	9f 93       	push	r25
    3666:	8f 93       	push	r24
    3668:	1f 92       	push	r1
    366a:	f9 81       	ldd	r31, Y+1	; 0x01
    366c:	ff 93       	push	r31
    366e:	89 ec       	ldi	r24, 0xC9	; 201
    3670:	92 e0       	ldi	r25, 0x02	; 2
    3672:	9f 93       	push	r25
    3674:	8f 93       	push	r24
    3676:	c8 01       	movw	r24, r16
    3678:	99 27       	eor	r25, r25
    367a:	81 50       	subi	r24, 0x01	; 1
    367c:	93 4f       	sbci	r25, 0xF3	; 243
    367e:	9f 93       	push	r25
    3680:	8f 93       	push	r24
    3682:	0e 94 98 25 	call	0x4b30	; 0x4b30 <sprintf>
    3686:	80 0f       	add	r24, r16
    3688:	72 d9       	rcall	.-3356   	; 0x296e <SrvCommWriteMessage>
			return SrvCommWriteMessage(nbData);
    368a:	0f b6       	in	r0, 0x3f	; 63
    368c:	f8 94       	cli
    368e:	de bf       	out	0x3e, r29	; 62
    3690:	0f be       	out	0x3f, r0	; 63
    3692:	cd bf       	out	0x3d, r28	; 61
    3694:	78 c1       	rjmp	.+752    	; 0x3986 <SrvCommExecuteMessage+0xf98>
    3696:	80 91 65 0d 	lds	r24, 0x0D65	; 0x800d65 <inMessage+0x2>
    369a:	83 30       	cpi	r24, 0x03	; 3
		}
	}
	else if(( inMessage.command ==  COMM_CLUSTER_SERVOS_COMMAND_SERVO_WRITE) && (inMessage.size == 8U))
    369c:	09 f0       	breq	.+2      	; 0x36a0 <SrvCommExecuteMessage+0xcb2>
    369e:	47 c0       	rjmp	.+142    	; 0x372e <SrvCommExecuteMessage+0xd40>
    36a0:	80 91 66 0d 	lds	r24, 0x0D66	; 0x800d66 <inMessage+0x3>
    36a4:	88 30       	cpi	r24, 0x08	; 8
    36a6:	09 f0       	breq	.+2      	; 0x36aa <SrvCommExecuteMessage+0xcbc>
    36a8:	42 c0       	rjmp	.+132    	; 0x372e <SrvCommExecuteMessage+0xd40>
    36aa:	e3 e6       	ldi	r30, 0x63	; 99
    36ac:	fd e0       	ldi	r31, 0x0D	; 13
    36ae:	84 81       	ldd	r24, Z+4	; 0x04
	{
		servoId = (uint8_t)((inMessage.data[ 0U ] * 16U) + inMessage.data[ 1U ]);
    36b0:	35 81       	ldd	r19, Z+5	; 0x05
    36b2:	40 e1       	ldi	r20, 0x10	; 16
    36b4:	84 9f       	mul	r24, r20
    36b6:	30 0d       	add	r19, r0
    36b8:	11 24       	eor	r1, r1
    36ba:	39 83       	std	Y+1, r19	; 0x01
    36bc:	33 31       	cpi	r19, 0x13	; 19
    36be:	08 f0       	brcs	.+2      	; 0x36c2 <SrvCommExecuteMessage+0xcd4>
    36c0:	59 c1       	rjmp	.+690    	; 0x3974 <SrvCommExecuteMessage+0xf86>
		//if legs
		if(servoId < NB_SERVOS)
    36c2:	83 2f       	mov	r24, r19
    36c4:	0e 94 75 0d 	call	0x1aea	; 0x1aea <DrvServoGetStruture>
		{
			servo = DrvServoGetStruture(servoId);
    36c8:	e3 e6       	ldi	r30, 0x63	; 99
    36ca:	fd e0       	ldi	r31, 0x0D	; 13
    36cc:	36 81       	ldd	r19, Z+6	; 0x06
			Int16S servoPos = 10 *(servo->offset + (Int8S)(inMessage.data[ 2U ] * 16 + inMessage.data[ 3U ] ));
    36ce:	27 81       	ldd	r18, Z+7	; 0x07
    36d0:	a0 85       	ldd	r26, Z+8	; 0x08
    36d2:	41 85       	ldd	r20, Z+9	; 0x09
    36d4:	72 85       	ldd	r23, Z+10	; 0x0a
			uint16_t delay = inMessage.data[ 4U ] * 4096 + inMessage.data[ 5U ] * 256 + inMessage.data[ 6U ] * 16 + inMessage.data[ 7U ];
    36d6:	63 85       	ldd	r22, Z+11	; 0x0b
    36d8:	50 e0       	ldi	r21, 0x00	; 0
    36da:	e0 e1       	ldi	r30, 0x10	; 16
    36dc:	ae 9f       	mul	r26, r30
			//can send data
			return DrvServoSetTarget(servoId,servoPos, delay);
    36de:	40 0d       	add	r20, r0
    36e0:	51 1d       	adc	r21, r1
    36e2:	11 24       	eor	r1, r1
    36e4:	42 95       	swap	r20
    36e6:	52 95       	swap	r21
    36e8:	50 7f       	andi	r21, 0xF0	; 240
    36ea:	54 27       	eor	r21, r20
    36ec:	40 7f       	andi	r20, 0xF0	; 240
    36ee:	54 27       	eor	r21, r20
    36f0:	47 0f       	add	r20, r23
    36f2:	51 1d       	adc	r21, r1
    36f4:	42 95       	swap	r20
    36f6:	52 95       	swap	r21
    36f8:	50 7f       	andi	r21, 0xF0	; 240
    36fa:	54 27       	eor	r21, r20
    36fc:	40 7f       	andi	r20, 0xF0	; 240
    36fe:	54 27       	eor	r21, r20
    3700:	46 0f       	add	r20, r22
    3702:	51 1d       	adc	r21, r1
    3704:	f0 e1       	ldi	r31, 0x10	; 16
    3706:	3f 9f       	mul	r19, r31
    3708:	20 0d       	add	r18, r0
    370a:	11 24       	eor	r1, r1
    370c:	fc 01       	movw	r30, r24
    370e:	82 85       	ldd	r24, Z+10	; 0x0a
    3710:	93 85       	ldd	r25, Z+11	; 0x0b
    3712:	82 0f       	add	r24, r18
    3714:	91 1d       	adc	r25, r1
    3716:	27 fd       	sbrc	r18, 7
    3718:	9a 95       	dec	r25
    371a:	2a e0       	ldi	r18, 0x0A	; 10
    371c:	28 9f       	mul	r18, r24
    371e:	b0 01       	movw	r22, r0
    3720:	29 9f       	mul	r18, r25
    3722:	70 0d       	add	r23, r0
    3724:	11 24       	eor	r1, r1
    3726:	89 81       	ldd	r24, Y+1	; 0x01
    3728:	0e 94 b2 0c 	call	0x1964	; 0x1964 <DrvServoSetTarget>
    372c:	2c c1       	rjmp	.+600    	; 0x3986 <SrvCommExecuteMessage+0xf98>
    372e:	80 91 65 0d 	lds	r24, 0x0D65	; 0x800d65 <inMessage+0x2>
		}
	}
	else if(( inMessage.command ==  COMM_CLUSTER_SERVOS_COMMAND_SERVO_MIN_READ) && (inMessage.size == 2U))
    3732:	84 30       	cpi	r24, 0x04	; 4
    3734:	09 f0       	breq	.+2      	; 0x3738 <SrvCommExecuteMessage+0xd4a>
    3736:	3f c0       	rjmp	.+126    	; 0x37b6 <SrvCommExecuteMessage+0xdc8>
    3738:	80 91 66 0d 	lds	r24, 0x0D66	; 0x800d66 <inMessage+0x3>
    373c:	82 30       	cpi	r24, 0x02	; 2
    373e:	d9 f5       	brne	.+118    	; 0x37b6 <SrvCommExecuteMessage+0xdc8>
    3740:	e3 e6       	ldi	r30, 0x63	; 99
	{
		servoId = (uint8_t)((inMessage.data[ 0U ] * 16U) + inMessage.data[ 1U ]);
    3742:	fd e0       	ldi	r31, 0x0D	; 13
    3744:	84 81       	ldd	r24, Z+4	; 0x04
    3746:	25 81       	ldd	r18, Z+5	; 0x05
    3748:	30 e1       	ldi	r19, 0x10	; 16
    374a:	83 9f       	mul	r24, r19
    374c:	20 0d       	add	r18, r0
    374e:	11 24       	eor	r1, r1
    3750:	29 83       	std	Y+1, r18	; 0x01
    3752:	23 31       	cpi	r18, 0x13	; 19
		//if legs
		if(servoId < NB_SERVOS)
    3754:	08 f0       	brcs	.+2      	; 0x3758 <SrvCommExecuteMessage+0xd6a>
    3756:	10 c1       	rjmp	.+544    	; 0x3978 <SrvCommExecuteMessage+0xf8a>
    3758:	82 2f       	mov	r24, r18
		{
			//prepare output string
			servo = DrvServoGetStruture(servoId);
    375a:	0e 94 75 0d 	call	0x1aea	; 0x1aea <DrvServoGetStruture>
    375e:	7c 01       	movw	r14, r24
    3760:	44 e0       	ldi	r20, 0x04	; 4
			uint8_t nbData = SrvCommPrepareMessage(COMM_CLUSTER_SERVOS,COMM_CLUSTER_SERVOS_COMMAND_SERVO_MIN_READ, 4U);
    3762:	64 e0       	ldi	r22, 0x04	; 4
    3764:	84 e0       	ldi	r24, 0x04	; 4
    3766:	27 d9       	rcall	.-3506   	; 0x29b6 <SrvCommPrepareMessage>
    3768:	8c 01       	movw	r16, r24
    376a:	f7 01       	movw	r30, r14
    376c:	84 81       	ldd	r24, Z+4	; 0x04
			Int8U min = (Int8U)((servo->min - servo->offset) / 10);
			nbData += sprintf((char*)&response[ nbData ],"%02X%02X",servoId,min);
    376e:	95 81       	ldd	r25, Z+5	; 0x05
    3770:	22 85       	ldd	r18, Z+10	; 0x0a
    3772:	33 85       	ldd	r19, Z+11	; 0x0b
    3774:	82 1b       	sub	r24, r18
    3776:	93 0b       	sbc	r25, r19
    3778:	6a e0       	ldi	r22, 0x0A	; 10
    377a:	70 e0       	ldi	r23, 0x00	; 0
    377c:	0e 94 4b 25 	call	0x4a96	; 0x4a96 <__divmodhi4>
    3780:	cb 01       	movw	r24, r22
    3782:	99 27       	eor	r25, r25
    3784:	9f 93       	push	r25
    3786:	8f 93       	push	r24
    3788:	1f 92       	push	r1
    378a:	f9 81       	ldd	r31, Y+1	; 0x01
    378c:	ff 93       	push	r31
    378e:	89 ec       	ldi	r24, 0xC9	; 201
    3790:	92 e0       	ldi	r25, 0x02	; 2
    3792:	9f 93       	push	r25
    3794:	8f 93       	push	r24
    3796:	c8 01       	movw	r24, r16
    3798:	99 27       	eor	r25, r25
    379a:	81 50       	subi	r24, 0x01	; 1
    379c:	93 4f       	sbci	r25, 0xF3	; 243
    379e:	9f 93       	push	r25
    37a0:	8f 93       	push	r24
    37a2:	0e 94 98 25 	call	0x4b30	; 0x4b30 <sprintf>
    37a6:	80 0f       	add	r24, r16
			return SrvCommWriteMessage(nbData);
    37a8:	e2 d8       	rcall	.-3644   	; 0x296e <SrvCommWriteMessage>
    37aa:	0f b6       	in	r0, 0x3f	; 63
    37ac:	f8 94       	cli
    37ae:	de bf       	out	0x3e, r29	; 62
    37b0:	0f be       	out	0x3f, r0	; 63
    37b2:	cd bf       	out	0x3d, r28	; 61
    37b4:	e8 c0       	rjmp	.+464    	; 0x3986 <SrvCommExecuteMessage+0xf98>
    37b6:	80 91 65 0d 	lds	r24, 0x0D65	; 0x800d65 <inMessage+0x2>
		}
	}
	else if(( inMessage.command ==  COMM_CLUSTER_SERVOS_COMMAND_SERVO_MAX_READ) && (inMessage.size == 2U))
    37ba:	86 30       	cpi	r24, 0x06	; 6
    37bc:	09 f0       	breq	.+2      	; 0x37c0 <SrvCommExecuteMessage+0xdd2>
    37be:	3f c0       	rjmp	.+126    	; 0x383e <SrvCommExecuteMessage+0xe50>
    37c0:	80 91 66 0d 	lds	r24, 0x0D66	; 0x800d66 <inMessage+0x3>
    37c4:	82 30       	cpi	r24, 0x02	; 2
    37c6:	d9 f5       	brne	.+118    	; 0x383e <SrvCommExecuteMessage+0xe50>
    37c8:	e3 e6       	ldi	r30, 0x63	; 99
	{
		servoId = (uint8_t)((inMessage.data[ 0U ] * 16U) + inMessage.data[ 1U ]);
    37ca:	fd e0       	ldi	r31, 0x0D	; 13
    37cc:	84 81       	ldd	r24, Z+4	; 0x04
    37ce:	35 81       	ldd	r19, Z+5	; 0x05
    37d0:	40 e1       	ldi	r20, 0x10	; 16
    37d2:	84 9f       	mul	r24, r20
    37d4:	30 0d       	add	r19, r0
    37d6:	11 24       	eor	r1, r1
    37d8:	39 83       	std	Y+1, r19	; 0x01
		//if legs
		if(servoId < NB_SERVOS)
    37da:	33 31       	cpi	r19, 0x13	; 19
    37dc:	08 f0       	brcs	.+2      	; 0x37e0 <SrvCommExecuteMessage+0xdf2>
    37de:	ce c0       	rjmp	.+412    	; 0x397c <SrvCommExecuteMessage+0xf8e>
		{
			//prepare output string
			servo = DrvServoGetStruture(servoId);
    37e0:	83 2f       	mov	r24, r19
    37e2:	0e 94 75 0d 	call	0x1aea	; 0x1aea <DrvServoGetStruture>
    37e6:	7c 01       	movw	r14, r24
			uint8_t nbData = SrvCommPrepareMessage(COMM_CLUSTER_SERVOS,COMM_CLUSTER_SERVOS_COMMAND_SERVO_MAX_READ, 4U);
    37e8:	44 e0       	ldi	r20, 0x04	; 4
    37ea:	66 e0       	ldi	r22, 0x06	; 6
    37ec:	84 e0       	ldi	r24, 0x04	; 4
    37ee:	e3 d8       	rcall	.-3642   	; 0x29b6 <SrvCommPrepareMessage>
    37f0:	8c 01       	movw	r16, r24
    37f2:	f7 01       	movw	r30, r14
			Int8U max = (Int8U)((servo->max - servo->offset) / 10);
			nbData += sprintf((char*)&response[ nbData ],"%02X%02X",servoId,max);
    37f4:	80 85       	ldd	r24, Z+8	; 0x08
    37f6:	91 85       	ldd	r25, Z+9	; 0x09
    37f8:	22 85       	ldd	r18, Z+10	; 0x0a
    37fa:	33 85       	ldd	r19, Z+11	; 0x0b
    37fc:	82 1b       	sub	r24, r18
    37fe:	93 0b       	sbc	r25, r19
    3800:	6a e0       	ldi	r22, 0x0A	; 10
    3802:	70 e0       	ldi	r23, 0x00	; 0
    3804:	0e 94 4b 25 	call	0x4a96	; 0x4a96 <__divmodhi4>
    3808:	cb 01       	movw	r24, r22
    380a:	99 27       	eor	r25, r25
    380c:	9f 93       	push	r25
    380e:	8f 93       	push	r24
    3810:	1f 92       	push	r1
    3812:	f9 81       	ldd	r31, Y+1	; 0x01
    3814:	ff 93       	push	r31
    3816:	89 ec       	ldi	r24, 0xC9	; 201
    3818:	92 e0       	ldi	r25, 0x02	; 2
    381a:	9f 93       	push	r25
    381c:	8f 93       	push	r24
    381e:	c8 01       	movw	r24, r16
    3820:	99 27       	eor	r25, r25
    3822:	81 50       	subi	r24, 0x01	; 1
    3824:	93 4f       	sbci	r25, 0xF3	; 243
    3826:	9f 93       	push	r25
    3828:	8f 93       	push	r24
    382a:	0e 94 98 25 	call	0x4b30	; 0x4b30 <sprintf>
    382e:	80 0f       	add	r24, r16
			return SrvCommWriteMessage(nbData);
    3830:	9e d8       	rcall	.-3780   	; 0x296e <SrvCommWriteMessage>
    3832:	0f b6       	in	r0, 0x3f	; 63
    3834:	f8 94       	cli
    3836:	de bf       	out	0x3e, r29	; 62
    3838:	0f be       	out	0x3f, r0	; 63
    383a:	cd bf       	out	0x3d, r28	; 61
    383c:	a4 c0       	rjmp	.+328    	; 0x3986 <SrvCommExecuteMessage+0xf98>
    383e:	80 91 65 0d 	lds	r24, 0x0D65	; 0x800d65 <inMessage+0x2>
		}
	}
	else if(( inMessage.command ==  COMM_CLUSTER_SERVOS_COMMAND_SERVO_READ_ALL)&& (inMessage.size == 0U))
    3842:	88 30       	cpi	r24, 0x08	; 8
    3844:	d1 f5       	brne	.+116    	; 0x38ba <SrvCommExecuteMessage+0xecc>
    3846:	80 91 66 0d 	lds	r24, 0x0D66	; 0x800d66 <inMessage+0x3>
    384a:	81 11       	cpse	r24, r1
    384c:	36 c0       	rjmp	.+108    	; 0x38ba <SrvCommExecuteMessage+0xecc>
    384e:	46 e2       	ldi	r20, 0x26	; 38
	{
		//prepare output string
		uint8_t nbData = SrvCommPrepareMessage(COMM_CLUSTER_SERVOS,COMM_CLUSTER_SERVOS_COMMAND_SERVO_READ_ALL, NB_SERVOS * 2U);
    3850:	68 e0       	ldi	r22, 0x08	; 8
    3852:	84 e0       	ldi	r24, 0x04	; 4
    3854:	b0 d8       	rcall	.-3744   	; 0x29b6 <SrvCommPrepareMessage>
    3856:	e8 2e       	mov	r14, r24
    3858:	10 e0       	ldi	r17, 0x00	; 0
    385a:	0f 2e       	mov	r0, r31
		for( uint8_t servoId = 0U; servoId < NB_SERVOS ; servoId++ )
    385c:	fa e0       	ldi	r31, 0x0A	; 10
		{
			servo = DrvServoGetStruture(servoId);
			Int8U servoPos = (Int8U)((servo->currentPosition - servo->offset) / 10);
			nbData += sprintf((char*)&response[ nbData ],"%02X",servoPos);
    385e:	cf 2e       	mov	r12, r31
    3860:	d1 2c       	mov	r13, r1
    3862:	f0 2d       	mov	r31, r0
    3864:	81 2f       	mov	r24, r17
    3866:	0e 94 75 0d 	call	0x1aea	; 0x1aea <DrvServoGetStruture>
	{
		//prepare output string
		uint8_t nbData = SrvCommPrepareMessage(COMM_CLUSTER_SERVOS,COMM_CLUSTER_SERVOS_COMMAND_SERVO_READ_ALL, NB_SERVOS * 2U);
		for( uint8_t servoId = 0U; servoId < NB_SERVOS ; servoId++ )
		{
			servo = DrvServoGetStruture(servoId);
    386a:	fc 01       	movw	r30, r24
    386c:	22 81       	ldd	r18, Z+2	; 0x02
			Int8U servoPos = (Int8U)((servo->currentPosition - servo->offset) / 10);
			nbData += sprintf((char*)&response[ nbData ],"%02X",servoPos);
    386e:	33 81       	ldd	r19, Z+3	; 0x03
    3870:	82 85       	ldd	r24, Z+10	; 0x0a
    3872:	93 85       	ldd	r25, Z+11	; 0x0b
    3874:	a9 01       	movw	r20, r18
    3876:	48 1b       	sub	r20, r24
    3878:	59 0b       	sbc	r21, r25
    387a:	ca 01       	movw	r24, r20
    387c:	b6 01       	movw	r22, r12
    387e:	0e 94 4b 25 	call	0x4a96	; 0x4a96 <__divmodhi4>
    3882:	77 27       	eor	r23, r23
    3884:	7f 93       	push	r23
    3886:	6f 93       	push	r22
    3888:	8d ec       	ldi	r24, 0xCD	; 205
    388a:	92 e0       	ldi	r25, 0x02	; 2
    388c:	9f 93       	push	r25
    388e:	8f 93       	push	r24
    3890:	8e 2d       	mov	r24, r14
    3892:	90 e0       	ldi	r25, 0x00	; 0
    3894:	81 50       	subi	r24, 0x01	; 1
    3896:	93 4f       	sbci	r25, 0xF3	; 243
    3898:	9f 93       	push	r25
    389a:	8f 93       	push	r24
    389c:	0e 94 98 25 	call	0x4b30	; 0x4b30 <sprintf>
    38a0:	e8 0e       	add	r14, r24
    38a2:	1f 5f       	subi	r17, 0xFF	; 255
    38a4:	0f 90       	pop	r0
	}
	else if(( inMessage.command ==  COMM_CLUSTER_SERVOS_COMMAND_SERVO_READ_ALL)&& (inMessage.size == 0U))
	{
		//prepare output string
		uint8_t nbData = SrvCommPrepareMessage(COMM_CLUSTER_SERVOS,COMM_CLUSTER_SERVOS_COMMAND_SERVO_READ_ALL, NB_SERVOS * 2U);
		for( uint8_t servoId = 0U; servoId < NB_SERVOS ; servoId++ )
    38a6:	0f 90       	pop	r0
    38a8:	0f 90       	pop	r0
    38aa:	0f 90       	pop	r0
    38ac:	0f 90       	pop	r0
    38ae:	0f 90       	pop	r0
    38b0:	13 31       	cpi	r17, 0x13	; 19
    38b2:	c1 f6       	brne	.-80     	; 0x3864 <SrvCommExecuteMessage+0xe76>
		{
			servo = DrvServoGetStruture(servoId);
			Int8U servoPos = (Int8U)((servo->currentPosition - servo->offset) / 10);
			nbData += sprintf((char*)&response[ nbData ],"%02X",servoPos);
		}
		return SrvCommWriteMessage(nbData);
    38b4:	8e 2d       	mov	r24, r14
    38b6:	5b d8       	rcall	.-3914   	; 0x296e <SrvCommWriteMessage>
    38b8:	66 c0       	rjmp	.+204    	; 0x3986 <SrvCommExecuteMessage+0xf98>
    38ba:	83 e0       	ldi	r24, 0x03	; 3
	}
	else
	{
		errorMessage = COMM_ERROR_UNKNOWN_COMMAND;
    38bc:	80 93 f8 0c 	sts	0x0CF8, r24	; 0x800cf8 <errorMessage>
    38c0:	80 e0       	ldi	r24, 0x00	; 0
	}
	return FALSE;
    38c2:	61 c0       	rjmp	.+194    	; 0x3986 <SrvCommExecuteMessage+0xf98>
    38c4:	80 91 64 0d 	lds	r24, 0x0D64	; 0x800d64 <inMessage+0x1>
	}
	else if( inMessage.cluster == COMM_CLUSTER_SERVOS)
	{	
		oSuccess = SrvCommExecuteClusterServo();
	}
	else if( inMessage.cluster == COMM_CLUSTER_LEG)
    38c8:	85 30       	cpi	r24, 0x05	; 5
    38ca:	d1 f5       	brne	.+116    	; 0x3940 <SrvCommExecuteMessage+0xf52>
    38cc:	80 91 65 0d 	lds	r24, 0x0D65	; 0x800d65 <inMessage+0x2>
}
static Boolean SrvCommExecuteClusterLeg( void )
{
	uint8_t legId = E_NB_LEGS;
	SLeg *leg;
	if(( inMessage.command == COMM_CLUSTER_LEG_COMMAND_SET_LEG_XYZ) && (inMessage.size == 17U))
    38d0:	81 30       	cpi	r24, 0x01	; 1
    38d2:	e9 f4       	brne	.+58     	; 0x390e <SrvCommExecuteMessage+0xf20>
    38d4:	80 91 66 0d 	lds	r24, 0x0D66	; 0x800d66 <inMessage+0x3>
    38d8:	81 31       	cpi	r24, 0x11	; 17
    38da:	c9 f4       	brne	.+50     	; 0x390e <SrvCommExecuteMessage+0xf20>
    38dc:	80 91 67 0d 	lds	r24, 0x0D67	; 0x800d67 <inMessage+0x4>
	{
		legId = inMessage.data[ 0U ];
    38e0:	86 30       	cpi	r24, 0x06	; 6
		if(legId < E_NB_LEGS)
    38e2:	08 f0       	brcs	.+2      	; 0x38e6 <SrvCommExecuteMessage+0xef8>
    38e4:	4d c0       	rjmp	.+154    	; 0x3980 <SrvCommExecuteMessage+0xf92>
    38e6:	e3 e6       	ldi	r30, 0x63	; 99
		{
			Int16S x = inMessage.data[ 1U ] * 4096 + inMessage.data[ 2U ] * 256 + inMessage.data[ 3U ] * 16 + inMessage.data[ 4U ];
    38e8:	fd e0       	ldi	r31, 0x0D	; 13
    38ea:	85 81       	ldd	r24, Z+5	; 0x05
    38ec:	86 81       	ldd	r24, Z+6	; 0x06
    38ee:	87 81       	ldd	r24, Z+7	; 0x07
    38f0:	80 85       	ldd	r24, Z+8	; 0x08
    38f2:	81 85       	ldd	r24, Z+9	; 0x09
			Int16S y = inMessage.data[ 5U ] * 4096 + inMessage.data[ 6U ] * 256 + inMessage.data[ 7U ] * 16 + inMessage.data[ 8U ];
    38f4:	82 85       	ldd	r24, Z+10	; 0x0a
    38f6:	83 85       	ldd	r24, Z+11	; 0x0b
    38f8:	84 85       	ldd	r24, Z+12	; 0x0c
    38fa:	85 85       	ldd	r24, Z+13	; 0x0d
			Int16S z = inMessage.data[ 9U ] * 4096 + inMessage.data[ 10U ] * 256 + inMessage.data[ 11U ] * 16 + inMessage.data[ 12U ];
    38fc:	86 85       	ldd	r24, Z+14	; 0x0e
    38fe:	87 85       	ldd	r24, Z+15	; 0x0f
    3900:	80 89       	ldd	r24, Z+16	; 0x10
    3902:	81 89       	ldd	r24, Z+17	; 0x11
			uint32_t delay = inMessage.data[ 13U ] * 4096 + inMessage.data[ 14U ] * 256 + inMessage.data[ 15U ] * 16 + inMessage.data[ 16U ];
    3904:	82 89       	ldd	r24, Z+18	; 0x12
    3906:	83 89       	ldd	r24, Z+19	; 0x13
    3908:	84 89       	ldd	r24, Z+20	; 0x14
    390a:	81 e0       	ldi	r24, 0x01	; 1
			return TRUE;//DrvLegSetTarget(legId,x,y,z, delay);
    390c:	3c c0       	rjmp	.+120    	; 0x3986 <SrvCommExecuteMessage+0xf98>
    390e:	80 91 65 0d 	lds	r24, 0x0D65	; 0x800d65 <inMessage+0x2>
		}
	}
	else if(( inMessage.command == COMM_CLUSTER_LEG_COMMAND_GET_LEG_XYZ) && (inMessage.size == 1U))
    3912:	81 11       	cpse	r24, r1
    3914:	10 c0       	rjmp	.+32     	; 0x3936 <SrvCommExecuteMessage+0xf48>
    3916:	80 91 66 0d 	lds	r24, 0x0D66	; 0x800d66 <inMessage+0x3>
    391a:	81 30       	cpi	r24, 0x01	; 1
    391c:	61 f4       	brne	.+24     	; 0x3936 <SrvCommExecuteMessage+0xf48>
    391e:	80 91 67 0d 	lds	r24, 0x0D67	; 0x800d67 <inMessage+0x4>
	{
		legId = inMessage.data[ 0U ];
    3922:	86 30       	cpi	r24, 0x06	; 6
		if(legId < E_NB_LEGS)
    3924:	78 f5       	brcc	.+94     	; 0x3984 <SrvCommExecuteMessage+0xf96>
    3926:	0e 94 18 0a 	call	0x1430	; 0x1430 <DrvLegGetStruct>
		{
			//prepare output string
			leg = DrvLegGetStruct(legId);
    392a:	4d e0       	ldi	r20, 0x0D	; 13
			uint8_t nbData = SrvCommPrepareMessage(COMM_CLUSTER_LEG,COMM_CLUSTER_LEG_COMMAND_GET_LEG_XYZ, 13U);
    392c:	60 e0       	ldi	r22, 0x00	; 0
    392e:	85 e0       	ldi	r24, 0x05	; 5
    3930:	42 d8       	rcall	.-3964   	; 0x29b6 <SrvCommPrepareMessage>
    3932:	1d d8       	rcall	.-4038   	; 0x296e <SrvCommWriteMessage>
    3934:	28 c0       	rjmp	.+80     	; 0x3986 <SrvCommExecuteMessage+0xf98>
			/*Int16S x = (Int16S)leg->targetPositionX;
			Int16S y = (Int16S)leg->targetPositionY;
			Int16S z = (Int16S)leg->targetPositionZ;*/
			//nbData += sprintf((char*)&response[ nbData ],"%01X%04X%04X%04X",legId,x,y,z);
			return SrvCommWriteMessage(nbData);
    3936:	83 e0       	ldi	r24, 0x03	; 3
    3938:	80 93 f8 0c 	sts	0x0CF8, r24	; 0x800cf8 <errorMessage>
		}
	}
	else
	{
		errorMessage = COMM_ERROR_UNKNOWN_COMMAND;
    393c:	80 e0       	ldi	r24, 0x00	; 0
    393e:	23 c0       	rjmp	.+70     	; 0x3986 <SrvCommExecuteMessage+0xf98>
    3940:	80 91 64 0d 	lds	r24, 0x0D64	; 0x800d64 <inMessage+0x1>
	}
	return FALSE;
    3944:	86 30       	cpi	r24, 0x06	; 6
	}
	else if( inMessage.cluster == COMM_CLUSTER_LEG)
	{	
		oSuccess = SrvCommExecuteClusterLeg();
	}
	else if( inMessage.cluster == COMM_CLUSTER_DISPLAY)
    3946:	29 f4       	brne	.+10     	; 0x3952 <SrvCommExecuteMessage+0xf64>
    3948:	83 e0       	ldi	r24, 0x03	; 3
    394a:	80 93 f8 0c 	sts	0x0CF8, r24	; 0x800cf8 <errorMessage>
	}
	return FALSE;
}
static Boolean SrvCommExecuteClusterDisplay( void )
{
	errorMessage = COMM_ERROR_UNKNOWN_COMMAND;
    394e:	80 e0       	ldi	r24, 0x00	; 0
    3950:	1a c0       	rjmp	.+52     	; 0x3986 <SrvCommExecuteMessage+0xf98>
    3952:	82 e0       	ldi	r24, 0x02	; 2
	{	
		oSuccess = SrvCommExecuteClusterLeg();
	}
	else if( inMessage.cluster == COMM_CLUSTER_DISPLAY)
	{
		oSuccess = SrvCommExecuteClusterDisplay();
    3954:	80 93 f8 0c 	sts	0x0CF8, r24	; 0x800cf8 <errorMessage>
	}
	else
	{
		errorMessage = COMM_ERROR_UNKNOWN_CLUSTER;
    3958:	80 e0       	ldi	r24, 0x00	; 0
    395a:	15 c0       	rjmp	.+42     	; 0x3986 <SrvCommExecuteMessage+0xf98>
    395c:	81 e0       	ldi	r24, 0x01	; 1


//permits to execute the incoming data
static Boolean SrvCommExecuteMessage( void )
{
	Boolean oSuccess = FALSE;
    395e:	13 c0       	rjmp	.+38     	; 0x3986 <SrvCommExecuteMessage+0xf98>
    3960:	81 e0       	ldi	r24, 0x01	; 1
		Int8S z = (Int8S)(inMessage.data[ 10U ] * 16 + inMessage.data[ 11U ] );
		uint16_t delay = inMessage.data[ 12U ] * 4096 + inMessage.data[ 13U ] * 256 + inMessage.data[ 14U ] * 16 + inMessage.data[ 15U ];
		SrvBodyMoveSetRotationAndTranslation(roll,pitch,yaw,x,y,z);
		SWalk *walk = SrvWalkGetStruct();
		if(walk->walking == E_WALK_STOP) return SrvBodyMoveApplyRotationAndTranslation(delay);
		return TRUE;
    3962:	11 c0       	rjmp	.+34     	; 0x3986 <SrvCommExecuteMessage+0xf98>
    3964:	81 e0       	ldi	r24, 0x01	; 1
		uint16_t delay = inMessage.data[ 2U ] * 4096 + inMessage.data[ 3U ] * 256 + inMessage.data[ 4U ] * 16 + inMessage.data[ 5U ];
		SrvBodyMoveSetGroundSize((inMessage.data[ 0U ] * 16 + inMessage.data[ 1U ] ) * 1.0);
		
		SWalk *walk = SrvWalkGetStruct();
		if(walk->walking == E_WALK_STOP) return SrvBodyMoveApplyRotationAndTranslation(delay);
		return TRUE;
    3966:	0f c0       	rjmp	.+30     	; 0x3986 <SrvCommExecuteMessage+0xf98>
    3968:	80 e0       	ldi	r24, 0x00	; 0
		uint16_t delay = inMessage.data[ 2U ] * 4096 + inMessage.data[ 3U ] * 256 + inMessage.data[ 4U ] * 16 + inMessage.data[ 5U ];
		SrvBodyMoveSetElevation((inMessage.data[ 0U ] * 16 + inMessage.data[ 1U ] ) * 1.0);
		
		SWalk *walk = SrvWalkGetStruct();
		if(walk->walking == E_WALK_STOP) return SrvBodyMoveApplyRotationAndTranslation(delay);
		return TRUE;
    396a:	0d c0       	rjmp	.+26     	; 0x3986 <SrvCommExecuteMessage+0xf98>
    396c:	80 e0       	ldi	r24, 0x00	; 0
	}
	else
	{
		errorMessage = COMM_ERROR_UNKNOWN_COMMAND;
	}
	return FALSE;
    396e:	0b c0       	rjmp	.+22     	; 0x3986 <SrvCommExecuteMessage+0xf98>
    3970:	80 e0       	ldi	r24, 0x00	; 0
    3972:	09 c0       	rjmp	.+18     	; 0x3986 <SrvCommExecuteMessage+0xf98>
    3974:	80 e0       	ldi	r24, 0x00	; 0
    3976:	07 c0       	rjmp	.+14     	; 0x3986 <SrvCommExecuteMessage+0xf98>
    3978:	80 e0       	ldi	r24, 0x00	; 0
    397a:	05 c0       	rjmp	.+10     	; 0x3986 <SrvCommExecuteMessage+0xf98>
    397c:	80 e0       	ldi	r24, 0x00	; 0
    397e:	03 c0       	rjmp	.+6      	; 0x3986 <SrvCommExecuteMessage+0xf98>
    3980:	80 e0       	ldi	r24, 0x00	; 0
    3982:	01 c0       	rjmp	.+2      	; 0x3986 <SrvCommExecuteMessage+0xf98>
    3984:	80 e0       	ldi	r24, 0x00	; 0
	}
	else
	{
		errorMessage = COMM_ERROR_UNKNOWN_COMMAND;
	}
	return FALSE;
    3986:	2e 96       	adiw	r28, 0x0e	; 14
    3988:	0f b6       	in	r0, 0x3f	; 63
    398a:	f8 94       	cli
	{
		errorMessage = COMM_ERROR_UNKNOWN_CLUSTER;
	}
	
	return oSuccess;
}
    398c:	de bf       	out	0x3e, r29	; 62
    398e:	0f be       	out	0x3f, r0	; 63
    3990:	cd bf       	out	0x3d, r28	; 61
    3992:	df 91       	pop	r29
    3994:	cf 91       	pop	r28
    3996:	1f 91       	pop	r17
    3998:	0f 91       	pop	r16
    399a:	ff 90       	pop	r15
    399c:	ef 90       	pop	r14
    399e:	df 90       	pop	r13
    39a0:	cf 90       	pop	r12
    39a2:	bf 90       	pop	r11
    39a4:	af 90       	pop	r10
    39a6:	9f 90       	pop	r9
    39a8:	8f 90       	pop	r8
    39aa:	7f 90       	pop	r7
    39ac:	6f 90       	pop	r6
    39ae:	5f 90       	pop	r5
    39b0:	4f 90       	pop	r4
    39b2:	3f 90       	pop	r3
    39b4:	2f 90       	pop	r2
    39b6:	08 95       	ret

000039b8 <SrvCommInit>:
    39b8:	10 92 99 0d 	sts	0x0D99, r1	; 0x800d99 <status>
    39bc:	e3 e6       	ldi	r30, 0x63	; 99
/*init de la communication                                              */
/************************************************************************/
Boolean SrvCommInit (void) 
{
	status = COMM_START;
	inMessage.header = 0U;
    39be:	fd e0       	ldi	r31, 0x0D	; 13
    39c0:	10 82       	st	Z, r1
	inMessage.cluster = COMM_CLUSTER_UNDEFINED;
    39c2:	8f ef       	ldi	r24, 0xFF	; 255
    39c4:	81 83       	std	Z+1, r24	; 0x01
	inMessage.command = COMM_CLUSTER_COMMAND_UNDEFINED;
    39c6:	82 83       	std	Z+2, r24	; 0x02
	inMessage.size = 0U;
    39c8:	13 82       	std	Z+3, r1	; 0x03
	for(Int16U loop = 0U; loop < 50U ; loop++)
    39ca:	80 e0       	ldi	r24, 0x00	; 0
    39cc:	90 e0       	ldi	r25, 0x00	; 0
	{
		inMessage.data[loop] = 0U;
    39ce:	fc 01       	movw	r30, r24
    39d0:	ed 59       	subi	r30, 0x9D	; 157
    39d2:	f2 4f       	sbci	r31, 0xF2	; 242
    39d4:	14 82       	std	Z+4, r1	; 0x04
	status = COMM_START;
	inMessage.header = 0U;
	inMessage.cluster = COMM_CLUSTER_UNDEFINED;
	inMessage.command = COMM_CLUSTER_COMMAND_UNDEFINED;
	inMessage.size = 0U;
	for(Int16U loop = 0U; loop < 50U ; loop++)
    39d6:	01 96       	adiw	r24, 0x01	; 1
    39d8:	82 33       	cpi	r24, 0x32	; 50
    39da:	91 05       	cpc	r25, r1
    39dc:	c1 f7       	brne	.-16     	; 0x39ce <SrvCommInit+0x16>
		DrvUartFillTxBuffer(uartUsing,'\n');
		DrvUartSendData(uartUsing);
	#endif
	
	return TRUE;
}	
    39de:	81 e0       	ldi	r24, 0x01	; 1
    39e0:	08 95       	ret

000039e2 <SrvCommUpdate>:

/************************************************************************/
/*dispatcher d'evenements                                               */
/************************************************************************/
void SrvCommUpdate ( void ) 
{
    39e2:	2f 92       	push	r2
    39e4:	3f 92       	push	r3
    39e6:	4f 92       	push	r4
    39e8:	5f 92       	push	r5
    39ea:	6f 92       	push	r6
    39ec:	7f 92       	push	r7
    39ee:	8f 92       	push	r8
    39f0:	9f 92       	push	r9
    39f2:	af 92       	push	r10
    39f4:	bf 92       	push	r11
    39f6:	cf 92       	push	r12
    39f8:	df 92       	push	r13
    39fa:	ef 92       	push	r14
    39fc:	ff 92       	push	r15
    39fe:	0f 93       	push	r16
    3a00:	1f 93       	push	r17
    3a02:	cf 93       	push	r28
    3a04:	df 93       	push	r29
    3a06:	1f 92       	push	r1
    3a08:	cd b7       	in	r28, 0x3d	; 61
    3a0a:	de b7       	in	r29, 0x3e	; 62
}
//permits to decode the incoming data
uint8_t countData = 0U;
static Boolean SrvCommDecodeMessage( void )
{
	nbDataAvailable = DrvUartDataAvailable(uartUsing);
    3a0c:	80 91 f9 0c 	lds	r24, 0x0CF9	; 0x800cf9 <uartUsing>
    3a10:	0e 94 b0 10 	call	0x2160	; 0x2160 <DrvUartDataAvailable>
    3a14:	90 e0       	ldi	r25, 0x00	; 0
    3a16:	90 93 9b 0d 	sts	0x0D9B, r25	; 0x800d9b <nbDataAvailable+0x1>
    3a1a:	80 93 9a 0d 	sts	0x0D9A, r24	; 0x800d9a <nbDataAvailable>
	
	//loop until the data is over
	for(Int16U loop = 0U; loop < nbDataAvailable ; loop++)
    3a1e:	80 91 9a 0d 	lds	r24, 0x0D9A	; 0x800d9a <nbDataAvailable>
    3a22:	90 91 9b 0d 	lds	r25, 0x0D9B	; 0x800d9b <nbDataAvailable+0x1>
    3a26:	89 2b       	or	r24, r25
    3a28:	09 f4       	brne	.+2      	; 0x3a2c <SrvCommUpdate+0x4a>
    3a2a:	c3 c1       	rjmp	.+902    	; 0x3db2 <SrvCommUpdate+0x3d0>
    3a2c:	00 e0       	ldi	r16, 0x00	; 0
    3a2e:	10 e0       	ldi	r17, 0x00	; 0
			case 'B': case 'b': num=11; break;
			case 'C': case 'c': num=12; break;
			case 'D': case 'd': num=13; break;
			case 'E': case 'e': num=14; break;
			case 'F': case 'f': num=15; break;
			default: num=0;
    3a30:	81 2c       	mov	r8, r1
	}
	else
	{
		switch(ch)
		{
			case 'A': case 'a': num=10; break;
    3a32:	0f 2e       	mov	r0, r31
    3a34:	fa e0       	ldi	r31, 0x0A	; 10
    3a36:	7f 2e       	mov	r7, r31
    3a38:	f0 2d       	mov	r31, r0
			case 'B': case 'b': num=11; break;
			case 'C': case 'c': num=12; break;
			case 'D': case 'd': num=13; break;
			case 'E': case 'e': num=14; break;
			case 'F': case 'f': num=15; break;
    3a3a:	0f 2e       	mov	r0, r31
    3a3c:	ff e0       	ldi	r31, 0x0F	; 15
    3a3e:	2f 2e       	mov	r2, r31
    3a40:	f0 2d       	mov	r31, r0
		{
			case 'A': case 'a': num=10; break;
			case 'B': case 'b': num=11; break;
			case 'C': case 'c': num=12; break;
			case 'D': case 'd': num=13; break;
			case 'E': case 'e': num=14; break;
    3a42:	0f 2e       	mov	r0, r31
    3a44:	fe e0       	ldi	r31, 0x0E	; 14
    3a46:	3f 2e       	mov	r3, r31
    3a48:	f0 2d       	mov	r31, r0
		switch(ch)
		{
			case 'A': case 'a': num=10; break;
			case 'B': case 'b': num=11; break;
			case 'C': case 'c': num=12; break;
			case 'D': case 'd': num=13; break;
    3a4a:	0f 2e       	mov	r0, r31
    3a4c:	fd e0       	ldi	r31, 0x0D	; 13
    3a4e:	4f 2e       	mov	r4, r31
    3a50:	f0 2d       	mov	r31, r0
	{
		switch(ch)
		{
			case 'A': case 'a': num=10; break;
			case 'B': case 'b': num=11; break;
			case 'C': case 'c': num=12; break;
    3a52:	0f 2e       	mov	r0, r31
    3a54:	fc e0       	ldi	r31, 0x0C	; 12
    3a56:	5f 2e       	mov	r5, r31
    3a58:	f0 2d       	mov	r31, r0
	else
	{
		switch(ch)
		{
			case 'A': case 'a': num=10; break;
			case 'B': case 'b': num=11; break;
    3a5a:	0f 2e       	mov	r0, r31
    3a5c:	fb e0       	ldi	r31, 0x0B	; 11
    3a5e:	6f 2e       	mov	r6, r31
    3a60:	f0 2d       	mov	r31, r0
					inMessage.size = asciiHexToInt(datum) * 16U;
					status = COMM_SIZE_1;
				break;
				case COMM_SIZE_1:
					//get size
					inMessage.size += asciiHexToInt(datum) ;
    3a62:	0f 2e       	mov	r0, r31
    3a64:	f3 e6       	ldi	r31, 0x63	; 99
    3a66:	ef 2e       	mov	r14, r31
    3a68:	fd e0       	ldi	r31, 0x0D	; 13
    3a6a:	ff 2e       	mov	r15, r31
    3a6c:	f0 2d       	mov	r31, r0
					status = COMM_PARAMS;
    3a6e:	68 94       	set
    3a70:	99 24       	eor	r9, r9
    3a72:	93 f8       	bld	r9, 3
				break;
			
				case COMM_SIZE_0:
					//get size
					inMessage.size = asciiHexToInt(datum) * 16U;
					status = COMM_SIZE_1;
    3a74:	0f 2e       	mov	r0, r31
    3a76:	f7 e0       	ldi	r31, 0x07	; 7
    3a78:	af 2e       	mov	r10, r31
    3a7a:	f0 2d       	mov	r31, r0
					status = COMM_COMMAND_1;
				break;
				case COMM_COMMAND_1:
					//get command id
					inMessage.command += asciiHexToInt(datum) ;
					status = COMM_SIZE_0;
    3a7c:	0f 2e       	mov	r0, r31
    3a7e:	f6 e0       	ldi	r31, 0x06	; 6
    3a80:	bf 2e       	mov	r11, r31
    3a82:	f0 2d       	mov	r31, r0
				break;
			
				case COMM_COMMAND_0:
					//get command id
					inMessage.command = asciiHexToInt(datum) * 16U;
					status = COMM_COMMAND_1;
    3a84:	0f 2e       	mov	r0, r31
    3a86:	f5 e0       	ldi	r31, 0x05	; 5
    3a88:	cf 2e       	mov	r12, r31
    3a8a:	f0 2d       	mov	r31, r0
					status = COMM_CLUSTER_1;
				break;
				case COMM_CLUSTER_1:
					//get cluster id
					inMessage.cluster += asciiHexToInt(datum) ;
					status = COMM_COMMAND_0;
    3a8c:	68 94       	set
    3a8e:	dd 24       	eor	r13, r13
    3a90:	d2 f8       	bld	r13, 2
	
	//loop until the data is over
	for(Int16U loop = 0U; loop < nbDataAvailable ; loop++)
	{
		//get the datum
		volatile Int8U datum = DrvUartReadData(uartUsing);
    3a92:	80 91 f9 0c 	lds	r24, 0x0CF9	; 0x800cf9 <uartUsing>
    3a96:	0e 94 8c 10 	call	0x2118	; 0x2118 <DrvUartReadData>
    3a9a:	89 83       	std	Y+1, r24	; 0x01
		#ifdef HC_05_MODE_AT
			inMessage.data[ inMessage.size ] = datum ;
			inMessage.size++;
		//switch
		#else
		if(( datum == '>' ) && (status != COMM_PARAMS))
    3a9c:	89 81       	ldd	r24, Y+1	; 0x01
    3a9e:	8e 33       	cpi	r24, 0x3E	; 62
    3aa0:	b9 f4       	brne	.+46     	; 0x3ad0 <SrvCommUpdate+0xee>
    3aa2:	80 91 99 0d 	lds	r24, 0x0D99	; 0x800d99 <status>
    3aa6:	88 30       	cpi	r24, 0x08	; 8
    3aa8:	99 f0       	breq	.+38     	; 0x3ad0 <SrvCommUpdate+0xee>
		{
			errorMessage = COMM_ERROR_SIZE_MESSAGE;
    3aaa:	81 e0       	ldi	r24, 0x01	; 1
    3aac:	80 93 f8 0c 	sts	0x0CF8, r24	; 0x800cf8 <errorMessage>
			response[0U] = 'K';
    3ab0:	ef ef       	ldi	r30, 0xFF	; 255
    3ab2:	fc e0       	ldi	r31, 0x0C	; 12
    3ab4:	8b e4       	ldi	r24, 0x4B	; 75
    3ab6:	80 83       	st	Z, r24
			response[1U] = 'O';
    3ab8:	8f e4       	ldi	r24, 0x4F	; 79
    3aba:	81 83       	std	Z+1, r24	; 0x01
			response[2U] = errorMessage + 0x30;
    3abc:	81 e3       	ldi	r24, 0x31	; 49
    3abe:	82 83       	std	Z+2, r24	; 0x02
			SrvCommWriteMessage(3U);
    3ac0:	83 e0       	ldi	r24, 0x03	; 3
    3ac2:	0e 94 b7 14 	call	0x296e	; 0x296e <SrvCommWriteMessage>
			//new frame is coming
			status = COMM_START;
    3ac6:	10 92 99 0d 	sts	0x0D99, r1	; 0x800d99 <status>
			//reset pointer
			countData = 0U;
    3aca:	10 92 f7 0c 	sts	0x0CF7, r1	; 0x800cf7 <countData>
    3ace:	71 c1       	rjmp	.+738    	; 0x3db2 <SrvCommUpdate+0x3d0>
			return FALSE;
		}
		else
		{
			switch((Int8U) status)
    3ad0:	e0 91 99 0d 	lds	r30, 0x0D99	; 0x800d99 <status>
    3ad4:	8e 2f       	mov	r24, r30
    3ad6:	90 e0       	ldi	r25, 0x00	; 0
    3ad8:	89 30       	cpi	r24, 0x09	; 9
    3ada:	91 05       	cpc	r25, r1
    3adc:	08 f0       	brcs	.+2      	; 0x3ae0 <SrvCommUpdate+0xfe>
    3ade:	5f c1       	rjmp	.+702    	; 0x3d9e <SrvCommUpdate+0x3bc>
    3ae0:	fc 01       	movw	r30, r24
    3ae2:	ea 5b       	subi	r30, 0xBA	; 186
    3ae4:	ff 4f       	sbci	r31, 0xFF	; 255
    3ae6:	0c 94 80 25 	jmp	0x4b00	; 0x4b00 <__tablejump2__>
			{
				case COMM_START:
					//wait for start and end
					if( datum == '<' )
    3aea:	89 81       	ldd	r24, Y+1	; 0x01
    3aec:	8c 33       	cpi	r24, 0x3C	; 60
    3aee:	09 f0       	breq	.+2      	; 0x3af2 <SrvCommUpdate+0x110>
    3af0:	56 c1       	rjmp	.+684    	; 0x3d9e <SrvCommUpdate+0x3bc>
					{
						//new frame is coming
						status = COMM_HEADER;
    3af2:	81 e0       	ldi	r24, 0x01	; 1
    3af4:	80 93 99 0d 	sts	0x0D99, r24	; 0x800d99 <status>
						//reset pointer
						countData = 0U;
    3af8:	80 92 f7 0c 	sts	0x0CF7, r8	; 0x800cf7 <countData>
    3afc:	50 c1       	rjmp	.+672    	; 0x3d9e <SrvCommUpdate+0x3bc>
					}
				break;
				case COMM_HEADER:
					//get header
					inMessage.header = asciiHexToInt(datum) ;
    3afe:	e9 81       	ldd	r30, Y+1	; 0x01


static inline uint8_t asciiHexToInt(char ch)
{
	uint8_t num=0;
	if(ch>='0' && ch<='9')
    3b00:	80 ed       	ldi	r24, 0xD0	; 208
    3b02:	8e 0f       	add	r24, r30
    3b04:	8a 30       	cpi	r24, 0x0A	; 10
    3b06:	c0 f0       	brcs	.+48     	; 0x3b38 <SrvCommUpdate+0x156>
	{
		num=ch-0x30;
	}
	else
	{
		switch(ch)
    3b08:	8e 2f       	mov	r24, r30
    3b0a:	90 e0       	ldi	r25, 0x00	; 0
    3b0c:	fc 01       	movw	r30, r24
    3b0e:	e1 54       	subi	r30, 0x41	; 65
    3b10:	f1 09       	sbc	r31, r1
    3b12:	e6 32       	cpi	r30, 0x26	; 38
    3b14:	f1 05       	cpc	r31, r1
    3b16:	68 f4       	brcc	.+26     	; 0x3b32 <SrvCommUpdate+0x150>
    3b18:	e1 5b       	subi	r30, 0xB1	; 177
    3b1a:	ff 4f       	sbci	r31, 0xFF	; 255
    3b1c:	f1 c7       	rjmp	.+4066   	; 0x4b00 <__tablejump2__>
		{
			case 'A': case 'a': num=10; break;
			case 'B': case 'b': num=11; break;
    3b1e:	86 2d       	mov	r24, r6
    3b20:	0b c0       	rjmp	.+22     	; 0x3b38 <SrvCommUpdate+0x156>
			case 'C': case 'c': num=12; break;
    3b22:	85 2d       	mov	r24, r5
    3b24:	09 c0       	rjmp	.+18     	; 0x3b38 <SrvCommUpdate+0x156>
			case 'D': case 'd': num=13; break;
    3b26:	84 2d       	mov	r24, r4
    3b28:	07 c0       	rjmp	.+14     	; 0x3b38 <SrvCommUpdate+0x156>
			case 'E': case 'e': num=14; break;
    3b2a:	83 2d       	mov	r24, r3
    3b2c:	05 c0       	rjmp	.+10     	; 0x3b38 <SrvCommUpdate+0x156>
			case 'F': case 'f': num=15; break;
    3b2e:	82 2d       	mov	r24, r2
    3b30:	03 c0       	rjmp	.+6      	; 0x3b38 <SrvCommUpdate+0x156>
			default: num=0;
    3b32:	88 2d       	mov	r24, r8
    3b34:	01 c0       	rjmp	.+2      	; 0x3b38 <SrvCommUpdate+0x156>
	}
	else
	{
		switch(ch)
		{
			case 'A': case 'a': num=10; break;
    3b36:	87 2d       	mov	r24, r7
    3b38:	f7 01       	movw	r30, r14
    3b3a:	80 83       	st	Z, r24
					status = COMM_CLUSTER_0;
    3b3c:	82 e0       	ldi	r24, 0x02	; 2
    3b3e:	80 93 99 0d 	sts	0x0D99, r24	; 0x800d99 <status>
    3b42:	2d c1       	rjmp	.+602    	; 0x3d9e <SrvCommUpdate+0x3bc>
				break;
				case COMM_CLUSTER_0:
					//get cluster id
					inMessage.cluster = asciiHexToInt(datum) * 16U;
    3b44:	e9 81       	ldd	r30, Y+1	; 0x01


static inline uint8_t asciiHexToInt(char ch)
{
	uint8_t num=0;
	if(ch>='0' && ch<='9')
    3b46:	80 ed       	ldi	r24, 0xD0	; 208
    3b48:	8e 0f       	add	r24, r30
    3b4a:	8a 30       	cpi	r24, 0x0A	; 10
    3b4c:	c0 f0       	brcs	.+48     	; 0x3b7e <SrvCommUpdate+0x19c>
	{
		num=ch-0x30;
	}
	else
	{
		switch(ch)
    3b4e:	8e 2f       	mov	r24, r30
    3b50:	90 e0       	ldi	r25, 0x00	; 0
    3b52:	fc 01       	movw	r30, r24
    3b54:	e1 54       	subi	r30, 0x41	; 65
    3b56:	f1 09       	sbc	r31, r1
    3b58:	e6 32       	cpi	r30, 0x26	; 38
    3b5a:	f1 05       	cpc	r31, r1
    3b5c:	68 f4       	brcc	.+26     	; 0x3b78 <SrvCommUpdate+0x196>
    3b5e:	eb 58       	subi	r30, 0x8B	; 139
    3b60:	ff 4f       	sbci	r31, 0xFF	; 255
    3b62:	ce c7       	rjmp	.+3996   	; 0x4b00 <__tablejump2__>
		{
			case 'A': case 'a': num=10; break;
			case 'B': case 'b': num=11; break;
    3b64:	86 2d       	mov	r24, r6
    3b66:	0b c0       	rjmp	.+22     	; 0x3b7e <SrvCommUpdate+0x19c>
			case 'C': case 'c': num=12; break;
    3b68:	85 2d       	mov	r24, r5
    3b6a:	09 c0       	rjmp	.+18     	; 0x3b7e <SrvCommUpdate+0x19c>
			case 'D': case 'd': num=13; break;
    3b6c:	84 2d       	mov	r24, r4
    3b6e:	07 c0       	rjmp	.+14     	; 0x3b7e <SrvCommUpdate+0x19c>
			case 'E': case 'e': num=14; break;
    3b70:	83 2d       	mov	r24, r3
    3b72:	05 c0       	rjmp	.+10     	; 0x3b7e <SrvCommUpdate+0x19c>
			case 'F': case 'f': num=15; break;
    3b74:	82 2d       	mov	r24, r2
    3b76:	03 c0       	rjmp	.+6      	; 0x3b7e <SrvCommUpdate+0x19c>
			default: num=0;
    3b78:	88 2d       	mov	r24, r8
    3b7a:	01 c0       	rjmp	.+2      	; 0x3b7e <SrvCommUpdate+0x19c>
	}
	else
	{
		switch(ch)
		{
			case 'A': case 'a': num=10; break;
    3b7c:	87 2d       	mov	r24, r7
    3b7e:	82 95       	swap	r24
    3b80:	80 7f       	andi	r24, 0xF0	; 240
    3b82:	f7 01       	movw	r30, r14
    3b84:	81 83       	std	Z+1, r24	; 0x01
					status = COMM_CLUSTER_1;
    3b86:	83 e0       	ldi	r24, 0x03	; 3
    3b88:	80 93 99 0d 	sts	0x0D99, r24	; 0x800d99 <status>
    3b8c:	08 c1       	rjmp	.+528    	; 0x3d9e <SrvCommUpdate+0x3bc>
				break;
				case COMM_CLUSTER_1:
					//get cluster id
					inMessage.cluster += asciiHexToInt(datum) ;
    3b8e:	e9 81       	ldd	r30, Y+1	; 0x01


static inline uint8_t asciiHexToInt(char ch)
{
	uint8_t num=0;
	if(ch>='0' && ch<='9')
    3b90:	80 ed       	ldi	r24, 0xD0	; 208
    3b92:	8e 0f       	add	r24, r30
    3b94:	8a 30       	cpi	r24, 0x0A	; 10
    3b96:	c0 f0       	brcs	.+48     	; 0x3bc8 <SrvCommUpdate+0x1e6>
	{
		num=ch-0x30;
	}
	else
	{
		switch(ch)
    3b98:	8e 2f       	mov	r24, r30
    3b9a:	90 e0       	ldi	r25, 0x00	; 0
    3b9c:	fc 01       	movw	r30, r24
    3b9e:	e1 54       	subi	r30, 0x41	; 65
    3ba0:	f1 09       	sbc	r31, r1
    3ba2:	e6 32       	cpi	r30, 0x26	; 38
    3ba4:	f1 05       	cpc	r31, r1
    3ba6:	68 f4       	brcc	.+26     	; 0x3bc2 <SrvCommUpdate+0x1e0>
    3ba8:	e5 56       	subi	r30, 0x65	; 101
    3baa:	ff 4f       	sbci	r31, 0xFF	; 255
    3bac:	a9 c7       	rjmp	.+3922   	; 0x4b00 <__tablejump2__>
		{
			case 'A': case 'a': num=10; break;
			case 'B': case 'b': num=11; break;
    3bae:	86 2d       	mov	r24, r6
    3bb0:	0b c0       	rjmp	.+22     	; 0x3bc8 <SrvCommUpdate+0x1e6>
			case 'C': case 'c': num=12; break;
    3bb2:	85 2d       	mov	r24, r5
    3bb4:	09 c0       	rjmp	.+18     	; 0x3bc8 <SrvCommUpdate+0x1e6>
			case 'D': case 'd': num=13; break;
    3bb6:	84 2d       	mov	r24, r4
    3bb8:	07 c0       	rjmp	.+14     	; 0x3bc8 <SrvCommUpdate+0x1e6>
			case 'E': case 'e': num=14; break;
    3bba:	83 2d       	mov	r24, r3
    3bbc:	05 c0       	rjmp	.+10     	; 0x3bc8 <SrvCommUpdate+0x1e6>
			case 'F': case 'f': num=15; break;
    3bbe:	82 2d       	mov	r24, r2
    3bc0:	03 c0       	rjmp	.+6      	; 0x3bc8 <SrvCommUpdate+0x1e6>
			default: num=0;
    3bc2:	88 2d       	mov	r24, r8
    3bc4:	01 c0       	rjmp	.+2      	; 0x3bc8 <SrvCommUpdate+0x1e6>
	}
	else
	{
		switch(ch)
		{
			case 'A': case 'a': num=10; break;
    3bc6:	87 2d       	mov	r24, r7
    3bc8:	f7 01       	movw	r30, r14
    3bca:	91 81       	ldd	r25, Z+1	; 0x01
    3bcc:	89 0f       	add	r24, r25
    3bce:	81 83       	std	Z+1, r24	; 0x01
					status = COMM_COMMAND_0;
    3bd0:	d0 92 99 0d 	sts	0x0D99, r13	; 0x800d99 <status>
    3bd4:	e4 c0       	rjmp	.+456    	; 0x3d9e <SrvCommUpdate+0x3bc>
				break;
			
				case COMM_COMMAND_0:
					//get command id
					inMessage.command = asciiHexToInt(datum) * 16U;
    3bd6:	e9 81       	ldd	r30, Y+1	; 0x01


static inline uint8_t asciiHexToInt(char ch)
{
	uint8_t num=0;
	if(ch>='0' && ch<='9')
    3bd8:	80 ed       	ldi	r24, 0xD0	; 208
    3bda:	8e 0f       	add	r24, r30
    3bdc:	8a 30       	cpi	r24, 0x0A	; 10
    3bde:	c0 f0       	brcs	.+48     	; 0x3c10 <SrvCommUpdate+0x22e>
	{
		num=ch-0x30;
	}
	else
	{
		switch(ch)
    3be0:	8e 2f       	mov	r24, r30
    3be2:	90 e0       	ldi	r25, 0x00	; 0
    3be4:	fc 01       	movw	r30, r24
    3be6:	e1 54       	subi	r30, 0x41	; 65
    3be8:	f1 09       	sbc	r31, r1
    3bea:	e6 32       	cpi	r30, 0x26	; 38
    3bec:	f1 05       	cpc	r31, r1
    3bee:	68 f4       	brcc	.+26     	; 0x3c0a <SrvCommUpdate+0x228>
    3bf0:	ef 53       	subi	r30, 0x3F	; 63
    3bf2:	ff 4f       	sbci	r31, 0xFF	; 255
    3bf4:	85 c7       	rjmp	.+3850   	; 0x4b00 <__tablejump2__>
		{
			case 'A': case 'a': num=10; break;
			case 'B': case 'b': num=11; break;
    3bf6:	86 2d       	mov	r24, r6
    3bf8:	0b c0       	rjmp	.+22     	; 0x3c10 <SrvCommUpdate+0x22e>
			case 'C': case 'c': num=12; break;
    3bfa:	85 2d       	mov	r24, r5
    3bfc:	09 c0       	rjmp	.+18     	; 0x3c10 <SrvCommUpdate+0x22e>
			case 'D': case 'd': num=13; break;
    3bfe:	84 2d       	mov	r24, r4
    3c00:	07 c0       	rjmp	.+14     	; 0x3c10 <SrvCommUpdate+0x22e>
			case 'E': case 'e': num=14; break;
    3c02:	83 2d       	mov	r24, r3
    3c04:	05 c0       	rjmp	.+10     	; 0x3c10 <SrvCommUpdate+0x22e>
			case 'F': case 'f': num=15; break;
    3c06:	82 2d       	mov	r24, r2
    3c08:	03 c0       	rjmp	.+6      	; 0x3c10 <SrvCommUpdate+0x22e>
			default: num=0;
    3c0a:	88 2d       	mov	r24, r8
    3c0c:	01 c0       	rjmp	.+2      	; 0x3c10 <SrvCommUpdate+0x22e>
	}
	else
	{
		switch(ch)
		{
			case 'A': case 'a': num=10; break;
    3c0e:	87 2d       	mov	r24, r7
    3c10:	82 95       	swap	r24
    3c12:	80 7f       	andi	r24, 0xF0	; 240
    3c14:	f7 01       	movw	r30, r14
    3c16:	82 83       	std	Z+2, r24	; 0x02
					status = COMM_COMMAND_1;
    3c18:	c0 92 99 0d 	sts	0x0D99, r12	; 0x800d99 <status>
    3c1c:	c0 c0       	rjmp	.+384    	; 0x3d9e <SrvCommUpdate+0x3bc>
				break;
				case COMM_COMMAND_1:
					//get command id
					inMessage.command += asciiHexToInt(datum) ;
    3c1e:	e9 81       	ldd	r30, Y+1	; 0x01


static inline uint8_t asciiHexToInt(char ch)
{
	uint8_t num=0;
	if(ch>='0' && ch<='9')
    3c20:	80 ed       	ldi	r24, 0xD0	; 208
    3c22:	8e 0f       	add	r24, r30
    3c24:	8a 30       	cpi	r24, 0x0A	; 10
    3c26:	c0 f0       	brcs	.+48     	; 0x3c58 <SrvCommUpdate+0x276>
	{
		num=ch-0x30;
	}
	else
	{
		switch(ch)
    3c28:	8e 2f       	mov	r24, r30
    3c2a:	90 e0       	ldi	r25, 0x00	; 0
    3c2c:	fc 01       	movw	r30, r24
    3c2e:	e1 54       	subi	r30, 0x41	; 65
    3c30:	f1 09       	sbc	r31, r1
    3c32:	e6 32       	cpi	r30, 0x26	; 38
    3c34:	f1 05       	cpc	r31, r1
    3c36:	68 f4       	brcc	.+26     	; 0x3c52 <SrvCommUpdate+0x270>
    3c38:	e9 51       	subi	r30, 0x19	; 25
    3c3a:	ff 4f       	sbci	r31, 0xFF	; 255
    3c3c:	61 c7       	rjmp	.+3778   	; 0x4b00 <__tablejump2__>
		{
			case 'A': case 'a': num=10; break;
			case 'B': case 'b': num=11; break;
    3c3e:	86 2d       	mov	r24, r6
    3c40:	0b c0       	rjmp	.+22     	; 0x3c58 <SrvCommUpdate+0x276>
			case 'C': case 'c': num=12; break;
    3c42:	85 2d       	mov	r24, r5
    3c44:	09 c0       	rjmp	.+18     	; 0x3c58 <SrvCommUpdate+0x276>
			case 'D': case 'd': num=13; break;
    3c46:	84 2d       	mov	r24, r4
    3c48:	07 c0       	rjmp	.+14     	; 0x3c58 <SrvCommUpdate+0x276>
			case 'E': case 'e': num=14; break;
    3c4a:	83 2d       	mov	r24, r3
    3c4c:	05 c0       	rjmp	.+10     	; 0x3c58 <SrvCommUpdate+0x276>
			case 'F': case 'f': num=15; break;
    3c4e:	82 2d       	mov	r24, r2
    3c50:	03 c0       	rjmp	.+6      	; 0x3c58 <SrvCommUpdate+0x276>
			default: num=0;
    3c52:	88 2d       	mov	r24, r8
    3c54:	01 c0       	rjmp	.+2      	; 0x3c58 <SrvCommUpdate+0x276>
	}
	else
	{
		switch(ch)
		{
			case 'A': case 'a': num=10; break;
    3c56:	87 2d       	mov	r24, r7
    3c58:	f7 01       	movw	r30, r14
    3c5a:	92 81       	ldd	r25, Z+2	; 0x02
    3c5c:	89 0f       	add	r24, r25
    3c5e:	82 83       	std	Z+2, r24	; 0x02
					status = COMM_SIZE_0;
    3c60:	b0 92 99 0d 	sts	0x0D99, r11	; 0x800d99 <status>
    3c64:	9c c0       	rjmp	.+312    	; 0x3d9e <SrvCommUpdate+0x3bc>
				break;
			
				case COMM_SIZE_0:
					//get size
					inMessage.size = asciiHexToInt(datum) * 16U;
    3c66:	e9 81       	ldd	r30, Y+1	; 0x01


static inline uint8_t asciiHexToInt(char ch)
{
	uint8_t num=0;
	if(ch>='0' && ch<='9')
    3c68:	80 ed       	ldi	r24, 0xD0	; 208
    3c6a:	8e 0f       	add	r24, r30
    3c6c:	8a 30       	cpi	r24, 0x0A	; 10
    3c6e:	c0 f0       	brcs	.+48     	; 0x3ca0 <SrvCommUpdate+0x2be>
	{
		num=ch-0x30;
	}
	else
	{
		switch(ch)
    3c70:	8e 2f       	mov	r24, r30
    3c72:	90 e0       	ldi	r25, 0x00	; 0
    3c74:	fc 01       	movw	r30, r24
    3c76:	e1 54       	subi	r30, 0x41	; 65
    3c78:	f1 09       	sbc	r31, r1
    3c7a:	e6 32       	cpi	r30, 0x26	; 38
    3c7c:	f1 05       	cpc	r31, r1
    3c7e:	68 f4       	brcc	.+26     	; 0x3c9a <SrvCommUpdate+0x2b8>
    3c80:	e3 5f       	subi	r30, 0xF3	; 243
    3c82:	fe 4f       	sbci	r31, 0xFE	; 254
    3c84:	3d c7       	rjmp	.+3706   	; 0x4b00 <__tablejump2__>
		{
			case 'A': case 'a': num=10; break;
			case 'B': case 'b': num=11; break;
    3c86:	86 2d       	mov	r24, r6
    3c88:	0b c0       	rjmp	.+22     	; 0x3ca0 <SrvCommUpdate+0x2be>
			case 'C': case 'c': num=12; break;
    3c8a:	85 2d       	mov	r24, r5
    3c8c:	09 c0       	rjmp	.+18     	; 0x3ca0 <SrvCommUpdate+0x2be>
			case 'D': case 'd': num=13; break;
    3c8e:	84 2d       	mov	r24, r4
    3c90:	07 c0       	rjmp	.+14     	; 0x3ca0 <SrvCommUpdate+0x2be>
			case 'E': case 'e': num=14; break;
    3c92:	83 2d       	mov	r24, r3
    3c94:	05 c0       	rjmp	.+10     	; 0x3ca0 <SrvCommUpdate+0x2be>
			case 'F': case 'f': num=15; break;
    3c96:	82 2d       	mov	r24, r2
    3c98:	03 c0       	rjmp	.+6      	; 0x3ca0 <SrvCommUpdate+0x2be>
			default: num=0;
    3c9a:	88 2d       	mov	r24, r8
    3c9c:	01 c0       	rjmp	.+2      	; 0x3ca0 <SrvCommUpdate+0x2be>
	}
	else
	{
		switch(ch)
		{
			case 'A': case 'a': num=10; break;
    3c9e:	87 2d       	mov	r24, r7
    3ca0:	82 95       	swap	r24
    3ca2:	80 7f       	andi	r24, 0xF0	; 240
    3ca4:	f7 01       	movw	r30, r14
    3ca6:	83 83       	std	Z+3, r24	; 0x03
					status = COMM_SIZE_1;
    3ca8:	a0 92 99 0d 	sts	0x0D99, r10	; 0x800d99 <status>
    3cac:	78 c0       	rjmp	.+240    	; 0x3d9e <SrvCommUpdate+0x3bc>
				break;
				case COMM_SIZE_1:
					//get size
					inMessage.size += asciiHexToInt(datum) ;
    3cae:	e9 81       	ldd	r30, Y+1	; 0x01


static inline uint8_t asciiHexToInt(char ch)
{
	uint8_t num=0;
	if(ch>='0' && ch<='9')
    3cb0:	80 ed       	ldi	r24, 0xD0	; 208
    3cb2:	8e 0f       	add	r24, r30
    3cb4:	8a 30       	cpi	r24, 0x0A	; 10
    3cb6:	c0 f0       	brcs	.+48     	; 0x3ce8 <SrvCommUpdate+0x306>
	{
		num=ch-0x30;
	}
	else
	{
		switch(ch)
    3cb8:	8e 2f       	mov	r24, r30
    3cba:	90 e0       	ldi	r25, 0x00	; 0
    3cbc:	fc 01       	movw	r30, r24
    3cbe:	e1 54       	subi	r30, 0x41	; 65
    3cc0:	f1 09       	sbc	r31, r1
    3cc2:	e6 32       	cpi	r30, 0x26	; 38
    3cc4:	f1 05       	cpc	r31, r1
    3cc6:	68 f4       	brcc	.+26     	; 0x3ce2 <SrvCommUpdate+0x300>
    3cc8:	ed 5c       	subi	r30, 0xCD	; 205
    3cca:	fe 4f       	sbci	r31, 0xFE	; 254
    3ccc:	19 c7       	rjmp	.+3634   	; 0x4b00 <__tablejump2__>
		{
			case 'A': case 'a': num=10; break;
			case 'B': case 'b': num=11; break;
    3cce:	86 2d       	mov	r24, r6
    3cd0:	0b c0       	rjmp	.+22     	; 0x3ce8 <SrvCommUpdate+0x306>
			case 'C': case 'c': num=12; break;
    3cd2:	85 2d       	mov	r24, r5
    3cd4:	09 c0       	rjmp	.+18     	; 0x3ce8 <SrvCommUpdate+0x306>
			case 'D': case 'd': num=13; break;
    3cd6:	84 2d       	mov	r24, r4
    3cd8:	07 c0       	rjmp	.+14     	; 0x3ce8 <SrvCommUpdate+0x306>
			case 'E': case 'e': num=14; break;
    3cda:	83 2d       	mov	r24, r3
    3cdc:	05 c0       	rjmp	.+10     	; 0x3ce8 <SrvCommUpdate+0x306>
			case 'F': case 'f': num=15; break;
    3cde:	82 2d       	mov	r24, r2
    3ce0:	03 c0       	rjmp	.+6      	; 0x3ce8 <SrvCommUpdate+0x306>
			default: num=0;
    3ce2:	88 2d       	mov	r24, r8
    3ce4:	01 c0       	rjmp	.+2      	; 0x3ce8 <SrvCommUpdate+0x306>
	}
	else
	{
		switch(ch)
		{
			case 'A': case 'a': num=10; break;
    3ce6:	87 2d       	mov	r24, r7
    3ce8:	f7 01       	movw	r30, r14
    3cea:	93 81       	ldd	r25, Z+3	; 0x03
    3cec:	89 0f       	add	r24, r25
    3cee:	83 83       	std	Z+3, r24	; 0x03
					status = COMM_PARAMS;
    3cf0:	90 92 99 0d 	sts	0x0D99, r9	; 0x800d99 <status>
    3cf4:	54 c0       	rjmp	.+168    	; 0x3d9e <SrvCommUpdate+0x3bc>
				break;
			
				case COMM_PARAMS:
					//if end of frame
					if( datum == '>' )
    3cf6:	89 81       	ldd	r24, Y+1	; 0x01
    3cf8:	8e 33       	cpi	r24, 0x3E	; 62
    3cfa:	49 f5       	brne	.+82     	; 0x3d4e <SrvCommUpdate+0x36c>
					{
						//in all case return to wait a start
						status = COMM_START;
    3cfc:	10 92 99 0d 	sts	0x0D99, r1	; 0x800d99 <status>
						//check frame integrity
						if(countData == inMessage.size)
    3d00:	90 91 66 0d 	lds	r25, 0x0D66	; 0x800d66 <inMessage+0x3>
    3d04:	80 91 f7 0c 	lds	r24, 0x0CF7	; 0x800cf7 <countData>
    3d08:	98 13       	cpse	r25, r24
    3d0a:	0e c0       	rjmp	.+28     	; 0x3d28 <SrvCommUpdate+0x346>
						{
							//execute incoming message
							if(SrvCommExecuteMessage())
    3d0c:	0e 94 f7 14 	call	0x29ee	; 0x29ee <SrvCommExecuteMessage>
    3d10:	88 23       	and	r24, r24
    3d12:	79 f0       	breq	.+30     	; 0x3d32 <SrvCommUpdate+0x350>
							{
								response[0U] = 'O';
    3d14:	ef ef       	ldi	r30, 0xFF	; 255
    3d16:	fc e0       	ldi	r31, 0x0C	; 12
    3d18:	8f e4       	ldi	r24, 0x4F	; 79
    3d1a:	80 83       	st	Z, r24
								response[1U] = 'K';
    3d1c:	8b e4       	ldi	r24, 0x4B	; 75
    3d1e:	81 83       	std	Z+1, r24	; 0x01
								SrvCommWriteMessage(2U);
    3d20:	82 e0       	ldi	r24, 0x02	; 2
    3d22:	0e 94 b7 14 	call	0x296e	; 0x296e <SrvCommWriteMessage>
    3d26:	45 c0       	rjmp	.+138    	; 0x3db2 <SrvCommUpdate+0x3d0>
								return TRUE;
							}
						}
						else
						{
							errorMessage = COMM_ERROR_SIZE_MESSAGE;
    3d28:	81 e0       	ldi	r24, 0x01	; 1
    3d2a:	80 93 f8 0c 	sts	0x0CF8, r24	; 0x800cf8 <errorMessage>
							countData = 0U;
    3d2e:	10 92 f7 0c 	sts	0x0CF7, r1	; 0x800cf7 <countData>
						}
						response[0U] = 'K';
    3d32:	ef ef       	ldi	r30, 0xFF	; 255
    3d34:	fc e0       	ldi	r31, 0x0C	; 12
    3d36:	8b e4       	ldi	r24, 0x4B	; 75
    3d38:	80 83       	st	Z, r24
						response[1U] = 'O';
    3d3a:	8f e4       	ldi	r24, 0x4F	; 79
    3d3c:	81 83       	std	Z+1, r24	; 0x01
						response[2U] = errorMessage + 0x30;
    3d3e:	80 91 f8 0c 	lds	r24, 0x0CF8	; 0x800cf8 <errorMessage>
    3d42:	80 5d       	subi	r24, 0xD0	; 208
    3d44:	82 83       	std	Z+2, r24	; 0x02
						SrvCommWriteMessage(3U);
    3d46:	83 e0       	ldi	r24, 0x03	; 3
    3d48:	0e 94 b7 14 	call	0x296e	; 0x296e <SrvCommWriteMessage>
    3d4c:	32 c0       	rjmp	.+100    	; 0x3db2 <SrvCommUpdate+0x3d0>
						return FALSE;
					}
					else
					{
						//fill buffer
						inMessage.data[ countData ] = asciiHexToInt(datum) ;
    3d4e:	40 91 f7 0c 	lds	r20, 0x0CF7	; 0x800cf7 <countData>
    3d52:	24 2f       	mov	r18, r20
    3d54:	30 e0       	ldi	r19, 0x00	; 0
    3d56:	e9 81       	ldd	r30, Y+1	; 0x01


static inline uint8_t asciiHexToInt(char ch)
{
	uint8_t num=0;
	if(ch>='0' && ch<='9')
    3d58:	80 ed       	ldi	r24, 0xD0	; 208
    3d5a:	8e 0f       	add	r24, r30
    3d5c:	8a 30       	cpi	r24, 0x0A	; 10
    3d5e:	c0 f0       	brcs	.+48     	; 0x3d90 <SrvCommUpdate+0x3ae>
	{
		num=ch-0x30;
	}
	else
	{
		switch(ch)
    3d60:	8e 2f       	mov	r24, r30
    3d62:	90 e0       	ldi	r25, 0x00	; 0
    3d64:	fc 01       	movw	r30, r24
    3d66:	e1 54       	subi	r30, 0x41	; 65
    3d68:	f1 09       	sbc	r31, r1
    3d6a:	e6 32       	cpi	r30, 0x26	; 38
    3d6c:	f1 05       	cpc	r31, r1
    3d6e:	68 f4       	brcc	.+26     	; 0x3d8a <SrvCommUpdate+0x3a8>
    3d70:	e7 5a       	subi	r30, 0xA7	; 167
    3d72:	fe 4f       	sbci	r31, 0xFE	; 254
    3d74:	c5 c6       	rjmp	.+3466   	; 0x4b00 <__tablejump2__>
		{
			case 'A': case 'a': num=10; break;
			case 'B': case 'b': num=11; break;
    3d76:	86 2d       	mov	r24, r6
    3d78:	0b c0       	rjmp	.+22     	; 0x3d90 <SrvCommUpdate+0x3ae>
			case 'C': case 'c': num=12; break;
    3d7a:	85 2d       	mov	r24, r5
    3d7c:	09 c0       	rjmp	.+18     	; 0x3d90 <SrvCommUpdate+0x3ae>
			case 'D': case 'd': num=13; break;
    3d7e:	84 2d       	mov	r24, r4
    3d80:	07 c0       	rjmp	.+14     	; 0x3d90 <SrvCommUpdate+0x3ae>
			case 'E': case 'e': num=14; break;
    3d82:	83 2d       	mov	r24, r3
    3d84:	05 c0       	rjmp	.+10     	; 0x3d90 <SrvCommUpdate+0x3ae>
			case 'F': case 'f': num=15; break;
    3d86:	82 2d       	mov	r24, r2
    3d88:	03 c0       	rjmp	.+6      	; 0x3d90 <SrvCommUpdate+0x3ae>
			default: num=0;
    3d8a:	88 2d       	mov	r24, r8
    3d8c:	01 c0       	rjmp	.+2      	; 0x3d90 <SrvCommUpdate+0x3ae>
	}
	else
	{
		switch(ch)
		{
			case 'A': case 'a': num=10; break;
    3d8e:	87 2d       	mov	r24, r7
    3d90:	f9 01       	movw	r30, r18
    3d92:	ed 59       	subi	r30, 0x9D	; 157
    3d94:	f2 4f       	sbci	r31, 0xF2	; 242
    3d96:	84 83       	std	Z+4, r24	; 0x04
						countData++;
    3d98:	4f 5f       	subi	r20, 0xFF	; 255
    3d9a:	40 93 f7 0c 	sts	0x0CF7, r20	; 0x800cf7 <countData>
static Boolean SrvCommDecodeMessage( void )
{
	nbDataAvailable = DrvUartDataAvailable(uartUsing);
	
	//loop until the data is over
	for(Int16U loop = 0U; loop < nbDataAvailable ; loop++)
    3d9e:	0f 5f       	subi	r16, 0xFF	; 255
    3da0:	1f 4f       	sbci	r17, 0xFF	; 255
    3da2:	80 91 9a 0d 	lds	r24, 0x0D9A	; 0x800d9a <nbDataAvailable>
    3da6:	90 91 9b 0d 	lds	r25, 0x0D9B	; 0x800d9b <nbDataAvailable+0x1>
    3daa:	08 17       	cp	r16, r24
    3dac:	19 07       	cpc	r17, r25
    3dae:	08 f4       	brcc	.+2      	; 0x3db2 <SrvCommUpdate+0x3d0>
    3db0:	70 ce       	rjmp	.-800    	; 0x3a92 <SrvCommUpdate+0xb0>
void SrvCommUpdate ( void ) 
{
	SrvCommDecodeMessage();
	
	//if allows periodic and not reading frame
	if((sendPeriodic == TRUE) && (status == COMM_START))
    3db2:	80 91 fa 0c 	lds	r24, 0x0CFA	; 0x800cfa <sendPeriodic>
    3db6:	81 30       	cpi	r24, 0x01	; 1
    3db8:	09 f0       	breq	.+2      	; 0x3dbc <SrvCommUpdate+0x3da>
    3dba:	3f c0       	rjmp	.+126    	; 0x3e3a <SrvCommUpdate+0x458>
    3dbc:	80 91 99 0d 	lds	r24, 0x0D99	; 0x800d99 <status>
    3dc0:	81 11       	cpse	r24, r1
    3dc2:	3b c0       	rjmp	.+118    	; 0x3e3a <SrvCommUpdate+0x458>
	{
		if ((DrvTickGetTimeMs() - prevMillisSendPeriodic) > 250U)
    3dc4:	0e 94 d8 0d 	call	0x1bb0	; 0x1bb0 <DrvTickGetTimeMs>
    3dc8:	00 91 fb 0c 	lds	r16, 0x0CFB	; 0x800cfb <prevMillisSendPeriodic>
    3dcc:	10 91 fc 0c 	lds	r17, 0x0CFC	; 0x800cfc <prevMillisSendPeriodic+0x1>
    3dd0:	20 91 fd 0c 	lds	r18, 0x0CFD	; 0x800cfd <prevMillisSendPeriodic+0x2>
    3dd4:	30 91 fe 0c 	lds	r19, 0x0CFE	; 0x800cfe <prevMillisSendPeriodic+0x3>
    3dd8:	dc 01       	movw	r26, r24
    3dda:	cb 01       	movw	r24, r22
    3ddc:	80 1b       	sub	r24, r16
    3dde:	91 0b       	sbc	r25, r17
    3de0:	a2 0b       	sbc	r26, r18
    3de2:	b3 0b       	sbc	r27, r19
    3de4:	8b 3f       	cpi	r24, 0xFB	; 251
    3de6:	91 05       	cpc	r25, r1
    3de8:	a1 05       	cpc	r26, r1
    3dea:	b1 05       	cpc	r27, r1
    3dec:	30 f1       	brcs	.+76     	; 0x3e3a <SrvCommUpdate+0x458>
		{
			inMessage.cluster = COMM_CLUSTER_SERVOS;
    3dee:	03 e6       	ldi	r16, 0x63	; 99
    3df0:	1d e0       	ldi	r17, 0x0D	; 13
    3df2:	84 e0       	ldi	r24, 0x04	; 4
    3df4:	f8 01       	movw	r30, r16
    3df6:	81 83       	std	Z+1, r24	; 0x01
			inMessage.command = COMM_CLUSTER_SERVOS_COMMAND_SERVO_READ_ALL;
    3df8:	88 e0       	ldi	r24, 0x08	; 8
    3dfa:	82 83       	std	Z+2, r24	; 0x02
			inMessage.size = 0U;
    3dfc:	13 82       	std	Z+3, r1	; 0x03
			SrvCommExecuteMessage();
    3dfe:	0e 94 f7 14 	call	0x29ee	; 0x29ee <SrvCommExecuteMessage>
			inMessage.cluster = COMM_CLUSTER_DETECTION;
    3e02:	0f 2e       	mov	r0, r31
    3e04:	f3 e0       	ldi	r31, 0x03	; 3
    3e06:	ff 2e       	mov	r15, r31
    3e08:	f0 2d       	mov	r31, r0
    3e0a:	f8 01       	movw	r30, r16
    3e0c:	f1 82       	std	Z+1, r15	; 0x01
			inMessage.command = COMM_CLUSTER_DETECTION_ULTRASON_COMMAND_GET_DISTANCE;
    3e0e:	82 e0       	ldi	r24, 0x02	; 2
    3e10:	82 83       	std	Z+2, r24	; 0x02
			inMessage.size = 0U;
    3e12:	13 82       	std	Z+3, r1	; 0x03
			SrvCommExecuteMessage();
    3e14:	0e 94 f7 14 	call	0x29ee	; 0x29ee <SrvCommExecuteMessage>
			inMessage.cluster = COMM_CLUSTER_DETECTION;
    3e18:	f8 01       	movw	r30, r16
    3e1a:	f1 82       	std	Z+1, r15	; 0x01
			inMessage.command = COMM_CLUSTER_DETECTION_LAZER_COMMAND_GET_DISTANCE;
    3e1c:	85 e0       	ldi	r24, 0x05	; 5
    3e1e:	82 83       	std	Z+2, r24	; 0x02
			inMessage.size = 0U;
    3e20:	13 82       	std	Z+3, r1	; 0x03
			SrvCommExecuteMessage();
    3e22:	0e 94 f7 14 	call	0x29ee	; 0x29ee <SrvCommExecuteMessage>
			//for next time
			prevMillisSendPeriodic = DrvTickGetTimeMs();
    3e26:	0e 94 d8 0d 	call	0x1bb0	; 0x1bb0 <DrvTickGetTimeMs>
    3e2a:	60 93 fb 0c 	sts	0x0CFB, r22	; 0x800cfb <prevMillisSendPeriodic>
    3e2e:	70 93 fc 0c 	sts	0x0CFC, r23	; 0x800cfc <prevMillisSendPeriodic+0x1>
    3e32:	80 93 fd 0c 	sts	0x0CFD, r24	; 0x800cfd <prevMillisSendPeriodic+0x2>
    3e36:	90 93 fe 0c 	sts	0x0CFE, r25	; 0x800cfe <prevMillisSendPeriodic+0x3>
	
	
	#ifdef HC_05_MODE_AT
		SrvCommExecuteMessageHC05();
	#endif
}
    3e3a:	0f 90       	pop	r0
    3e3c:	df 91       	pop	r29
    3e3e:	cf 91       	pop	r28
    3e40:	1f 91       	pop	r17
    3e42:	0f 91       	pop	r16
    3e44:	ff 90       	pop	r15
    3e46:	ef 90       	pop	r14
    3e48:	df 90       	pop	r13
    3e4a:	cf 90       	pop	r12
    3e4c:	bf 90       	pop	r11
    3e4e:	af 90       	pop	r10
    3e50:	9f 90       	pop	r9
    3e52:	8f 90       	pop	r8
    3e54:	7f 90       	pop	r7
    3e56:	6f 90       	pop	r6
    3e58:	5f 90       	pop	r5
    3e5a:	4f 90       	pop	r4
    3e5c:	3f 90       	pop	r3
    3e5e:	2f 90       	pop	r2
    3e60:	08 95       	ret

00003e62 <SrvCoreInit>:



//Fonction d'initialisation
Boolean SrvCoreInit ( void ) 
{
    3e62:	4f 92       	push	r4
    3e64:	5f 92       	push	r5
    3e66:	6f 92       	push	r6
    3e68:	7f 92       	push	r7
    3e6a:	8f 92       	push	r8
    3e6c:	9f 92       	push	r9
    3e6e:	af 92       	push	r10
    3e70:	bf 92       	push	r11
    3e72:	cf 92       	push	r12
    3e74:	df 92       	push	r13
    3e76:	ef 92       	push	r14
    3e78:	ff 92       	push	r15
    3e7a:	0f 93       	push	r16
    3e7c:	1f 93       	push	r17
    3e7e:	cf 93       	push	r28
    3e80:	df 93       	push	r29
	Boolean oSuccess = TRUE;
		
	//Init Core Drivers
	for(uint8_t i = 0U ; i < core.nbDrivers ; i++)
    3e82:	80 91 0a 01 	lds	r24, 0x010A	; 0x80010a <core+0x2>
    3e86:	88 23       	and	r24, r24
    3e88:	09 f4       	brne	.+2      	; 0x3e8c <SrvCoreInit+0x2a>
    3e8a:	70 c0       	rjmp	.+224    	; 0x3f6c <SrvCoreInit+0x10a>
    3e8c:	c0 e0       	ldi	r28, 0x00	; 0
    3e8e:	d1 e0       	ldi	r29, 0x01	; 1
	{
		Int32U nowDrvCore = DrvTickGetTimeUs();
		oSuccess == TRUE ? oSuccess = core.drivers[i].init() : FALSE;
    3e90:	0f 2e       	mov	r0, r31
    3e92:	f8 e0       	ldi	r31, 0x08	; 8
    3e94:	cf 2e       	mov	r12, r31
    3e96:	f1 e0       	ldi	r31, 0x01	; 1
    3e98:	df 2e       	mov	r13, r31
    3e9a:	f0 2d       	mov	r31, r0
	Boolean oSuccess = TRUE;
		
	//Init Core Drivers
	for(uint8_t i = 0U ; i < core.nbDrivers ; i++)
	{
		Int32U nowDrvCore = DrvTickGetTimeUs();
    3e9c:	0e 94 b6 0d 	call	0x1b6c	; 0x1b6c <DrvTickGetTimeUs>
    3ea0:	4b 01       	movw	r8, r22
    3ea2:	5c 01       	movw	r10, r24
		oSuccess == TRUE ? oSuccess = core.drivers[i].init() : FALSE;
    3ea4:	d1 30       	cpi	r29, 0x01	; 1
    3ea6:	69 f4       	brne	.+26     	; 0x3ec2 <SrvCoreInit+0x60>
    3ea8:	d6 01       	movw	r26, r12
    3eaa:	ed 91       	ld	r30, X+
    3eac:	fc 91       	ld	r31, X
    3eae:	b7 e0       	ldi	r27, 0x07	; 7
    3eb0:	cb 9f       	mul	r28, r27
    3eb2:	e0 0d       	add	r30, r0
    3eb4:	f1 1d       	adc	r31, r1
    3eb6:	11 24       	eor	r1, r1
    3eb8:	01 80       	ldd	r0, Z+1	; 0x01
    3eba:	f2 81       	ldd	r31, Z+2	; 0x02
    3ebc:	e0 2d       	mov	r30, r0
    3ebe:	09 95       	icall
    3ec0:	d8 2f       	mov	r29, r24
		//get loop update time
		core.drivers[i].updateTime = DrvTickGetTimeUs() - nowDrvCore;
    3ec2:	e7 e0       	ldi	r30, 0x07	; 7
    3ec4:	ce 9f       	mul	r28, r30
    3ec6:	80 01       	movw	r16, r0
    3ec8:	11 24       	eor	r1, r1
    3eca:	d6 01       	movw	r26, r12
    3ecc:	ed 90       	ld	r14, X+
    3ece:	fc 90       	ld	r15, X
    3ed0:	e0 0e       	add	r14, r16
    3ed2:	f1 1e       	adc	r15, r17
    3ed4:	0e 94 b6 0d 	call	0x1b6c	; 0x1b6c <DrvTickGetTimeUs>
    3ed8:	dc 01       	movw	r26, r24
    3eda:	cb 01       	movw	r24, r22
    3edc:	88 19       	sub	r24, r8
    3ede:	99 09       	sbc	r25, r9
    3ee0:	aa 09       	sbc	r26, r10
    3ee2:	bb 09       	sbc	r27, r11
    3ee4:	f7 01       	movw	r30, r14
    3ee6:	83 83       	std	Z+3, r24	; 0x03
    3ee8:	94 83       	std	Z+4, r25	; 0x04
    3eea:	a5 83       	std	Z+5, r26	; 0x05
    3eec:	b6 83       	std	Z+6, r27	; 0x06
		core.drivers[i].index = i;
    3eee:	d6 01       	movw	r26, r12
    3ef0:	8d 91       	ld	r24, X+
    3ef2:	9c 91       	ld	r25, X
    3ef4:	11 97       	sbiw	r26, 0x01	; 1
    3ef6:	fc 01       	movw	r30, r24
    3ef8:	e0 0f       	add	r30, r16
    3efa:	f1 1f       	adc	r31, r17
    3efc:	c0 83       	st	Z, r28
Boolean SrvCoreInit ( void ) 
{
	Boolean oSuccess = TRUE;
		
	//Init Core Drivers
	for(uint8_t i = 0U ; i < core.nbDrivers ; i++)
    3efe:	cf 5f       	subi	r28, 0xFF	; 255
    3f00:	12 96       	adiw	r26, 0x02	; 2
    3f02:	8c 91       	ld	r24, X
    3f04:	c8 17       	cp	r28, r24
    3f06:	50 f2       	brcs	.-108    	; 0x3e9c <SrvCoreInit+0x3a>
    3f08:	32 c0       	rjmp	.+100    	; 0x3f6e <SrvCoreInit+0x10c>
	}
	
	//Init Core Services
	for(uint8_t i = 0U ; i < NB_CORE_SERVICES ; i++)
	{
		Int32U nowSrvCore = DrvTickGetTimeUs();
    3f0a:	0e 94 b6 0d 	call	0x1b6c	; 0x1b6c <DrvTickGetTimeUs>
    3f0e:	2b 01       	movw	r4, r22
    3f10:	3c 01       	movw	r6, r24
		oSuccess == TRUE ? oSuccess = coreServices[i].init() : FALSE;
    3f12:	d1 30       	cpi	r29, 0x01	; 1
    3f14:	39 f4       	brne	.+14     	; 0x3f24 <SrvCoreInit+0xc2>
    3f16:	d6 01       	movw	r26, r12
    3f18:	11 96       	adiw	r26, 0x01	; 1
    3f1a:	ed 91       	ld	r30, X+
    3f1c:	fc 91       	ld	r31, X
    3f1e:	12 97       	sbiw	r26, 0x02	; 2
    3f20:	09 95       	icall
    3f22:	d8 2f       	mov	r29, r24
		core.services[i].index = i;
    3f24:	d5 01       	movw	r26, r10
    3f26:	13 96       	adiw	r26, 0x03	; 3
    3f28:	ed 91       	ld	r30, X+
    3f2a:	fc 91       	ld	r31, X
    3f2c:	14 97       	sbiw	r26, 0x04	; 4
    3f2e:	e0 0f       	add	r30, r16
    3f30:	f1 1f       	adc	r31, r17
    3f32:	c0 83       	st	Z, r28
		core.services[i].updateTime = DrvTickGetTimeUs() - nowSrvCore;
    3f34:	13 96       	adiw	r26, 0x03	; 3
    3f36:	ed 90       	ld	r14, X+
    3f38:	fc 90       	ld	r15, X
    3f3a:	14 97       	sbiw	r26, 0x04	; 4
    3f3c:	e0 0e       	add	r14, r16
    3f3e:	f1 1e       	adc	r15, r17
    3f40:	0e 94 b6 0d 	call	0x1b6c	; 0x1b6c <DrvTickGetTimeUs>
    3f44:	dc 01       	movw	r26, r24
    3f46:	cb 01       	movw	r24, r22
    3f48:	84 19       	sub	r24, r4
    3f4a:	95 09       	sbc	r25, r5
    3f4c:	a6 09       	sbc	r26, r6
    3f4e:	b7 09       	sbc	r27, r7
    3f50:	f7 01       	movw	r30, r14
    3f52:	85 83       	std	Z+5, r24	; 0x05
    3f54:	96 83       	std	Z+6, r25	; 0x06
    3f56:	a7 83       	std	Z+7, r26	; 0x07
    3f58:	b0 87       	std	Z+8, r27	; 0x08
		core.drivers[i].updateTime = DrvTickGetTimeUs() - nowDrvCore;
		core.drivers[i].index = i;
	}
	
	//Init Core Services
	for(uint8_t i = 0U ; i < NB_CORE_SERVICES ; i++)
    3f5a:	cf 5f       	subi	r28, 0xFF	; 255
    3f5c:	03 5f       	subi	r16, 0xF3	; 243
    3f5e:	1f 4f       	sbci	r17, 0xFF	; 255
    3f60:	fd e0       	ldi	r31, 0x0D	; 13
    3f62:	cf 0e       	add	r12, r31
    3f64:	d1 1c       	adc	r13, r1
    3f66:	c2 30       	cpi	r28, 0x02	; 2
    3f68:	81 f6       	brne	.-96     	; 0x3f0a <SrvCoreInit+0xa8>
    3f6a:	11 c0       	rjmp	.+34     	; 0x3f8e <SrvCoreInit+0x12c>


//Fonction d'initialisation
Boolean SrvCoreInit ( void ) 
{
	Boolean oSuccess = TRUE;
    3f6c:	d1 e0       	ldi	r29, 0x01	; 1
    3f6e:	0f 2e       	mov	r0, r31
    3f70:	f6 e1       	ldi	r31, 0x16	; 22
    3f72:	cf 2e       	mov	r12, r31
    3f74:	f1 e0       	ldi	r31, 0x01	; 1
    3f76:	df 2e       	mov	r13, r31
    3f78:	f0 2d       	mov	r31, r0
		
	//Init Core Drivers
	for(uint8_t i = 0U ; i < core.nbDrivers ; i++)
    3f7a:	00 e0       	ldi	r16, 0x00	; 0
    3f7c:	10 e0       	ldi	r17, 0x00	; 0
    3f7e:	c0 e0       	ldi	r28, 0x00	; 0
	//Init Core Services
	for(uint8_t i = 0U ; i < NB_CORE_SERVICES ; i++)
	{
		Int32U nowSrvCore = DrvTickGetTimeUs();
		oSuccess == TRUE ? oSuccess = coreServices[i].init() : FALSE;
		core.services[i].index = i;
    3f80:	0f 2e       	mov	r0, r31
    3f82:	f8 e0       	ldi	r31, 0x08	; 8
    3f84:	af 2e       	mov	r10, r31
    3f86:	f1 e0       	ldi	r31, 0x01	; 1
    3f88:	bf 2e       	mov	r11, r31
    3f8a:	f0 2d       	mov	r31, r0
    3f8c:	be cf       	rjmp	.-132    	; 0x3f0a <SrvCoreInit+0xa8>
		core.services[i].updateTime = DrvTickGetTimeUs() - nowSrvCore;
	}
		
	//Reset time
	DrvTimerTickReset();
    3f8e:	0e 94 57 0e 	call	0x1cae	; 0x1cae <DrvTimerTickReset>
	
	return oSuccess;
}
    3f92:	8d 2f       	mov	r24, r29
    3f94:	df 91       	pop	r29
    3f96:	cf 91       	pop	r28
    3f98:	1f 91       	pop	r17
    3f9a:	0f 91       	pop	r16
    3f9c:	ff 90       	pop	r15
    3f9e:	ef 90       	pop	r14
    3fa0:	df 90       	pop	r13
    3fa2:	cf 90       	pop	r12
    3fa4:	bf 90       	pop	r11
    3fa6:	af 90       	pop	r10
    3fa8:	9f 90       	pop	r9
    3faa:	8f 90       	pop	r8
    3fac:	7f 90       	pop	r7
    3fae:	6f 90       	pop	r6
    3fb0:	5f 90       	pop	r5
    3fb2:	4f 90       	pop	r4
    3fb4:	08 95       	ret

00003fb6 <SrvCoreLoop>:

Boolean SrvCoreLoop ( void ) 
{
    3fb6:	6f 92       	push	r6
    3fb8:	7f 92       	push	r7
    3fba:	8f 92       	push	r8
    3fbc:	9f 92       	push	r9
    3fbe:	af 92       	push	r10
    3fc0:	bf 92       	push	r11
    3fc2:	cf 92       	push	r12
    3fc4:	df 92       	push	r13
    3fc6:	ef 92       	push	r14
    3fc8:	ff 92       	push	r15
    3fca:	0f 93       	push	r16
    3fcc:	1f 93       	push	r17
    3fce:	cf 93       	push	r28
    3fd0:	df 93       	push	r29
	Boolean oSuccess = TRUE;
	//get time
	Int32U nowSrvCore = DrvTickGetTimeUs();
    3fd2:	0e 94 b6 0d 	call	0x1b6c	; 0x1b6c <DrvTickGetTimeUs>
    3fd6:	4b 01       	movw	r8, r22
    3fd8:	5c 01       	movw	r10, r24
    3fda:	c0 e0       	ldi	r28, 0x00	; 0
    3fdc:	d0 e0       	ldi	r29, 0x00	; 0
	for(uint8_t i = 0U ; i < NB_CORE_SERVICES ; i++)
	{
		//get time
		Int32U now = DrvTickGetTimeUs();
		core.services[i].update();
    3fde:	08 e0       	ldi	r16, 0x08	; 8
    3fe0:	11 e0       	ldi	r17, 0x01	; 1
	//get time
	Int32U nowSrvCore = DrvTickGetTimeUs();
	for(uint8_t i = 0U ; i < NB_CORE_SERVICES ; i++)
	{
		//get time
		Int32U now = DrvTickGetTimeUs();
    3fe2:	0e 94 b6 0d 	call	0x1b6c	; 0x1b6c <DrvTickGetTimeUs>
    3fe6:	6b 01       	movw	r12, r22
    3fe8:	7c 01       	movw	r14, r24
		core.services[i].update();
    3fea:	d8 01       	movw	r26, r16
    3fec:	13 96       	adiw	r26, 0x03	; 3
    3fee:	ed 91       	ld	r30, X+
    3ff0:	fc 91       	ld	r31, X
    3ff2:	14 97       	sbiw	r26, 0x04	; 4
    3ff4:	ec 0f       	add	r30, r28
    3ff6:	fd 1f       	adc	r31, r29
    3ff8:	03 80       	ldd	r0, Z+3	; 0x03
    3ffa:	f4 81       	ldd	r31, Z+4	; 0x04
    3ffc:	e0 2d       	mov	r30, r0
    3ffe:	09 95       	icall
		DrvServoUpdate();
    4000:	0e 94 09 0d 	call	0x1a12	; 0x1a12 <DrvServoUpdate>
		//get loop update time
		core.services[i].updateTime = DrvTickGetTimeUs() - now;
    4004:	f8 01       	movw	r30, r16
    4006:	63 80       	ldd	r6, Z+3	; 0x03
    4008:	74 80       	ldd	r7, Z+4	; 0x04
    400a:	6c 0e       	add	r6, r28
    400c:	7d 1e       	adc	r7, r29
    400e:	0e 94 b6 0d 	call	0x1b6c	; 0x1b6c <DrvTickGetTimeUs>
    4012:	dc 01       	movw	r26, r24
    4014:	cb 01       	movw	r24, r22
    4016:	8c 19       	sub	r24, r12
    4018:	9d 09       	sbc	r25, r13
    401a:	ae 09       	sbc	r26, r14
    401c:	bf 09       	sbc	r27, r15
    401e:	f3 01       	movw	r30, r6
    4020:	85 83       	std	Z+5, r24	; 0x05
    4022:	96 83       	std	Z+6, r25	; 0x06
    4024:	a7 83       	std	Z+7, r26	; 0x07
    4026:	b0 87       	std	Z+8, r27	; 0x08
		//get the max time
		core.services[i].updateTimeMax = MAX(core.services[i].updateTime,core.services[i].updateTimeMax);
    4028:	d8 01       	movw	r26, r16
    402a:	13 96       	adiw	r26, 0x03	; 3
    402c:	ed 91       	ld	r30, X+
    402e:	fc 91       	ld	r31, X
    4030:	14 97       	sbiw	r26, 0x04	; 4
    4032:	ec 0f       	add	r30, r28
    4034:	fd 1f       	adc	r31, r29
    4036:	45 81       	ldd	r20, Z+5	; 0x05
    4038:	56 81       	ldd	r21, Z+6	; 0x06
    403a:	67 81       	ldd	r22, Z+7	; 0x07
    403c:	70 85       	ldd	r23, Z+8	; 0x08
    403e:	81 85       	ldd	r24, Z+9	; 0x09
    4040:	92 85       	ldd	r25, Z+10	; 0x0a
    4042:	a3 85       	ldd	r26, Z+11	; 0x0b
    4044:	b4 85       	ldd	r27, Z+12	; 0x0c
    4046:	84 17       	cp	r24, r20
    4048:	95 07       	cpc	r25, r21
    404a:	a6 07       	cpc	r26, r22
    404c:	b7 07       	cpc	r27, r23
    404e:	10 f4       	brcc	.+4      	; 0x4054 <SrvCoreLoop+0x9e>
    4050:	db 01       	movw	r26, r22
    4052:	ca 01       	movw	r24, r20
    4054:	81 87       	std	Z+9, r24	; 0x09
    4056:	92 87       	std	Z+10, r25	; 0x0a
    4058:	a3 87       	std	Z+11, r26	; 0x0b
    405a:	b4 87       	std	Z+12, r27	; 0x0c
    405c:	2d 96       	adiw	r28, 0x0d	; 13
Boolean SrvCoreLoop ( void ) 
{
	Boolean oSuccess = TRUE;
	//get time
	Int32U nowSrvCore = DrvTickGetTimeUs();
	for(uint8_t i = 0U ; i < NB_CORE_SERVICES ; i++)
    405e:	ca 31       	cpi	r28, 0x1A	; 26
    4060:	d1 05       	cpc	r29, r1
    4062:	09 f0       	breq	.+2      	; 0x4066 <SrvCoreLoop+0xb0>
    4064:	be cf       	rjmp	.-132    	; 0x3fe2 <SrvCoreLoop+0x2c>
		//get the max time
		core.services[i].updateTimeMax = MAX(core.services[i].updateTime,core.services[i].updateTimeMax);
		
	}
	//get loop update time
	core.updateTime = DrvTickGetTimeUs() - nowSrvCore;
    4066:	0e 94 b6 0d 	call	0x1b6c	; 0x1b6c <DrvTickGetTimeUs>
    406a:	dc 01       	movw	r26, r24
    406c:	cb 01       	movw	r24, r22
    406e:	88 19       	sub	r24, r8
    4070:	99 09       	sbc	r25, r9
    4072:	aa 09       	sbc	r26, r10
    4074:	bb 09       	sbc	r27, r11
    4076:	80 93 0e 01 	sts	0x010E, r24	; 0x80010e <core+0x6>
    407a:	90 93 0f 01 	sts	0x010F, r25	; 0x80010f <core+0x7>
    407e:	a0 93 10 01 	sts	0x0110, r26	; 0x800110 <core+0x8>
    4082:	b0 93 11 01 	sts	0x0111, r27	; 0x800111 <core+0x9>
	//get the max time
	core.updateTimeMax = MAX(core.updateTime,core.updateTimeMax);
    4086:	e8 e0       	ldi	r30, 0x08	; 8
    4088:	f1 e0       	ldi	r31, 0x01	; 1
    408a:	02 85       	ldd	r16, Z+10	; 0x0a
    408c:	13 85       	ldd	r17, Z+11	; 0x0b
    408e:	24 85       	ldd	r18, Z+12	; 0x0c
    4090:	35 85       	ldd	r19, Z+13	; 0x0d
    4092:	08 17       	cp	r16, r24
    4094:	19 07       	cpc	r17, r25
    4096:	2a 07       	cpc	r18, r26
    4098:	3b 07       	cpc	r19, r27
    409a:	10 f4       	brcc	.+4      	; 0x40a0 <SrvCoreLoop+0xea>
    409c:	8c 01       	movw	r16, r24
    409e:	9d 01       	movw	r18, r26
    40a0:	02 87       	std	Z+10, r16	; 0x0a
    40a2:	13 87       	std	Z+11, r17	; 0x0b
    40a4:	24 87       	std	Z+12, r18	; 0x0c
    40a6:	35 87       	std	Z+13, r19	; 0x0d
	
	return oSuccess;
}
    40a8:	81 e0       	ldi	r24, 0x01	; 1
    40aa:	df 91       	pop	r29
    40ac:	cf 91       	pop	r28
    40ae:	1f 91       	pop	r17
    40b0:	0f 91       	pop	r16
    40b2:	ff 90       	pop	r15
    40b4:	ef 90       	pop	r14
    40b6:	df 90       	pop	r13
    40b8:	cf 90       	pop	r12
    40ba:	bf 90       	pop	r11
    40bc:	af 90       	pop	r10
    40be:	9f 90       	pop	r9
    40c0:	8f 90       	pop	r8
    40c2:	7f 90       	pop	r7
    40c4:	6f 90       	pop	r6
    40c6:	08 95       	ret

000040c8 <SrvFeelingSetFeelingStatus>:
		prevMillisFeeling = DrvTickGetTimeMs() + feeling.stressedPeriod;
	}
}
void SrvFeelingSetFeelingStatus (EFeelingState state)
{
	feeling.state = state;
    40c8:	80 93 92 0e 	sts	0x0E92, r24	; 0x800e92 <feeling+0x1>
    40cc:	08 95       	ret

000040ce <SrvFeelingGetFeeling>:
}
SFeeling *SrvFeelingGetFeeling ( void ) 
{
	return &feeling;
}
    40ce:	81 e9       	ldi	r24, 0x91	; 145
    40d0:	9e e0       	ldi	r25, 0x0E	; 14
    40d2:	08 95       	ret

000040d4 <SrvHeadSetMinPosition>:
	if(head.enable) DrvServoSetTarget(HEAD_HORI_SERO_TAB_INDEX, HEAD_HORI_MAX, time);
}

void SrvHeadSetMinPosition( Int16U time )
{
	if(head.enable) DrvServoSetTarget(HEAD_HORI_SERO_TAB_INDEX, HEAD_HORI_MIN, time);
    40d4:	20 91 9c 0d 	lds	r18, 0x0D9C	; 0x800d9c <head>
    40d8:	22 23       	and	r18, r18
    40da:	31 f0       	breq	.+12     	; 0x40e8 <SrvHeadSetMinPosition+0x14>
    40dc:	ac 01       	movw	r20, r24
    40de:	68 e1       	ldi	r22, 0x18	; 24
    40e0:	7c ef       	ldi	r23, 0xFC	; 252
    40e2:	82 e1       	ldi	r24, 0x12	; 18
    40e4:	0c 94 b2 0c 	jmp	0x1964	; 0x1964 <DrvServoSetTarget>
    40e8:	08 95       	ret

000040ea <SrvHeadScan>:
	
}

Boolean SrvHeadScan( void )
{
	if(head.enable)
    40ea:	80 91 9c 0d 	lds	r24, 0x0D9C	; 0x800d9c <head>
    40ee:	88 23       	and	r24, r24
    40f0:	39 f0       	breq	.+14     	; 0x4100 <__stack+0x1>
	{
		head.scanning = TRUE ;
    40f2:	81 e0       	ldi	r24, 0x01	; 1
    40f4:	80 93 9e 0d 	sts	0x0D9E, r24	; 0x800d9e <head+0x2>
		
		SrvHeadSetMinPosition(HEAD_SCAN_TIME/2);
    40f8:	80 ed       	ldi	r24, 0xD0	; 208
    40fa:	97 e0       	ldi	r25, 0x07	; 7
    40fc:	eb df       	rcall	.-42     	; 0x40d4 <SrvHeadSetMinPosition>
		//DrvServoSetCallback(HEAD_HORI_SERO_TAB_INDEX, SrvHeadServoCallbackReachMin);
		return TRUE;
    40fe:	81 e0       	ldi	r24, 0x01	; 1
	}
	return FALSE;
}
    4100:	08 95       	ret

00004102 <SrvImuSimpleSetThreshold>:
// get roll
void SrvImuSimpleGetRollPitchYaw( Int16S *roll, Int16S *pitch, Int16S *yaw )
{
	roll[0] = imu.roll;
	pitch[0] = imu.pitch;
	yaw[0] = imu.yaw;
    4102:	80 93 b8 0d 	sts	0x0DB8, r24	; 0x800db8 <imu+0x15>
    4106:	81 e0       	ldi	r24, 0x01	; 1
    4108:	08 95       	ret

0000410a <SrvImuSimpleGetThreshold>:
    410a:	80 91 b8 0d 	lds	r24, 0x0DB8	; 0x800db8 <imu+0x15>
    410e:	08 95       	ret

00004110 <SrvImuSimpleGetRoll>:
}
// get roll
Int16S SrvImuSimpleGetRoll( void )
{
	return imu.roll;
}
    4110:	80 91 b9 0d 	lds	r24, 0x0DB9	; 0x800db9 <imu+0x16>
    4114:	90 91 ba 0d 	lds	r25, 0x0DBA	; 0x800dba <imu+0x17>
    4118:	08 95       	ret

0000411a <SrvImuSimpleGetPitch>:
// get pitch
Int16S SrvImuSimpleGetPitch( void )
{
	return imu.pitch;
}
    411a:	80 91 bb 0d 	lds	r24, 0x0DBB	; 0x800dbb <imu+0x18>
    411e:	90 91 bc 0d 	lds	r25, 0x0DBC	; 0x800dbc <imu+0x19>
    4122:	08 95       	ret

00004124 <SrvImuSimpleGetYaw>:
// get yaw
Int16S SrvImuSimpleGetYaw( void )
{
	return imu.yaw;
}
    4124:	80 91 bd 0d 	lds	r24, 0x0DBD	; 0x800dbd <imu+0x1a>
    4128:	90 91 be 0d 	lds	r25, 0x0DBE	; 0x800dbe <imu+0x1b>
    412c:	08 95       	ret

0000412e <SrvDetectionGetThresholdLazer>:


Int16U SrvDetectionGetThresholdLazer( void )
{
	return detection.lazerThreshold;
}
    412e:	80 91 99 0e 	lds	r24, 0x0E99	; 0x800e99 <detection+0x2>
    4132:	90 91 9a 0e 	lds	r25, 0x0E9A	; 0x800e9a <detection+0x3>
    4136:	08 95       	ret

00004138 <SrvDetectionSetThresholdLazer>:
void SrvDetectionSetThresholdLazer( Int16U lazerThreshold )
{
	detection.lazerThreshold = lazerThreshold;
    4138:	90 93 9a 0e 	sts	0x0E9A, r25	; 0x800e9a <detection+0x3>
    413c:	80 93 99 0e 	sts	0x0E99, r24	; 0x800e99 <detection+0x2>
    4140:	08 95       	ret

00004142 <SrvDetectionGetDistanceLazer>:
}
Int16U SrvDetectionGetDistanceLazer(E_LAZER lazer)
{
	return detection.distance[lazer + 2U];
    4142:	e8 2f       	mov	r30, r24
    4144:	f0 e0       	ldi	r31, 0x00	; 0
    4146:	ee 0f       	add	r30, r30
    4148:	ff 1f       	adc	r31, r31
    414a:	e1 56       	subi	r30, 0x61	; 97
    414c:	f1 4f       	sbci	r31, 0xF1	; 241
}
    414e:	80 81       	ld	r24, Z
    4150:	91 81       	ldd	r25, Z+1	; 0x01
    4152:	08 95       	ret

00004154 <SrvDetectionGetThresholdUS>:

Int16U SrvDetectionGetThresholdUS( void )
{
	return detection.usThreshold;
}
    4154:	80 91 97 0e 	lds	r24, 0x0E97	; 0x800e97 <detection>
    4158:	90 91 98 0e 	lds	r25, 0x0E98	; 0x800e98 <detection+0x1>
    415c:	08 95       	ret

0000415e <SrvDetectionSetThresholdUS>:
void SrvDetectionSetThresholdUS( Int16U usThreshold )
{
	detection.usThreshold = usThreshold;
    415e:	90 93 98 0e 	sts	0x0E98, r25	; 0x800e98 <detection+0x1>
    4162:	80 93 97 0e 	sts	0x0E97, r24	; 0x800e97 <detection>
    4166:	08 95       	ret

00004168 <SrvDetectionGetDistanceUS>:
}

Int16U SrvDetectionGetDistanceUS(E_US us)
{
	return detection.distance[us];
    4168:	e8 2f       	mov	r30, r24
    416a:	f0 e0       	ldi	r31, 0x00	; 0
    416c:	ee 0f       	add	r30, r30
    416e:	ff 1f       	adc	r31, r31
    4170:	e5 56       	subi	r30, 0x65	; 101
    4172:	f1 4f       	sbci	r31, 0xF1	; 241
}
    4174:	80 81       	ld	r24, Z
    4176:	91 81       	ldd	r25, Z+1	; 0x01
    4178:	08 95       	ret

0000417a <SrvWalkGetStruct>:
}

SWalk* SrvWalkGetStruct (void) 
{
	return &walkPrivate.walkStruct;
}
    417a:	86 ea       	ldi	r24, 0xA6	; 166
    417c:	9e e0       	ldi	r25, 0x0E	; 14
    417e:	08 95       	ret

00004180 <SrvWalkSetSpeed>:

Boolean SrvWalkSetSpeed( Int16U speed )
{
	if((speed >= 250) && (speed <= 3000))
    4180:	9c 01       	movw	r18, r24
    4182:	2a 5f       	subi	r18, 0xFA	; 250
    4184:	31 09       	sbc	r19, r1
    4186:	2f 3b       	cpi	r18, 0xBF	; 191
    4188:	3a 40       	sbci	r19, 0x0A	; 10
    418a:	30 f4       	brcc	.+12     	; 0x4198 <SrvWalkSetSpeed+0x18>
	{
		walkPrivate.walkStruct.delay = speed;
    418c:	90 93 ab 0e 	sts	0x0EAB, r25	; 0x800eab <walkPrivate+0x5>
    4190:	80 93 aa 0e 	sts	0x0EAA, r24	; 0x800eaa <walkPrivate+0x4>
		return TRUE;
    4194:	81 e0       	ldi	r24, 0x01	; 1
    4196:	08 95       	ret
	}
	return FALSE;
    4198:	80 e0       	ldi	r24, 0x00	; 0
}
    419a:	08 95       	ret

0000419c <SrvWalkGetSpeed>:
Int16U SrvWalkGetSpeed( void )
{
	return walkPrivate.walkStruct.delay;
}
    419c:	80 91 aa 0e 	lds	r24, 0x0EAA	; 0x800eaa <walkPrivate+0x4>
    41a0:	90 91 ab 0e 	lds	r25, 0x0EAB	; 0x800eab <walkPrivate+0x5>
    41a4:	08 95       	ret

000041a6 <SrvWalkStopWalk>:

Boolean SrvWalkStopWalk( void )
{
	walkPrivate.walkStruct.walking = E_WALK_STOP;
    41a6:	82 e0       	ldi	r24, 0x02	; 2
    41a8:	80 93 a7 0e 	sts	0x0EA7, r24	; 0x800ea7 <walkPrivate+0x1>
	return TRUE;
}
    41ac:	81 e0       	ldi	r24, 0x01	; 1
    41ae:	08 95       	ret

000041b0 <SrvWalkSetAmplitude>:
}



Boolean SrvWalkSetAmplitude( Int8S amplitude )
{
    41b0:	cf 93       	push	r28
    41b2:	c8 2f       	mov	r28, r24
	if(abs(amplitude) <= WALK_AMPLITUDE_MAX )
    41b4:	68 2f       	mov	r22, r24
    41b6:	88 0f       	add	r24, r24
    41b8:	77 0b       	sbc	r23, r23
    41ba:	77 23       	and	r23, r23
    41bc:	1c f4       	brge	.+6      	; 0x41c4 <SrvWalkSetAmplitude+0x14>
    41be:	71 95       	neg	r23
    41c0:	61 95       	neg	r22
    41c2:	71 09       	sbc	r23, r1
    41c4:	07 2e       	mov	r0, r23
    41c6:	00 0c       	add	r0, r0
    41c8:	88 0b       	sbc	r24, r24
    41ca:	99 0b       	sbc	r25, r25
    41cc:	da d1       	rcall	.+948    	; 0x4582 <__floatsisf>
    41ce:	20 e0       	ldi	r18, 0x00	; 0
    41d0:	30 e0       	ldi	r19, 0x00	; 0
    41d2:	40 e2       	ldi	r20, 0x20	; 32
    41d4:	52 e4       	ldi	r21, 0x42	; 66
    41d6:	36 d1       	rcall	.+620    	; 0x4444 <__cmpsf2>
    41d8:	18 16       	cp	r1, r24
    41da:	24 f0       	brlt	.+8      	; 0x41e4 <SrvWalkSetAmplitude+0x34>
	{
		walkPrivate.walkStruct.amplitude = amplitude;
    41dc:	c0 93 a8 0e 	sts	0x0EA8, r28	; 0x800ea8 <walkPrivate+0x2>
		return TRUE;
    41e0:	81 e0       	ldi	r24, 0x01	; 1
    41e2:	01 c0       	rjmp	.+2      	; 0x41e6 <SrvWalkSetAmplitude+0x36>
	}
	return FALSE;
    41e4:	80 e0       	ldi	r24, 0x00	; 0
}
    41e6:	cf 91       	pop	r28
    41e8:	08 95       	ret

000041ea <SrvWalkSetWalk>:
	walkPrivate.walkStruct.walking = E_WALK_STOP;
	return TRUE;
}

Boolean SrvWalkSetWalk( E_GAIT gait, E_WALK walk,Int8S amplitude, Int8S direction, uint16_t delay )
{
    41ea:	ff 92       	push	r15
    41ec:	0f 93       	push	r16
    41ee:	1f 93       	push	r17
    41f0:	cf 93       	push	r28
    41f2:	df 93       	push	r29
    41f4:	c8 2f       	mov	r28, r24
    41f6:	d6 2f       	mov	r29, r22
    41f8:	84 2f       	mov	r24, r20
    41fa:	f2 2e       	mov	r15, r18
	Boolean oSuccess = FALSE;
	
	oSuccess = SrvWalkSetAmplitude(amplitude);
    41fc:	d9 df       	rcall	.-78     	; 0x41b0 <SrvWalkSetAmplitude>
	walkPrivate.walkStruct.direction = direction;
    41fe:	e6 ea       	ldi	r30, 0xA6	; 166
    4200:	fe e0       	ldi	r31, 0x0E	; 14
    4202:	f3 82       	std	Z+3, r15	; 0x03
	
	//if we want to change walk
	if((walkPrivate.walkStruct.walking != walk) || (walkPrivate.walkStruct.gaiting != gait))
    4204:	81 81       	ldd	r24, Z+1	; 0x01
    4206:	8d 13       	cpse	r24, r29
    4208:	05 c0       	rjmp	.+10     	; 0x4214 <SrvWalkSetWalk+0x2a>
    420a:	80 91 a6 0e 	lds	r24, 0x0EA6	; 0x800ea6 <walkPrivate>
    420e:	8c 13       	cpse	r24, r28
    4210:	62 c0       	rjmp	.+196    	; 0x42d6 <SrvWalkSetWalk+0xec>
    4212:	5c c0       	rjmp	.+184    	; 0x42cc <SrvWalkSetWalk+0xe2>
	{
		walkPrivate.walkStruct.walking = walk;
    4214:	e6 ea       	ldi	r30, 0xA6	; 166
    4216:	fe e0       	ldi	r31, 0x0E	; 14
    4218:	d1 83       	std	Z+1, r29	; 0x01
		walkPrivate.walkStruct.delay = delay;
    421a:	15 83       	std	Z+5, r17	; 0x05
    421c:	04 83       	std	Z+4, r16	; 0x04
				
		//if different gait
		if(walkPrivate.walkStruct.gaiting != gait)
    421e:	80 81       	ld	r24, Z
    4220:	c8 17       	cp	r28, r24
    4222:	09 f4       	brne	.+2      	; 0x4226 <SrvWalkSetWalk+0x3c>
    4224:	5d c0       	rjmp	.+186    	; 0x42e0 <SrvWalkSetWalk+0xf6>
		{
			walkPrivate.walkStruct.gaiting = gait;
    4226:	c0 93 a6 0e 	sts	0x0EA6, r28	; 0x800ea6 <walkPrivate>
			//for tripod gait
			if( walkPrivate.walkStruct.gaiting == E_GAITS_TRIPOD )
    422a:	c1 11       	cpse	r28, r1
    422c:	19 c0       	rjmp	.+50     	; 0x4260 <SrvWalkSetWalk+0x76>
    422e:	8b ec       	ldi	r24, 0xCB	; 203
    4230:	91 e0       	ldi	r25, 0x01	; 1
    4232:	ee ea       	ldi	r30, 0xAE	; 174
    4234:	fe e0       	ldi	r31, 0x0E	; 14
    4236:	ac eb       	ldi	r26, 0xBC	; 188
    4238:	be e0       	ldi	r27, 0x0E	; 14
    423a:	2a eb       	ldi	r18, 0xBA	; 186
    423c:	3e e0       	ldi	r19, 0x0E	; 14
			{
				for(ELeg legIndex = E_LEG_F_L ; legIndex < E_NB_LEGS ; legIndex++)
				{
					walkPrivate.walkSteps.steps[legIndex] = tripodSteps[legIndex];
    423e:	81 93       	st	Z+, r24
    4240:	91 93       	st	Z+, r25
					walkPrivate.walkSteps.legOnGround[legIndex] = FALSE;
    4242:	1d 92       	st	X+, r1
    4244:	04 96       	adiw	r24, 0x04	; 4
		{
			walkPrivate.walkStruct.gaiting = gait;
			//for tripod gait
			if( walkPrivate.walkStruct.gaiting == E_GAITS_TRIPOD )
			{
				for(ELeg legIndex = E_LEG_F_L ; legIndex < E_NB_LEGS ; legIndex++)
    4246:	e2 17       	cp	r30, r18
    4248:	f3 07       	cpc	r31, r19
    424a:	c9 f7       	brne	.-14     	; 0x423e <SrvWalkSetWalk+0x54>
				{
					walkPrivate.walkSteps.steps[legIndex] = tripodSteps[legIndex];
					walkPrivate.walkSteps.legOnGround[legIndex] = FALSE;
				}
				walkPrivate.walkSteps.nbStep = 4U;
    424c:	e6 ea       	ldi	r30, 0xA6	; 166
    424e:	fe e0       	ldi	r31, 0x0E	; 14
    4250:	84 e0       	ldi	r24, 0x04	; 4
    4252:	85 8b       	std	Z+21, r24	; 0x15
				walkPrivate.walkSteps.indexStep = 0U;
    4254:	14 8a       	std	Z+20, r1	; 0x14
				walkPrivate.walkSteps.stepMultDelayOnGround = 2U;
    4256:	82 e0       	ldi	r24, 0x02	; 2
    4258:	90 e0       	ldi	r25, 0x00	; 0
    425a:	95 8f       	std	Z+29, r25	; 0x1d
    425c:	84 8f       	std	Z+28, r24	; 0x1c
    425e:	40 c0       	rjmp	.+128    	; 0x42e0 <SrvWalkSetWalk+0xf6>
			}
			//for wave gait
			else if( walkPrivate.walkStruct.gaiting == E_GAITS_WAVE )
    4260:	c1 30       	cpi	r28, 0x01	; 1
    4262:	c9 f4       	brne	.+50     	; 0x4296 <SrvWalkSetWalk+0xac>
    4264:	83 e8       	ldi	r24, 0x83	; 131
    4266:	91 e0       	ldi	r25, 0x01	; 1
    4268:	ee ea       	ldi	r30, 0xAE	; 174
    426a:	fe e0       	ldi	r31, 0x0E	; 14
    426c:	ac eb       	ldi	r26, 0xBC	; 188
    426e:	be e0       	ldi	r27, 0x0E	; 14
    4270:	2a eb       	ldi	r18, 0xBA	; 186
    4272:	3e e0       	ldi	r19, 0x0E	; 14
			{
				for(ELeg legIndex = E_LEG_F_L ; legIndex < E_NB_LEGS ; legIndex++)
				{
					walkPrivate.walkSteps.steps[legIndex] = waveSteps[legIndex];
    4274:	81 93       	st	Z+, r24
    4276:	91 93       	st	Z+, r25
					walkPrivate.walkSteps.legOnGround[legIndex] = FALSE;
    4278:	1d 92       	st	X+, r1
    427a:	0c 96       	adiw	r24, 0x0c	; 12
				walkPrivate.walkSteps.stepMultDelayOnGround = 2U;
			}
			//for wave gait
			else if( walkPrivate.walkStruct.gaiting == E_GAITS_WAVE )
			{
				for(ELeg legIndex = E_LEG_F_L ; legIndex < E_NB_LEGS ; legIndex++)
    427c:	e2 17       	cp	r30, r18
    427e:	f3 07       	cpc	r31, r19
    4280:	c9 f7       	brne	.-14     	; 0x4274 <SrvWalkSetWalk+0x8a>
				{
					walkPrivate.walkSteps.steps[legIndex] = waveSteps[legIndex];
					walkPrivate.walkSteps.legOnGround[legIndex] = FALSE;
				}
				walkPrivate.walkSteps.nbStep = 12U;
    4282:	e6 ea       	ldi	r30, 0xA6	; 166
    4284:	fe e0       	ldi	r31, 0x0E	; 14
    4286:	8c e0       	ldi	r24, 0x0C	; 12
    4288:	85 8b       	std	Z+21, r24	; 0x15
				walkPrivate.walkSteps.indexStep = 0U;
    428a:	14 8a       	std	Z+20, r1	; 0x14
				walkPrivate.walkSteps.stepMultDelayOnGround = 10U;
    428c:	8a e0       	ldi	r24, 0x0A	; 10
    428e:	90 e0       	ldi	r25, 0x00	; 0
    4290:	95 8f       	std	Z+29, r25	; 0x1d
    4292:	84 8f       	std	Z+28, r24	; 0x1c
    4294:	25 c0       	rjmp	.+74     	; 0x42e0 <SrvWalkSetWalk+0xf6>
			}
			//for ripple gait
			else if( walkPrivate.walkStruct.gaiting == E_GAITS_RIPPLE )
    4296:	c2 30       	cpi	r28, 0x02	; 2
    4298:	19 f5       	brne	.+70     	; 0x42e0 <SrvWalkSetWalk+0xf6>
    429a:	83 e5       	ldi	r24, 0x53	; 83
    429c:	91 e0       	ldi	r25, 0x01	; 1
    429e:	ee ea       	ldi	r30, 0xAE	; 174
    42a0:	fe e0       	ldi	r31, 0x0E	; 14
    42a2:	ac eb       	ldi	r26, 0xBC	; 188
    42a4:	be e0       	ldi	r27, 0x0E	; 14
    42a6:	2a eb       	ldi	r18, 0xBA	; 186
    42a8:	3e e0       	ldi	r19, 0x0E	; 14
			{
				for(ELeg legIndex = E_LEG_F_L ; legIndex < E_NB_LEGS ; legIndex++)
				{
					walkPrivate.walkSteps.steps[legIndex] = rippleSteps[legIndex];
    42aa:	81 93       	st	Z+, r24
    42ac:	91 93       	st	Z+, r25
					walkPrivate.walkSteps.legOnGround[legIndex] = FALSE;
    42ae:	1d 92       	st	X+, r1
    42b0:	08 96       	adiw	r24, 0x08	; 8
				walkPrivate.walkSteps.stepMultDelayOnGround = 10U;
			}
			//for ripple gait
			else if( walkPrivate.walkStruct.gaiting == E_GAITS_RIPPLE )
			{
				for(ELeg legIndex = E_LEG_F_L ; legIndex < E_NB_LEGS ; legIndex++)
    42b2:	e2 17       	cp	r30, r18
    42b4:	f3 07       	cpc	r31, r19
    42b6:	c9 f7       	brne	.-14     	; 0x42aa <SrvWalkSetWalk+0xc0>
				{
					walkPrivate.walkSteps.steps[legIndex] = rippleSteps[legIndex];
					walkPrivate.walkSteps.legOnGround[legIndex] = FALSE;
				}
				walkPrivate.walkSteps.nbStep = 8U;
    42b8:	e6 ea       	ldi	r30, 0xA6	; 166
    42ba:	fe e0       	ldi	r31, 0x0E	; 14
    42bc:	88 e0       	ldi	r24, 0x08	; 8
    42be:	85 8b       	std	Z+21, r24	; 0x15
				walkPrivate.walkSteps.indexStep = 0U;
    42c0:	14 8a       	std	Z+20, r1	; 0x14
				walkPrivate.walkSteps.stepMultDelayOnGround = 6U;
    42c2:	86 e0       	ldi	r24, 0x06	; 6
    42c4:	90 e0       	ldi	r25, 0x00	; 0
    42c6:	95 8f       	std	Z+29, r25	; 0x1d
    42c8:	84 8f       	std	Z+28, r24	; 0x1c
    42ca:	0a c0       	rjmp	.+20     	; 0x42e0 <SrvWalkSetWalk+0xf6>
		oSuccess = TRUE;
	}
	else
	{
		//same walk but change speed
		walkPrivate.walkStruct.delay = delay;
    42cc:	10 93 ab 0e 	sts	0x0EAB, r17	; 0x800eab <walkPrivate+0x5>
    42d0:	00 93 aa 0e 	sts	0x0EAA, r16	; 0x800eaa <walkPrivate+0x4>
		oSuccess = TRUE;
	}
	return oSuccess;
    42d4:	05 c0       	rjmp	.+10     	; 0x42e0 <SrvWalkSetWalk+0xf6>
	
	//if we want to change walk
	if((walkPrivate.walkStruct.walking != walk) || (walkPrivate.walkStruct.gaiting != gait))
	{
		walkPrivate.walkStruct.walking = walk;
		walkPrivate.walkStruct.delay = delay;
    42d6:	10 93 ab 0e 	sts	0x0EAB, r17	; 0x800eab <walkPrivate+0x5>
    42da:	00 93 aa 0e 	sts	0x0EAA, r16	; 0x800eaa <walkPrivate+0x4>
    42de:	a3 cf       	rjmp	.-186    	; 0x4226 <SrvWalkSetWalk+0x3c>
		//same walk but change speed
		walkPrivate.walkStruct.delay = delay;
		oSuccess = TRUE;
	}
	return oSuccess;
}
    42e0:	81 e0       	ldi	r24, 0x01	; 1
    42e2:	df 91       	pop	r29
    42e4:	cf 91       	pop	r28
    42e6:	1f 91       	pop	r17
    42e8:	0f 91       	pop	r16
    42ea:	ff 90       	pop	r15
    42ec:	08 95       	ret

000042ee <SrvWalkGetAmplitude>:
	return FALSE;
}
Int8S SrvWalkGetAmplitude( void )
{
	return walkPrivate.walkStruct.amplitude;
}
    42ee:	80 91 a8 0e 	lds	r24, 0x0EA8	; 0x800ea8 <walkPrivate+0x2>
    42f2:	08 95       	ret

000042f4 <SrvWalkSetDirection>:
Boolean SrvWalkSetDirection( Int8S direction )
{
	if( abs(direction) <= 90 )
    42f4:	9a e5       	ldi	r25, 0x5A	; 90
    42f6:	98 0f       	add	r25, r24
    42f8:	95 3b       	cpi	r25, 0xB5	; 181
    42fa:	20 f4       	brcc	.+8      	; 0x4304 <SrvWalkSetDirection+0x10>
	{
		walkPrivate.walkStruct.direction = direction;
    42fc:	80 93 a9 0e 	sts	0x0EA9, r24	; 0x800ea9 <walkPrivate+0x3>
		return TRUE;
    4300:	81 e0       	ldi	r24, 0x01	; 1
    4302:	08 95       	ret
	}
	return FALSE;
    4304:	80 e0       	ldi	r24, 0x00	; 0
}
    4306:	08 95       	ret

00004308 <SrvWalkGetDirection>:
Int8S SrvWalkGetDirection( void )
{
	return walkPrivate.walkStruct.direction;
    4308:	80 91 a9 0e 	lds	r24, 0x0EA9	; 0x800ea9 <walkPrivate+0x3>
    430c:	08 95       	ret

0000430e <acos>:
    430e:	9f 93       	push	r25
    4310:	9f 77       	andi	r25, 0x7F	; 127
    4312:	85 d1       	rcall	.+778    	; 0x461e <__fp_arccos>
    4314:	0f 90       	pop	r0
    4316:	00 20       	and	r0, r0
    4318:	3a f4       	brpl	.+14     	; 0x4328 <acos+0x1a>
    431a:	90 58       	subi	r25, 0x80	; 128
    431c:	a2 ea       	ldi	r26, 0xA2	; 162
    431e:	2a ed       	ldi	r18, 0xDA	; 218
    4320:	3f e0       	ldi	r19, 0x0F	; 15
    4322:	49 e4       	ldi	r20, 0x49	; 73
    4324:	50 e4       	ldi	r21, 0x40	; 64
    4326:	13 d0       	rcall	.+38     	; 0x434e <__addsf3x>
    4328:	46 c2       	rjmp	.+1164   	; 0x47b6 <__fp_round>

0000432a <__subsf3>:
    432a:	50 58       	subi	r21, 0x80	; 128

0000432c <__addsf3>:
    432c:	bb 27       	eor	r27, r27
    432e:	aa 27       	eor	r26, r26
    4330:	0e d0       	rcall	.+28     	; 0x434e <__addsf3x>
    4332:	41 c2       	rjmp	.+1154   	; 0x47b6 <__fp_round>
    4334:	0a d2       	rcall	.+1044   	; 0x474a <__fp_pscA>
    4336:	30 f0       	brcs	.+12     	; 0x4344 <__addsf3+0x18>
    4338:	0f d2       	rcall	.+1054   	; 0x4758 <__fp_pscB>
    433a:	20 f0       	brcs	.+8      	; 0x4344 <__addsf3+0x18>
    433c:	31 f4       	brne	.+12     	; 0x434a <__addsf3+0x1e>
    433e:	9f 3f       	cpi	r25, 0xFF	; 255
    4340:	11 f4       	brne	.+4      	; 0x4346 <__addsf3+0x1a>
    4342:	1e f4       	brtc	.+6      	; 0x434a <__addsf3+0x1e>
    4344:	da c1       	rjmp	.+948    	; 0x46fa <__fp_nan>
    4346:	0e f4       	brtc	.+2      	; 0x434a <__addsf3+0x1e>
    4348:	e0 95       	com	r30
    434a:	e7 fb       	bst	r30, 7
    434c:	a7 c1       	rjmp	.+846    	; 0x469c <__fp_inf>

0000434e <__addsf3x>:
    434e:	e9 2f       	mov	r30, r25
    4350:	43 d2       	rcall	.+1158   	; 0x47d8 <__fp_split3>
    4352:	80 f3       	brcs	.-32     	; 0x4334 <__addsf3+0x8>
    4354:	ba 17       	cp	r27, r26
    4356:	62 07       	cpc	r22, r18
    4358:	73 07       	cpc	r23, r19
    435a:	84 07       	cpc	r24, r20
    435c:	95 07       	cpc	r25, r21
    435e:	18 f0       	brcs	.+6      	; 0x4366 <__addsf3x+0x18>
    4360:	71 f4       	brne	.+28     	; 0x437e <__addsf3x+0x30>
    4362:	9e f5       	brtc	.+102    	; 0x43ca <__addsf3x+0x7c>
    4364:	72 c2       	rjmp	.+1252   	; 0x484a <__fp_zero>
    4366:	0e f4       	brtc	.+2      	; 0x436a <__addsf3x+0x1c>
    4368:	e0 95       	com	r30
    436a:	0b 2e       	mov	r0, r27
    436c:	ba 2f       	mov	r27, r26
    436e:	a0 2d       	mov	r26, r0
    4370:	0b 01       	movw	r0, r22
    4372:	b9 01       	movw	r22, r18
    4374:	90 01       	movw	r18, r0
    4376:	0c 01       	movw	r0, r24
    4378:	ca 01       	movw	r24, r20
    437a:	a0 01       	movw	r20, r0
    437c:	11 24       	eor	r1, r1
    437e:	ff 27       	eor	r31, r31
    4380:	59 1b       	sub	r21, r25
    4382:	99 f0       	breq	.+38     	; 0x43aa <__addsf3x+0x5c>
    4384:	59 3f       	cpi	r21, 0xF9	; 249
    4386:	50 f4       	brcc	.+20     	; 0x439c <__addsf3x+0x4e>
    4388:	50 3e       	cpi	r21, 0xE0	; 224
    438a:	68 f1       	brcs	.+90     	; 0x43e6 <__addsf3x+0x98>
    438c:	1a 16       	cp	r1, r26
    438e:	f0 40       	sbci	r31, 0x00	; 0
    4390:	a2 2f       	mov	r26, r18
    4392:	23 2f       	mov	r18, r19
    4394:	34 2f       	mov	r19, r20
    4396:	44 27       	eor	r20, r20
    4398:	58 5f       	subi	r21, 0xF8	; 248
    439a:	f3 cf       	rjmp	.-26     	; 0x4382 <__addsf3x+0x34>
    439c:	46 95       	lsr	r20
    439e:	37 95       	ror	r19
    43a0:	27 95       	ror	r18
    43a2:	a7 95       	ror	r26
    43a4:	f0 40       	sbci	r31, 0x00	; 0
    43a6:	53 95       	inc	r21
    43a8:	c9 f7       	brne	.-14     	; 0x439c <__addsf3x+0x4e>
    43aa:	7e f4       	brtc	.+30     	; 0x43ca <__addsf3x+0x7c>
    43ac:	1f 16       	cp	r1, r31
    43ae:	ba 0b       	sbc	r27, r26
    43b0:	62 0b       	sbc	r22, r18
    43b2:	73 0b       	sbc	r23, r19
    43b4:	84 0b       	sbc	r24, r20
    43b6:	ba f0       	brmi	.+46     	; 0x43e6 <__addsf3x+0x98>
    43b8:	91 50       	subi	r25, 0x01	; 1
    43ba:	a1 f0       	breq	.+40     	; 0x43e4 <__addsf3x+0x96>
    43bc:	ff 0f       	add	r31, r31
    43be:	bb 1f       	adc	r27, r27
    43c0:	66 1f       	adc	r22, r22
    43c2:	77 1f       	adc	r23, r23
    43c4:	88 1f       	adc	r24, r24
    43c6:	c2 f7       	brpl	.-16     	; 0x43b8 <__addsf3x+0x6a>
    43c8:	0e c0       	rjmp	.+28     	; 0x43e6 <__addsf3x+0x98>
    43ca:	ba 0f       	add	r27, r26
    43cc:	62 1f       	adc	r22, r18
    43ce:	73 1f       	adc	r23, r19
    43d0:	84 1f       	adc	r24, r20
    43d2:	48 f4       	brcc	.+18     	; 0x43e6 <__addsf3x+0x98>
    43d4:	87 95       	ror	r24
    43d6:	77 95       	ror	r23
    43d8:	67 95       	ror	r22
    43da:	b7 95       	ror	r27
    43dc:	f7 95       	ror	r31
    43de:	9e 3f       	cpi	r25, 0xFE	; 254
    43e0:	08 f0       	brcs	.+2      	; 0x43e4 <__addsf3x+0x96>
    43e2:	b3 cf       	rjmp	.-154    	; 0x434a <__addsf3+0x1e>
    43e4:	93 95       	inc	r25
    43e6:	88 0f       	add	r24, r24
    43e8:	08 f0       	brcs	.+2      	; 0x43ec <__addsf3x+0x9e>
    43ea:	99 27       	eor	r25, r25
    43ec:	ee 0f       	add	r30, r30
    43ee:	97 95       	ror	r25
    43f0:	87 95       	ror	r24
    43f2:	08 95       	ret

000043f4 <atan>:
    43f4:	df 93       	push	r29
    43f6:	dd 27       	eor	r29, r29
    43f8:	b9 2f       	mov	r27, r25
    43fa:	bf 77       	andi	r27, 0x7F	; 127
    43fc:	40 e8       	ldi	r20, 0x80	; 128
    43fe:	5f e3       	ldi	r21, 0x3F	; 63
    4400:	16 16       	cp	r1, r22
    4402:	17 06       	cpc	r1, r23
    4404:	48 07       	cpc	r20, r24
    4406:	5b 07       	cpc	r21, r27
    4408:	10 f4       	brcc	.+4      	; 0x440e <atan+0x1a>
    440a:	d9 2f       	mov	r29, r25
    440c:	29 d2       	rcall	.+1106   	; 0x4860 <inverse>
    440e:	9f 93       	push	r25
    4410:	8f 93       	push	r24
    4412:	7f 93       	push	r23
    4414:	6f 93       	push	r22
    4416:	f0 d2       	rcall	.+1504   	; 0x49f8 <square>
    4418:	ee ef       	ldi	r30, 0xFE	; 254
    441a:	f2 e0       	ldi	r31, 0x02	; 2
    441c:	71 d1       	rcall	.+738    	; 0x4700 <__fp_powser>
    441e:	cb d1       	rcall	.+918    	; 0x47b6 <__fp_round>
    4420:	2f 91       	pop	r18
    4422:	3f 91       	pop	r19
    4424:	4f 91       	pop	r20
    4426:	5f 91       	pop	r21
    4428:	2e d2       	rcall	.+1116   	; 0x4886 <__mulsf3x>
    442a:	dd 23       	and	r29, r29
    442c:	49 f0       	breq	.+18     	; 0x4440 <atan+0x4c>
    442e:	90 58       	subi	r25, 0x80	; 128
    4430:	a2 ea       	ldi	r26, 0xA2	; 162
    4432:	2a ed       	ldi	r18, 0xDA	; 218
    4434:	3f e0       	ldi	r19, 0x0F	; 15
    4436:	49 ec       	ldi	r20, 0xC9	; 201
    4438:	5f e3       	ldi	r21, 0x3F	; 63
    443a:	d0 78       	andi	r29, 0x80	; 128
    443c:	5d 27       	eor	r21, r29
    443e:	87 df       	rcall	.-242    	; 0x434e <__addsf3x>
    4440:	df 91       	pop	r29
    4442:	b9 c1       	rjmp	.+882    	; 0x47b6 <__fp_round>

00004444 <__cmpsf2>:
    4444:	07 d1       	rcall	.+526    	; 0x4654 <__fp_cmp>
    4446:	08 f4       	brcc	.+2      	; 0x444a <__cmpsf2+0x6>
    4448:	81 e0       	ldi	r24, 0x01	; 1
    444a:	08 95       	ret

0000444c <__divsf3>:
    444c:	0c d0       	rcall	.+24     	; 0x4466 <__divsf3x>
    444e:	b3 c1       	rjmp	.+870    	; 0x47b6 <__fp_round>
    4450:	83 d1       	rcall	.+774    	; 0x4758 <__fp_pscB>
    4452:	40 f0       	brcs	.+16     	; 0x4464 <__divsf3+0x18>
    4454:	7a d1       	rcall	.+756    	; 0x474a <__fp_pscA>
    4456:	30 f0       	brcs	.+12     	; 0x4464 <__divsf3+0x18>
    4458:	21 f4       	brne	.+8      	; 0x4462 <__divsf3+0x16>
    445a:	5f 3f       	cpi	r21, 0xFF	; 255
    445c:	19 f0       	breq	.+6      	; 0x4464 <__divsf3+0x18>
    445e:	1e c1       	rjmp	.+572    	; 0x469c <__fp_inf>
    4460:	51 11       	cpse	r21, r1
    4462:	f4 c1       	rjmp	.+1000   	; 0x484c <__fp_szero>
    4464:	4a c1       	rjmp	.+660    	; 0x46fa <__fp_nan>

00004466 <__divsf3x>:
    4466:	b8 d1       	rcall	.+880    	; 0x47d8 <__fp_split3>
    4468:	98 f3       	brcs	.-26     	; 0x4450 <__divsf3+0x4>

0000446a <__divsf3_pse>:
    446a:	99 23       	and	r25, r25
    446c:	c9 f3       	breq	.-14     	; 0x4460 <__divsf3+0x14>
    446e:	55 23       	and	r21, r21
    4470:	b1 f3       	breq	.-20     	; 0x445e <__divsf3+0x12>
    4472:	95 1b       	sub	r25, r21
    4474:	55 0b       	sbc	r21, r21
    4476:	bb 27       	eor	r27, r27
    4478:	aa 27       	eor	r26, r26
    447a:	62 17       	cp	r22, r18
    447c:	73 07       	cpc	r23, r19
    447e:	84 07       	cpc	r24, r20
    4480:	38 f0       	brcs	.+14     	; 0x4490 <__divsf3_pse+0x26>
    4482:	9f 5f       	subi	r25, 0xFF	; 255
    4484:	5f 4f       	sbci	r21, 0xFF	; 255
    4486:	22 0f       	add	r18, r18
    4488:	33 1f       	adc	r19, r19
    448a:	44 1f       	adc	r20, r20
    448c:	aa 1f       	adc	r26, r26
    448e:	a9 f3       	breq	.-22     	; 0x447a <__divsf3_pse+0x10>
    4490:	33 d0       	rcall	.+102    	; 0x44f8 <__divsf3_pse+0x8e>
    4492:	0e 2e       	mov	r0, r30
    4494:	3a f0       	brmi	.+14     	; 0x44a4 <__divsf3_pse+0x3a>
    4496:	e0 e8       	ldi	r30, 0x80	; 128
    4498:	30 d0       	rcall	.+96     	; 0x44fa <__divsf3_pse+0x90>
    449a:	91 50       	subi	r25, 0x01	; 1
    449c:	50 40       	sbci	r21, 0x00	; 0
    449e:	e6 95       	lsr	r30
    44a0:	00 1c       	adc	r0, r0
    44a2:	ca f7       	brpl	.-14     	; 0x4496 <__divsf3_pse+0x2c>
    44a4:	29 d0       	rcall	.+82     	; 0x44f8 <__divsf3_pse+0x8e>
    44a6:	fe 2f       	mov	r31, r30
    44a8:	27 d0       	rcall	.+78     	; 0x44f8 <__divsf3_pse+0x8e>
    44aa:	66 0f       	add	r22, r22
    44ac:	77 1f       	adc	r23, r23
    44ae:	88 1f       	adc	r24, r24
    44b0:	bb 1f       	adc	r27, r27
    44b2:	26 17       	cp	r18, r22
    44b4:	37 07       	cpc	r19, r23
    44b6:	48 07       	cpc	r20, r24
    44b8:	ab 07       	cpc	r26, r27
    44ba:	b0 e8       	ldi	r27, 0x80	; 128
    44bc:	09 f0       	breq	.+2      	; 0x44c0 <__divsf3_pse+0x56>
    44be:	bb 0b       	sbc	r27, r27
    44c0:	80 2d       	mov	r24, r0
    44c2:	bf 01       	movw	r22, r30
    44c4:	ff 27       	eor	r31, r31
    44c6:	93 58       	subi	r25, 0x83	; 131
    44c8:	5f 4f       	sbci	r21, 0xFF	; 255
    44ca:	2a f0       	brmi	.+10     	; 0x44d6 <__divsf3_pse+0x6c>
    44cc:	9e 3f       	cpi	r25, 0xFE	; 254
    44ce:	51 05       	cpc	r21, r1
    44d0:	68 f0       	brcs	.+26     	; 0x44ec <__divsf3_pse+0x82>
    44d2:	e4 c0       	rjmp	.+456    	; 0x469c <__fp_inf>
    44d4:	bb c1       	rjmp	.+886    	; 0x484c <__fp_szero>
    44d6:	5f 3f       	cpi	r21, 0xFF	; 255
    44d8:	ec f3       	brlt	.-6      	; 0x44d4 <__divsf3_pse+0x6a>
    44da:	98 3e       	cpi	r25, 0xE8	; 232
    44dc:	dc f3       	brlt	.-10     	; 0x44d4 <__divsf3_pse+0x6a>
    44de:	86 95       	lsr	r24
    44e0:	77 95       	ror	r23
    44e2:	67 95       	ror	r22
    44e4:	b7 95       	ror	r27
    44e6:	f7 95       	ror	r31
    44e8:	9f 5f       	subi	r25, 0xFF	; 255
    44ea:	c9 f7       	brne	.-14     	; 0x44de <__divsf3_pse+0x74>
    44ec:	88 0f       	add	r24, r24
    44ee:	91 1d       	adc	r25, r1
    44f0:	96 95       	lsr	r25
    44f2:	87 95       	ror	r24
    44f4:	97 f9       	bld	r25, 7
    44f6:	08 95       	ret
    44f8:	e1 e0       	ldi	r30, 0x01	; 1
    44fa:	66 0f       	add	r22, r22
    44fc:	77 1f       	adc	r23, r23
    44fe:	88 1f       	adc	r24, r24
    4500:	bb 1f       	adc	r27, r27
    4502:	62 17       	cp	r22, r18
    4504:	73 07       	cpc	r23, r19
    4506:	84 07       	cpc	r24, r20
    4508:	ba 07       	cpc	r27, r26
    450a:	20 f0       	brcs	.+8      	; 0x4514 <__divsf3_pse+0xaa>
    450c:	62 1b       	sub	r22, r18
    450e:	73 0b       	sbc	r23, r19
    4510:	84 0b       	sbc	r24, r20
    4512:	ba 0b       	sbc	r27, r26
    4514:	ee 1f       	adc	r30, r30
    4516:	88 f7       	brcc	.-30     	; 0x44fa <__divsf3_pse+0x90>
    4518:	e0 95       	com	r30
    451a:	08 95       	ret

0000451c <__fixsfsi>:
    451c:	04 d0       	rcall	.+8      	; 0x4526 <__fixunssfsi>
    451e:	68 94       	set
    4520:	b1 11       	cpse	r27, r1
    4522:	94 c1       	rjmp	.+808    	; 0x484c <__fp_szero>
    4524:	08 95       	ret

00004526 <__fixunssfsi>:
    4526:	60 d1       	rcall	.+704    	; 0x47e8 <__fp_splitA>
    4528:	88 f0       	brcs	.+34     	; 0x454c <__fixunssfsi+0x26>
    452a:	9f 57       	subi	r25, 0x7F	; 127
    452c:	90 f0       	brcs	.+36     	; 0x4552 <__fixunssfsi+0x2c>
    452e:	b9 2f       	mov	r27, r25
    4530:	99 27       	eor	r25, r25
    4532:	b7 51       	subi	r27, 0x17	; 23
    4534:	a0 f0       	brcs	.+40     	; 0x455e <__fixunssfsi+0x38>
    4536:	d1 f0       	breq	.+52     	; 0x456c <__fixunssfsi+0x46>
    4538:	66 0f       	add	r22, r22
    453a:	77 1f       	adc	r23, r23
    453c:	88 1f       	adc	r24, r24
    453e:	99 1f       	adc	r25, r25
    4540:	1a f0       	brmi	.+6      	; 0x4548 <__fixunssfsi+0x22>
    4542:	ba 95       	dec	r27
    4544:	c9 f7       	brne	.-14     	; 0x4538 <__fixunssfsi+0x12>
    4546:	12 c0       	rjmp	.+36     	; 0x456c <__fixunssfsi+0x46>
    4548:	b1 30       	cpi	r27, 0x01	; 1
    454a:	81 f0       	breq	.+32     	; 0x456c <__fixunssfsi+0x46>
    454c:	7e d1       	rcall	.+764    	; 0x484a <__fp_zero>
    454e:	b1 e0       	ldi	r27, 0x01	; 1
    4550:	08 95       	ret
    4552:	7b c1       	rjmp	.+758    	; 0x484a <__fp_zero>
    4554:	67 2f       	mov	r22, r23
    4556:	78 2f       	mov	r23, r24
    4558:	88 27       	eor	r24, r24
    455a:	b8 5f       	subi	r27, 0xF8	; 248
    455c:	39 f0       	breq	.+14     	; 0x456c <__fixunssfsi+0x46>
    455e:	b9 3f       	cpi	r27, 0xF9	; 249
    4560:	cc f3       	brlt	.-14     	; 0x4554 <__fixunssfsi+0x2e>
    4562:	86 95       	lsr	r24
    4564:	77 95       	ror	r23
    4566:	67 95       	ror	r22
    4568:	b3 95       	inc	r27
    456a:	d9 f7       	brne	.-10     	; 0x4562 <__fixunssfsi+0x3c>
    456c:	3e f4       	brtc	.+14     	; 0x457c <__fixunssfsi+0x56>
    456e:	90 95       	com	r25
    4570:	80 95       	com	r24
    4572:	70 95       	com	r23
    4574:	61 95       	neg	r22
    4576:	7f 4f       	sbci	r23, 0xFF	; 255
    4578:	8f 4f       	sbci	r24, 0xFF	; 255
    457a:	9f 4f       	sbci	r25, 0xFF	; 255
    457c:	08 95       	ret

0000457e <__floatunsisf>:
    457e:	e8 94       	clt
    4580:	09 c0       	rjmp	.+18     	; 0x4594 <__floatsisf+0x12>

00004582 <__floatsisf>:
    4582:	97 fb       	bst	r25, 7
    4584:	3e f4       	brtc	.+14     	; 0x4594 <__floatsisf+0x12>
    4586:	90 95       	com	r25
    4588:	80 95       	com	r24
    458a:	70 95       	com	r23
    458c:	61 95       	neg	r22
    458e:	7f 4f       	sbci	r23, 0xFF	; 255
    4590:	8f 4f       	sbci	r24, 0xFF	; 255
    4592:	9f 4f       	sbci	r25, 0xFF	; 255
    4594:	99 23       	and	r25, r25
    4596:	a9 f0       	breq	.+42     	; 0x45c2 <__floatsisf+0x40>
    4598:	f9 2f       	mov	r31, r25
    459a:	96 e9       	ldi	r25, 0x96	; 150
    459c:	bb 27       	eor	r27, r27
    459e:	93 95       	inc	r25
    45a0:	f6 95       	lsr	r31
    45a2:	87 95       	ror	r24
    45a4:	77 95       	ror	r23
    45a6:	67 95       	ror	r22
    45a8:	b7 95       	ror	r27
    45aa:	f1 11       	cpse	r31, r1
    45ac:	f8 cf       	rjmp	.-16     	; 0x459e <__floatsisf+0x1c>
    45ae:	fa f4       	brpl	.+62     	; 0x45ee <__floatsisf+0x6c>
    45b0:	bb 0f       	add	r27, r27
    45b2:	11 f4       	brne	.+4      	; 0x45b8 <__floatsisf+0x36>
    45b4:	60 ff       	sbrs	r22, 0
    45b6:	1b c0       	rjmp	.+54     	; 0x45ee <__floatsisf+0x6c>
    45b8:	6f 5f       	subi	r22, 0xFF	; 255
    45ba:	7f 4f       	sbci	r23, 0xFF	; 255
    45bc:	8f 4f       	sbci	r24, 0xFF	; 255
    45be:	9f 4f       	sbci	r25, 0xFF	; 255
    45c0:	16 c0       	rjmp	.+44     	; 0x45ee <__floatsisf+0x6c>
    45c2:	88 23       	and	r24, r24
    45c4:	11 f0       	breq	.+4      	; 0x45ca <__floatsisf+0x48>
    45c6:	96 e9       	ldi	r25, 0x96	; 150
    45c8:	11 c0       	rjmp	.+34     	; 0x45ec <__floatsisf+0x6a>
    45ca:	77 23       	and	r23, r23
    45cc:	21 f0       	breq	.+8      	; 0x45d6 <__floatsisf+0x54>
    45ce:	9e e8       	ldi	r25, 0x8E	; 142
    45d0:	87 2f       	mov	r24, r23
    45d2:	76 2f       	mov	r23, r22
    45d4:	05 c0       	rjmp	.+10     	; 0x45e0 <__floatsisf+0x5e>
    45d6:	66 23       	and	r22, r22
    45d8:	71 f0       	breq	.+28     	; 0x45f6 <__floatsisf+0x74>
    45da:	96 e8       	ldi	r25, 0x86	; 134
    45dc:	86 2f       	mov	r24, r22
    45de:	70 e0       	ldi	r23, 0x00	; 0
    45e0:	60 e0       	ldi	r22, 0x00	; 0
    45e2:	2a f0       	brmi	.+10     	; 0x45ee <__floatsisf+0x6c>
    45e4:	9a 95       	dec	r25
    45e6:	66 0f       	add	r22, r22
    45e8:	77 1f       	adc	r23, r23
    45ea:	88 1f       	adc	r24, r24
    45ec:	da f7       	brpl	.-10     	; 0x45e4 <__floatsisf+0x62>
    45ee:	88 0f       	add	r24, r24
    45f0:	96 95       	lsr	r25
    45f2:	87 95       	ror	r24
    45f4:	97 f9       	bld	r25, 7
    45f6:	08 95       	ret

000045f8 <floor>:
    45f8:	11 d1       	rcall	.+546    	; 0x481c <__fp_trunc>
    45fa:	80 f0       	brcs	.+32     	; 0x461c <floor+0x24>
    45fc:	9f 37       	cpi	r25, 0x7F	; 127
    45fe:	40 f4       	brcc	.+16     	; 0x4610 <floor+0x18>
    4600:	91 11       	cpse	r25, r1
    4602:	0e f0       	brts	.+2      	; 0x4606 <floor+0xe>
    4604:	23 c1       	rjmp	.+582    	; 0x484c <__fp_szero>
    4606:	60 e0       	ldi	r22, 0x00	; 0
    4608:	70 e0       	ldi	r23, 0x00	; 0
    460a:	80 e8       	ldi	r24, 0x80	; 128
    460c:	9f eb       	ldi	r25, 0xBF	; 191
    460e:	08 95       	ret
    4610:	26 f4       	brtc	.+8      	; 0x461a <floor+0x22>
    4612:	1b 16       	cp	r1, r27
    4614:	61 1d       	adc	r22, r1
    4616:	71 1d       	adc	r23, r1
    4618:	81 1d       	adc	r24, r1
    461a:	46 c0       	rjmp	.+140    	; 0x46a8 <__fp_mintl>
    461c:	60 c0       	rjmp	.+192    	; 0x46de <__fp_mpack>

0000461e <__fp_arccos>:
    461e:	df 93       	push	r29
    4620:	cf 93       	push	r28
    4622:	1f 93       	push	r17
    4624:	0f 93       	push	r16
    4626:	8b 01       	movw	r16, r22
    4628:	ec 01       	movw	r28, r24
    462a:	eb e2       	ldi	r30, 0x2B	; 43
    462c:	f3 e0       	ldi	r31, 0x03	; 3
    462e:	68 d0       	rcall	.+208    	; 0x4700 <__fp_powser>
    4630:	c2 d0       	rcall	.+388    	; 0x47b6 <__fp_round>
    4632:	98 01       	movw	r18, r16
    4634:	ae 01       	movw	r20, r28
    4636:	8b 01       	movw	r16, r22
    4638:	ec 01       	movw	r28, r24
    463a:	60 e0       	ldi	r22, 0x00	; 0
    463c:	70 e0       	ldi	r23, 0x00	; 0
    463e:	80 e8       	ldi	r24, 0x80	; 128
    4640:	9f e3       	ldi	r25, 0x3F	; 63
    4642:	73 de       	rcall	.-794    	; 0x432a <__subsf3>
    4644:	9b d1       	rcall	.+822    	; 0x497c <sqrt>
    4646:	98 01       	movw	r18, r16
    4648:	ae 01       	movw	r20, r28
    464a:	0f 91       	pop	r16
    464c:	1f 91       	pop	r17
    464e:	cf 91       	pop	r28
    4650:	df 91       	pop	r29
    4652:	19 c1       	rjmp	.+562    	; 0x4886 <__mulsf3x>

00004654 <__fp_cmp>:
    4654:	99 0f       	add	r25, r25
    4656:	00 08       	sbc	r0, r0
    4658:	55 0f       	add	r21, r21
    465a:	aa 0b       	sbc	r26, r26
    465c:	e0 e8       	ldi	r30, 0x80	; 128
    465e:	fe ef       	ldi	r31, 0xFE	; 254
    4660:	16 16       	cp	r1, r22
    4662:	17 06       	cpc	r1, r23
    4664:	e8 07       	cpc	r30, r24
    4666:	f9 07       	cpc	r31, r25
    4668:	c0 f0       	brcs	.+48     	; 0x469a <__fp_cmp+0x46>
    466a:	12 16       	cp	r1, r18
    466c:	13 06       	cpc	r1, r19
    466e:	e4 07       	cpc	r30, r20
    4670:	f5 07       	cpc	r31, r21
    4672:	98 f0       	brcs	.+38     	; 0x469a <__fp_cmp+0x46>
    4674:	62 1b       	sub	r22, r18
    4676:	73 0b       	sbc	r23, r19
    4678:	84 0b       	sbc	r24, r20
    467a:	95 0b       	sbc	r25, r21
    467c:	39 f4       	brne	.+14     	; 0x468c <__fp_cmp+0x38>
    467e:	0a 26       	eor	r0, r26
    4680:	61 f0       	breq	.+24     	; 0x469a <__fp_cmp+0x46>
    4682:	23 2b       	or	r18, r19
    4684:	24 2b       	or	r18, r20
    4686:	25 2b       	or	r18, r21
    4688:	21 f4       	brne	.+8      	; 0x4692 <__fp_cmp+0x3e>
    468a:	08 95       	ret
    468c:	0a 26       	eor	r0, r26
    468e:	09 f4       	brne	.+2      	; 0x4692 <__fp_cmp+0x3e>
    4690:	a1 40       	sbci	r26, 0x01	; 1
    4692:	a6 95       	lsr	r26
    4694:	8f ef       	ldi	r24, 0xFF	; 255
    4696:	81 1d       	adc	r24, r1
    4698:	81 1d       	adc	r24, r1
    469a:	08 95       	ret

0000469c <__fp_inf>:
    469c:	97 f9       	bld	r25, 7
    469e:	9f 67       	ori	r25, 0x7F	; 127
    46a0:	80 e8       	ldi	r24, 0x80	; 128
    46a2:	70 e0       	ldi	r23, 0x00	; 0
    46a4:	60 e0       	ldi	r22, 0x00	; 0
    46a6:	08 95       	ret

000046a8 <__fp_mintl>:
    46a8:	88 23       	and	r24, r24
    46aa:	71 f4       	brne	.+28     	; 0x46c8 <__fp_mintl+0x20>
    46ac:	77 23       	and	r23, r23
    46ae:	21 f0       	breq	.+8      	; 0x46b8 <__fp_mintl+0x10>
    46b0:	98 50       	subi	r25, 0x08	; 8
    46b2:	87 2b       	or	r24, r23
    46b4:	76 2f       	mov	r23, r22
    46b6:	07 c0       	rjmp	.+14     	; 0x46c6 <__fp_mintl+0x1e>
    46b8:	66 23       	and	r22, r22
    46ba:	11 f4       	brne	.+4      	; 0x46c0 <__fp_mintl+0x18>
    46bc:	99 27       	eor	r25, r25
    46be:	0d c0       	rjmp	.+26     	; 0x46da <__fp_mintl+0x32>
    46c0:	90 51       	subi	r25, 0x10	; 16
    46c2:	86 2b       	or	r24, r22
    46c4:	70 e0       	ldi	r23, 0x00	; 0
    46c6:	60 e0       	ldi	r22, 0x00	; 0
    46c8:	2a f0       	brmi	.+10     	; 0x46d4 <__fp_mintl+0x2c>
    46ca:	9a 95       	dec	r25
    46cc:	66 0f       	add	r22, r22
    46ce:	77 1f       	adc	r23, r23
    46d0:	88 1f       	adc	r24, r24
    46d2:	da f7       	brpl	.-10     	; 0x46ca <__fp_mintl+0x22>
    46d4:	88 0f       	add	r24, r24
    46d6:	96 95       	lsr	r25
    46d8:	87 95       	ror	r24
    46da:	97 f9       	bld	r25, 7
    46dc:	08 95       	ret

000046de <__fp_mpack>:
    46de:	9f 3f       	cpi	r25, 0xFF	; 255
    46e0:	31 f0       	breq	.+12     	; 0x46ee <__fp_mpack_finite+0xc>

000046e2 <__fp_mpack_finite>:
    46e2:	91 50       	subi	r25, 0x01	; 1
    46e4:	20 f4       	brcc	.+8      	; 0x46ee <__fp_mpack_finite+0xc>
    46e6:	87 95       	ror	r24
    46e8:	77 95       	ror	r23
    46ea:	67 95       	ror	r22
    46ec:	b7 95       	ror	r27
    46ee:	88 0f       	add	r24, r24
    46f0:	91 1d       	adc	r25, r1
    46f2:	96 95       	lsr	r25
    46f4:	87 95       	ror	r24
    46f6:	97 f9       	bld	r25, 7
    46f8:	08 95       	ret

000046fa <__fp_nan>:
    46fa:	9f ef       	ldi	r25, 0xFF	; 255
    46fc:	80 ec       	ldi	r24, 0xC0	; 192
    46fe:	08 95       	ret

00004700 <__fp_powser>:
    4700:	df 93       	push	r29
    4702:	cf 93       	push	r28
    4704:	1f 93       	push	r17
    4706:	0f 93       	push	r16
    4708:	ff 92       	push	r15
    470a:	ef 92       	push	r14
    470c:	df 92       	push	r13
    470e:	7b 01       	movw	r14, r22
    4710:	8c 01       	movw	r16, r24
    4712:	68 94       	set
    4714:	05 c0       	rjmp	.+10     	; 0x4720 <__fp_powser+0x20>
    4716:	da 2e       	mov	r13, r26
    4718:	ef 01       	movw	r28, r30
    471a:	b5 d0       	rcall	.+362    	; 0x4886 <__mulsf3x>
    471c:	fe 01       	movw	r30, r28
    471e:	e8 94       	clt
    4720:	a5 91       	lpm	r26, Z+
    4722:	25 91       	lpm	r18, Z+
    4724:	35 91       	lpm	r19, Z+
    4726:	45 91       	lpm	r20, Z+
    4728:	55 91       	lpm	r21, Z+
    472a:	ae f3       	brts	.-22     	; 0x4716 <__fp_powser+0x16>
    472c:	ef 01       	movw	r28, r30
    472e:	0f de       	rcall	.-994    	; 0x434e <__addsf3x>
    4730:	fe 01       	movw	r30, r28
    4732:	97 01       	movw	r18, r14
    4734:	a8 01       	movw	r20, r16
    4736:	da 94       	dec	r13
    4738:	79 f7       	brne	.-34     	; 0x4718 <__fp_powser+0x18>
    473a:	df 90       	pop	r13
    473c:	ef 90       	pop	r14
    473e:	ff 90       	pop	r15
    4740:	0f 91       	pop	r16
    4742:	1f 91       	pop	r17
    4744:	cf 91       	pop	r28
    4746:	df 91       	pop	r29
    4748:	08 95       	ret

0000474a <__fp_pscA>:
    474a:	00 24       	eor	r0, r0
    474c:	0a 94       	dec	r0
    474e:	16 16       	cp	r1, r22
    4750:	17 06       	cpc	r1, r23
    4752:	18 06       	cpc	r1, r24
    4754:	09 06       	cpc	r0, r25
    4756:	08 95       	ret

00004758 <__fp_pscB>:
    4758:	00 24       	eor	r0, r0
    475a:	0a 94       	dec	r0
    475c:	12 16       	cp	r1, r18
    475e:	13 06       	cpc	r1, r19
    4760:	14 06       	cpc	r1, r20
    4762:	05 06       	cpc	r0, r21
    4764:	08 95       	ret
    4766:	c9 cf       	rjmp	.-110    	; 0x46fa <__fp_nan>

00004768 <__fp_rempio2>:
    4768:	3f d0       	rcall	.+126    	; 0x47e8 <__fp_splitA>
    476a:	e8 f3       	brcs	.-6      	; 0x4766 <__fp_pscB+0xe>
    476c:	e8 94       	clt
    476e:	e0 e0       	ldi	r30, 0x00	; 0
    4770:	bb 27       	eor	r27, r27
    4772:	9f 57       	subi	r25, 0x7F	; 127
    4774:	f0 f0       	brcs	.+60     	; 0x47b2 <__fp_rempio2+0x4a>
    4776:	2a ed       	ldi	r18, 0xDA	; 218
    4778:	3f e0       	ldi	r19, 0x0F	; 15
    477a:	49 ec       	ldi	r20, 0xC9	; 201
    477c:	06 c0       	rjmp	.+12     	; 0x478a <__fp_rempio2+0x22>
    477e:	ee 0f       	add	r30, r30
    4780:	bb 0f       	add	r27, r27
    4782:	66 1f       	adc	r22, r22
    4784:	77 1f       	adc	r23, r23
    4786:	88 1f       	adc	r24, r24
    4788:	28 f0       	brcs	.+10     	; 0x4794 <__fp_rempio2+0x2c>
    478a:	b2 3a       	cpi	r27, 0xA2	; 162
    478c:	62 07       	cpc	r22, r18
    478e:	73 07       	cpc	r23, r19
    4790:	84 07       	cpc	r24, r20
    4792:	28 f0       	brcs	.+10     	; 0x479e <__fp_rempio2+0x36>
    4794:	b2 5a       	subi	r27, 0xA2	; 162
    4796:	62 0b       	sbc	r22, r18
    4798:	73 0b       	sbc	r23, r19
    479a:	84 0b       	sbc	r24, r20
    479c:	e3 95       	inc	r30
    479e:	9a 95       	dec	r25
    47a0:	72 f7       	brpl	.-36     	; 0x477e <__fp_rempio2+0x16>
    47a2:	80 38       	cpi	r24, 0x80	; 128
    47a4:	30 f4       	brcc	.+12     	; 0x47b2 <__fp_rempio2+0x4a>
    47a6:	9a 95       	dec	r25
    47a8:	bb 0f       	add	r27, r27
    47aa:	66 1f       	adc	r22, r22
    47ac:	77 1f       	adc	r23, r23
    47ae:	88 1f       	adc	r24, r24
    47b0:	d2 f7       	brpl	.-12     	; 0x47a6 <__fp_rempio2+0x3e>
    47b2:	90 48       	sbci	r25, 0x80	; 128
    47b4:	96 cf       	rjmp	.-212    	; 0x46e2 <__fp_mpack_finite>

000047b6 <__fp_round>:
    47b6:	09 2e       	mov	r0, r25
    47b8:	03 94       	inc	r0
    47ba:	00 0c       	add	r0, r0
    47bc:	11 f4       	brne	.+4      	; 0x47c2 <__fp_round+0xc>
    47be:	88 23       	and	r24, r24
    47c0:	52 f0       	brmi	.+20     	; 0x47d6 <__fp_round+0x20>
    47c2:	bb 0f       	add	r27, r27
    47c4:	40 f4       	brcc	.+16     	; 0x47d6 <__fp_round+0x20>
    47c6:	bf 2b       	or	r27, r31
    47c8:	11 f4       	brne	.+4      	; 0x47ce <__fp_round+0x18>
    47ca:	60 ff       	sbrs	r22, 0
    47cc:	04 c0       	rjmp	.+8      	; 0x47d6 <__fp_round+0x20>
    47ce:	6f 5f       	subi	r22, 0xFF	; 255
    47d0:	7f 4f       	sbci	r23, 0xFF	; 255
    47d2:	8f 4f       	sbci	r24, 0xFF	; 255
    47d4:	9f 4f       	sbci	r25, 0xFF	; 255
    47d6:	08 95       	ret

000047d8 <__fp_split3>:
    47d8:	57 fd       	sbrc	r21, 7
    47da:	90 58       	subi	r25, 0x80	; 128
    47dc:	44 0f       	add	r20, r20
    47de:	55 1f       	adc	r21, r21
    47e0:	59 f0       	breq	.+22     	; 0x47f8 <__fp_splitA+0x10>
    47e2:	5f 3f       	cpi	r21, 0xFF	; 255
    47e4:	71 f0       	breq	.+28     	; 0x4802 <__fp_splitA+0x1a>
    47e6:	47 95       	ror	r20

000047e8 <__fp_splitA>:
    47e8:	88 0f       	add	r24, r24
    47ea:	97 fb       	bst	r25, 7
    47ec:	99 1f       	adc	r25, r25
    47ee:	61 f0       	breq	.+24     	; 0x4808 <__fp_splitA+0x20>
    47f0:	9f 3f       	cpi	r25, 0xFF	; 255
    47f2:	79 f0       	breq	.+30     	; 0x4812 <__fp_splitA+0x2a>
    47f4:	87 95       	ror	r24
    47f6:	08 95       	ret
    47f8:	12 16       	cp	r1, r18
    47fa:	13 06       	cpc	r1, r19
    47fc:	14 06       	cpc	r1, r20
    47fe:	55 1f       	adc	r21, r21
    4800:	f2 cf       	rjmp	.-28     	; 0x47e6 <__fp_split3+0xe>
    4802:	46 95       	lsr	r20
    4804:	f1 df       	rcall	.-30     	; 0x47e8 <__fp_splitA>
    4806:	08 c0       	rjmp	.+16     	; 0x4818 <__fp_splitA+0x30>
    4808:	16 16       	cp	r1, r22
    480a:	17 06       	cpc	r1, r23
    480c:	18 06       	cpc	r1, r24
    480e:	99 1f       	adc	r25, r25
    4810:	f1 cf       	rjmp	.-30     	; 0x47f4 <__fp_splitA+0xc>
    4812:	86 95       	lsr	r24
    4814:	71 05       	cpc	r23, r1
    4816:	61 05       	cpc	r22, r1
    4818:	08 94       	sec
    481a:	08 95       	ret

0000481c <__fp_trunc>:
    481c:	e5 df       	rcall	.-54     	; 0x47e8 <__fp_splitA>
    481e:	a0 f0       	brcs	.+40     	; 0x4848 <__fp_trunc+0x2c>
    4820:	be e7       	ldi	r27, 0x7E	; 126
    4822:	b9 17       	cp	r27, r25
    4824:	88 f4       	brcc	.+34     	; 0x4848 <__fp_trunc+0x2c>
    4826:	bb 27       	eor	r27, r27
    4828:	9f 38       	cpi	r25, 0x8F	; 143
    482a:	60 f4       	brcc	.+24     	; 0x4844 <__fp_trunc+0x28>
    482c:	16 16       	cp	r1, r22
    482e:	b1 1d       	adc	r27, r1
    4830:	67 2f       	mov	r22, r23
    4832:	78 2f       	mov	r23, r24
    4834:	88 27       	eor	r24, r24
    4836:	98 5f       	subi	r25, 0xF8	; 248
    4838:	f7 cf       	rjmp	.-18     	; 0x4828 <__fp_trunc+0xc>
    483a:	86 95       	lsr	r24
    483c:	77 95       	ror	r23
    483e:	67 95       	ror	r22
    4840:	b1 1d       	adc	r27, r1
    4842:	93 95       	inc	r25
    4844:	96 39       	cpi	r25, 0x96	; 150
    4846:	c8 f3       	brcs	.-14     	; 0x483a <__fp_trunc+0x1e>
    4848:	08 95       	ret

0000484a <__fp_zero>:
    484a:	e8 94       	clt

0000484c <__fp_szero>:
    484c:	bb 27       	eor	r27, r27
    484e:	66 27       	eor	r22, r22
    4850:	77 27       	eor	r23, r23
    4852:	cb 01       	movw	r24, r22
    4854:	97 f9       	bld	r25, 7
    4856:	08 95       	ret

00004858 <__gesf2>:
    4858:	fd de       	rcall	.-518    	; 0x4654 <__fp_cmp>
    485a:	08 f4       	brcc	.+2      	; 0x485e <__gesf2+0x6>
    485c:	8f ef       	ldi	r24, 0xFF	; 255
    485e:	08 95       	ret

00004860 <inverse>:
    4860:	9b 01       	movw	r18, r22
    4862:	ac 01       	movw	r20, r24
    4864:	60 e0       	ldi	r22, 0x00	; 0
    4866:	70 e0       	ldi	r23, 0x00	; 0
    4868:	80 e8       	ldi	r24, 0x80	; 128
    486a:	9f e3       	ldi	r25, 0x3F	; 63
    486c:	ef cd       	rjmp	.-1058   	; 0x444c <__divsf3>

0000486e <__mulsf3>:
    486e:	0b d0       	rcall	.+22     	; 0x4886 <__mulsf3x>
    4870:	a2 cf       	rjmp	.-188    	; 0x47b6 <__fp_round>
    4872:	6b df       	rcall	.-298    	; 0x474a <__fp_pscA>
    4874:	28 f0       	brcs	.+10     	; 0x4880 <__mulsf3+0x12>
    4876:	70 df       	rcall	.-288    	; 0x4758 <__fp_pscB>
    4878:	18 f0       	brcs	.+6      	; 0x4880 <__mulsf3+0x12>
    487a:	95 23       	and	r25, r21
    487c:	09 f0       	breq	.+2      	; 0x4880 <__mulsf3+0x12>
    487e:	0e cf       	rjmp	.-484    	; 0x469c <__fp_inf>
    4880:	3c cf       	rjmp	.-392    	; 0x46fa <__fp_nan>
    4882:	11 24       	eor	r1, r1
    4884:	e3 cf       	rjmp	.-58     	; 0x484c <__fp_szero>

00004886 <__mulsf3x>:
    4886:	a8 df       	rcall	.-176    	; 0x47d8 <__fp_split3>
    4888:	a0 f3       	brcs	.-24     	; 0x4872 <__mulsf3+0x4>

0000488a <__mulsf3_pse>:
    488a:	95 9f       	mul	r25, r21
    488c:	d1 f3       	breq	.-12     	; 0x4882 <__mulsf3+0x14>
    488e:	95 0f       	add	r25, r21
    4890:	50 e0       	ldi	r21, 0x00	; 0
    4892:	55 1f       	adc	r21, r21
    4894:	62 9f       	mul	r22, r18
    4896:	f0 01       	movw	r30, r0
    4898:	72 9f       	mul	r23, r18
    489a:	bb 27       	eor	r27, r27
    489c:	f0 0d       	add	r31, r0
    489e:	b1 1d       	adc	r27, r1
    48a0:	63 9f       	mul	r22, r19
    48a2:	aa 27       	eor	r26, r26
    48a4:	f0 0d       	add	r31, r0
    48a6:	b1 1d       	adc	r27, r1
    48a8:	aa 1f       	adc	r26, r26
    48aa:	64 9f       	mul	r22, r20
    48ac:	66 27       	eor	r22, r22
    48ae:	b0 0d       	add	r27, r0
    48b0:	a1 1d       	adc	r26, r1
    48b2:	66 1f       	adc	r22, r22
    48b4:	82 9f       	mul	r24, r18
    48b6:	22 27       	eor	r18, r18
    48b8:	b0 0d       	add	r27, r0
    48ba:	a1 1d       	adc	r26, r1
    48bc:	62 1f       	adc	r22, r18
    48be:	73 9f       	mul	r23, r19
    48c0:	b0 0d       	add	r27, r0
    48c2:	a1 1d       	adc	r26, r1
    48c4:	62 1f       	adc	r22, r18
    48c6:	83 9f       	mul	r24, r19
    48c8:	a0 0d       	add	r26, r0
    48ca:	61 1d       	adc	r22, r1
    48cc:	22 1f       	adc	r18, r18
    48ce:	74 9f       	mul	r23, r20
    48d0:	33 27       	eor	r19, r19
    48d2:	a0 0d       	add	r26, r0
    48d4:	61 1d       	adc	r22, r1
    48d6:	23 1f       	adc	r18, r19
    48d8:	84 9f       	mul	r24, r20
    48da:	60 0d       	add	r22, r0
    48dc:	21 1d       	adc	r18, r1
    48de:	82 2f       	mov	r24, r18
    48e0:	76 2f       	mov	r23, r22
    48e2:	6a 2f       	mov	r22, r26
    48e4:	11 24       	eor	r1, r1
    48e6:	9f 57       	subi	r25, 0x7F	; 127
    48e8:	50 40       	sbci	r21, 0x00	; 0
    48ea:	8a f0       	brmi	.+34     	; 0x490e <__mulsf3_pse+0x84>
    48ec:	e1 f0       	breq	.+56     	; 0x4926 <__mulsf3_pse+0x9c>
    48ee:	88 23       	and	r24, r24
    48f0:	4a f0       	brmi	.+18     	; 0x4904 <__mulsf3_pse+0x7a>
    48f2:	ee 0f       	add	r30, r30
    48f4:	ff 1f       	adc	r31, r31
    48f6:	bb 1f       	adc	r27, r27
    48f8:	66 1f       	adc	r22, r22
    48fa:	77 1f       	adc	r23, r23
    48fc:	88 1f       	adc	r24, r24
    48fe:	91 50       	subi	r25, 0x01	; 1
    4900:	50 40       	sbci	r21, 0x00	; 0
    4902:	a9 f7       	brne	.-22     	; 0x48ee <__mulsf3_pse+0x64>
    4904:	9e 3f       	cpi	r25, 0xFE	; 254
    4906:	51 05       	cpc	r21, r1
    4908:	70 f0       	brcs	.+28     	; 0x4926 <__mulsf3_pse+0x9c>
    490a:	c8 ce       	rjmp	.-624    	; 0x469c <__fp_inf>
    490c:	9f cf       	rjmp	.-194    	; 0x484c <__fp_szero>
    490e:	5f 3f       	cpi	r21, 0xFF	; 255
    4910:	ec f3       	brlt	.-6      	; 0x490c <__mulsf3_pse+0x82>
    4912:	98 3e       	cpi	r25, 0xE8	; 232
    4914:	dc f3       	brlt	.-10     	; 0x490c <__mulsf3_pse+0x82>
    4916:	86 95       	lsr	r24
    4918:	77 95       	ror	r23
    491a:	67 95       	ror	r22
    491c:	b7 95       	ror	r27
    491e:	f7 95       	ror	r31
    4920:	e7 95       	ror	r30
    4922:	9f 5f       	subi	r25, 0xFF	; 255
    4924:	c1 f7       	brne	.-16     	; 0x4916 <__mulsf3_pse+0x8c>
    4926:	fe 2b       	or	r31, r30
    4928:	88 0f       	add	r24, r24
    492a:	91 1d       	adc	r25, r1
    492c:	96 95       	lsr	r25
    492e:	87 95       	ror	r24
    4930:	97 f9       	bld	r25, 7
    4932:	08 95       	ret

00004934 <round>:
    4934:	59 df       	rcall	.-334    	; 0x47e8 <__fp_splitA>
    4936:	e0 f0       	brcs	.+56     	; 0x4970 <round+0x3c>
    4938:	9e 37       	cpi	r25, 0x7E	; 126
    493a:	d8 f0       	brcs	.+54     	; 0x4972 <round+0x3e>
    493c:	96 39       	cpi	r25, 0x96	; 150
    493e:	b8 f4       	brcc	.+46     	; 0x496e <round+0x3a>
    4940:	9e 38       	cpi	r25, 0x8E	; 142
    4942:	48 f4       	brcc	.+18     	; 0x4956 <round+0x22>
    4944:	67 2f       	mov	r22, r23
    4946:	78 2f       	mov	r23, r24
    4948:	88 27       	eor	r24, r24
    494a:	98 5f       	subi	r25, 0xF8	; 248
    494c:	f9 cf       	rjmp	.-14     	; 0x4940 <round+0xc>
    494e:	86 95       	lsr	r24
    4950:	77 95       	ror	r23
    4952:	67 95       	ror	r22
    4954:	93 95       	inc	r25
    4956:	95 39       	cpi	r25, 0x95	; 149
    4958:	d0 f3       	brcs	.-12     	; 0x494e <round+0x1a>
    495a:	b6 2f       	mov	r27, r22
    495c:	b1 70       	andi	r27, 0x01	; 1
    495e:	6b 0f       	add	r22, r27
    4960:	71 1d       	adc	r23, r1
    4962:	81 1d       	adc	r24, r1
    4964:	20 f4       	brcc	.+8      	; 0x496e <round+0x3a>
    4966:	87 95       	ror	r24
    4968:	77 95       	ror	r23
    496a:	67 95       	ror	r22
    496c:	93 95       	inc	r25
    496e:	9c ce       	rjmp	.-712    	; 0x46a8 <__fp_mintl>
    4970:	b6 ce       	rjmp	.-660    	; 0x46de <__fp_mpack>
    4972:	6c cf       	rjmp	.-296    	; 0x484c <__fp_szero>
    4974:	11 f4       	brne	.+4      	; 0x497a <round+0x46>
    4976:	0e f4       	brtc	.+2      	; 0x497a <round+0x46>
    4978:	c0 ce       	rjmp	.-640    	; 0x46fa <__fp_nan>
    497a:	b1 ce       	rjmp	.-670    	; 0x46de <__fp_mpack>

0000497c <sqrt>:
    497c:	35 df       	rcall	.-406    	; 0x47e8 <__fp_splitA>
    497e:	d0 f3       	brcs	.-12     	; 0x4974 <round+0x40>
    4980:	99 23       	and	r25, r25
    4982:	d9 f3       	breq	.-10     	; 0x497a <round+0x46>
    4984:	ce f3       	brts	.-14     	; 0x4978 <round+0x44>
    4986:	9f 57       	subi	r25, 0x7F	; 127
    4988:	55 0b       	sbc	r21, r21
    498a:	87 ff       	sbrs	r24, 7
    498c:	58 d0       	rcall	.+176    	; 0x4a3e <__fp_norm2>
    498e:	00 24       	eor	r0, r0
    4990:	a0 e6       	ldi	r26, 0x60	; 96
    4992:	40 ea       	ldi	r20, 0xA0	; 160
    4994:	90 01       	movw	r18, r0
    4996:	80 58       	subi	r24, 0x80	; 128
    4998:	56 95       	lsr	r21
    499a:	97 95       	ror	r25
    499c:	28 f4       	brcc	.+10     	; 0x49a8 <sqrt+0x2c>
    499e:	80 5c       	subi	r24, 0xC0	; 192
    49a0:	66 0f       	add	r22, r22
    49a2:	77 1f       	adc	r23, r23
    49a4:	88 1f       	adc	r24, r24
    49a6:	20 f0       	brcs	.+8      	; 0x49b0 <sqrt+0x34>
    49a8:	26 17       	cp	r18, r22
    49aa:	37 07       	cpc	r19, r23
    49ac:	48 07       	cpc	r20, r24
    49ae:	30 f4       	brcc	.+12     	; 0x49bc <sqrt+0x40>
    49b0:	62 1b       	sub	r22, r18
    49b2:	73 0b       	sbc	r23, r19
    49b4:	84 0b       	sbc	r24, r20
    49b6:	20 29       	or	r18, r0
    49b8:	31 29       	or	r19, r1
    49ba:	4a 2b       	or	r20, r26
    49bc:	a6 95       	lsr	r26
    49be:	17 94       	ror	r1
    49c0:	07 94       	ror	r0
    49c2:	20 25       	eor	r18, r0
    49c4:	31 25       	eor	r19, r1
    49c6:	4a 27       	eor	r20, r26
    49c8:	58 f7       	brcc	.-42     	; 0x49a0 <sqrt+0x24>
    49ca:	66 0f       	add	r22, r22
    49cc:	77 1f       	adc	r23, r23
    49ce:	88 1f       	adc	r24, r24
    49d0:	20 f0       	brcs	.+8      	; 0x49da <sqrt+0x5e>
    49d2:	26 17       	cp	r18, r22
    49d4:	37 07       	cpc	r19, r23
    49d6:	48 07       	cpc	r20, r24
    49d8:	30 f4       	brcc	.+12     	; 0x49e6 <sqrt+0x6a>
    49da:	62 0b       	sbc	r22, r18
    49dc:	73 0b       	sbc	r23, r19
    49de:	84 0b       	sbc	r24, r20
    49e0:	20 0d       	add	r18, r0
    49e2:	31 1d       	adc	r19, r1
    49e4:	41 1d       	adc	r20, r1
    49e6:	a0 95       	com	r26
    49e8:	81 f7       	brne	.-32     	; 0x49ca <sqrt+0x4e>
    49ea:	b9 01       	movw	r22, r18
    49ec:	84 2f       	mov	r24, r20
    49ee:	91 58       	subi	r25, 0x81	; 129
    49f0:	88 0f       	add	r24, r24
    49f2:	96 95       	lsr	r25
    49f4:	87 95       	ror	r24
    49f6:	08 95       	ret

000049f8 <square>:
    49f8:	9b 01       	movw	r18, r22
    49fa:	ac 01       	movw	r20, r24
    49fc:	38 cf       	rjmp	.-400    	; 0x486e <__mulsf3>

000049fe <tan>:
    49fe:	df 93       	push	r29
    4a00:	d9 2f       	mov	r29, r25
    4a02:	b2 de       	rcall	.-668    	; 0x4768 <__fp_rempio2>
    4a04:	e6 95       	lsr	r30
    4a06:	d7 95       	ror	r29
    4a08:	2a ed       	ldi	r18, 0xDA	; 218
    4a0a:	3f e0       	ldi	r19, 0x0F	; 15
    4a0c:	49 e4       	ldi	r20, 0x49	; 73
    4a0e:	5f e3       	ldi	r21, 0x3F	; 63
    4a10:	b3 3a       	cpi	r27, 0xA3	; 163
    4a12:	62 07       	cpc	r22, r18
    4a14:	73 07       	cpc	r23, r19
    4a16:	84 07       	cpc	r24, r20
    4a18:	95 07       	cpc	r25, r21
    4a1a:	d7 95       	ror	r29
    4a1c:	2a f0       	brmi	.+10     	; 0x4a28 <tan+0x2a>
    4a1e:	a2 ea       	ldi	r26, 0xA2	; 162
    4a20:	49 ec       	ldi	r20, 0xC9	; 201
    4a22:	90 68       	ori	r25, 0x80	; 128
    4a24:	94 dc       	rcall	.-1752   	; 0x434e <__addsf3x>
    4a26:	c7 de       	rcall	.-626    	; 0x47b6 <__fp_round>
    4a28:	e3 e5       	ldi	r30, 0x53	; 83
    4a2a:	f3 e0       	ldi	r31, 0x03	; 3
    4a2c:	0f d0       	rcall	.+30     	; 0x4a4c <__fp_powsodd>
    4a2e:	dd 0f       	add	r29, r29
    4a30:	0b f0       	brvs	.+2      	; 0x4a34 <tan+0x36>
    4a32:	16 df       	rcall	.-468    	; 0x4860 <inverse>
    4a34:	dd 0f       	add	r29, r29
    4a36:	0b f4       	brvc	.+2      	; 0x4a3a <tan+0x3c>
    4a38:	90 58       	subi	r25, 0x80	; 128
    4a3a:	df 91       	pop	r29
    4a3c:	08 95       	ret

00004a3e <__fp_norm2>:
    4a3e:	91 50       	subi	r25, 0x01	; 1
    4a40:	50 40       	sbci	r21, 0x00	; 0
    4a42:	66 0f       	add	r22, r22
    4a44:	77 1f       	adc	r23, r23
    4a46:	88 1f       	adc	r24, r24
    4a48:	d2 f7       	brpl	.-12     	; 0x4a3e <__fp_norm2>
    4a4a:	08 95       	ret

00004a4c <__fp_powsodd>:
    4a4c:	9f 93       	push	r25
    4a4e:	8f 93       	push	r24
    4a50:	7f 93       	push	r23
    4a52:	6f 93       	push	r22
    4a54:	ff 93       	push	r31
    4a56:	ef 93       	push	r30
    4a58:	9b 01       	movw	r18, r22
    4a5a:	ac 01       	movw	r20, r24
    4a5c:	08 df       	rcall	.-496    	; 0x486e <__mulsf3>
    4a5e:	ef 91       	pop	r30
    4a60:	ff 91       	pop	r31
    4a62:	4e de       	rcall	.-868    	; 0x4700 <__fp_powser>
    4a64:	2f 91       	pop	r18
    4a66:	3f 91       	pop	r19
    4a68:	4f 91       	pop	r20
    4a6a:	5f 91       	pop	r21
    4a6c:	00 cf       	rjmp	.-512    	; 0x486e <__mulsf3>

00004a6e <__udivmodhi4>:
    4a6e:	aa 1b       	sub	r26, r26
    4a70:	bb 1b       	sub	r27, r27
    4a72:	51 e1       	ldi	r21, 0x11	; 17
    4a74:	07 c0       	rjmp	.+14     	; 0x4a84 <__udivmodhi4_ep>

00004a76 <__udivmodhi4_loop>:
    4a76:	aa 1f       	adc	r26, r26
    4a78:	bb 1f       	adc	r27, r27
    4a7a:	a6 17       	cp	r26, r22
    4a7c:	b7 07       	cpc	r27, r23
    4a7e:	10 f0       	brcs	.+4      	; 0x4a84 <__udivmodhi4_ep>
    4a80:	a6 1b       	sub	r26, r22
    4a82:	b7 0b       	sbc	r27, r23

00004a84 <__udivmodhi4_ep>:
    4a84:	88 1f       	adc	r24, r24
    4a86:	99 1f       	adc	r25, r25
    4a88:	5a 95       	dec	r21
    4a8a:	a9 f7       	brne	.-22     	; 0x4a76 <__udivmodhi4_loop>
    4a8c:	80 95       	com	r24
    4a8e:	90 95       	com	r25
    4a90:	bc 01       	movw	r22, r24
    4a92:	cd 01       	movw	r24, r26
    4a94:	08 95       	ret

00004a96 <__divmodhi4>:
    4a96:	97 fb       	bst	r25, 7
    4a98:	07 2e       	mov	r0, r23
    4a9a:	16 f4       	brtc	.+4      	; 0x4aa0 <__divmodhi4+0xa>
    4a9c:	00 94       	com	r0
    4a9e:	06 d0       	rcall	.+12     	; 0x4aac <__divmodhi4_neg1>
    4aa0:	77 fd       	sbrc	r23, 7
    4aa2:	08 d0       	rcall	.+16     	; 0x4ab4 <__divmodhi4_neg2>
    4aa4:	e4 df       	rcall	.-56     	; 0x4a6e <__udivmodhi4>
    4aa6:	07 fc       	sbrc	r0, 7
    4aa8:	05 d0       	rcall	.+10     	; 0x4ab4 <__divmodhi4_neg2>
    4aaa:	3e f4       	brtc	.+14     	; 0x4aba <__divmodhi4_exit>

00004aac <__divmodhi4_neg1>:
    4aac:	90 95       	com	r25
    4aae:	81 95       	neg	r24
    4ab0:	9f 4f       	sbci	r25, 0xFF	; 255
    4ab2:	08 95       	ret

00004ab4 <__divmodhi4_neg2>:
    4ab4:	70 95       	com	r23
    4ab6:	61 95       	neg	r22
    4ab8:	7f 4f       	sbci	r23, 0xFF	; 255

00004aba <__divmodhi4_exit>:
    4aba:	08 95       	ret

00004abc <__udivmodsi4>:
    4abc:	a1 e2       	ldi	r26, 0x21	; 33
    4abe:	1a 2e       	mov	r1, r26
    4ac0:	aa 1b       	sub	r26, r26
    4ac2:	bb 1b       	sub	r27, r27
    4ac4:	fd 01       	movw	r30, r26
    4ac6:	0d c0       	rjmp	.+26     	; 0x4ae2 <__udivmodsi4_ep>

00004ac8 <__udivmodsi4_loop>:
    4ac8:	aa 1f       	adc	r26, r26
    4aca:	bb 1f       	adc	r27, r27
    4acc:	ee 1f       	adc	r30, r30
    4ace:	ff 1f       	adc	r31, r31
    4ad0:	a2 17       	cp	r26, r18
    4ad2:	b3 07       	cpc	r27, r19
    4ad4:	e4 07       	cpc	r30, r20
    4ad6:	f5 07       	cpc	r31, r21
    4ad8:	20 f0       	brcs	.+8      	; 0x4ae2 <__udivmodsi4_ep>
    4ada:	a2 1b       	sub	r26, r18
    4adc:	b3 0b       	sbc	r27, r19
    4ade:	e4 0b       	sbc	r30, r20
    4ae0:	f5 0b       	sbc	r31, r21

00004ae2 <__udivmodsi4_ep>:
    4ae2:	66 1f       	adc	r22, r22
    4ae4:	77 1f       	adc	r23, r23
    4ae6:	88 1f       	adc	r24, r24
    4ae8:	99 1f       	adc	r25, r25
    4aea:	1a 94       	dec	r1
    4aec:	69 f7       	brne	.-38     	; 0x4ac8 <__udivmodsi4_loop>
    4aee:	60 95       	com	r22
    4af0:	70 95       	com	r23
    4af2:	80 95       	com	r24
    4af4:	90 95       	com	r25
    4af6:	9b 01       	movw	r18, r22
    4af8:	ac 01       	movw	r20, r24
    4afa:	bd 01       	movw	r22, r26
    4afc:	cf 01       	movw	r24, r30
    4afe:	08 95       	ret

00004b00 <__tablejump2__>:
    4b00:	ee 0f       	add	r30, r30
    4b02:	ff 1f       	adc	r31, r31
    4b04:	00 24       	eor	r0, r0
    4b06:	00 1c       	adc	r0, r0
    4b08:	0b be       	out	0x3b, r0	; 59
    4b0a:	07 90       	elpm	r0, Z+
    4b0c:	f6 91       	elpm	r31, Z
    4b0e:	e0 2d       	mov	r30, r0
    4b10:	09 94       	ijmp

00004b12 <__umulhisi3>:
    4b12:	a2 9f       	mul	r26, r18
    4b14:	b0 01       	movw	r22, r0
    4b16:	b3 9f       	mul	r27, r19
    4b18:	c0 01       	movw	r24, r0
    4b1a:	a3 9f       	mul	r26, r19
    4b1c:	70 0d       	add	r23, r0
    4b1e:	81 1d       	adc	r24, r1
    4b20:	11 24       	eor	r1, r1
    4b22:	91 1d       	adc	r25, r1
    4b24:	b2 9f       	mul	r27, r18
    4b26:	70 0d       	add	r23, r0
    4b28:	81 1d       	adc	r24, r1
    4b2a:	11 24       	eor	r1, r1
    4b2c:	91 1d       	adc	r25, r1
    4b2e:	08 95       	ret

00004b30 <sprintf>:
    4b30:	0f 93       	push	r16
    4b32:	1f 93       	push	r17
    4b34:	cf 93       	push	r28
    4b36:	df 93       	push	r29
    4b38:	cd b7       	in	r28, 0x3d	; 61
    4b3a:	de b7       	in	r29, 0x3e	; 62
    4b3c:	2e 97       	sbiw	r28, 0x0e	; 14
    4b3e:	0f b6       	in	r0, 0x3f	; 63
    4b40:	f8 94       	cli
    4b42:	de bf       	out	0x3e, r29	; 62
    4b44:	0f be       	out	0x3f, r0	; 63
    4b46:	cd bf       	out	0x3d, r28	; 61
    4b48:	0d 89       	ldd	r16, Y+21	; 0x15
    4b4a:	1e 89       	ldd	r17, Y+22	; 0x16
    4b4c:	86 e0       	ldi	r24, 0x06	; 6
    4b4e:	8c 83       	std	Y+4, r24	; 0x04
    4b50:	1a 83       	std	Y+2, r17	; 0x02
    4b52:	09 83       	std	Y+1, r16	; 0x01
    4b54:	8f ef       	ldi	r24, 0xFF	; 255
    4b56:	9f e7       	ldi	r25, 0x7F	; 127
    4b58:	9e 83       	std	Y+6, r25	; 0x06
    4b5a:	8d 83       	std	Y+5, r24	; 0x05
    4b5c:	ae 01       	movw	r20, r28
    4b5e:	47 5e       	subi	r20, 0xE7	; 231
    4b60:	5f 4f       	sbci	r21, 0xFF	; 255
    4b62:	6f 89       	ldd	r22, Y+23	; 0x17
    4b64:	78 8d       	ldd	r23, Y+24	; 0x18
    4b66:	ce 01       	movw	r24, r28
    4b68:	01 96       	adiw	r24, 0x01	; 1
    4b6a:	10 d0       	rcall	.+32     	; 0x4b8c <vfprintf>
    4b6c:	ef 81       	ldd	r30, Y+7	; 0x07
    4b6e:	f8 85       	ldd	r31, Y+8	; 0x08
    4b70:	e0 0f       	add	r30, r16
    4b72:	f1 1f       	adc	r31, r17
    4b74:	10 82       	st	Z, r1
    4b76:	2e 96       	adiw	r28, 0x0e	; 14
    4b78:	0f b6       	in	r0, 0x3f	; 63
    4b7a:	f8 94       	cli
    4b7c:	de bf       	out	0x3e, r29	; 62
    4b7e:	0f be       	out	0x3f, r0	; 63
    4b80:	cd bf       	out	0x3d, r28	; 61
    4b82:	df 91       	pop	r29
    4b84:	cf 91       	pop	r28
    4b86:	1f 91       	pop	r17
    4b88:	0f 91       	pop	r16
    4b8a:	08 95       	ret

00004b8c <vfprintf>:
    4b8c:	2f 92       	push	r2
    4b8e:	3f 92       	push	r3
    4b90:	4f 92       	push	r4
    4b92:	5f 92       	push	r5
    4b94:	6f 92       	push	r6
    4b96:	7f 92       	push	r7
    4b98:	8f 92       	push	r8
    4b9a:	9f 92       	push	r9
    4b9c:	af 92       	push	r10
    4b9e:	bf 92       	push	r11
    4ba0:	cf 92       	push	r12
    4ba2:	df 92       	push	r13
    4ba4:	ef 92       	push	r14
    4ba6:	ff 92       	push	r15
    4ba8:	0f 93       	push	r16
    4baa:	1f 93       	push	r17
    4bac:	cf 93       	push	r28
    4bae:	df 93       	push	r29
    4bb0:	cd b7       	in	r28, 0x3d	; 61
    4bb2:	de b7       	in	r29, 0x3e	; 62
    4bb4:	2b 97       	sbiw	r28, 0x0b	; 11
    4bb6:	0f b6       	in	r0, 0x3f	; 63
    4bb8:	f8 94       	cli
    4bba:	de bf       	out	0x3e, r29	; 62
    4bbc:	0f be       	out	0x3f, r0	; 63
    4bbe:	cd bf       	out	0x3d, r28	; 61
    4bc0:	6c 01       	movw	r12, r24
    4bc2:	7b 01       	movw	r14, r22
    4bc4:	8a 01       	movw	r16, r20
    4bc6:	fc 01       	movw	r30, r24
    4bc8:	17 82       	std	Z+7, r1	; 0x07
    4bca:	16 82       	std	Z+6, r1	; 0x06
    4bcc:	83 81       	ldd	r24, Z+3	; 0x03
    4bce:	81 ff       	sbrs	r24, 1
    4bd0:	bf c1       	rjmp	.+894    	; 0x4f50 <vfprintf+0x3c4>
    4bd2:	ce 01       	movw	r24, r28
    4bd4:	01 96       	adiw	r24, 0x01	; 1
    4bd6:	3c 01       	movw	r6, r24
    4bd8:	f6 01       	movw	r30, r12
    4bda:	93 81       	ldd	r25, Z+3	; 0x03
    4bdc:	f7 01       	movw	r30, r14
    4bde:	93 fd       	sbrc	r25, 3
    4be0:	85 91       	lpm	r24, Z+
    4be2:	93 ff       	sbrs	r25, 3
    4be4:	81 91       	ld	r24, Z+
    4be6:	7f 01       	movw	r14, r30
    4be8:	88 23       	and	r24, r24
    4bea:	09 f4       	brne	.+2      	; 0x4bee <vfprintf+0x62>
    4bec:	ad c1       	rjmp	.+858    	; 0x4f48 <vfprintf+0x3bc>
    4bee:	85 32       	cpi	r24, 0x25	; 37
    4bf0:	39 f4       	brne	.+14     	; 0x4c00 <vfprintf+0x74>
    4bf2:	93 fd       	sbrc	r25, 3
    4bf4:	85 91       	lpm	r24, Z+
    4bf6:	93 ff       	sbrs	r25, 3
    4bf8:	81 91       	ld	r24, Z+
    4bfa:	7f 01       	movw	r14, r30
    4bfc:	85 32       	cpi	r24, 0x25	; 37
    4bfe:	21 f4       	brne	.+8      	; 0x4c08 <vfprintf+0x7c>
    4c00:	b6 01       	movw	r22, r12
    4c02:	90 e0       	ldi	r25, 0x00	; 0
    4c04:	d6 d1       	rcall	.+940    	; 0x4fb2 <fputc>
    4c06:	e8 cf       	rjmp	.-48     	; 0x4bd8 <vfprintf+0x4c>
    4c08:	91 2c       	mov	r9, r1
    4c0a:	21 2c       	mov	r2, r1
    4c0c:	31 2c       	mov	r3, r1
    4c0e:	ff e1       	ldi	r31, 0x1F	; 31
    4c10:	f3 15       	cp	r31, r3
    4c12:	d8 f0       	brcs	.+54     	; 0x4c4a <vfprintf+0xbe>
    4c14:	8b 32       	cpi	r24, 0x2B	; 43
    4c16:	79 f0       	breq	.+30     	; 0x4c36 <vfprintf+0xaa>
    4c18:	38 f4       	brcc	.+14     	; 0x4c28 <vfprintf+0x9c>
    4c1a:	80 32       	cpi	r24, 0x20	; 32
    4c1c:	79 f0       	breq	.+30     	; 0x4c3c <vfprintf+0xb0>
    4c1e:	83 32       	cpi	r24, 0x23	; 35
    4c20:	a1 f4       	brne	.+40     	; 0x4c4a <vfprintf+0xbe>
    4c22:	23 2d       	mov	r18, r3
    4c24:	20 61       	ori	r18, 0x10	; 16
    4c26:	1d c0       	rjmp	.+58     	; 0x4c62 <vfprintf+0xd6>
    4c28:	8d 32       	cpi	r24, 0x2D	; 45
    4c2a:	61 f0       	breq	.+24     	; 0x4c44 <vfprintf+0xb8>
    4c2c:	80 33       	cpi	r24, 0x30	; 48
    4c2e:	69 f4       	brne	.+26     	; 0x4c4a <vfprintf+0xbe>
    4c30:	23 2d       	mov	r18, r3
    4c32:	21 60       	ori	r18, 0x01	; 1
    4c34:	16 c0       	rjmp	.+44     	; 0x4c62 <vfprintf+0xd6>
    4c36:	83 2d       	mov	r24, r3
    4c38:	82 60       	ori	r24, 0x02	; 2
    4c3a:	38 2e       	mov	r3, r24
    4c3c:	e3 2d       	mov	r30, r3
    4c3e:	e4 60       	ori	r30, 0x04	; 4
    4c40:	3e 2e       	mov	r3, r30
    4c42:	2a c0       	rjmp	.+84     	; 0x4c98 <vfprintf+0x10c>
    4c44:	f3 2d       	mov	r31, r3
    4c46:	f8 60       	ori	r31, 0x08	; 8
    4c48:	1d c0       	rjmp	.+58     	; 0x4c84 <vfprintf+0xf8>
    4c4a:	37 fc       	sbrc	r3, 7
    4c4c:	2d c0       	rjmp	.+90     	; 0x4ca8 <vfprintf+0x11c>
    4c4e:	20 ed       	ldi	r18, 0xD0	; 208
    4c50:	28 0f       	add	r18, r24
    4c52:	2a 30       	cpi	r18, 0x0A	; 10
    4c54:	40 f0       	brcs	.+16     	; 0x4c66 <vfprintf+0xda>
    4c56:	8e 32       	cpi	r24, 0x2E	; 46
    4c58:	b9 f4       	brne	.+46     	; 0x4c88 <vfprintf+0xfc>
    4c5a:	36 fc       	sbrc	r3, 6
    4c5c:	75 c1       	rjmp	.+746    	; 0x4f48 <vfprintf+0x3bc>
    4c5e:	23 2d       	mov	r18, r3
    4c60:	20 64       	ori	r18, 0x40	; 64
    4c62:	32 2e       	mov	r3, r18
    4c64:	19 c0       	rjmp	.+50     	; 0x4c98 <vfprintf+0x10c>
    4c66:	36 fe       	sbrs	r3, 6
    4c68:	06 c0       	rjmp	.+12     	; 0x4c76 <vfprintf+0xea>
    4c6a:	8a e0       	ldi	r24, 0x0A	; 10
    4c6c:	98 9e       	mul	r9, r24
    4c6e:	20 0d       	add	r18, r0
    4c70:	11 24       	eor	r1, r1
    4c72:	92 2e       	mov	r9, r18
    4c74:	11 c0       	rjmp	.+34     	; 0x4c98 <vfprintf+0x10c>
    4c76:	ea e0       	ldi	r30, 0x0A	; 10
    4c78:	2e 9e       	mul	r2, r30
    4c7a:	20 0d       	add	r18, r0
    4c7c:	11 24       	eor	r1, r1
    4c7e:	22 2e       	mov	r2, r18
    4c80:	f3 2d       	mov	r31, r3
    4c82:	f0 62       	ori	r31, 0x20	; 32
    4c84:	3f 2e       	mov	r3, r31
    4c86:	08 c0       	rjmp	.+16     	; 0x4c98 <vfprintf+0x10c>
    4c88:	8c 36       	cpi	r24, 0x6C	; 108
    4c8a:	21 f4       	brne	.+8      	; 0x4c94 <vfprintf+0x108>
    4c8c:	83 2d       	mov	r24, r3
    4c8e:	80 68       	ori	r24, 0x80	; 128
    4c90:	38 2e       	mov	r3, r24
    4c92:	02 c0       	rjmp	.+4      	; 0x4c98 <vfprintf+0x10c>
    4c94:	88 36       	cpi	r24, 0x68	; 104
    4c96:	41 f4       	brne	.+16     	; 0x4ca8 <vfprintf+0x11c>
    4c98:	f7 01       	movw	r30, r14
    4c9a:	93 fd       	sbrc	r25, 3
    4c9c:	85 91       	lpm	r24, Z+
    4c9e:	93 ff       	sbrs	r25, 3
    4ca0:	81 91       	ld	r24, Z+
    4ca2:	7f 01       	movw	r14, r30
    4ca4:	81 11       	cpse	r24, r1
    4ca6:	b3 cf       	rjmp	.-154    	; 0x4c0e <vfprintf+0x82>
    4ca8:	98 2f       	mov	r25, r24
    4caa:	9f 7d       	andi	r25, 0xDF	; 223
    4cac:	95 54       	subi	r25, 0x45	; 69
    4cae:	93 30       	cpi	r25, 0x03	; 3
    4cb0:	28 f4       	brcc	.+10     	; 0x4cbc <vfprintf+0x130>
    4cb2:	0c 5f       	subi	r16, 0xFC	; 252
    4cb4:	1f 4f       	sbci	r17, 0xFF	; 255
    4cb6:	9f e3       	ldi	r25, 0x3F	; 63
    4cb8:	99 83       	std	Y+1, r25	; 0x01
    4cba:	0d c0       	rjmp	.+26     	; 0x4cd6 <vfprintf+0x14a>
    4cbc:	83 36       	cpi	r24, 0x63	; 99
    4cbe:	31 f0       	breq	.+12     	; 0x4ccc <vfprintf+0x140>
    4cc0:	83 37       	cpi	r24, 0x73	; 115
    4cc2:	71 f0       	breq	.+28     	; 0x4ce0 <vfprintf+0x154>
    4cc4:	83 35       	cpi	r24, 0x53	; 83
    4cc6:	09 f0       	breq	.+2      	; 0x4cca <vfprintf+0x13e>
    4cc8:	55 c0       	rjmp	.+170    	; 0x4d74 <vfprintf+0x1e8>
    4cca:	20 c0       	rjmp	.+64     	; 0x4d0c <vfprintf+0x180>
    4ccc:	f8 01       	movw	r30, r16
    4cce:	80 81       	ld	r24, Z
    4cd0:	89 83       	std	Y+1, r24	; 0x01
    4cd2:	0e 5f       	subi	r16, 0xFE	; 254
    4cd4:	1f 4f       	sbci	r17, 0xFF	; 255
    4cd6:	88 24       	eor	r8, r8
    4cd8:	83 94       	inc	r8
    4cda:	91 2c       	mov	r9, r1
    4cdc:	53 01       	movw	r10, r6
    4cde:	12 c0       	rjmp	.+36     	; 0x4d04 <vfprintf+0x178>
    4ce0:	28 01       	movw	r4, r16
    4ce2:	f2 e0       	ldi	r31, 0x02	; 2
    4ce4:	4f 0e       	add	r4, r31
    4ce6:	51 1c       	adc	r5, r1
    4ce8:	f8 01       	movw	r30, r16
    4cea:	a0 80       	ld	r10, Z
    4cec:	b1 80       	ldd	r11, Z+1	; 0x01
    4cee:	36 fe       	sbrs	r3, 6
    4cf0:	03 c0       	rjmp	.+6      	; 0x4cf8 <vfprintf+0x16c>
    4cf2:	69 2d       	mov	r22, r9
    4cf4:	70 e0       	ldi	r23, 0x00	; 0
    4cf6:	02 c0       	rjmp	.+4      	; 0x4cfc <vfprintf+0x170>
    4cf8:	6f ef       	ldi	r22, 0xFF	; 255
    4cfa:	7f ef       	ldi	r23, 0xFF	; 255
    4cfc:	c5 01       	movw	r24, r10
    4cfe:	4e d1       	rcall	.+668    	; 0x4f9c <strnlen>
    4d00:	4c 01       	movw	r8, r24
    4d02:	82 01       	movw	r16, r4
    4d04:	f3 2d       	mov	r31, r3
    4d06:	ff 77       	andi	r31, 0x7F	; 127
    4d08:	3f 2e       	mov	r3, r31
    4d0a:	15 c0       	rjmp	.+42     	; 0x4d36 <vfprintf+0x1aa>
    4d0c:	28 01       	movw	r4, r16
    4d0e:	22 e0       	ldi	r18, 0x02	; 2
    4d10:	42 0e       	add	r4, r18
    4d12:	51 1c       	adc	r5, r1
    4d14:	f8 01       	movw	r30, r16
    4d16:	a0 80       	ld	r10, Z
    4d18:	b1 80       	ldd	r11, Z+1	; 0x01
    4d1a:	36 fe       	sbrs	r3, 6
    4d1c:	03 c0       	rjmp	.+6      	; 0x4d24 <vfprintf+0x198>
    4d1e:	69 2d       	mov	r22, r9
    4d20:	70 e0       	ldi	r23, 0x00	; 0
    4d22:	02 c0       	rjmp	.+4      	; 0x4d28 <vfprintf+0x19c>
    4d24:	6f ef       	ldi	r22, 0xFF	; 255
    4d26:	7f ef       	ldi	r23, 0xFF	; 255
    4d28:	c5 01       	movw	r24, r10
    4d2a:	2d d1       	rcall	.+602    	; 0x4f86 <strnlen_P>
    4d2c:	4c 01       	movw	r8, r24
    4d2e:	f3 2d       	mov	r31, r3
    4d30:	f0 68       	ori	r31, 0x80	; 128
    4d32:	3f 2e       	mov	r3, r31
    4d34:	82 01       	movw	r16, r4
    4d36:	33 fc       	sbrc	r3, 3
    4d38:	19 c0       	rjmp	.+50     	; 0x4d6c <vfprintf+0x1e0>
    4d3a:	82 2d       	mov	r24, r2
    4d3c:	90 e0       	ldi	r25, 0x00	; 0
    4d3e:	88 16       	cp	r8, r24
    4d40:	99 06       	cpc	r9, r25
    4d42:	a0 f4       	brcc	.+40     	; 0x4d6c <vfprintf+0x1e0>
    4d44:	b6 01       	movw	r22, r12
    4d46:	80 e2       	ldi	r24, 0x20	; 32
    4d48:	90 e0       	ldi	r25, 0x00	; 0
    4d4a:	33 d1       	rcall	.+614    	; 0x4fb2 <fputc>
    4d4c:	2a 94       	dec	r2
    4d4e:	f5 cf       	rjmp	.-22     	; 0x4d3a <vfprintf+0x1ae>
    4d50:	f5 01       	movw	r30, r10
    4d52:	37 fc       	sbrc	r3, 7
    4d54:	85 91       	lpm	r24, Z+
    4d56:	37 fe       	sbrs	r3, 7
    4d58:	81 91       	ld	r24, Z+
    4d5a:	5f 01       	movw	r10, r30
    4d5c:	b6 01       	movw	r22, r12
    4d5e:	90 e0       	ldi	r25, 0x00	; 0
    4d60:	28 d1       	rcall	.+592    	; 0x4fb2 <fputc>
    4d62:	21 10       	cpse	r2, r1
    4d64:	2a 94       	dec	r2
    4d66:	21 e0       	ldi	r18, 0x01	; 1
    4d68:	82 1a       	sub	r8, r18
    4d6a:	91 08       	sbc	r9, r1
    4d6c:	81 14       	cp	r8, r1
    4d6e:	91 04       	cpc	r9, r1
    4d70:	79 f7       	brne	.-34     	; 0x4d50 <vfprintf+0x1c4>
    4d72:	e1 c0       	rjmp	.+450    	; 0x4f36 <vfprintf+0x3aa>
    4d74:	84 36       	cpi	r24, 0x64	; 100
    4d76:	11 f0       	breq	.+4      	; 0x4d7c <vfprintf+0x1f0>
    4d78:	89 36       	cpi	r24, 0x69	; 105
    4d7a:	39 f5       	brne	.+78     	; 0x4dca <vfprintf+0x23e>
    4d7c:	f8 01       	movw	r30, r16
    4d7e:	37 fe       	sbrs	r3, 7
    4d80:	07 c0       	rjmp	.+14     	; 0x4d90 <vfprintf+0x204>
    4d82:	60 81       	ld	r22, Z
    4d84:	71 81       	ldd	r23, Z+1	; 0x01
    4d86:	82 81       	ldd	r24, Z+2	; 0x02
    4d88:	93 81       	ldd	r25, Z+3	; 0x03
    4d8a:	0c 5f       	subi	r16, 0xFC	; 252
    4d8c:	1f 4f       	sbci	r17, 0xFF	; 255
    4d8e:	08 c0       	rjmp	.+16     	; 0x4da0 <vfprintf+0x214>
    4d90:	60 81       	ld	r22, Z
    4d92:	71 81       	ldd	r23, Z+1	; 0x01
    4d94:	07 2e       	mov	r0, r23
    4d96:	00 0c       	add	r0, r0
    4d98:	88 0b       	sbc	r24, r24
    4d9a:	99 0b       	sbc	r25, r25
    4d9c:	0e 5f       	subi	r16, 0xFE	; 254
    4d9e:	1f 4f       	sbci	r17, 0xFF	; 255
    4da0:	f3 2d       	mov	r31, r3
    4da2:	ff 76       	andi	r31, 0x6F	; 111
    4da4:	3f 2e       	mov	r3, r31
    4da6:	97 ff       	sbrs	r25, 7
    4da8:	09 c0       	rjmp	.+18     	; 0x4dbc <vfprintf+0x230>
    4daa:	90 95       	com	r25
    4dac:	80 95       	com	r24
    4dae:	70 95       	com	r23
    4db0:	61 95       	neg	r22
    4db2:	7f 4f       	sbci	r23, 0xFF	; 255
    4db4:	8f 4f       	sbci	r24, 0xFF	; 255
    4db6:	9f 4f       	sbci	r25, 0xFF	; 255
    4db8:	f0 68       	ori	r31, 0x80	; 128
    4dba:	3f 2e       	mov	r3, r31
    4dbc:	2a e0       	ldi	r18, 0x0A	; 10
    4dbe:	30 e0       	ldi	r19, 0x00	; 0
    4dc0:	a3 01       	movw	r20, r6
    4dc2:	33 d1       	rcall	.+614    	; 0x502a <__ultoa_invert>
    4dc4:	88 2e       	mov	r8, r24
    4dc6:	86 18       	sub	r8, r6
    4dc8:	44 c0       	rjmp	.+136    	; 0x4e52 <vfprintf+0x2c6>
    4dca:	85 37       	cpi	r24, 0x75	; 117
    4dcc:	31 f4       	brne	.+12     	; 0x4dda <vfprintf+0x24e>
    4dce:	23 2d       	mov	r18, r3
    4dd0:	2f 7e       	andi	r18, 0xEF	; 239
    4dd2:	b2 2e       	mov	r11, r18
    4dd4:	2a e0       	ldi	r18, 0x0A	; 10
    4dd6:	30 e0       	ldi	r19, 0x00	; 0
    4dd8:	25 c0       	rjmp	.+74     	; 0x4e24 <vfprintf+0x298>
    4dda:	93 2d       	mov	r25, r3
    4ddc:	99 7f       	andi	r25, 0xF9	; 249
    4dde:	b9 2e       	mov	r11, r25
    4de0:	8f 36       	cpi	r24, 0x6F	; 111
    4de2:	c1 f0       	breq	.+48     	; 0x4e14 <vfprintf+0x288>
    4de4:	18 f4       	brcc	.+6      	; 0x4dec <vfprintf+0x260>
    4de6:	88 35       	cpi	r24, 0x58	; 88
    4de8:	79 f0       	breq	.+30     	; 0x4e08 <vfprintf+0x27c>
    4dea:	ae c0       	rjmp	.+348    	; 0x4f48 <vfprintf+0x3bc>
    4dec:	80 37       	cpi	r24, 0x70	; 112
    4dee:	19 f0       	breq	.+6      	; 0x4df6 <vfprintf+0x26a>
    4df0:	88 37       	cpi	r24, 0x78	; 120
    4df2:	21 f0       	breq	.+8      	; 0x4dfc <vfprintf+0x270>
    4df4:	a9 c0       	rjmp	.+338    	; 0x4f48 <vfprintf+0x3bc>
    4df6:	e9 2f       	mov	r30, r25
    4df8:	e0 61       	ori	r30, 0x10	; 16
    4dfa:	be 2e       	mov	r11, r30
    4dfc:	b4 fe       	sbrs	r11, 4
    4dfe:	0d c0       	rjmp	.+26     	; 0x4e1a <vfprintf+0x28e>
    4e00:	fb 2d       	mov	r31, r11
    4e02:	f4 60       	ori	r31, 0x04	; 4
    4e04:	bf 2e       	mov	r11, r31
    4e06:	09 c0       	rjmp	.+18     	; 0x4e1a <vfprintf+0x28e>
    4e08:	34 fe       	sbrs	r3, 4
    4e0a:	0a c0       	rjmp	.+20     	; 0x4e20 <vfprintf+0x294>
    4e0c:	29 2f       	mov	r18, r25
    4e0e:	26 60       	ori	r18, 0x06	; 6
    4e10:	b2 2e       	mov	r11, r18
    4e12:	06 c0       	rjmp	.+12     	; 0x4e20 <vfprintf+0x294>
    4e14:	28 e0       	ldi	r18, 0x08	; 8
    4e16:	30 e0       	ldi	r19, 0x00	; 0
    4e18:	05 c0       	rjmp	.+10     	; 0x4e24 <vfprintf+0x298>
    4e1a:	20 e1       	ldi	r18, 0x10	; 16
    4e1c:	30 e0       	ldi	r19, 0x00	; 0
    4e1e:	02 c0       	rjmp	.+4      	; 0x4e24 <vfprintf+0x298>
    4e20:	20 e1       	ldi	r18, 0x10	; 16
    4e22:	32 e0       	ldi	r19, 0x02	; 2
    4e24:	f8 01       	movw	r30, r16
    4e26:	b7 fe       	sbrs	r11, 7
    4e28:	07 c0       	rjmp	.+14     	; 0x4e38 <vfprintf+0x2ac>
    4e2a:	60 81       	ld	r22, Z
    4e2c:	71 81       	ldd	r23, Z+1	; 0x01
    4e2e:	82 81       	ldd	r24, Z+2	; 0x02
    4e30:	93 81       	ldd	r25, Z+3	; 0x03
    4e32:	0c 5f       	subi	r16, 0xFC	; 252
    4e34:	1f 4f       	sbci	r17, 0xFF	; 255
    4e36:	06 c0       	rjmp	.+12     	; 0x4e44 <vfprintf+0x2b8>
    4e38:	60 81       	ld	r22, Z
    4e3a:	71 81       	ldd	r23, Z+1	; 0x01
    4e3c:	80 e0       	ldi	r24, 0x00	; 0
    4e3e:	90 e0       	ldi	r25, 0x00	; 0
    4e40:	0e 5f       	subi	r16, 0xFE	; 254
    4e42:	1f 4f       	sbci	r17, 0xFF	; 255
    4e44:	a3 01       	movw	r20, r6
    4e46:	f1 d0       	rcall	.+482    	; 0x502a <__ultoa_invert>
    4e48:	88 2e       	mov	r8, r24
    4e4a:	86 18       	sub	r8, r6
    4e4c:	fb 2d       	mov	r31, r11
    4e4e:	ff 77       	andi	r31, 0x7F	; 127
    4e50:	3f 2e       	mov	r3, r31
    4e52:	36 fe       	sbrs	r3, 6
    4e54:	0d c0       	rjmp	.+26     	; 0x4e70 <vfprintf+0x2e4>
    4e56:	23 2d       	mov	r18, r3
    4e58:	2e 7f       	andi	r18, 0xFE	; 254
    4e5a:	a2 2e       	mov	r10, r18
    4e5c:	89 14       	cp	r8, r9
    4e5e:	58 f4       	brcc	.+22     	; 0x4e76 <vfprintf+0x2ea>
    4e60:	34 fe       	sbrs	r3, 4
    4e62:	0b c0       	rjmp	.+22     	; 0x4e7a <vfprintf+0x2ee>
    4e64:	32 fc       	sbrc	r3, 2
    4e66:	09 c0       	rjmp	.+18     	; 0x4e7a <vfprintf+0x2ee>
    4e68:	83 2d       	mov	r24, r3
    4e6a:	8e 7e       	andi	r24, 0xEE	; 238
    4e6c:	a8 2e       	mov	r10, r24
    4e6e:	05 c0       	rjmp	.+10     	; 0x4e7a <vfprintf+0x2ee>
    4e70:	b8 2c       	mov	r11, r8
    4e72:	a3 2c       	mov	r10, r3
    4e74:	03 c0       	rjmp	.+6      	; 0x4e7c <vfprintf+0x2f0>
    4e76:	b8 2c       	mov	r11, r8
    4e78:	01 c0       	rjmp	.+2      	; 0x4e7c <vfprintf+0x2f0>
    4e7a:	b9 2c       	mov	r11, r9
    4e7c:	a4 fe       	sbrs	r10, 4
    4e7e:	0f c0       	rjmp	.+30     	; 0x4e9e <vfprintf+0x312>
    4e80:	fe 01       	movw	r30, r28
    4e82:	e8 0d       	add	r30, r8
    4e84:	f1 1d       	adc	r31, r1
    4e86:	80 81       	ld	r24, Z
    4e88:	80 33       	cpi	r24, 0x30	; 48
    4e8a:	21 f4       	brne	.+8      	; 0x4e94 <vfprintf+0x308>
    4e8c:	9a 2d       	mov	r25, r10
    4e8e:	99 7e       	andi	r25, 0xE9	; 233
    4e90:	a9 2e       	mov	r10, r25
    4e92:	09 c0       	rjmp	.+18     	; 0x4ea6 <vfprintf+0x31a>
    4e94:	a2 fe       	sbrs	r10, 2
    4e96:	06 c0       	rjmp	.+12     	; 0x4ea4 <vfprintf+0x318>
    4e98:	b3 94       	inc	r11
    4e9a:	b3 94       	inc	r11
    4e9c:	04 c0       	rjmp	.+8      	; 0x4ea6 <vfprintf+0x31a>
    4e9e:	8a 2d       	mov	r24, r10
    4ea0:	86 78       	andi	r24, 0x86	; 134
    4ea2:	09 f0       	breq	.+2      	; 0x4ea6 <vfprintf+0x31a>
    4ea4:	b3 94       	inc	r11
    4ea6:	a3 fc       	sbrc	r10, 3
    4ea8:	10 c0       	rjmp	.+32     	; 0x4eca <vfprintf+0x33e>
    4eaa:	a0 fe       	sbrs	r10, 0
    4eac:	06 c0       	rjmp	.+12     	; 0x4eba <vfprintf+0x32e>
    4eae:	b2 14       	cp	r11, r2
    4eb0:	80 f4       	brcc	.+32     	; 0x4ed2 <vfprintf+0x346>
    4eb2:	28 0c       	add	r2, r8
    4eb4:	92 2c       	mov	r9, r2
    4eb6:	9b 18       	sub	r9, r11
    4eb8:	0d c0       	rjmp	.+26     	; 0x4ed4 <vfprintf+0x348>
    4eba:	b2 14       	cp	r11, r2
    4ebc:	58 f4       	brcc	.+22     	; 0x4ed4 <vfprintf+0x348>
    4ebe:	b6 01       	movw	r22, r12
    4ec0:	80 e2       	ldi	r24, 0x20	; 32
    4ec2:	90 e0       	ldi	r25, 0x00	; 0
    4ec4:	76 d0       	rcall	.+236    	; 0x4fb2 <fputc>
    4ec6:	b3 94       	inc	r11
    4ec8:	f8 cf       	rjmp	.-16     	; 0x4eba <vfprintf+0x32e>
    4eca:	b2 14       	cp	r11, r2
    4ecc:	18 f4       	brcc	.+6      	; 0x4ed4 <vfprintf+0x348>
    4ece:	2b 18       	sub	r2, r11
    4ed0:	02 c0       	rjmp	.+4      	; 0x4ed6 <vfprintf+0x34a>
    4ed2:	98 2c       	mov	r9, r8
    4ed4:	21 2c       	mov	r2, r1
    4ed6:	a4 fe       	sbrs	r10, 4
    4ed8:	0f c0       	rjmp	.+30     	; 0x4ef8 <vfprintf+0x36c>
    4eda:	b6 01       	movw	r22, r12
    4edc:	80 e3       	ldi	r24, 0x30	; 48
    4ede:	90 e0       	ldi	r25, 0x00	; 0
    4ee0:	68 d0       	rcall	.+208    	; 0x4fb2 <fputc>
    4ee2:	a2 fe       	sbrs	r10, 2
    4ee4:	16 c0       	rjmp	.+44     	; 0x4f12 <vfprintf+0x386>
    4ee6:	a1 fc       	sbrc	r10, 1
    4ee8:	03 c0       	rjmp	.+6      	; 0x4ef0 <vfprintf+0x364>
    4eea:	88 e7       	ldi	r24, 0x78	; 120
    4eec:	90 e0       	ldi	r25, 0x00	; 0
    4eee:	02 c0       	rjmp	.+4      	; 0x4ef4 <vfprintf+0x368>
    4ef0:	88 e5       	ldi	r24, 0x58	; 88
    4ef2:	90 e0       	ldi	r25, 0x00	; 0
    4ef4:	b6 01       	movw	r22, r12
    4ef6:	0c c0       	rjmp	.+24     	; 0x4f10 <vfprintf+0x384>
    4ef8:	8a 2d       	mov	r24, r10
    4efa:	86 78       	andi	r24, 0x86	; 134
    4efc:	51 f0       	breq	.+20     	; 0x4f12 <vfprintf+0x386>
    4efe:	a1 fe       	sbrs	r10, 1
    4f00:	02 c0       	rjmp	.+4      	; 0x4f06 <vfprintf+0x37a>
    4f02:	8b e2       	ldi	r24, 0x2B	; 43
    4f04:	01 c0       	rjmp	.+2      	; 0x4f08 <vfprintf+0x37c>
    4f06:	80 e2       	ldi	r24, 0x20	; 32
    4f08:	a7 fc       	sbrc	r10, 7
    4f0a:	8d e2       	ldi	r24, 0x2D	; 45
    4f0c:	b6 01       	movw	r22, r12
    4f0e:	90 e0       	ldi	r25, 0x00	; 0
    4f10:	50 d0       	rcall	.+160    	; 0x4fb2 <fputc>
    4f12:	89 14       	cp	r8, r9
    4f14:	30 f4       	brcc	.+12     	; 0x4f22 <vfprintf+0x396>
    4f16:	b6 01       	movw	r22, r12
    4f18:	80 e3       	ldi	r24, 0x30	; 48
    4f1a:	90 e0       	ldi	r25, 0x00	; 0
    4f1c:	4a d0       	rcall	.+148    	; 0x4fb2 <fputc>
    4f1e:	9a 94       	dec	r9
    4f20:	f8 cf       	rjmp	.-16     	; 0x4f12 <vfprintf+0x386>
    4f22:	8a 94       	dec	r8
    4f24:	f3 01       	movw	r30, r6
    4f26:	e8 0d       	add	r30, r8
    4f28:	f1 1d       	adc	r31, r1
    4f2a:	80 81       	ld	r24, Z
    4f2c:	b6 01       	movw	r22, r12
    4f2e:	90 e0       	ldi	r25, 0x00	; 0
    4f30:	40 d0       	rcall	.+128    	; 0x4fb2 <fputc>
    4f32:	81 10       	cpse	r8, r1
    4f34:	f6 cf       	rjmp	.-20     	; 0x4f22 <vfprintf+0x396>
    4f36:	22 20       	and	r2, r2
    4f38:	09 f4       	brne	.+2      	; 0x4f3c <vfprintf+0x3b0>
    4f3a:	4e ce       	rjmp	.-868    	; 0x4bd8 <vfprintf+0x4c>
    4f3c:	b6 01       	movw	r22, r12
    4f3e:	80 e2       	ldi	r24, 0x20	; 32
    4f40:	90 e0       	ldi	r25, 0x00	; 0
    4f42:	37 d0       	rcall	.+110    	; 0x4fb2 <fputc>
    4f44:	2a 94       	dec	r2
    4f46:	f7 cf       	rjmp	.-18     	; 0x4f36 <vfprintf+0x3aa>
    4f48:	f6 01       	movw	r30, r12
    4f4a:	86 81       	ldd	r24, Z+6	; 0x06
    4f4c:	97 81       	ldd	r25, Z+7	; 0x07
    4f4e:	02 c0       	rjmp	.+4      	; 0x4f54 <vfprintf+0x3c8>
    4f50:	8f ef       	ldi	r24, 0xFF	; 255
    4f52:	9f ef       	ldi	r25, 0xFF	; 255
    4f54:	2b 96       	adiw	r28, 0x0b	; 11
    4f56:	0f b6       	in	r0, 0x3f	; 63
    4f58:	f8 94       	cli
    4f5a:	de bf       	out	0x3e, r29	; 62
    4f5c:	0f be       	out	0x3f, r0	; 63
    4f5e:	cd bf       	out	0x3d, r28	; 61
    4f60:	df 91       	pop	r29
    4f62:	cf 91       	pop	r28
    4f64:	1f 91       	pop	r17
    4f66:	0f 91       	pop	r16
    4f68:	ff 90       	pop	r15
    4f6a:	ef 90       	pop	r14
    4f6c:	df 90       	pop	r13
    4f6e:	cf 90       	pop	r12
    4f70:	bf 90       	pop	r11
    4f72:	af 90       	pop	r10
    4f74:	9f 90       	pop	r9
    4f76:	8f 90       	pop	r8
    4f78:	7f 90       	pop	r7
    4f7a:	6f 90       	pop	r6
    4f7c:	5f 90       	pop	r5
    4f7e:	4f 90       	pop	r4
    4f80:	3f 90       	pop	r3
    4f82:	2f 90       	pop	r2
    4f84:	08 95       	ret

00004f86 <strnlen_P>:
    4f86:	fc 01       	movw	r30, r24
    4f88:	05 90       	lpm	r0, Z+
    4f8a:	61 50       	subi	r22, 0x01	; 1
    4f8c:	70 40       	sbci	r23, 0x00	; 0
    4f8e:	01 10       	cpse	r0, r1
    4f90:	d8 f7       	brcc	.-10     	; 0x4f88 <strnlen_P+0x2>
    4f92:	80 95       	com	r24
    4f94:	90 95       	com	r25
    4f96:	8e 0f       	add	r24, r30
    4f98:	9f 1f       	adc	r25, r31
    4f9a:	08 95       	ret

00004f9c <strnlen>:
    4f9c:	fc 01       	movw	r30, r24
    4f9e:	61 50       	subi	r22, 0x01	; 1
    4fa0:	70 40       	sbci	r23, 0x00	; 0
    4fa2:	01 90       	ld	r0, Z+
    4fa4:	01 10       	cpse	r0, r1
    4fa6:	d8 f7       	brcc	.-10     	; 0x4f9e <strnlen+0x2>
    4fa8:	80 95       	com	r24
    4faa:	90 95       	com	r25
    4fac:	8e 0f       	add	r24, r30
    4fae:	9f 1f       	adc	r25, r31
    4fb0:	08 95       	ret

00004fb2 <fputc>:
    4fb2:	0f 93       	push	r16
    4fb4:	1f 93       	push	r17
    4fb6:	cf 93       	push	r28
    4fb8:	df 93       	push	r29
    4fba:	fb 01       	movw	r30, r22
    4fbc:	23 81       	ldd	r18, Z+3	; 0x03
    4fbe:	21 fd       	sbrc	r18, 1
    4fc0:	03 c0       	rjmp	.+6      	; 0x4fc8 <fputc+0x16>
    4fc2:	8f ef       	ldi	r24, 0xFF	; 255
    4fc4:	9f ef       	ldi	r25, 0xFF	; 255
    4fc6:	2c c0       	rjmp	.+88     	; 0x5020 <fputc+0x6e>
    4fc8:	22 ff       	sbrs	r18, 2
    4fca:	16 c0       	rjmp	.+44     	; 0x4ff8 <fputc+0x46>
    4fcc:	46 81       	ldd	r20, Z+6	; 0x06
    4fce:	57 81       	ldd	r21, Z+7	; 0x07
    4fd0:	24 81       	ldd	r18, Z+4	; 0x04
    4fd2:	35 81       	ldd	r19, Z+5	; 0x05
    4fd4:	42 17       	cp	r20, r18
    4fd6:	53 07       	cpc	r21, r19
    4fd8:	44 f4       	brge	.+16     	; 0x4fea <fputc+0x38>
    4fda:	a0 81       	ld	r26, Z
    4fdc:	b1 81       	ldd	r27, Z+1	; 0x01
    4fde:	9d 01       	movw	r18, r26
    4fe0:	2f 5f       	subi	r18, 0xFF	; 255
    4fe2:	3f 4f       	sbci	r19, 0xFF	; 255
    4fe4:	31 83       	std	Z+1, r19	; 0x01
    4fe6:	20 83       	st	Z, r18
    4fe8:	8c 93       	st	X, r24
    4fea:	26 81       	ldd	r18, Z+6	; 0x06
    4fec:	37 81       	ldd	r19, Z+7	; 0x07
    4fee:	2f 5f       	subi	r18, 0xFF	; 255
    4ff0:	3f 4f       	sbci	r19, 0xFF	; 255
    4ff2:	37 83       	std	Z+7, r19	; 0x07
    4ff4:	26 83       	std	Z+6, r18	; 0x06
    4ff6:	14 c0       	rjmp	.+40     	; 0x5020 <fputc+0x6e>
    4ff8:	8b 01       	movw	r16, r22
    4ffa:	ec 01       	movw	r28, r24
    4ffc:	fb 01       	movw	r30, r22
    4ffe:	00 84       	ldd	r0, Z+8	; 0x08
    5000:	f1 85       	ldd	r31, Z+9	; 0x09
    5002:	e0 2d       	mov	r30, r0
    5004:	09 95       	icall
    5006:	89 2b       	or	r24, r25
    5008:	e1 f6       	brne	.-72     	; 0x4fc2 <fputc+0x10>
    500a:	d8 01       	movw	r26, r16
    500c:	16 96       	adiw	r26, 0x06	; 6
    500e:	8d 91       	ld	r24, X+
    5010:	9c 91       	ld	r25, X
    5012:	17 97       	sbiw	r26, 0x07	; 7
    5014:	01 96       	adiw	r24, 0x01	; 1
    5016:	17 96       	adiw	r26, 0x07	; 7
    5018:	9c 93       	st	X, r25
    501a:	8e 93       	st	-X, r24
    501c:	16 97       	sbiw	r26, 0x06	; 6
    501e:	ce 01       	movw	r24, r28
    5020:	df 91       	pop	r29
    5022:	cf 91       	pop	r28
    5024:	1f 91       	pop	r17
    5026:	0f 91       	pop	r16
    5028:	08 95       	ret

0000502a <__ultoa_invert>:
    502a:	fa 01       	movw	r30, r20
    502c:	aa 27       	eor	r26, r26
    502e:	28 30       	cpi	r18, 0x08	; 8
    5030:	51 f1       	breq	.+84     	; 0x5086 <__ultoa_invert+0x5c>
    5032:	20 31       	cpi	r18, 0x10	; 16
    5034:	81 f1       	breq	.+96     	; 0x5096 <__ultoa_invert+0x6c>
    5036:	e8 94       	clt
    5038:	6f 93       	push	r22
    503a:	6e 7f       	andi	r22, 0xFE	; 254
    503c:	6e 5f       	subi	r22, 0xFE	; 254
    503e:	7f 4f       	sbci	r23, 0xFF	; 255
    5040:	8f 4f       	sbci	r24, 0xFF	; 255
    5042:	9f 4f       	sbci	r25, 0xFF	; 255
    5044:	af 4f       	sbci	r26, 0xFF	; 255
    5046:	b1 e0       	ldi	r27, 0x01	; 1
    5048:	3e d0       	rcall	.+124    	; 0x50c6 <__ultoa_invert+0x9c>
    504a:	b4 e0       	ldi	r27, 0x04	; 4
    504c:	3c d0       	rcall	.+120    	; 0x50c6 <__ultoa_invert+0x9c>
    504e:	67 0f       	add	r22, r23
    5050:	78 1f       	adc	r23, r24
    5052:	89 1f       	adc	r24, r25
    5054:	9a 1f       	adc	r25, r26
    5056:	a1 1d       	adc	r26, r1
    5058:	68 0f       	add	r22, r24
    505a:	79 1f       	adc	r23, r25
    505c:	8a 1f       	adc	r24, r26
    505e:	91 1d       	adc	r25, r1
    5060:	a1 1d       	adc	r26, r1
    5062:	6a 0f       	add	r22, r26
    5064:	71 1d       	adc	r23, r1
    5066:	81 1d       	adc	r24, r1
    5068:	91 1d       	adc	r25, r1
    506a:	a1 1d       	adc	r26, r1
    506c:	20 d0       	rcall	.+64     	; 0x50ae <__ultoa_invert+0x84>
    506e:	09 f4       	brne	.+2      	; 0x5072 <__ultoa_invert+0x48>
    5070:	68 94       	set
    5072:	3f 91       	pop	r19
    5074:	2a e0       	ldi	r18, 0x0A	; 10
    5076:	26 9f       	mul	r18, r22
    5078:	11 24       	eor	r1, r1
    507a:	30 19       	sub	r19, r0
    507c:	30 5d       	subi	r19, 0xD0	; 208
    507e:	31 93       	st	Z+, r19
    5080:	de f6       	brtc	.-74     	; 0x5038 <__ultoa_invert+0xe>
    5082:	cf 01       	movw	r24, r30
    5084:	08 95       	ret
    5086:	46 2f       	mov	r20, r22
    5088:	47 70       	andi	r20, 0x07	; 7
    508a:	40 5d       	subi	r20, 0xD0	; 208
    508c:	41 93       	st	Z+, r20
    508e:	b3 e0       	ldi	r27, 0x03	; 3
    5090:	0f d0       	rcall	.+30     	; 0x50b0 <__ultoa_invert+0x86>
    5092:	c9 f7       	brne	.-14     	; 0x5086 <__ultoa_invert+0x5c>
    5094:	f6 cf       	rjmp	.-20     	; 0x5082 <__ultoa_invert+0x58>
    5096:	46 2f       	mov	r20, r22
    5098:	4f 70       	andi	r20, 0x0F	; 15
    509a:	40 5d       	subi	r20, 0xD0	; 208
    509c:	4a 33       	cpi	r20, 0x3A	; 58
    509e:	18 f0       	brcs	.+6      	; 0x50a6 <__ultoa_invert+0x7c>
    50a0:	49 5d       	subi	r20, 0xD9	; 217
    50a2:	31 fd       	sbrc	r19, 1
    50a4:	40 52       	subi	r20, 0x20	; 32
    50a6:	41 93       	st	Z+, r20
    50a8:	02 d0       	rcall	.+4      	; 0x50ae <__ultoa_invert+0x84>
    50aa:	a9 f7       	brne	.-22     	; 0x5096 <__ultoa_invert+0x6c>
    50ac:	ea cf       	rjmp	.-44     	; 0x5082 <__ultoa_invert+0x58>
    50ae:	b4 e0       	ldi	r27, 0x04	; 4
    50b0:	a6 95       	lsr	r26
    50b2:	97 95       	ror	r25
    50b4:	87 95       	ror	r24
    50b6:	77 95       	ror	r23
    50b8:	67 95       	ror	r22
    50ba:	ba 95       	dec	r27
    50bc:	c9 f7       	brne	.-14     	; 0x50b0 <__ultoa_invert+0x86>
    50be:	00 97       	sbiw	r24, 0x00	; 0
    50c0:	61 05       	cpc	r22, r1
    50c2:	71 05       	cpc	r23, r1
    50c4:	08 95       	ret
    50c6:	9b 01       	movw	r18, r22
    50c8:	ac 01       	movw	r20, r24
    50ca:	0a 2e       	mov	r0, r26
    50cc:	06 94       	lsr	r0
    50ce:	57 95       	ror	r21
    50d0:	47 95       	ror	r20
    50d2:	37 95       	ror	r19
    50d4:	27 95       	ror	r18
    50d6:	ba 95       	dec	r27
    50d8:	c9 f7       	brne	.-14     	; 0x50cc <__ultoa_invert+0xa2>
    50da:	62 0f       	add	r22, r18
    50dc:	73 1f       	adc	r23, r19
    50de:	84 1f       	adc	r24, r20
    50e0:	95 1f       	adc	r25, r21
    50e2:	a0 1d       	adc	r26, r0
    50e4:	08 95       	ret

000050e6 <eeprom_read_byte>:
    50e6:	f9 99       	sbic	0x1f, 1	; 31
    50e8:	fe cf       	rjmp	.-4      	; 0x50e6 <eeprom_read_byte>
    50ea:	92 bd       	out	0x22, r25	; 34
    50ec:	81 bd       	out	0x21, r24	; 33
    50ee:	f8 9a       	sbi	0x1f, 0	; 31
    50f0:	99 27       	eor	r25, r25
    50f2:	80 b5       	in	r24, 0x20	; 32
    50f4:	08 95       	ret

000050f6 <eeprom_write_byte>:
    50f6:	26 2f       	mov	r18, r22

000050f8 <eeprom_write_r18>:
    50f8:	f9 99       	sbic	0x1f, 1	; 31
    50fa:	fe cf       	rjmp	.-4      	; 0x50f8 <eeprom_write_r18>
    50fc:	1f ba       	out	0x1f, r1	; 31
    50fe:	92 bd       	out	0x22, r25	; 34
    5100:	81 bd       	out	0x21, r24	; 33
    5102:	20 bd       	out	0x20, r18	; 32
    5104:	0f b6       	in	r0, 0x3f	; 63
    5106:	f8 94       	cli
    5108:	fa 9a       	sbi	0x1f, 2	; 31
    510a:	f9 9a       	sbi	0x1f, 1	; 31
    510c:	0f be       	out	0x3f, r0	; 63
    510e:	01 96       	adiw	r24, 0x01	; 1
    5110:	08 95       	ret

00005112 <_exit>:
    5112:	f8 94       	cli

00005114 <__stop_program>:
    5114:	ff cf       	rjmp	.-2      	; 0x5114 <__stop_program>
