
hexapod.elf:     file format elf32-avr

Sections:
Idx Name          Size      VMA       LMA       File off  Algn
  0 .data         0000041a  00800100  0000479a  0000482e  2**0
                  CONTENTS, ALLOC, LOAD, DATA
  1 .text         0000479a  00000000  00000000  00000094  2**1
                  CONTENTS, ALLOC, LOAD, READONLY, CODE
  2 .bss          00000898  0080051a  0080051a  00004c48  2**0
                  ALLOC
  3 .comment      00000030  00000000  00000000  00004c48  2**0
                  CONTENTS, READONLY
  4 .note.gnu.avr.deviceinfo 00000040  00000000  00000000  00004c78  2**2
                  CONTENTS, READONLY
  5 .debug_aranges 00000800  00000000  00000000  00004cb8  2**3
                  CONTENTS, READONLY, DEBUGGING
  6 .debug_info   0000935f  00000000  00000000  000054b8  2**0
                  CONTENTS, READONLY, DEBUGGING
  7 .debug_abbrev 00002e56  00000000  00000000  0000e817  2**0
                  CONTENTS, READONLY, DEBUGGING
  8 .debug_line   0000a331  00000000  00000000  0001166d  2**0
                  CONTENTS, READONLY, DEBUGGING
  9 .debug_frame  0000158c  00000000  00000000  0001b9a0  2**2
                  CONTENTS, READONLY, DEBUGGING
 10 .debug_str    0001002b  00000000  00000000  0001cf2c  2**0
                  CONTENTS, READONLY, DEBUGGING
 11 .debug_loc    00005be0  00000000  00000000  0002cf57  2**0
                  CONTENTS, READONLY, DEBUGGING
 12 .debug_ranges 000006b8  00000000  00000000  00032b37  2**0
                  CONTENTS, READONLY, DEBUGGING
 13 .debug_macro  000033ae  00000000  00000000  000331ef  2**0
                  CONTENTS, READONLY, DEBUGGING

Disassembly of section .text:

00000000 <__vectors>:
       0:	7f c0       	rjmp	.+254    	; 0x100 <__ctors_end>
       2:	00 00       	nop
       4:	9c c0       	rjmp	.+312    	; 0x13e <__bad_interrupt>
       6:	00 00       	nop
       8:	9a c0       	rjmp	.+308    	; 0x13e <__bad_interrupt>
       a:	00 00       	nop
       c:	98 c0       	rjmp	.+304    	; 0x13e <__bad_interrupt>
       e:	00 00       	nop
      10:	a9 c1       	rjmp	.+850    	; 0x364 <__vector_4>
      12:	00 00       	nop
      14:	94 c0       	rjmp	.+296    	; 0x13e <__bad_interrupt>
      16:	00 00       	nop
      18:	92 c0       	rjmp	.+292    	; 0x13e <__bad_interrupt>
      1a:	00 00       	nop
      1c:	90 c0       	rjmp	.+288    	; 0x13e <__bad_interrupt>
      1e:	00 00       	nop
      20:	8e c0       	rjmp	.+284    	; 0x13e <__bad_interrupt>
      22:	00 00       	nop
      24:	0c 94 22 11 	jmp	0x2244	; 0x2244 <__vector_9>
      28:	8a c0       	rjmp	.+276    	; 0x13e <__bad_interrupt>
      2a:	00 00       	nop
      2c:	88 c0       	rjmp	.+272    	; 0x13e <__bad_interrupt>
      2e:	00 00       	nop
      30:	86 c0       	rjmp	.+268    	; 0x13e <__bad_interrupt>
      32:	00 00       	nop
      34:	84 c0       	rjmp	.+264    	; 0x13e <__bad_interrupt>
      36:	00 00       	nop
      38:	82 c0       	rjmp	.+260    	; 0x13e <__bad_interrupt>
      3a:	00 00       	nop
      3c:	80 c0       	rjmp	.+256    	; 0x13e <__bad_interrupt>
      3e:	00 00       	nop
      40:	7e c0       	rjmp	.+252    	; 0x13e <__bad_interrupt>
      42:	00 00       	nop
      44:	7c c0       	rjmp	.+248    	; 0x13e <__bad_interrupt>
      46:	00 00       	nop
      48:	0c 94 98 10 	jmp	0x2130	; 0x2130 <__vector_18>
      4c:	0c 94 20 10 	jmp	0x2040	; 0x2040 <__vector_19>
      50:	0c 94 66 14 	jmp	0x28cc	; 0x28cc <__vector_20>
      54:	0c 94 8b 14 	jmp	0x2916	; 0x2916 <__vector_21>
      58:	0c 94 be 14 	jmp	0x297c	; 0x297c <__vector_22>
      5c:	70 c0       	rjmp	.+224    	; 0x13e <__bad_interrupt>
      5e:	00 00       	nop
      60:	6e c0       	rjmp	.+220    	; 0x13e <__bad_interrupt>
      62:	00 00       	nop
      64:	6c c0       	rjmp	.+216    	; 0x13e <__bad_interrupt>
      66:	00 00       	nop
      68:	6a c0       	rjmp	.+212    	; 0x13e <__bad_interrupt>
      6a:	00 00       	nop
      6c:	68 c0       	rjmp	.+208    	; 0x13e <__bad_interrupt>
      6e:	00 00       	nop
      70:	0c 94 c8 14 	jmp	0x2990	; 0x2990 <__vector_28>
      74:	0c 94 ed 14 	jmp	0x29da	; 0x29da <__vector_29>
      78:	0c 94 20 15 	jmp	0x2a40	; 0x2a40 <__vector_30>
      7c:	60 c0       	rjmp	.+192    	; 0x13e <__bad_interrupt>
      7e:	00 00       	nop
      80:	5e c0       	rjmp	.+188    	; 0x13e <__bad_interrupt>
      82:	00 00       	nop
      84:	5c c0       	rjmp	.+184    	; 0x13e <__bad_interrupt>
      86:	00 00       	nop
      88:	5a c0       	rjmp	.+180    	; 0x13e <__bad_interrupt>
      8a:	00 00       	nop
      8c:	08 4a       	sbci	r16, 0xA8	; 168
      8e:	d7 3b       	cpi	r29, 0xB7	; 183
      90:	3b ce       	rjmp	.-906    	; 0xfffffd08 <__eeprom_end+0xff7efd08>
      92:	01 6e       	ori	r16, 0xE1	; 225
      94:	84 bc       	out	0x24, r8	; 36
      96:	bf fd       	.word	0xfdbf	; ????
      98:	c1 2f       	mov	r28, r17
      9a:	3d 6c       	ori	r19, 0xCD	; 205
      9c:	74 31       	cpi	r23, 0x14	; 20
      9e:	9a bd       	out	0x2a, r25	; 42
      a0:	56 83       	std	Z+6, r21	; 0x06
      a2:	3d da       	rcall	.-2950   	; 0xfffff51e <__eeprom_end+0xff7ef51e>
      a4:	3d 00       	.word	0x003d	; ????
      a6:	c7 7f       	andi	r28, 0xF7	; 247
      a8:	11 be       	out	0x31, r1	; 49
      aa:	d9 e4       	ldi	r29, 0x49	; 73
      ac:	bb 4c       	sbci	r27, 0xCB	; 203
      ae:	3e 91       	ld	r19, -X
      b0:	6b aa       	std	Y+51, r6	; 0x33
      b2:	aa be       	out	0x3a, r10	; 58
      b4:	00 00       	nop
      b6:	00 80       	ld	r0, Z
      b8:	3f 07       	cpc	r19, r31
      ba:	2c 7a       	andi	r18, 0xAC	; 172
      bc:	a5 ba       	out	0x15, r10	; 21
      be:	6c c5       	rjmp	.+2776   	; 0xb98 <DrvAdcRead+0x3a>
      c0:	90 da       	rcall	.-2784   	; 0xfffff5e2 <__eeprom_end+0xff7ef5e2>
      c2:	3b 93       	.word	0x933b	; ????
      c4:	65 fc       	sbrc	r6, 5
      c6:	8b bc       	out	0x2b, r8	; 43
      c8:	53 f8       	bld	r5, 3
      ca:	10 fd       	sbrc	r17, 0
      cc:	3c 56       	subi	r19, 0x6C	; 108
      ce:	92 83       	std	Z+2, r25	; 0x02
      d0:	4d bd       	out	0x2d, r20	; 45
      d2:	87 9d       	mul	r24, r7
      d4:	3a b6       	in	r3, 0x3a	; 58
      d6:	3d cb       	rjmp	.-2438   	; 0xfffff752 <__eeprom_end+0xff7ef752>
      d8:	c9 bf       	out	0x39, r28	; 57
      da:	5b be       	out	0x3b, r5	; 59
      dc:	73 da       	rcall	.-2842   	; 0xfffff5c4 <__eeprom_end+0xff7ef5c4>
      de:	0f c9       	rjmp	.-3554   	; 0xfffff2fe <__eeprom_end+0xff7ef2fe>
      e0:	3f 05       	cpc	r19, r15
      e2:	a8 4c       	sbci	r26, 0xC8	; 200
      e4:	cd b2       	in	r12, 0x1d	; 29
      e6:	d4 4e       	sbci	r29, 0xE4	; 228
      e8:	b9 38       	cpi	r27, 0x89	; 137
      ea:	36 a9       	ldd	r19, Z+54	; 0x36
      ec:	02 0c       	add	r0, r2
      ee:	50 b9       	out	0x00, r21	; 0
      f0:	91 86       	std	Z+9, r9	; 0x09
      f2:	88 08       	sbc	r8, r8
      f4:	3c a6       	std	Y+44, r3	; 0x2c
      f6:	aa aa       	std	Y+50, r10	; 0x32
      f8:	2a be       	out	0x3a, r2	; 58
      fa:	00 00       	nop
      fc:	00 80       	ld	r0, Z
      fe:	3f 00       	.word	0x003f	; ????

00000100 <__ctors_end>:
     100:	11 24       	eor	r1, r1
     102:	1f be       	out	0x3f, r1	; 63
     104:	cf ef       	ldi	r28, 0xFF	; 255
     106:	d0 e4       	ldi	r29, 0x40	; 64
     108:	de bf       	out	0x3e, r29	; 62
     10a:	cd bf       	out	0x3d, r28	; 61

0000010c <__do_copy_data>:
     10c:	15 e0       	ldi	r17, 0x05	; 5
     10e:	a0 e0       	ldi	r26, 0x00	; 0
     110:	b1 e0       	ldi	r27, 0x01	; 1
     112:	ea e9       	ldi	r30, 0x9A	; 154
     114:	f7 e4       	ldi	r31, 0x47	; 71
     116:	00 e0       	ldi	r16, 0x00	; 0
     118:	0b bf       	out	0x3b, r16	; 59
     11a:	02 c0       	rjmp	.+4      	; 0x120 <__do_copy_data+0x14>
     11c:	07 90       	elpm	r0, Z+
     11e:	0d 92       	st	X+, r0
     120:	aa 31       	cpi	r26, 0x1A	; 26
     122:	b1 07       	cpc	r27, r17
     124:	d9 f7       	brne	.-10     	; 0x11c <__do_copy_data+0x10>

00000126 <__do_clear_bss>:
     126:	2d e0       	ldi	r18, 0x0D	; 13
     128:	aa e1       	ldi	r26, 0x1A	; 26
     12a:	b5 e0       	ldi	r27, 0x05	; 5
     12c:	01 c0       	rjmp	.+2      	; 0x130 <.do_clear_bss_start>

0000012e <.do_clear_bss_loop>:
     12e:	1d 92       	st	X+, r1

00000130 <.do_clear_bss_start>:
     130:	a2 3b       	cpi	r26, 0xB2	; 178
     132:	b2 07       	cpc	r27, r18
     134:	e1 f7       	brne	.-8      	; 0x12e <.do_clear_bss_loop>
     136:	0e 94 2a 15 	call	0x2a54	; 0x2a54 <main>
     13a:	0c 94 cb 23 	jmp	0x4796	; 0x4796 <_exit>

0000013e <__bad_interrupt>:
     13e:	60 cf       	rjmp	.-320    	; 0x0 <__vectors>

00000140 <CmpPCA9685Reset>:
	return oSuccess;
}

Boolean CmpPCA9685Reset( Int8U addr )
{
	return DrvTwiWriteReg( addr, PCA9685_MODE1, 0x80U );
     140:	40 e8       	ldi	r20, 0x80	; 128
     142:	60 e0       	ldi	r22, 0x00	; 0
     144:	0c 94 91 12 	jmp	0x2522	; 0x2522 <DrvTwiWriteReg>
}
     148:	08 95       	ret

0000014a <CmpPCA9685Init>:
 /////////////////////////////////////////PUBLIC FUNCTIONS/////////////////////////////////////////
Boolean CmpPCA9685Init( Int8U addr )
{
	Boolean oSuccess = TRUE;
		
	CmpPCA9685Reset(addr);
     14a:	fa df       	rcall	.-12     	; 0x140 <CmpPCA9685Reset>
	return oSuccess;
}
     14c:	81 e0       	ldi	r24, 0x01	; 1
     14e:	08 95       	ret

00000150 <CmpPCA9685SetPWMFreq>:
{
	return DrvTwiWriteReg( addr, PCA9685_MODE1, 0x80U );
}

Boolean CmpPCA9685SetPWMFreq(Int8U addr, float freq)
{
     150:	cf 92       	push	r12
     152:	df 92       	push	r13
     154:	ef 92       	push	r14
     156:	ff 92       	push	r15
     158:	1f 93       	push	r17
     15a:	cf 93       	push	r28
     15c:	df 93       	push	r29
     15e:	1f 92       	push	r1
     160:	cd b7       	in	r28, 0x3d	; 61
     162:	de b7       	in	r29, 0x3e	; 62
     164:	18 2f       	mov	r17, r24
     166:	cb 01       	movw	r24, r22
     168:	ba 01       	movw	r22, r20
	freq *= 0.9;  // Correct for overshoot in the frequency setting (see issue #11).
	float prescaleval = 25000000.0;
	prescaleval /= 4096.0;
	prescaleval /= freq;
     16a:	26 e6       	ldi	r18, 0x66	; 102
     16c:	36 e6       	ldi	r19, 0x66	; 102
     16e:	46 e6       	ldi	r20, 0x66	; 102
     170:	5f e3       	ldi	r21, 0x3F	; 63
     172:	0e 94 57 22 	call	0x44ae	; 0x44ae <__mulsf3>
     176:	9b 01       	movw	r18, r22
     178:	ac 01       	movw	r20, r24
     17a:	60 e2       	ldi	r22, 0x20	; 32
     17c:	7c eb       	ldi	r23, 0xBC	; 188
     17e:	8e eb       	ldi	r24, 0xBE	; 190
     180:	95 e4       	ldi	r25, 0x45	; 69
     182:	0e 94 35 20 	call	0x406a	; 0x406a <__divsf3>
	prescaleval -= 1.0;

	Int8U prescale = floor(prescaleval + 0.5);
     186:	20 e0       	ldi	r18, 0x00	; 0
     188:	30 e0       	ldi	r19, 0x00	; 0
     18a:	40 e8       	ldi	r20, 0x80	; 128
     18c:	5f e3       	ldi	r21, 0x3F	; 63
     18e:	0e 94 a1 1f 	call	0x3f42	; 0x3f42 <__subsf3>
     192:	20 e0       	ldi	r18, 0x00	; 0
     194:	30 e0       	ldi	r19, 0x00	; 0
     196:	40 e0       	ldi	r20, 0x00	; 0
     198:	5f e3       	ldi	r21, 0x3F	; 63
     19a:	0e 94 a2 1f 	call	0x3f44	; 0x3f44 <__addsf3>
     19e:	0e 94 0b 21 	call	0x4216	; 0x4216 <floor>
     1a2:	6b 01       	movw	r12, r22
     1a4:	7c 01       	movw	r14, r24
	
	Int8U oldmode = 0U;
     1a6:	19 82       	std	Y+1, r1	; 0x01

	DrvTwiReadReg(addr,PCA9685_MODE1, &oldmode );
     1a8:	ae 01       	movw	r20, r28
     1aa:	4f 5f       	subi	r20, 0xFF	; 255
     1ac:	5f 4f       	sbci	r21, 0xFF	; 255
     1ae:	60 e0       	ldi	r22, 0x00	; 0
     1b0:	81 2f       	mov	r24, r17
     1b2:	0e 94 22 12 	call	0x2444	; 0x2444 <DrvTwiReadReg>
	Int8U newmode = (oldmode & 0x7FU) | 0x10U; // sleep
	DrvTwiWriteReg(addr,PCA9685_MODE1, newmode); // go to sleep
     1b6:	49 81       	ldd	r20, Y+1	; 0x01
     1b8:	4f 76       	andi	r20, 0x6F	; 111
     1ba:	40 61       	ori	r20, 0x10	; 16
     1bc:	60 e0       	ldi	r22, 0x00	; 0
     1be:	81 2f       	mov	r24, r17
     1c0:	0e 94 91 12 	call	0x2522	; 0x2522 <DrvTwiWriteReg>
	DrvTwiWriteReg(addr,PCA9685_PRESCALE, prescale); // set the prescaler
     1c4:	c7 01       	movw	r24, r14
     1c6:	b6 01       	movw	r22, r12
     1c8:	0e 94 a2 20 	call	0x4144	; 0x4144 <__fixunssfsi>
     1cc:	46 2f       	mov	r20, r22
     1ce:	6e ef       	ldi	r22, 0xFE	; 254
     1d0:	81 2f       	mov	r24, r17
     1d2:	0e 94 91 12 	call	0x2522	; 0x2522 <DrvTwiWriteReg>
	DrvTwiWriteReg(addr,PCA9685_MODE1, oldmode);
     1d6:	49 81       	ldd	r20, Y+1	; 0x01
     1d8:	60 e0       	ldi	r22, 0x00	; 0
     1da:	81 2f       	mov	r24, r17
     1dc:	0e 94 91 12 	call	0x2522	; 0x2522 <DrvTwiWriteReg>
	DrvTickDelayMs(1U);
     1e0:	81 e0       	ldi	r24, 0x01	; 1
     1e2:	90 e0       	ldi	r25, 0x00	; 0
     1e4:	0e 94 91 10 	call	0x2122	; 0x2122 <DrvTickDelayMs>
	return DrvTwiWriteReg(addr,PCA9685_MODE1, oldmode | 0xA0U);  //  This sets the MODE1 register to turn on auto increment.
     1e8:	49 81       	ldd	r20, Y+1	; 0x01
     1ea:	40 6a       	ori	r20, 0xA0	; 160
     1ec:	60 e0       	ldi	r22, 0x00	; 0
     1ee:	81 2f       	mov	r24, r17
     1f0:	0e 94 91 12 	call	0x2522	; 0x2522 <DrvTwiWriteReg>
}
     1f4:	0f 90       	pop	r0
     1f6:	df 91       	pop	r29
     1f8:	cf 91       	pop	r28
     1fa:	1f 91       	pop	r17
     1fc:	ff 90       	pop	r15
     1fe:	ef 90       	pop	r14
     200:	df 90       	pop	r13
     202:	cf 90       	pop	r12
     204:	08 95       	ret

00000206 <CmpPCA9685SetPWM>:


Boolean CmpPCA9685SetPWM(Int8U addr, Int8U num, Int16U on, Int16U off)
{
     206:	cf 93       	push	r28
     208:	df 93       	push	r29
     20a:	00 d0       	rcall	.+0      	; 0x20c <CmpPCA9685SetPWM+0x6>
     20c:	00 d0       	rcall	.+0      	; 0x20e <CmpPCA9685SetPWM+0x8>
     20e:	cd b7       	in	r28, 0x3d	; 61
     210:	de b7       	in	r29, 0x3e	; 62
	Int8U buffer [] = {on,on>>8U,off, off>>8U}; 
     212:	49 83       	std	Y+1, r20	; 0x01
     214:	5a 83       	std	Y+2, r21	; 0x02
     216:	2b 83       	std	Y+3, r18	; 0x03
     218:	3c 83       	std	Y+4, r19	; 0x04
	return DrvTwiWriteRegBuf(addr, LED0_ON_L + 4 * num, buffer, 4U);
     21a:	66 0f       	add	r22, r22
     21c:	66 0f       	add	r22, r22
     21e:	6a 5f       	subi	r22, 0xFA	; 250
     220:	24 e0       	ldi	r18, 0x04	; 4
     222:	ae 01       	movw	r20, r28
     224:	4f 5f       	subi	r20, 0xFF	; 255
     226:	5f 4f       	sbci	r21, 0xFF	; 255
     228:	0e 94 e1 12 	call	0x25c2	; 0x25c2 <DrvTwiWriteRegBuf>
}
     22c:	0f 90       	pop	r0
     22e:	0f 90       	pop	r0
     230:	0f 90       	pop	r0
     232:	0f 90       	pop	r0
     234:	df 91       	pop	r29
     236:	cf 91       	pop	r28
     238:	08 95       	ret

0000023a <CmpSRF04Init>:

/////////////////////////////////////////PUBLIC FUNCTIONS/////////////////////////////////////////

//fonction init du capteur
Boolean CmpSRF04Init( void )
{
     23a:	cf 92       	push	r12
     23c:	df 92       	push	r13
     23e:	ef 92       	push	r14
     240:	ff 92       	push	r15
     242:	0f 93       	push	r16
     244:	1f 93       	push	r17
     246:	cf 93       	push	r28
     248:	df 93       	push	r29
     24a:	0f 2e       	mov	r0, r31
     24c:	f0 e0       	ldi	r31, 0x00	; 0
     24e:	ef 2e       	mov	r14, r31
     250:	f1 e0       	ldi	r31, 0x01	; 1
     252:	ff 2e       	mov	r15, r31
     254:	f0 2d       	mov	r31, r0
     256:	02 e0       	ldi	r16, 0x02	; 2
     258:	11 e0       	ldi	r17, 0x01	; 1
     25a:	c0 e0       	ldi	r28, 0x00	; 0
     25c:	d0 e0       	ldi	r29, 0x00	; 0
     25e:	67 01       	movw	r12, r14
	for(uint8_t loop_us = 0U ; loop_us < E_NB_USS ; loop_us++)
	{
		//set pin to output
		DrvIoSetPinOutput(srf04PinPulse[loop_us]);
     260:	f7 01       	movw	r30, r14
     262:	81 91       	ld	r24, Z+
     264:	7f 01       	movw	r14, r30
     266:	a1 d5       	rcall	.+2882   	; 0xdaa <DrvIoSetPinOutput>
		DrvIoSetPinState(srf04PinPulse[loop_us],IO_LEVEL_LOW);
     268:	60 e0       	ldi	r22, 0x00	; 0
     26a:	f6 01       	movw	r30, r12
     26c:	80 81       	ld	r24, Z
     26e:	ea d5       	rcall	.+3028   	; 0xe44 <DrvIoSetPinState>
     270:	68 01       	movw	r12, r16
		
		//set pin to input
		DrvIoSetPinInput(srf04PinEcho[loop_us]);
     272:	f8 01       	movw	r30, r16
     274:	81 91       	ld	r24, Z+
     276:	8f 01       	movw	r16, r30
     278:	b1 d5       	rcall	.+2914   	; 0xddc <DrvIoSetPinInput>
		//enable ext int
		DrvIoSetInterruptPin(srf04PinEcho[loop_us]);
     27a:	f6 01       	movw	r30, r12
     27c:	80 81       	ld	r24, Z
     27e:	07 d6       	rcall	.+3086   	; 0xe8e <DrvIoSetInterruptPin>
     280:	fe 01       	movw	r30, r28
		
		statusEcho[loop_us] = SEND_PULSE;
     282:	e6 5d       	subi	r30, 0xD6	; 214
     284:	fa 4f       	sbci	r31, 0xFA	; 250
     286:	10 82       	st	Z, r1
     288:	fe 01       	movw	r30, r28
		timeoutEcho[loop_us] = 0U;
     28a:	ee 0f       	add	r30, r30
     28c:	ff 1f       	adc	r31, r31
     28e:	e2 5e       	subi	r30, 0xE2	; 226
     290:	fa 4f       	sbci	r31, 0xFA	; 250
     292:	11 82       	std	Z+1, r1	; 0x01
     294:	10 82       	st	Z, r1
     296:	fe 01       	movw	r30, r28
		timeBeforeEchoStart[loop_us] = 0U;
     298:	ee 0f       	add	r30, r30
     29a:	ff 1f       	adc	r31, r31
     29c:	ee 0f       	add	r30, r30
     29e:	ff 1f       	adc	r31, r31
     2a0:	ee 5d       	subi	r30, 0xDE	; 222
     2a2:	fa 4f       	sbci	r31, 0xFA	; 250
     2a4:	10 82       	st	Z, r1
     2a6:	11 82       	std	Z+1, r1	; 0x01
     2a8:	12 82       	std	Z+2, r1	; 0x02
     2aa:	13 82       	std	Z+3, r1	; 0x03
     2ac:	21 96       	adiw	r28, 0x01	; 1
     2ae:	c2 30       	cpi	r28, 0x02	; 2
/////////////////////////////////////////PUBLIC FUNCTIONS/////////////////////////////////////////

//fonction init du capteur
Boolean CmpSRF04Init( void )
{
	for(uint8_t loop_us = 0U ; loop_us < E_NB_USS ; loop_us++)
     2b0:	d1 05       	cpc	r29, r1
     2b2:	a9 f6       	brne	.-86     	; 0x25e <CmpSRF04Init+0x24>
     2b4:	81 e0       	ldi	r24, 0x01	; 1
		timeoutEcho[loop_us] = 0U;
		timeBeforeEchoStart[loop_us] = 0U;
	}
	
	return TRUE;
}
     2b6:	df 91       	pop	r29
     2b8:	cf 91       	pop	r28
     2ba:	1f 91       	pop	r17
     2bc:	0f 91       	pop	r16
     2be:	ff 90       	pop	r15
     2c0:	ef 90       	pop	r14
     2c2:	df 90       	pop	r13
     2c4:	cf 90       	pop	r12
     2c6:	08 95       	ret

000002c8 <CmpSRF04SendPulse>:
     2c8:	0f 93       	push	r16

// send a US pulse
Boolean CmpSRF04SendPulse( E_US us )
{
     2ca:	1f 93       	push	r17
     2cc:	cf 93       	push	r28
     2ce:	df 93       	push	r29
	Boolean oSuccess = FALSE;
	
	if(statusEcho[us] == SEND_PULSE)
     2d0:	c8 2f       	mov	r28, r24
     2d2:	d0 e0       	ldi	r29, 0x00	; 0
     2d4:	fe 01       	movw	r30, r28
     2d6:	e6 5d       	subi	r30, 0xD6	; 214
     2d8:	fa 4f       	sbci	r31, 0xFA	; 250
     2da:	80 81       	ld	r24, Z
     2dc:	81 11       	cpse	r24, r1
     2de:	1d c0       	rjmp	.+58     	; 0x31a <CmpSRF04SendPulse+0x52>
	{
		//send a pulse
		DrvIoSetPinState(srf04PinPulse[us],IO_LEVEL_HIGH);
     2e0:	8e 01       	movw	r16, r28
     2e2:	00 50       	subi	r16, 0x00	; 0
     2e4:	1f 4f       	sbci	r17, 0xFF	; 255
     2e6:	61 e0       	ldi	r22, 0x01	; 1
     2e8:	f8 01       	movw	r30, r16
     2ea:	80 81       	ld	r24, Z
     2ec:	ab d5       	rcall	.+2902   	; 0xe44 <DrvIoSetPinState>
		DrvTickDelayUs(10);
     2ee:	6a e0       	ldi	r22, 0x0A	; 10
     2f0:	70 e0       	ldi	r23, 0x00	; 0
     2f2:	80 e0       	ldi	r24, 0x00	; 0
     2f4:	90 e0       	ldi	r25, 0x00	; 0
     2f6:	0e 94 7b 10 	call	0x20f6	; 0x20f6 <DrvTickDelayUs>
		DrvIoSetPinState(srf04PinPulse[us],IO_LEVEL_LOW);
     2fa:	60 e0       	ldi	r22, 0x00	; 0
     2fc:	f8 01       	movw	r30, r16
     2fe:	80 81       	ld	r24, Z
     300:	a1 d5       	rcall	.+2882   	; 0xe44 <DrvIoSetPinState>
			
		//update timeout and status
		timeoutEcho[us] = 0U;
     302:	fe 01       	movw	r30, r28
     304:	ee 0f       	add	r30, r30
     306:	ff 1f       	adc	r31, r31
     308:	e2 5e       	subi	r30, 0xE2	; 226
     30a:	fa 4f       	sbci	r31, 0xFA	; 250
     30c:	11 82       	std	Z+1, r1	; 0x01
     30e:	10 82       	st	Z, r1
		statusEcho[us] = WAIT_RISING_EDGE;
     310:	c6 5d       	subi	r28, 0xD6	; 214
     312:	da 4f       	sbci	r29, 0xFA	; 250
     314:	81 e0       	ldi	r24, 0x01	; 1
     316:	88 83       	st	Y, r24
     318:	16 c0       	rjmp	.+44     	; 0x346 <CmpSRF04SendPulse+0x7e>
			
	}
	else
	{
		//count a timeout if detecting issue
		if(++timeoutEcho[us] >= SRF04_TIMEOUT)
     31a:	fe 01       	movw	r30, r28
     31c:	ee 0f       	add	r30, r30
     31e:	ff 1f       	adc	r31, r31
     320:	e2 5e       	subi	r30, 0xE2	; 226
     322:	fa 4f       	sbci	r31, 0xFA	; 250
     324:	80 81       	ld	r24, Z
     326:	91 81       	ldd	r25, Z+1	; 0x01
     328:	01 96       	adiw	r24, 0x01	; 1
     32a:	91 83       	std	Z+1, r25	; 0x01
     32c:	80 83       	st	Z, r24
     32e:	0a 97       	sbiw	r24, 0x0a	; 10
     330:	50 f0       	brcs	.+20     	; 0x346 <CmpSRF04SendPulse+0x7e>
		{
			statusEcho[us] = SEND_PULSE;
     332:	fe 01       	movw	r30, r28
     334:	e6 5d       	subi	r30, 0xD6	; 214
     336:	fa 4f       	sbci	r31, 0xFA	; 250
     338:	10 82       	st	Z, r1
			timeoutEcho[us] = 0U;
     33a:	cc 0f       	add	r28, r28
     33c:	dd 1f       	adc	r29, r29
     33e:	c2 5e       	subi	r28, 0xE2	; 226
     340:	da 4f       	sbci	r29, 0xFA	; 250
     342:	19 82       	std	Y+1, r1	; 0x01
     344:	18 82       	st	Y, r1
		}
	}
	
	return oSuccess;
}
     346:	80 e0       	ldi	r24, 0x00	; 0
     348:	df 91       	pop	r29
     34a:	cf 91       	pop	r28
     34c:	1f 91       	pop	r17
     34e:	0f 91       	pop	r16
     350:	08 95       	ret

00000352 <CmpSRF04GetDistance>:

Int16U CmpSRF04GetDistance( E_US us )
{
	return distance[us];
     352:	e8 2f       	mov	r30, r24
     354:	f0 e0       	ldi	r31, 0x00	; 0
     356:	ee 0f       	add	r30, r30
     358:	ff 1f       	adc	r31, r31
     35a:	e6 5e       	subi	r30, 0xE6	; 230
     35c:	fa 4f       	sbci	r31, 0xFA	; 250
}
     35e:	80 81       	ld	r24, Z
     360:	91 81       	ldd	r25, Z+1	; 0x01
     362:	08 95       	ret

00000364 <__vector_4>:
/////////////////////////////////////ISR PRIVATE FUNCTIONS////////////////////////////////////////
//ISR pin Sonar
ISR(PCINT0_vect)
{
     364:	1f 92       	push	r1
     366:	0f 92       	push	r0
     368:	0f b6       	in	r0, 0x3f	; 63
     36a:	0f 92       	push	r0
     36c:	11 24       	eor	r1, r1
     36e:	0b b6       	in	r0, 0x3b	; 59
     370:	0f 92       	push	r0
     372:	3f 92       	push	r3
     374:	4f 92       	push	r4
     376:	5f 92       	push	r5
     378:	6f 92       	push	r6
     37a:	7f 92       	push	r7
     37c:	8f 92       	push	r8
     37e:	9f 92       	push	r9
     380:	af 92       	push	r10
     382:	bf 92       	push	r11
     384:	cf 92       	push	r12
     386:	df 92       	push	r13
     388:	ef 92       	push	r14
     38a:	ff 92       	push	r15
     38c:	0f 93       	push	r16
     38e:	1f 93       	push	r17
     390:	2f 93       	push	r18
     392:	3f 93       	push	r19
     394:	4f 93       	push	r20
     396:	5f 93       	push	r21
     398:	6f 93       	push	r22
     39a:	7f 93       	push	r23
     39c:	8f 93       	push	r24
     39e:	9f 93       	push	r25
     3a0:	af 93       	push	r26
     3a2:	bf 93       	push	r27
     3a4:	cf 93       	push	r28
     3a6:	df 93       	push	r29
     3a8:	ef 93       	push	r30
     3aa:	ff 93       	push	r31
     3ac:	0f 2e       	mov	r0, r31
     3ae:	f2 e0       	ldi	r31, 0x02	; 2
     3b0:	8f 2e       	mov	r8, r31
     3b2:	f1 e0       	ldi	r31, 0x01	; 1
     3b4:	9f 2e       	mov	r9, r31
     3b6:	f0 2d       	mov	r31, r0
     3b8:	0f 2e       	mov	r0, r31
     3ba:	ff e2       	ldi	r31, 0x2F	; 47
     3bc:	ef 2e       	mov	r14, r31
     3be:	fb e0       	ldi	r31, 0x0B	; 11
     3c0:	ff 2e       	mov	r15, r31
     3c2:	f0 2d       	mov	r31, r0
     3c4:	0f 2e       	mov	r0, r31
     3c6:	fa e1       	ldi	r31, 0x1A	; 26
     3c8:	cf 2e       	mov	r12, r31
     3ca:	f5 e0       	ldi	r31, 0x05	; 5
     3cc:	df 2e       	mov	r13, r31
     3ce:	f0 2d       	mov	r31, r0
     3d0:	c0 e0       	ldi	r28, 0x00	; 0
     3d2:	d0 e0       	ldi	r29, 0x00	; 0
		{
			Int32U timeAfterEcho = time - timeBeforeEchoStart[loop_us];
			//must be inf to 30 ms
			if( timeAfterEcho <  SRF04_ECHO_TIMEOUT)
			{
				distance[loop_us] = timeAfterEcho / 58UL;
     3d4:	0f 2e       	mov	r0, r31
     3d6:	fa e3       	ldi	r31, 0x3A	; 58
     3d8:	4f 2e       	mov	r4, r31
     3da:	51 2c       	mov	r5, r1
     3dc:	61 2c       	mov	r6, r1
     3de:	71 2c       	mov	r7, r1
     3e0:	f0 2d       	mov	r31, r0
		if(levelPin[loop_us] == IO_LEVEL_HIGH)
		{
			if(statusEcho[loop_us] == WAIT_RISING_EDGE)
			{
				timeBeforeEchoStart[loop_us] = time;
				statusEcho[loop_us] = WAIT_FALLING_EDGE;
     3e2:	68 94       	set
     3e4:	33 24       	eor	r3, r3
     3e6:	31 f8       	bld	r3, 1
//ISR pin Sonar
ISR(PCINT0_vect)
{
	for(uint8_t loop_us = 0U ; loop_us < E_NB_USS ; loop_us++)
	{
		levelPin[loop_us] = DrvIoGetPinState(srf04PinEcho[loop_us]);
     3e8:	8e 01       	movw	r16, r28
     3ea:	f4 01       	movw	r30, r8
     3ec:	81 91       	ld	r24, Z+
     3ee:	4f 01       	movw	r8, r30
     3f0:	16 d5       	rcall	.+2604   	; 0xe1e <DrvIoGetPinState>
     3f2:	57 01       	movw	r10, r14
     3f4:	f7 01       	movw	r30, r14
     3f6:	81 93       	st	Z+, r24
     3f8:	7f 01       	movw	r14, r30
		Int32U time = DrvTickGetTimeUs();
     3fa:	0e 94 4f 10 	call	0x209e	; 0x209e <DrvTickGetTimeUs>
		if(levelPin[loop_us] == IO_LEVEL_HIGH)
     3fe:	f5 01       	movw	r30, r10
     400:	20 81       	ld	r18, Z
     402:	21 30       	cpi	r18, 0x01	; 1
     404:	b1 f4       	brne	.+44     	; 0x432 <__LOCK_REGION_LENGTH__+0x32>
		{
			if(statusEcho[loop_us] == WAIT_RISING_EDGE)
     406:	fe 01       	movw	r30, r28
     408:	e6 5d       	subi	r30, 0xD6	; 214
     40a:	fa 4f       	sbci	r31, 0xFA	; 250
     40c:	20 81       	ld	r18, Z
     40e:	21 30       	cpi	r18, 0x01	; 1
     410:	a1 f5       	brne	.+104    	; 0x47a <__LOCK_REGION_LENGTH__+0x7a>
			{
				timeBeforeEchoStart[loop_us] = time;
     412:	fe 01       	movw	r30, r28
     414:	ee 0f       	add	r30, r30
     416:	ff 1f       	adc	r31, r31
     418:	ee 0f       	add	r30, r30
     41a:	ff 1f       	adc	r31, r31
     41c:	ee 5d       	subi	r30, 0xDE	; 222
     41e:	fa 4f       	sbci	r31, 0xFA	; 250
     420:	60 83       	st	Z, r22
     422:	71 83       	std	Z+1, r23	; 0x01
     424:	82 83       	std	Z+2, r24	; 0x02
     426:	93 83       	std	Z+3, r25	; 0x03
				statusEcho[loop_us] = WAIT_FALLING_EDGE;
     428:	fe 01       	movw	r30, r28
     42a:	e6 5d       	subi	r30, 0xD6	; 214
     42c:	fa 4f       	sbci	r31, 0xFA	; 250
     42e:	30 82       	st	Z, r3
     430:	24 c0       	rjmp	.+72     	; 0x47a <__LOCK_REGION_LENGTH__+0x7a>
			}
		}
		else
		{
			Int32U timeAfterEcho = time - timeBeforeEchoStart[loop_us];
     432:	fe 01       	movw	r30, r28
     434:	ee 0f       	add	r30, r30
     436:	ff 1f       	adc	r31, r31
     438:	ee 0f       	add	r30, r30
     43a:	ff 1f       	adc	r31, r31
     43c:	ee 5d       	subi	r30, 0xDE	; 222
     43e:	fa 4f       	sbci	r31, 0xFA	; 250
     440:	20 81       	ld	r18, Z
     442:	31 81       	ldd	r19, Z+1	; 0x01
     444:	42 81       	ldd	r20, Z+2	; 0x02
     446:	53 81       	ldd	r21, Z+3	; 0x03
     448:	62 1b       	sub	r22, r18
     44a:	73 0b       	sbc	r23, r19
     44c:	84 0b       	sbc	r24, r20
     44e:	95 0b       	sbc	r25, r21
			//must be inf to 30 ms
			if( timeAfterEcho <  SRF04_ECHO_TIMEOUT)
     450:	60 35       	cpi	r22, 0x50	; 80
     452:	f3 ec       	ldi	r31, 0xC3	; 195
     454:	7f 07       	cpc	r23, r31
     456:	81 05       	cpc	r24, r1
     458:	91 05       	cpc	r25, r1
     45a:	58 f4       	brcc	.+22     	; 0x472 <__LOCK_REGION_LENGTH__+0x72>
			{
				distance[loop_us] = timeAfterEcho / 58UL;
     45c:	a3 01       	movw	r20, r6
     45e:	92 01       	movw	r18, r4
     460:	0e 94 51 23 	call	0x46a2	; 0x46a2 <__udivmodsi4>
     464:	f6 01       	movw	r30, r12
     466:	31 83       	std	Z+1, r19	; 0x01
     468:	20 83       	st	Z, r18
				statusEcho[loop_us] = SEND_PULSE;
     46a:	fe 01       	movw	r30, r28
     46c:	e6 5d       	subi	r30, 0xD6	; 214
     46e:	fa 4f       	sbci	r31, 0xFA	; 250
     470:	10 82       	st	Z, r1
			}
			statusEcho[loop_us] = SEND_PULSE;
     472:	f8 01       	movw	r30, r16
     474:	e6 5d       	subi	r30, 0xD6	; 214
     476:	fa 4f       	sbci	r31, 0xFA	; 250
     478:	10 82       	st	Z, r1
     47a:	21 96       	adiw	r28, 0x01	; 1
     47c:	f2 e0       	ldi	r31, 0x02	; 2
     47e:	cf 0e       	add	r12, r31
     480:	d1 1c       	adc	r13, r1
}
/////////////////////////////////////ISR PRIVATE FUNCTIONS////////////////////////////////////////
//ISR pin Sonar
ISR(PCINT0_vect)
{
	for(uint8_t loop_us = 0U ; loop_us < E_NB_USS ; loop_us++)
     482:	c2 30       	cpi	r28, 0x02	; 2
     484:	d1 05       	cpc	r29, r1
     486:	09 f0       	breq	.+2      	; 0x48a <__LOCK_REGION_LENGTH__+0x8a>
     488:	af cf       	rjmp	.-162    	; 0x3e8 <__vector_4+0x84>
				statusEcho[loop_us] = SEND_PULSE;
			}
			statusEcho[loop_us] = SEND_PULSE;
		}
	}
     48a:	ff 91       	pop	r31
     48c:	ef 91       	pop	r30
     48e:	df 91       	pop	r29
     490:	cf 91       	pop	r28
     492:	bf 91       	pop	r27
     494:	af 91       	pop	r26
     496:	9f 91       	pop	r25
     498:	8f 91       	pop	r24
     49a:	7f 91       	pop	r23
     49c:	6f 91       	pop	r22
     49e:	5f 91       	pop	r21
     4a0:	4f 91       	pop	r20
     4a2:	3f 91       	pop	r19
     4a4:	2f 91       	pop	r18
     4a6:	1f 91       	pop	r17
     4a8:	0f 91       	pop	r16
     4aa:	ff 90       	pop	r15
     4ac:	ef 90       	pop	r14
     4ae:	df 90       	pop	r13
     4b0:	cf 90       	pop	r12
     4b2:	bf 90       	pop	r11
     4b4:	af 90       	pop	r10
     4b6:	9f 90       	pop	r9
     4b8:	8f 90       	pop	r8
     4ba:	7f 90       	pop	r7
     4bc:	6f 90       	pop	r6
     4be:	5f 90       	pop	r5
     4c0:	4f 90       	pop	r4
     4c2:	3f 90       	pop	r3
     4c4:	0f 90       	pop	r0
     4c6:	0b be       	out	0x3b, r0	; 59
     4c8:	0f 90       	pop	r0
     4ca:	0f be       	out	0x3f, r0	; 63
     4cc:	0f 90       	pop	r0
     4ce:	1f 90       	pop	r1
     4d0:	18 95       	reti

000004d2 <CmpSSD1306ClearBuffer>:
	while ( *str ) 
	{
		CmpSSD1306DrawChar(*str++, x, y, color);
		x += CHAR_WIDTH + 1U;
	}
}
     4d2:	80 e0       	ldi	r24, 0x00	; 0
     4d4:	92 e0       	ldi	r25, 0x02	; 2
     4d6:	e1 e3       	ldi	r30, 0x31	; 49
     4d8:	fb e0       	ldi	r31, 0x0B	; 11
     4da:	df 01       	movw	r26, r30
     4dc:	9c 01       	movw	r18, r24
     4de:	1d 92       	st	X+, r1
     4e0:	21 50       	subi	r18, 0x01	; 1
     4e2:	30 40       	sbci	r19, 0x00	; 0
     4e4:	e1 f7       	brne	.-8      	; 0x4de <CmpSSD1306ClearBuffer+0xc>
     4e6:	81 e0       	ldi	r24, 0x01	; 1
     4e8:	08 95       	ret

000004ea <CmpSSD1306DrawPixel>:
     4ea:	80 38       	cpi	r24, 0x80	; 128
     4ec:	91 05       	cpc	r25, r1
     4ee:	08 f0       	brcs	.+2      	; 0x4f2 <CmpSSD1306DrawPixel+0x8>
     4f0:	66 c0       	rjmp	.+204    	; 0x5be <CmpSSD1306DrawPixel+0xd4>
     4f2:	60 32       	cpi	r22, 0x20	; 32
     4f4:	71 05       	cpc	r23, r1
     4f6:	08 f0       	brcs	.+2      	; 0x4fa <CmpSSD1306DrawPixel+0x10>
     4f8:	62 c0       	rjmp	.+196    	; 0x5be <CmpSSD1306DrawPixel+0xd4>
     4fa:	41 30       	cpi	r20, 0x01	; 1
     4fc:	51 05       	cpc	r21, r1
     4fe:	29 f0       	breq	.+10     	; 0x50a <CmpSSD1306DrawPixel+0x20>
     500:	10 f1       	brcs	.+68     	; 0x546 <CmpSSD1306DrawPixel+0x5c>
     502:	42 30       	cpi	r20, 0x02	; 2
     504:	51 05       	cpc	r21, r1
     506:	f1 f1       	breq	.+124    	; 0x584 <CmpSSD1306DrawPixel+0x9a>
     508:	08 95       	ret
     50a:	fb 01       	movw	r30, r22
     50c:	f6 95       	lsr	r31
     50e:	e7 95       	ror	r30
     510:	f6 95       	lsr	r31
     512:	e7 95       	ror	r30
     514:	f6 95       	lsr	r31
     516:	e7 95       	ror	r30
     518:	f6 95       	lsr	r31
     51a:	fe 2f       	mov	r31, r30
     51c:	ee 27       	eor	r30, r30
     51e:	f7 95       	ror	r31
     520:	e7 95       	ror	r30
     522:	8e 0f       	add	r24, r30
     524:	9f 1f       	adc	r25, r31
     526:	fc 01       	movw	r30, r24
     528:	ef 5c       	subi	r30, 0xCF	; 207
     52a:	f4 4f       	sbci	r31, 0xF4	; 244
     52c:	67 70       	andi	r22, 0x07	; 7
     52e:	77 27       	eor	r23, r23
     530:	81 e0       	ldi	r24, 0x01	; 1
     532:	90 e0       	ldi	r25, 0x00	; 0
     534:	02 c0       	rjmp	.+4      	; 0x53a <CmpSSD1306DrawPixel+0x50>
     536:	88 0f       	add	r24, r24
     538:	99 1f       	adc	r25, r25
     53a:	6a 95       	dec	r22
     53c:	e2 f7       	brpl	.-8      	; 0x536 <CmpSSD1306DrawPixel+0x4c>
     53e:	90 81       	ld	r25, Z
     540:	89 2b       	or	r24, r25
     542:	80 83       	st	Z, r24
     544:	08 95       	ret
     546:	fb 01       	movw	r30, r22
     548:	f6 95       	lsr	r31
     54a:	e7 95       	ror	r30
     54c:	f6 95       	lsr	r31
     54e:	e7 95       	ror	r30
     550:	f6 95       	lsr	r31
     552:	e7 95       	ror	r30
     554:	f6 95       	lsr	r31
     556:	fe 2f       	mov	r31, r30
     558:	ee 27       	eor	r30, r30
     55a:	f7 95       	ror	r31
     55c:	e7 95       	ror	r30
     55e:	8e 0f       	add	r24, r30
     560:	9f 1f       	adc	r25, r31
     562:	fc 01       	movw	r30, r24
     564:	ef 5c       	subi	r30, 0xCF	; 207
     566:	f4 4f       	sbci	r31, 0xF4	; 244
     568:	67 70       	andi	r22, 0x07	; 7
     56a:	77 27       	eor	r23, r23
     56c:	81 e0       	ldi	r24, 0x01	; 1
     56e:	90 e0       	ldi	r25, 0x00	; 0
     570:	02 c0       	rjmp	.+4      	; 0x576 <CmpSSD1306DrawPixel+0x8c>
     572:	88 0f       	add	r24, r24
     574:	99 1f       	adc	r25, r25
     576:	6a 95       	dec	r22
     578:	e2 f7       	brpl	.-8      	; 0x572 <CmpSSD1306DrawPixel+0x88>
     57a:	80 95       	com	r24
     57c:	90 81       	ld	r25, Z
     57e:	89 23       	and	r24, r25
     580:	80 83       	st	Z, r24
     582:	08 95       	ret
     584:	fb 01       	movw	r30, r22
     586:	f6 95       	lsr	r31
     588:	e7 95       	ror	r30
     58a:	f6 95       	lsr	r31
     58c:	e7 95       	ror	r30
     58e:	f6 95       	lsr	r31
     590:	e7 95       	ror	r30
     592:	f6 95       	lsr	r31
     594:	fe 2f       	mov	r31, r30
     596:	ee 27       	eor	r30, r30
     598:	f7 95       	ror	r31
     59a:	e7 95       	ror	r30
     59c:	8e 0f       	add	r24, r30
     59e:	9f 1f       	adc	r25, r31
     5a0:	fc 01       	movw	r30, r24
     5a2:	ef 5c       	subi	r30, 0xCF	; 207
     5a4:	f4 4f       	sbci	r31, 0xF4	; 244
     5a6:	67 70       	andi	r22, 0x07	; 7
     5a8:	77 27       	eor	r23, r23
     5aa:	81 e0       	ldi	r24, 0x01	; 1
     5ac:	90 e0       	ldi	r25, 0x00	; 0
     5ae:	02 c0       	rjmp	.+4      	; 0x5b4 <CmpSSD1306DrawPixel+0xca>
     5b0:	88 0f       	add	r24, r24
     5b2:	99 1f       	adc	r25, r25
     5b4:	6a 95       	dec	r22
     5b6:	e2 f7       	brpl	.-8      	; 0x5b0 <CmpSSD1306DrawPixel+0xc6>
     5b8:	90 81       	ld	r25, Z
     5ba:	89 27       	eor	r24, r25
     5bc:	80 83       	st	Z, r24
     5be:	08 95       	ret

000005c0 <CmpSSD1306EraseArea>:
     5c0:	6f 92       	push	r6
     5c2:	7f 92       	push	r7
     5c4:	8f 92       	push	r8
     5c6:	9f 92       	push	r9
     5c8:	af 92       	push	r10
     5ca:	bf 92       	push	r11
     5cc:	cf 92       	push	r12
     5ce:	df 92       	push	r13
     5d0:	ef 92       	push	r14
     5d2:	ff 92       	push	r15
     5d4:	0f 93       	push	r16
     5d6:	1f 93       	push	r17
     5d8:	cf 93       	push	r28
     5da:	df 93       	push	r29
     5dc:	41 15       	cp	r20, r1
     5de:	51 05       	cpc	r21, r1
     5e0:	c9 f4       	brne	.+50     	; 0x614 <CmpSSD1306EraseArea+0x54>
     5e2:	25 c0       	rjmp	.+74     	; 0x62e <CmpSSD1306EraseArea+0x6e>
     5e4:	67 2d       	mov	r22, r7
     5e6:	78 2d       	mov	r23, r8
     5e8:	91 2c       	mov	r9, r1
     5ea:	ca 0d       	add	r28, r10
     5ec:	db 1d       	adc	r29, r11
     5ee:	6e 0d       	add	r22, r14
     5f0:	7f 1d       	adc	r23, r15
     5f2:	47 2d       	mov	r20, r7
     5f4:	58 2d       	mov	r21, r8
     5f6:	ce 01       	movw	r24, r28
     5f8:	78 df       	rcall	.-272    	; 0x4ea <CmpSSD1306DrawPixel>
     5fa:	93 94       	inc	r9
     5fc:	69 2d       	mov	r22, r9
     5fe:	70 e0       	ldi	r23, 0x00	; 0
     600:	60 17       	cp	r22, r16
     602:	71 07       	cpc	r23, r17
     604:	a0 f3       	brcs	.-24     	; 0x5ee <CmpSSD1306EraseArea+0x2e>
     606:	63 94       	inc	r6
     608:	c6 2d       	mov	r28, r6
     60a:	d0 e0       	ldi	r29, 0x00	; 0
     60c:	cc 15       	cp	r28, r12
     60e:	dd 05       	cpc	r29, r13
     610:	50 f0       	brcs	.+20     	; 0x626 <CmpSSD1306EraseArea+0x66>
     612:	0d c0       	rjmp	.+26     	; 0x62e <CmpSSD1306EraseArea+0x6e>
     614:	89 01       	movw	r16, r18
     616:	6a 01       	movw	r12, r20
     618:	7b 01       	movw	r14, r22
     61a:	5c 01       	movw	r10, r24
     61c:	c0 e0       	ldi	r28, 0x00	; 0
     61e:	d0 e0       	ldi	r29, 0x00	; 0
     620:	61 2c       	mov	r6, r1
     622:	71 2c       	mov	r7, r1
     624:	81 2c       	mov	r8, r1
     626:	01 15       	cp	r16, r1
     628:	11 05       	cpc	r17, r1
     62a:	e1 f6       	brne	.-72     	; 0x5e4 <CmpSSD1306EraseArea+0x24>
     62c:	ec cf       	rjmp	.-40     	; 0x606 <CmpSSD1306EraseArea+0x46>
     62e:	81 e0       	ldi	r24, 0x01	; 1
     630:	df 91       	pop	r29
     632:	cf 91       	pop	r28
     634:	1f 91       	pop	r17
     636:	0f 91       	pop	r16
     638:	ff 90       	pop	r15
     63a:	ef 90       	pop	r14
     63c:	df 90       	pop	r13
     63e:	cf 90       	pop	r12
     640:	bf 90       	pop	r11
     642:	af 90       	pop	r10
     644:	9f 90       	pop	r9
     646:	8f 90       	pop	r8
     648:	7f 90       	pop	r7
     64a:	6f 90       	pop	r6
     64c:	08 95       	ret

0000064e <CmpSSD1306DrawLine>:
     64e:	6f 92       	push	r6
     650:	7f 92       	push	r7
     652:	8f 92       	push	r8
     654:	9f 92       	push	r9
     656:	af 92       	push	r10
     658:	bf 92       	push	r11
     65a:	cf 92       	push	r12
     65c:	df 92       	push	r13
     65e:	ef 92       	push	r14
     660:	ff 92       	push	r15
     662:	0f 93       	push	r16
     664:	1f 93       	push	r17
     666:	cf 93       	push	r28
     668:	df 93       	push	r29
     66a:	7c 01       	movw	r14, r24
     66c:	eb 01       	movw	r28, r22
     66e:	6a 01       	movw	r12, r20
     670:	59 01       	movw	r10, r18
     672:	81 e8       	ldi	r24, 0x81	; 129
     674:	e8 16       	cp	r14, r24
     676:	f1 04       	cpc	r15, r1
     678:	08 f0       	brcs	.+2      	; 0x67c <CmpSSD1306DrawLine+0x2e>
     67a:	3c c0       	rjmp	.+120    	; 0x6f4 <CmpSSD1306DrawLine+0xa6>
     67c:	41 38       	cpi	r20, 0x81	; 129
     67e:	51 05       	cpc	r21, r1
     680:	c8 f5       	brcc	.+114    	; 0x6f4 <CmpSSD1306DrawLine+0xa6>
     682:	61 32       	cpi	r22, 0x21	; 33
     684:	71 05       	cpc	r23, r1
     686:	b0 f5       	brcc	.+108    	; 0x6f4 <CmpSSD1306DrawLine+0xa6>
     688:	21 32       	cpi	r18, 0x21	; 33
     68a:	31 05       	cpc	r19, r1
     68c:	98 f5       	brcc	.+102    	; 0x6f4 <CmpSSD1306DrawLine+0xa6>
     68e:	3a 01       	movw	r6, r20
     690:	6e 18       	sub	r6, r14
     692:	7f 08       	sbc	r7, r15
     694:	21 f4       	brne	.+8      	; 0x69e <CmpSSD1306DrawLine+0x50>
     696:	62 17       	cp	r22, r18
     698:	73 07       	cpc	r23, r19
     69a:	20 f1       	brcs	.+72     	; 0x6e4 <CmpSSD1306DrawLine+0x96>
     69c:	2b c0       	rjmp	.+86     	; 0x6f4 <CmpSSD1306DrawLine+0xa6>
     69e:	45 2b       	or	r20, r21
     6a0:	49 f1       	breq	.+82     	; 0x6f4 <CmpSSD1306DrawLine+0xa6>
     6a2:	49 01       	movw	r8, r18
     6a4:	86 1a       	sub	r8, r22
     6a6:	97 0a       	sbc	r9, r23
     6a8:	cb 01       	movw	r24, r22
     6aa:	82 1b       	sub	r24, r18
     6ac:	93 0b       	sbc	r25, r19
     6ae:	8e 9d       	mul	r24, r14
     6b0:	50 01       	movw	r10, r0
     6b2:	8f 9d       	mul	r24, r15
     6b4:	b0 0c       	add	r11, r0
     6b6:	9e 9d       	mul	r25, r14
     6b8:	b0 0c       	add	r11, r0
     6ba:	11 24       	eor	r1, r1
     6bc:	e1 2c       	mov	r14, r1
     6be:	f1 2c       	mov	r15, r1
     6c0:	c5 01       	movw	r24, r10
     6c2:	b3 01       	movw	r22, r6
     6c4:	0e 94 3d 23 	call	0x467a	; 0x467a <__udivmodhi4>
     6c8:	6c 0f       	add	r22, r28
     6ca:	7d 1f       	adc	r23, r29
     6cc:	a8 01       	movw	r20, r16
     6ce:	c7 01       	movw	r24, r14
     6d0:	0c df       	rcall	.-488    	; 0x4ea <CmpSSD1306DrawPixel>
     6d2:	8f ef       	ldi	r24, 0xFF	; 255
     6d4:	e8 1a       	sub	r14, r24
     6d6:	f8 0a       	sbc	r15, r24
     6d8:	a8 0c       	add	r10, r8
     6da:	b9 1c       	adc	r11, r9
     6dc:	ce 14       	cp	r12, r14
     6de:	df 04       	cpc	r13, r15
     6e0:	79 f7       	brne	.-34     	; 0x6c0 <CmpSSD1306DrawLine+0x72>
     6e2:	08 c0       	rjmp	.+16     	; 0x6f4 <CmpSSD1306DrawLine+0xa6>
     6e4:	a8 01       	movw	r20, r16
     6e6:	be 01       	movw	r22, r28
     6e8:	c7 01       	movw	r24, r14
     6ea:	ff de       	rcall	.-514    	; 0x4ea <CmpSSD1306DrawPixel>
     6ec:	21 96       	adiw	r28, 0x01	; 1
     6ee:	ca 15       	cp	r28, r10
     6f0:	db 05       	cpc	r29, r11
     6f2:	c0 f3       	brcs	.-16     	; 0x6e4 <CmpSSD1306DrawLine+0x96>
     6f4:	df 91       	pop	r29
     6f6:	cf 91       	pop	r28
     6f8:	1f 91       	pop	r17
     6fa:	0f 91       	pop	r16
     6fc:	ff 90       	pop	r15
     6fe:	ef 90       	pop	r14
     700:	df 90       	pop	r13
     702:	cf 90       	pop	r12
     704:	bf 90       	pop	r11
     706:	af 90       	pop	r10
     708:	9f 90       	pop	r9
     70a:	8f 90       	pop	r8
     70c:	7f 90       	pop	r7
     70e:	6f 90       	pop	r6
     710:	08 95       	ret

00000712 <CmpSSD1306DrawRectangle>:
     712:	8f 92       	push	r8
     714:	9f 92       	push	r9
     716:	af 92       	push	r10
     718:	bf 92       	push	r11
     71a:	cf 92       	push	r12
     71c:	df 92       	push	r13
     71e:	ef 92       	push	r14
     720:	ff 92       	push	r15
     722:	0f 93       	push	r16
     724:	1f 93       	push	r17
     726:	cf 93       	push	r28
     728:	df 93       	push	r29
     72a:	80 38       	cpi	r24, 0x80	; 128
     72c:	91 05       	cpc	r25, r1
     72e:	f0 f4       	brcc	.+60     	; 0x76c <CmpSSD1306DrawRectangle+0x5a>
     730:	40 38       	cpi	r20, 0x80	; 128
     732:	51 05       	cpc	r21, r1
     734:	d8 f4       	brcc	.+54     	; 0x76c <CmpSSD1306DrawRectangle+0x5a>
     736:	60 32       	cpi	r22, 0x20	; 32
     738:	71 05       	cpc	r23, r1
     73a:	c0 f4       	brcc	.+48     	; 0x76c <CmpSSD1306DrawRectangle+0x5a>
     73c:	20 32       	cpi	r18, 0x20	; 32
     73e:	31 05       	cpc	r19, r1
     740:	a8 f4       	brcc	.+42     	; 0x76c <CmpSSD1306DrawRectangle+0x5a>
     742:	69 01       	movw	r12, r18
     744:	ea 01       	movw	r28, r20
     746:	7b 01       	movw	r14, r22
     748:	4c 01       	movw	r8, r24
     74a:	9b 01       	movw	r18, r22
     74c:	80 df       	rcall	.-256    	; 0x64e <CmpSSD1306DrawLine>
     74e:	96 01       	movw	r18, r12
     750:	ae 01       	movw	r20, r28
     752:	b6 01       	movw	r22, r12
     754:	c4 01       	movw	r24, r8
     756:	7b df       	rcall	.-266    	; 0x64e <CmpSSD1306DrawLine>
     758:	96 01       	movw	r18, r12
     75a:	a4 01       	movw	r20, r8
     75c:	b7 01       	movw	r22, r14
     75e:	c4 01       	movw	r24, r8
     760:	76 df       	rcall	.-276    	; 0x64e <CmpSSD1306DrawLine>
     762:	96 01       	movw	r18, r12
     764:	ae 01       	movw	r20, r28
     766:	b7 01       	movw	r22, r14
     768:	ce 01       	movw	r24, r28
     76a:	71 df       	rcall	.-286    	; 0x64e <CmpSSD1306DrawLine>
     76c:	df 91       	pop	r29
     76e:	cf 91       	pop	r28
     770:	1f 91       	pop	r17
     772:	0f 91       	pop	r16
     774:	ff 90       	pop	r15
     776:	ef 90       	pop	r14
     778:	df 90       	pop	r13
     77a:	cf 90       	pop	r12
     77c:	bf 90       	pop	r11
     77e:	af 90       	pop	r10
     780:	9f 90       	pop	r9
     782:	8f 90       	pop	r8
     784:	08 95       	ret

00000786 <CmpSSD1306DrawChar>:
     786:	2f 92       	push	r2
     788:	3f 92       	push	r3
     78a:	4f 92       	push	r4
     78c:	5f 92       	push	r5
     78e:	6f 92       	push	r6
     790:	7f 92       	push	r7
     792:	8f 92       	push	r8
     794:	9f 92       	push	r9
     796:	af 92       	push	r10
     798:	bf 92       	push	r11
     79a:	cf 92       	push	r12
     79c:	df 92       	push	r13
     79e:	ef 92       	push	r14
     7a0:	ff 92       	push	r15
     7a2:	0f 93       	push	r16
     7a4:	1f 93       	push	r17
     7a6:	cf 93       	push	r28
     7a8:	df 93       	push	r29
     7aa:	00 d0       	rcall	.+0      	; 0x7ac <CmpSSD1306DrawChar+0x26>
     7ac:	1f 92       	push	r1
     7ae:	cd b7       	in	r28, 0x3d	; 61
     7b0:	de b7       	in	r29, 0x3e	; 62
     7b2:	49 83       	std	Y+1, r20	; 0x01
     7b4:	25 2e       	mov	r2, r21
     7b6:	72 2e       	mov	r7, r18
     7b8:	8f 77       	andi	r24, 0x7F	; 127
     7ba:	80 32       	cpi	r24, 0x20	; 32
     7bc:	10 f0       	brcs	.+4      	; 0x7c2 <CmpSSD1306DrawChar+0x3c>
     7be:	80 52       	subi	r24, 0x20	; 32
     7c0:	01 c0       	rjmp	.+2      	; 0x7c4 <CmpSSD1306DrawChar+0x3e>
     7c2:	80 e0       	ldi	r24, 0x00	; 0
     7c4:	90 e0       	ldi	r25, 0x00	; 0
     7c6:	8c 01       	movw	r16, r24
     7c8:	00 0f       	add	r16, r16
     7ca:	11 1f       	adc	r17, r17
     7cc:	00 0f       	add	r16, r16
     7ce:	11 1f       	adc	r17, r17
     7d0:	08 0f       	add	r16, r24
     7d2:	19 1f       	adc	r17, r25
     7d4:	08 5b       	subi	r16, 0xB8	; 184
     7d6:	1d 4f       	sbci	r17, 0xFD	; 253
     7d8:	58 01       	movw	r10, r16
     7da:	85 e0       	ldi	r24, 0x05	; 5
     7dc:	a8 0e       	add	r10, r24
     7de:	b1 1c       	adc	r11, r1
     7e0:	e6 2e       	mov	r14, r22
     7e2:	f7 2e       	mov	r15, r23
     7e4:	55 24       	eor	r5, r5
     7e6:	53 94       	inc	r5
     7e8:	61 2c       	mov	r6, r1
     7ea:	31 2c       	mov	r3, r1
     7ec:	41 2c       	mov	r4, r1
     7ee:	c7 2c       	mov	r12, r7
     7f0:	d1 2c       	mov	r13, r1
     7f2:	2f c0       	rjmp	.+94     	; 0x852 <CmpSSD1306DrawChar+0xcc>
     7f4:	f8 01       	movw	r30, r16
     7f6:	80 81       	ld	r24, Z
     7f8:	90 e0       	ldi	r25, 0x00	; 0
     7fa:	08 2c       	mov	r0, r8
     7fc:	02 c0       	rjmp	.+4      	; 0x802 <CmpSSD1306DrawChar+0x7c>
     7fe:	95 95       	asr	r25
     800:	87 95       	ror	r24
     802:	0a 94       	dec	r0
     804:	e2 f7       	brpl	.-8      	; 0x7fe <CmpSSD1306DrawChar+0x78>
     806:	80 ff       	sbrs	r24, 0
     808:	06 c0       	rjmp	.+12     	; 0x816 <CmpSSD1306DrawChar+0x90>
     80a:	a6 01       	movw	r20, r12
     80c:	6a 81       	ldd	r22, Y+2	; 0x02
     80e:	7b 81       	ldd	r23, Y+3	; 0x03
     810:	c7 01       	movw	r24, r14
     812:	6b de       	rcall	.-810    	; 0x4ea <CmpSSD1306DrawPixel>
     814:	0a c0       	rjmp	.+20     	; 0x82a <CmpSSD1306DrawChar+0xa4>
     816:	45 2d       	mov	r20, r5
     818:	56 2d       	mov	r21, r6
     81a:	77 20       	and	r7, r7
     81c:	11 f0       	breq	.+4      	; 0x822 <CmpSSD1306DrawChar+0x9c>
     81e:	43 2d       	mov	r20, r3
     820:	54 2d       	mov	r21, r4
     822:	6a 81       	ldd	r22, Y+2	; 0x02
     824:	7b 81       	ldd	r23, Y+3	; 0x03
     826:	c7 01       	movw	r24, r14
     828:	60 de       	rcall	.-832    	; 0x4ea <CmpSSD1306DrawPixel>
     82a:	ff ef       	ldi	r31, 0xFF	; 255
     82c:	8f 1a       	sub	r8, r31
     82e:	9f 0a       	sbc	r9, r31
     830:	8a 81       	ldd	r24, Y+2	; 0x02
     832:	9b 81       	ldd	r25, Y+3	; 0x03
     834:	01 96       	adiw	r24, 0x01	; 1
     836:	9b 83       	std	Y+3, r25	; 0x03
     838:	8a 83       	std	Y+2, r24	; 0x02
     83a:	98 e0       	ldi	r25, 0x08	; 8
     83c:	89 16       	cp	r8, r25
     83e:	91 04       	cpc	r9, r1
     840:	c9 f6       	brne	.-78     	; 0x7f4 <CmpSSD1306DrawChar+0x6e>
     842:	ef ef       	ldi	r30, 0xFF	; 255
     844:	ee 1a       	sub	r14, r30
     846:	fe 0a       	sbc	r15, r30
     848:	0f 5f       	subi	r16, 0xFF	; 255
     84a:	1f 4f       	sbci	r17, 0xFF	; 255
     84c:	a0 16       	cp	r10, r16
     84e:	b1 06       	cpc	r11, r17
     850:	31 f0       	breq	.+12     	; 0x85e <CmpSSD1306DrawChar+0xd8>
     852:	f9 81       	ldd	r31, Y+1	; 0x01
     854:	fa 83       	std	Y+2, r31	; 0x02
     856:	2b 82       	std	Y+3, r2	; 0x03
     858:	81 2c       	mov	r8, r1
     85a:	91 2c       	mov	r9, r1
     85c:	cb cf       	rjmp	.-106    	; 0x7f4 <CmpSSD1306DrawChar+0x6e>
     85e:	0f 90       	pop	r0
     860:	0f 90       	pop	r0
     862:	0f 90       	pop	r0
     864:	df 91       	pop	r29
     866:	cf 91       	pop	r28
     868:	1f 91       	pop	r17
     86a:	0f 91       	pop	r16
     86c:	ff 90       	pop	r15
     86e:	ef 90       	pop	r14
     870:	df 90       	pop	r13
     872:	cf 90       	pop	r12
     874:	bf 90       	pop	r11
     876:	af 90       	pop	r10
     878:	9f 90       	pop	r9
     87a:	8f 90       	pop	r8
     87c:	7f 90       	pop	r7
     87e:	6f 90       	pop	r6
     880:	5f 90       	pop	r5
     882:	4f 90       	pop	r4
     884:	3f 90       	pop	r3
     886:	2f 90       	pop	r2
     888:	08 95       	ret

0000088a <CmpSSD1306DrawBitmap>:

void CmpSSD1306DrawBitmap(const SBitmap* bmp, uint16_t x, uint16_t y, uint8_t color)
{
     88a:	2f 92       	push	r2
     88c:	3f 92       	push	r3
     88e:	4f 92       	push	r4
     890:	5f 92       	push	r5
     892:	6f 92       	push	r6
     894:	7f 92       	push	r7
     896:	8f 92       	push	r8
     898:	9f 92       	push	r9
     89a:	af 92       	push	r10
     89c:	bf 92       	push	r11
     89e:	cf 92       	push	r12
     8a0:	df 92       	push	r13
     8a2:	ef 92       	push	r14
     8a4:	ff 92       	push	r15
     8a6:	0f 93       	push	r16
     8a8:	1f 93       	push	r17
     8aa:	cf 93       	push	r28
     8ac:	df 93       	push	r29
     8ae:	00 d0       	rcall	.+0      	; 0x8b0 <CmpSSD1306DrawBitmap+0x26>
     8b0:	00 d0       	rcall	.+0      	; 0x8b2 <CmpSSD1306DrawBitmap+0x28>
     8b2:	1f 92       	push	r1
     8b4:	cd b7       	in	r28, 0x3d	; 61
     8b6:	de b7       	in	r29, 0x3e	; 62
	// Draw pixels
	for (uint16_t i = 0; i < bmp->height; i++)
     8b8:	dc 01       	movw	r26, r24
     8ba:	14 96       	adiw	r26, 0x04	; 4
     8bc:	ed 91       	ld	r30, X+
     8be:	fc 91       	ld	r31, X
     8c0:	15 97       	sbiw	r26, 0x05	; 5
     8c2:	ef 2b       	or	r30, r31
     8c4:	09 f0       	breq	.+2      	; 0x8c8 <CmpSSD1306DrawBitmap+0x3e>
     8c6:	63 c0       	rjmp	.+198    	; 0x98e <CmpSSD1306DrawBitmap+0x104>
     8c8:	80 c0       	rjmp	.+256    	; 0x9ca <CmpSSD1306DrawBitmap+0x140>
	{
		for (uint16_t j = 0; j < bmp->width; j++)
     8ca:	bb 81       	ldd	r27, Y+3	; 0x03
     8cc:	bc 83       	std	Y+4, r27	; 0x04
     8ce:	2d 82       	std	Y+5, r2	; 0x05
     8d0:	81 2c       	mov	r8, r1
     8d2:	91 2c       	mov	r9, r1
		{
			if (bmp->bmp[(j/8U)+(i*(bmp->width/8U))] & (0x80>>(j%8U)))
     8d4:	96 95       	lsr	r25
     8d6:	87 95       	ror	r24
     8d8:	96 95       	lsr	r25
     8da:	87 95       	ror	r24
     8dc:	96 95       	lsr	r25
     8de:	87 95       	ror	r24
     8e0:	8e 9d       	mul	r24, r14
     8e2:	90 01       	movw	r18, r0
     8e4:	8f 9d       	mul	r24, r15
     8e6:	30 0d       	add	r19, r0
     8e8:	9e 9d       	mul	r25, r14
     8ea:	30 0d       	add	r19, r0
     8ec:	11 24       	eor	r1, r1
     8ee:	d8 01       	movw	r26, r16
     8f0:	ed 91       	ld	r30, X+
     8f2:	fc 91       	ld	r31, X
     8f4:	e2 0f       	add	r30, r18
     8f6:	f3 1f       	adc	r31, r19
     8f8:	c4 01       	movw	r24, r8
     8fa:	96 95       	lsr	r25
     8fc:	87 95       	ror	r24
     8fe:	96 95       	lsr	r25
     900:	87 95       	ror	r24
     902:	96 95       	lsr	r25
     904:	87 95       	ror	r24
     906:	e8 0f       	add	r30, r24
     908:	f9 1f       	adc	r31, r25
     90a:	80 81       	ld	r24, Z
     90c:	28 2f       	mov	r18, r24
     90e:	30 e0       	ldi	r19, 0x00	; 0
     910:	c4 01       	movw	r24, r8
     912:	87 70       	andi	r24, 0x07	; 7
     914:	99 27       	eor	r25, r25
     916:	f5 01       	movw	r30, r10
     918:	02 c0       	rjmp	.+4      	; 0x91e <CmpSSD1306DrawBitmap+0x94>
     91a:	f5 95       	asr	r31
     91c:	e7 95       	ror	r30
     91e:	8a 95       	dec	r24
     920:	e2 f7       	brpl	.-8      	; 0x91a <CmpSSD1306DrawBitmap+0x90>
     922:	cf 01       	movw	r24, r30
     924:	82 23       	and	r24, r18
     926:	93 23       	and	r25, r19
     928:	89 2b       	or	r24, r25
     92a:	39 f0       	breq	.+14     	; 0x93a <CmpSSD1306DrawBitmap+0xb0>
			{
				CmpSSD1306DrawPixel(x+j, y+i, color);
     92c:	49 81       	ldd	r20, Y+1	; 0x01
     92e:	5a 81       	ldd	r21, Y+2	; 0x02
     930:	b6 01       	movw	r22, r12
     932:	8c 81       	ldd	r24, Y+4	; 0x04
     934:	9d 81       	ldd	r25, Y+5	; 0x05
     936:	d9 dd       	rcall	.-1102   	; 0x4ea <CmpSSD1306DrawPixel>
     938:	0a c0       	rjmp	.+20     	; 0x94e <CmpSSD1306DrawBitmap+0xc4>
			}
			else
			{
				CmpSSD1306DrawPixel(x+j, y+i, color==COLOR_BLACK ? COLOR_WHITE : COLOR_BLACK);
     93a:	45 2d       	mov	r20, r5
     93c:	56 2d       	mov	r21, r6
     93e:	77 20       	and	r7, r7
     940:	11 f0       	breq	.+4      	; 0x946 <CmpSSD1306DrawBitmap+0xbc>
     942:	43 2d       	mov	r20, r3
     944:	54 2d       	mov	r21, r4
     946:	b6 01       	movw	r22, r12
     948:	8c 81       	ldd	r24, Y+4	; 0x04
     94a:	9d 81       	ldd	r25, Y+5	; 0x05
     94c:	ce dd       	rcall	.-1124   	; 0x4ea <CmpSSD1306DrawPixel>
void CmpSSD1306DrawBitmap(const SBitmap* bmp, uint16_t x, uint16_t y, uint8_t color)
{
	// Draw pixels
	for (uint16_t i = 0; i < bmp->height; i++)
	{
		for (uint16_t j = 0; j < bmp->width; j++)
     94e:	ff ef       	ldi	r31, 0xFF	; 255
     950:	8f 1a       	sub	r8, r31
     952:	9f 0a       	sbc	r9, r31
     954:	d8 01       	movw	r26, r16
     956:	12 96       	adiw	r26, 0x02	; 2
     958:	8d 91       	ld	r24, X+
     95a:	9c 91       	ld	r25, X
     95c:	13 97       	sbiw	r26, 0x03	; 3
     95e:	ec 81       	ldd	r30, Y+4	; 0x04
     960:	fd 81       	ldd	r31, Y+5	; 0x05
     962:	31 96       	adiw	r30, 0x01	; 1
     964:	fd 83       	std	Y+5, r31	; 0x05
     966:	ec 83       	std	Y+4, r30	; 0x04
     968:	88 16       	cp	r8, r24
     96a:	99 06       	cpc	r9, r25
     96c:	08 f4       	brcc	.+2      	; 0x970 <CmpSSD1306DrawBitmap+0xe6>
     96e:	b2 cf       	rjmp	.-156    	; 0x8d4 <CmpSSD1306DrawBitmap+0x4a>
}

void CmpSSD1306DrawBitmap(const SBitmap* bmp, uint16_t x, uint16_t y, uint8_t color)
{
	// Draw pixels
	for (uint16_t i = 0; i < bmp->height; i++)
     970:	ff ef       	ldi	r31, 0xFF	; 255
     972:	ef 1a       	sub	r14, r31
     974:	ff 0a       	sbc	r15, r31
     976:	2f ef       	ldi	r18, 0xFF	; 255
     978:	c2 1a       	sub	r12, r18
     97a:	d2 0a       	sbc	r13, r18
     97c:	d8 01       	movw	r26, r16
     97e:	14 96       	adiw	r26, 0x04	; 4
     980:	8d 91       	ld	r24, X+
     982:	9c 91       	ld	r25, X
     984:	15 97       	sbiw	r26, 0x05	; 5
     986:	e8 16       	cp	r14, r24
     988:	f9 06       	cpc	r15, r25
     98a:	b0 f0       	brcs	.+44     	; 0x9b8 <CmpSSD1306DrawBitmap+0x12e>
     98c:	1e c0       	rjmp	.+60     	; 0x9ca <CmpSSD1306DrawBitmap+0x140>
     98e:	72 2e       	mov	r7, r18
     990:	27 2e       	mov	r2, r23
     992:	6b 83       	std	Y+3, r22	; 0x03
     994:	8c 01       	movw	r16, r24
     996:	c4 2e       	mov	r12, r20
     998:	d5 2e       	mov	r13, r21
     99a:	e1 2c       	mov	r14, r1
     99c:	f1 2c       	mov	r15, r1
	{
		for (uint16_t j = 0; j < bmp->width; j++)
		{
			if (bmp->bmp[(j/8U)+(i*(bmp->width/8U))] & (0x80>>(j%8U)))
     99e:	68 94       	set
     9a0:	aa 24       	eor	r10, r10
     9a2:	a7 f8       	bld	r10, 7
     9a4:	b1 2c       	mov	r11, r1
			{
				CmpSSD1306DrawPixel(x+j, y+i, color);
			}
			else
			{
				CmpSSD1306DrawPixel(x+j, y+i, color==COLOR_BLACK ? COLOR_WHITE : COLOR_BLACK);
     9a6:	55 24       	eor	r5, r5
     9a8:	53 94       	inc	r5
     9aa:	61 2c       	mov	r6, r1
     9ac:	31 2c       	mov	r3, r1
     9ae:	41 2c       	mov	r4, r1
	{
		for (uint16_t j = 0; j < bmp->width; j++)
		{
			if (bmp->bmp[(j/8U)+(i*(bmp->width/8U))] & (0x80>>(j%8U)))
			{
				CmpSSD1306DrawPixel(x+j, y+i, color);
     9b0:	e2 2f       	mov	r30, r18
     9b2:	f0 e0       	ldi	r31, 0x00	; 0
     9b4:	fa 83       	std	Y+2, r31	; 0x02
     9b6:	e9 83       	std	Y+1, r30	; 0x01
void CmpSSD1306DrawBitmap(const SBitmap* bmp, uint16_t x, uint16_t y, uint8_t color)
{
	// Draw pixels
	for (uint16_t i = 0; i < bmp->height; i++)
	{
		for (uint16_t j = 0; j < bmp->width; j++)
     9b8:	d8 01       	movw	r26, r16
     9ba:	12 96       	adiw	r26, 0x02	; 2
     9bc:	8d 91       	ld	r24, X+
     9be:	9c 91       	ld	r25, X
     9c0:	13 97       	sbiw	r26, 0x03	; 3
     9c2:	00 97       	sbiw	r24, 0x00	; 0
     9c4:	09 f0       	breq	.+2      	; 0x9c8 <CmpSSD1306DrawBitmap+0x13e>
     9c6:	81 cf       	rjmp	.-254    	; 0x8ca <CmpSSD1306DrawBitmap+0x40>
     9c8:	d3 cf       	rjmp	.-90     	; 0x970 <CmpSSD1306DrawBitmap+0xe6>
			{
				CmpSSD1306DrawPixel(x+j, y+i, color==COLOR_BLACK ? COLOR_WHITE : COLOR_BLACK);
			}
		}
	}
}
     9ca:	0f 90       	pop	r0
     9cc:	0f 90       	pop	r0
     9ce:	0f 90       	pop	r0
     9d0:	0f 90       	pop	r0
     9d2:	0f 90       	pop	r0
     9d4:	df 91       	pop	r29
     9d6:	cf 91       	pop	r28
     9d8:	1f 91       	pop	r17
     9da:	0f 91       	pop	r16
     9dc:	ff 90       	pop	r15
     9de:	ef 90       	pop	r14
     9e0:	df 90       	pop	r13
     9e2:	cf 90       	pop	r12
     9e4:	bf 90       	pop	r11
     9e6:	af 90       	pop	r10
     9e8:	9f 90       	pop	r9
     9ea:	8f 90       	pop	r8
     9ec:	7f 90       	pop	r7
     9ee:	6f 90       	pop	r6
     9f0:	5f 90       	pop	r5
     9f2:	4f 90       	pop	r4
     9f4:	3f 90       	pop	r3
     9f6:	2f 90       	pop	r2
     9f8:	08 95       	ret

000009fa <CmpSSD1306SendData>:

void CmpSSD1306SendData( Int8U *c, Int8U n)
{
     9fa:	26 2f       	mov	r18, r22
	DrvTwiWriteRegBuf(addr_i2c,0x00U,c,n);
     9fc:	ac 01       	movw	r20, r24
     9fe:	60 e0       	ldi	r22, 0x00	; 0
     a00:	80 91 25 01 	lds	r24, 0x0125	; 0x800125 <addr_i2c>
     a04:	0c 94 e1 12 	jmp	0x25c2	; 0x25c2 <DrvTwiWriteRegBuf>
     a08:	08 95       	ret

00000a0a <CmpSSD1306SendDatum>:
}
void CmpSSD1306SendDatum(Int8U c) 
{
	DrvTwiWriteReg(addr_i2c,0x00U,c);
     a0a:	48 2f       	mov	r20, r24
     a0c:	60 e0       	ldi	r22, 0x00	; 0
     a0e:	80 91 25 01 	lds	r24, 0x0125	; 0x800125 <addr_i2c>
     a12:	0c 94 91 12 	jmp	0x2522	; 0x2522 <DrvTwiWriteReg>
     a16:	08 95       	ret

00000a18 <CmpSSD1306ClearDisplay>:
	CmpSSD1306ClearDisplay();
	CmpSSD1306Update();
	return TRUE;
}
Boolean CmpSSD1306ClearDisplay()
{
     a18:	cf 93       	push	r28
     a1a:	df 93       	push	r29
		0,                         // Page start address
		0xFF,                      // Page end (not really, but works here)
		SSD1306_COLUMNADDR,
		0 
	};                       // Column start address
	CmpSSD1306SendData(dlist1, sizeof(dlist1));
     a1c:	65 e0       	ldi	r22, 0x05	; 5
     a1e:	89 e0       	ldi	r24, 0x09	; 9
     a20:	91 e0       	ldi	r25, 0x01	; 1
     a22:	eb df       	rcall	.-42     	; 0x9fa <CmpSSD1306SendData>
	CmpSSD1306SendDatum(SCREEN_WIDTH - 1); // Column end address
     a24:	8f e7       	ldi	r24, 0x7F	; 127
     a26:	f1 df       	rcall	.-30     	; 0xa0a <CmpSSD1306SendDatum>
     a28:	c0 e1       	ldi	r28, 0x10	; 16
     a2a:	d0 e0       	ldi	r29, 0x00	; 0

	Int16U count = BUFFER_DISPLAY_LENGTH;
	
	while(count >= 32)
	{
		DrvTwiFillRegBuf(addr_i2c,0x40U,0x00U,32U);
     a2c:	20 e2       	ldi	r18, 0x20	; 32
     a2e:	40 e0       	ldi	r20, 0x00	; 0
     a30:	60 e4       	ldi	r22, 0x40	; 64
     a32:	80 91 25 01 	lds	r24, 0x0125	; 0x800125 <addr_i2c>
     a36:	0e 94 5f 13 	call	0x26be	; 0x26be <DrvTwiFillRegBuf>
     a3a:	21 97       	sbiw	r28, 0x01	; 1
	CmpSSD1306SendDatum(SCREEN_WIDTH - 1); // Column end address


	Int16U count = BUFFER_DISPLAY_LENGTH;
	
	while(count >= 32)
     a3c:	b9 f7       	brne	.-18     	; 0xa2c <CmpSSD1306ClearDisplay+0x14>
	{
		DrvTwiFillRegBuf(addr_i2c,0x40U,0x00U,BUFFER_DISPLAY_LENGTH - count);
	}
	
	return TRUE;
}
     a3e:	81 e0       	ldi	r24, 0x01	; 1
     a40:	df 91       	pop	r29
     a42:	cf 91       	pop	r28
     a44:	08 95       	ret

00000a46 <CmpSSD1306Update>:
	memset(bufferScreen, 0,BUFFER_DISPLAY_LENGTH);
	return TRUE;
}
	
Boolean CmpSSD1306Update( void )
{
     a46:	0f 93       	push	r16
     a48:	1f 93       	push	r17
     a4a:	cf 93       	push	r28
     a4c:	df 93       	push	r29
		0xFF,                      // Page end (not really, but works here)
		SSD1306_COLUMNADDR,
		0
	};
	
	CmpSSD1306SendData(dlist2, sizeof(dlist2)); // Column start address
     a4e:	65 e0       	ldi	r22, 0x05	; 5
     a50:	84 e0       	ldi	r24, 0x04	; 4
     a52:	91 e0       	ldi	r25, 0x01	; 1
     a54:	d2 df       	rcall	.-92     	; 0x9fa <CmpSSD1306SendData>
	CmpSSD1306SendDatum(SCREEN_WIDTH - 1); // Column end address
     a56:	8f e7       	ldi	r24, 0x7F	; 127
     a58:	d8 df       	rcall	.-80     	; 0xa0a <CmpSSD1306SendDatum>
     a5a:	c1 e3       	ldi	r28, 0x31	; 49
     a5c:	db e0       	ldi	r29, 0x0B	; 11
     a5e:	01 e3       	ldi	r16, 0x31	; 49
     a60:	1d e0       	ldi	r17, 0x0D	; 13

	Int16U count = BUFFER_DISPLAY_LENGTH;
	
	while(count >= 32)
	{
		DrvTwiWriteRegBuf(addr_i2c,0x40U,&bufferScreen[ BUFFER_DISPLAY_LENGTH - count ],32U);
     a62:	20 e2       	ldi	r18, 0x20	; 32
     a64:	ae 01       	movw	r20, r28
     a66:	60 e4       	ldi	r22, 0x40	; 64
     a68:	80 91 25 01 	lds	r24, 0x0125	; 0x800125 <addr_i2c>
     a6c:	0e 94 e1 12 	call	0x25c2	; 0x25c2 <DrvTwiWriteRegBuf>
     a70:	a0 96       	adiw	r28, 0x20	; 32
	CmpSSD1306SendData(dlist2, sizeof(dlist2)); // Column start address
	CmpSSD1306SendDatum(SCREEN_WIDTH - 1); // Column end address

	Int16U count = BUFFER_DISPLAY_LENGTH;
	
	while(count >= 32)
     a72:	c0 17       	cp	r28, r16
     a74:	d1 07       	cpc	r29, r17
     a76:	a9 f7       	brne	.-22     	; 0xa62 <CmpSSD1306Update+0x1c>
	if(count > 0 )
	{
		DrvTwiWriteRegBuf(addr_i2c,0x40U,&bufferScreen[ BUFFER_DISPLAY_LENGTH - count ],BUFFER_DISPLAY_LENGTH - count);
	}
	return TRUE;
}
     a78:	81 e0       	ldi	r24, 0x01	; 1
     a7a:	df 91       	pop	r29
     a7c:	cf 91       	pop	r28
     a7e:	1f 91       	pop	r17
     a80:	0f 91       	pop	r16
     a82:	08 95       	ret

00000a84 <CmpSSD1306Init>:
void  CmpSSD1306SendData( Int8U *c, Int8U n);


Boolean CmpSSD1306Init(Int8U addr)
{
	addr_i2c = addr;
     a84:	80 93 25 01 	sts	0x0125, r24	; 0x800125 <addr_i2c>
	memset(bufferScreen, 0,BUFFER_DISPLAY_LENGTH);
     a88:	80 e0       	ldi	r24, 0x00	; 0
     a8a:	92 e0       	ldi	r25, 0x02	; 2
     a8c:	e1 e3       	ldi	r30, 0x31	; 49
     a8e:	fb e0       	ldi	r31, 0x0B	; 11
     a90:	df 01       	movw	r26, r30
     a92:	9c 01       	movw	r18, r24
     a94:	1d 92       	st	X+, r1
     a96:	21 50       	subi	r18, 0x01	; 1
     a98:	30 40       	sbci	r19, 0x00	; 0
     a9a:	e1 f7       	brne	.-8      	; 0xa94 <CmpSSD1306Init+0x10>
	
	vccstate = SSD1306_SWITCHCAPVCC;
     a9c:	82 e0       	ldi	r24, 0x02	; 2
     a9e:	80 93 24 01 	sts	0x0124, r24	; 0x800124 <vccstate>
		SSD1306_DISPLAYOFF,                   // 0xAE
		SSD1306_SETDISPLAYCLOCKDIV,           // 0xD5
		0x80,                                 // the suggested ratio 0x80
		SSD1306_SETMULTIPLEX 
	};               // 0xA8
	CmpSSD1306SendData(init1, sizeof(init1));
     aa2:	64 e0       	ldi	r22, 0x04	; 4
     aa4:	80 e2       	ldi	r24, 0x20	; 32
     aa6:	91 e0       	ldi	r25, 0x01	; 1
     aa8:	a8 df       	rcall	.-176    	; 0x9fa <CmpSSD1306SendData>
	CmpSSD1306SendDatum(SCREEN_HEIGHT - 1);
     aaa:	8f e1       	ldi	r24, 0x1F	; 31
     aac:	ae df       	rcall	.-164    	; 0xa0a <CmpSSD1306SendDatum>
		SSD1306_SETDISPLAYOFFSET,             // 0xD3
		0x0,                                  // no offset
		SSD1306_SETSTARTLINE | 0x0,           // line #0
		SSD1306_CHARGEPUMP 
	};                 // 0x8D
	CmpSSD1306SendData(init2, sizeof(init2));
     aae:	64 e0       	ldi	r22, 0x04	; 4
     ab0:	8c e1       	ldi	r24, 0x1C	; 28
     ab2:	91 e0       	ldi	r25, 0x01	; 1
     ab4:	a2 df       	rcall	.-188    	; 0x9fa <CmpSSD1306SendData>

	CmpSSD1306SendDatum((vccstate == SSD1306_EXTERNALVCC) ? 0x10 : 0x14);
     ab6:	80 91 24 01 	lds	r24, 0x0124	; 0x800124 <vccstate>
     aba:	81 30       	cpi	r24, 0x01	; 1
     abc:	11 f0       	breq	.+4      	; 0xac2 <CmpSSD1306Init+0x3e>
     abe:	84 e1       	ldi	r24, 0x14	; 20
     ac0:	01 c0       	rjmp	.+2      	; 0xac4 <CmpSSD1306Init+0x40>
     ac2:	80 e1       	ldi	r24, 0x10	; 16
		SSD1306_MEMORYMODE,                   // 0x20
		0x00,                                 // 0x0 act like ks0108
		SSD1306_SEGREMAP | 0x1,
		SSD1306_COMSCANDEC 
	};
	CmpSSD1306SendData(init3, sizeof(init3));
     ac4:	a2 df       	rcall	.-188    	; 0xa0a <CmpSSD1306SendDatum>
     ac6:	64 e0       	ldi	r22, 0x04	; 4
     ac8:	88 e1       	ldi	r24, 0x18	; 24
     aca:	91 e0       	ldi	r25, 0x01	; 1
		SSD1306_SETCOMPINS,                 // 0xDA
		0x02,
		SSD1306_SETCONTRAST,                // 0x81
		0x8F 
	};
	CmpSSD1306SendData(init4a, sizeof(init4a));
     acc:	96 df       	rcall	.-212    	; 0x9fa <CmpSSD1306SendData>
     ace:	64 e0       	ldi	r22, 0x04	; 4
     ad0:	84 e1       	ldi	r24, 0x14	; 20
     ad2:	91 e0       	ldi	r25, 0x01	; 1
		

	CmpSSD1306SendDatum(SSD1306_SETPRECHARGE); // 0xd9
     ad4:	92 df       	rcall	.-220    	; 0x9fa <CmpSSD1306SendData>
     ad6:	89 ed       	ldi	r24, 0xD9	; 217
     ad8:	98 df       	rcall	.-208    	; 0xa0a <CmpSSD1306SendDatum>
	CmpSSD1306SendDatum((vccstate == SSD1306_EXTERNALVCC) ? 0x22 : 0xF1);
     ada:	80 91 24 01 	lds	r24, 0x0124	; 0x800124 <vccstate>
     ade:	81 30       	cpi	r24, 0x01	; 1
     ae0:	11 f0       	breq	.+4      	; 0xae6 <CmpSSD1306Init+0x62>
     ae2:	81 ef       	ldi	r24, 0xF1	; 241
     ae4:	01 c0       	rjmp	.+2      	; 0xae8 <CmpSSD1306Init+0x64>
		0x40,
		SSD1306_DISPLAYALLON_RESUME,         // 0xA4
		SSD1306_NORMALDISPLAY,               // 0xA6
		SSD1306_DEACTIVATE_SCROLL,
		SSD1306_DISPLAYON };                 // Main screen turn on
	CmpSSD1306SendData(init5, sizeof(init5));
     ae6:	82 e2       	ldi	r24, 0x22	; 34
     ae8:	90 df       	rcall	.-224    	; 0xa0a <CmpSSD1306SendDatum>
     aea:	66 e0       	ldi	r22, 0x06	; 6
     aec:	8e e0       	ldi	r24, 0x0E	; 14
     aee:	91 e0       	ldi	r25, 0x01	; 1
		
	CmpSSD1306ClearDisplay();
     af0:	84 df       	rcall	.-248    	; 0x9fa <CmpSSD1306SendData>
     af2:	92 df       	rcall	.-220    	; 0xa18 <CmpSSD1306ClearDisplay>
	CmpSSD1306Update();
     af4:	a8 df       	rcall	.-176    	; 0xa46 <CmpSSD1306Update>
     af6:	81 e0       	ldi	r24, 0x01	; 1
	return TRUE;
}
     af8:	08 95       	ret

00000afa <DrvAdcInit>:
//return : TRUE si ok
Boolean DrvAdcInit ( void )
{
	Boolean oSuccess = TRUE;
	//AVCC with external capacitor at AREF pin
	BIT_HIGH(ADMUX,REFS0);
     afa:	ec e7       	ldi	r30, 0x7C	; 124
     afc:	f0 e0       	ldi	r31, 0x00	; 0
     afe:	80 81       	ld	r24, Z
     b00:	80 64       	ori	r24, 0x40	; 64
     b02:	80 83       	st	Z, r24
	BIT_HIGH(ADMUX,REFS1);
     b04:	80 81       	ld	r24, Z
     b06:	80 68       	ori	r24, 0x80	; 128
     b08:	80 83       	st	Z, r24
	//single ended input
	BIT_LOW(ADMUX,MUX4);
     b0a:	80 81       	ld	r24, Z
     b0c:	8f 7e       	andi	r24, 0xEF	; 239
     b0e:	80 83       	st	Z, r24
	BIT_LOW(ADMUX,MUX3);
     b10:	80 81       	ld	r24, Z
     b12:	87 7f       	andi	r24, 0xF7	; 247
     b14:	80 83       	st	Z, r24
	
	//free running
	BIT_LOW(ADCSRB,ADTS0);
     b16:	eb e7       	ldi	r30, 0x7B	; 123
     b18:	f0 e0       	ldi	r31, 0x00	; 0
     b1a:	80 81       	ld	r24, Z
     b1c:	8e 7f       	andi	r24, 0xFE	; 254
     b1e:	80 83       	st	Z, r24
	BIT_LOW(ADCSRB,ADTS1);
     b20:	80 81       	ld	r24, Z
     b22:	8d 7f       	andi	r24, 0xFD	; 253
     b24:	80 83       	st	Z, r24
	BIT_LOW(ADCSRB,ADTS2);
     b26:	80 81       	ld	r24, Z
     b28:	8b 7f       	andi	r24, 0xFB	; 251
     b2a:	80 83       	st	Z, r24
		
	//no start now
	BIT_LOW(ADCSRA,ADSC);
     b2c:	ea e7       	ldi	r30, 0x7A	; 122
     b2e:	f0 e0       	ldi	r31, 0x00	; 0
     b30:	80 81       	ld	r24, Z
     b32:	8f 7b       	andi	r24, 0xBF	; 191
     b34:	80 83       	st	Z, r24
	//no auto trigger
	BIT_LOW(ADCSRA,ADATE);
     b36:	80 81       	ld	r24, Z
     b38:	8f 7d       	andi	r24, 0xDF	; 223
     b3a:	80 83       	st	Z, r24
	//flag
	BIT_LOW(ADCSRA,ADIF);
     b3c:	80 81       	ld	r24, Z
     b3e:	8f 7e       	andi	r24, 0xEF	; 239
     b40:	80 83       	st	Z, r24
	//disable ADC interrupt
	BIT_LOW(ADCSRA,ADIE);
     b42:	80 81       	ld	r24, Z
     b44:	87 7f       	andi	r24, 0xF7	; 247
     b46:	80 83       	st	Z, r24
	//division factor set to 8
	BIT_HIGH(ADCSRA,ADPS0);
     b48:	80 81       	ld	r24, Z
     b4a:	81 60       	ori	r24, 0x01	; 1
     b4c:	80 83       	st	Z, r24
	BIT_HIGH(ADCSRA,ADPS1);
     b4e:	80 81       	ld	r24, Z
     b50:	82 60       	ori	r24, 0x02	; 2
     b52:	80 83       	st	Z, r24
	//enable ADC
	BIT_HIGH(ADCSRA,ADEN);
     b54:	80 81       	ld	r24, Z
     b56:	80 68       	ori	r24, 0x80	; 128
     b58:	80 83       	st	Z, r24
	
	return oSuccess;
}
     b5a:	81 e0       	ldi	r24, 0x01	; 1
     b5c:	08 95       	ret

00000b5e <DrvAdcRead>:

//Fonction de lecture ADC
Int16U DrvAdcRead ( EIoPin pin )
{
	//only on ADC pins
	if(pin < EIO_PORT_A)
     b5e:	88 30       	cpi	r24, 0x08	; 8
     b60:	70 f4       	brcc	.+28     	; 0xb7e <DrvAdcRead+0x20>
	{		
		ADMUX = ((ADMUX & 0xE0U) | pin);
     b62:	ec e7       	ldi	r30, 0x7C	; 124
     b64:	f0 e0       	ldi	r31, 0x00	; 0
     b66:	90 81       	ld	r25, Z
     b68:	90 7e       	andi	r25, 0xE0	; 224
     b6a:	89 2b       	or	r24, r25
     b6c:	80 83       	st	Z, r24
		BIT_HIGH(ADCSRA,ADSC);
     b6e:	ea e7       	ldi	r30, 0x7A	; 122
     b70:	f0 e0       	ldi	r31, 0x00	; 0
     b72:	80 81       	ld	r24, Z
     b74:	80 64       	ori	r24, 0x40	; 64
     b76:	80 83       	st	Z, r24
		while(ADCSRA & (1<<ADSC));
     b78:	80 81       	ld	r24, Z
     b7a:	86 fd       	sbrc	r24, 6
     b7c:	fd cf       	rjmp	.-6      	; 0xb78 <DrvAdcRead+0x1a>
	}
	
	//
	adc[E_ADC_0].value = ADC;
     b7e:	80 91 78 00 	lds	r24, 0x0078	; 0x800078 <__TEXT_REGION_LENGTH__+0x7e0078>
     b82:	90 91 79 00 	lds	r25, 0x0079	; 0x800079 <__TEXT_REGION_LENGTH__+0x7e0079>
     b86:	90 93 32 0d 	sts	0x0D32, r25	; 0x800d32 <adc+0x1>
     b8a:	80 93 31 0d 	sts	0x0D31, r24	; 0x800d31 <adc>
	return (Int16U)(adc[E_ADC_0].value * STEP);		
     b8e:	60 91 31 0d 	lds	r22, 0x0D31	; 0x800d31 <adc>
     b92:	70 91 32 0d 	lds	r23, 0x0D32	; 0x800d32 <adc+0x1>
     b96:	80 e0       	ldi	r24, 0x00	; 0
     b98:	90 e0       	ldi	r25, 0x00	; 0
     b9a:	0e 94 ce 20 	call	0x419c	; 0x419c <__floatunsisf>
     b9e:	28 e0       	ldi	r18, 0x08	; 8
     ba0:	30 e2       	ldi	r19, 0x20	; 32
     ba2:	40 e8       	ldi	r20, 0x80	; 128
     ba4:	5e e3       	ldi	r21, 0x3E	; 62
     ba6:	0e 94 57 22 	call	0x44ae	; 0x44ae <__mulsf3>
     baa:	0e 94 a2 20 	call	0x4144	; 0x4144 <__fixunssfsi>
}
     bae:	cb 01       	movw	r24, r22
     bb0:	08 95       	ret

00000bb2 <DrvBitmapGetBitmapArrow>:
	__XXXX__,__XX____,
	___XX__X,XXX_____,
};

void DrvBitmapGetBitmapArrow( SBitmap *bmp, EBitmapArrow value )
{
     bb2:	fc 01       	movw	r30, r24
	if(value == ARROW_UP)	bmp->bmp = bitmapArrowUp;
     bb4:	61 11       	cpse	r22, r1
     bb6:	05 c0       	rjmp	.+10     	; 0xbc2 <DrvBitmapGetBitmapArrow+0x10>
     bb8:	8a e4       	ldi	r24, 0x4A	; 74
     bba:	91 e0       	ldi	r25, 0x01	; 1
     bbc:	91 83       	std	Z+1, r25	; 0x01
     bbe:	80 83       	st	Z, r24
     bc0:	1b c0       	rjmp	.+54     	; 0xbf8 <DrvBitmapGetBitmapArrow+0x46>
	else if(value == ARROW_DOWN)	bmp->bmp = bitmapArrowDown;
     bc2:	61 30       	cpi	r22, 0x01	; 1
     bc4:	29 f4       	brne	.+10     	; 0xbd0 <DrvBitmapGetBitmapArrow+0x1e>
     bc6:	8e e3       	ldi	r24, 0x3E	; 62
     bc8:	91 e0       	ldi	r25, 0x01	; 1
     bca:	91 83       	std	Z+1, r25	; 0x01
     bcc:	80 83       	st	Z, r24
     bce:	14 c0       	rjmp	.+40     	; 0xbf8 <DrvBitmapGetBitmapArrow+0x46>
	else if(value == ARROW_LEFT)	bmp->bmp = bitmapArrowLeft;
     bd0:	62 30       	cpi	r22, 0x02	; 2
     bd2:	29 f4       	brne	.+10     	; 0xbde <DrvBitmapGetBitmapArrow+0x2c>
     bd4:	86 e5       	ldi	r24, 0x56	; 86
     bd6:	91 e0       	ldi	r25, 0x01	; 1
     bd8:	91 83       	std	Z+1, r25	; 0x01
     bda:	80 83       	st	Z, r24
     bdc:	0d c0       	rjmp	.+26     	; 0xbf8 <DrvBitmapGetBitmapArrow+0x46>
	else if(value == ARROW_RIGHT)	bmp->bmp = bitmapArrowRight;
     bde:	63 30       	cpi	r22, 0x03	; 3
     be0:	29 f4       	brne	.+10     	; 0xbec <DrvBitmapGetBitmapArrow+0x3a>
     be2:	82 e6       	ldi	r24, 0x62	; 98
     be4:	91 e0       	ldi	r25, 0x01	; 1
     be6:	91 83       	std	Z+1, r25	; 0x01
     be8:	80 83       	st	Z, r24
     bea:	06 c0       	rjmp	.+12     	; 0xbf8 <DrvBitmapGetBitmapArrow+0x46>
	else if(value == ARROW_CENTER)	bmp->bmp = bitmapArrowCenter;
     bec:	64 30       	cpi	r22, 0x04	; 4
     bee:	21 f4       	brne	.+8      	; 0xbf8 <DrvBitmapGetBitmapArrow+0x46>
     bf0:	82 e3       	ldi	r24, 0x32	; 50
     bf2:	91 e0       	ldi	r25, 0x01	; 1
     bf4:	91 83       	std	Z+1, r25	; 0x01
     bf6:	80 83       	st	Z, r24
	bmp->width = 8U * 2U;
     bf8:	80 e1       	ldi	r24, 0x10	; 16
     bfa:	90 e0       	ldi	r25, 0x00	; 0
     bfc:	93 83       	std	Z+3, r25	; 0x03
     bfe:	82 83       	std	Z+2, r24	; 0x02
	bmp->height = 6U;
     c00:	86 e0       	ldi	r24, 0x06	; 6
     c02:	90 e0       	ldi	r25, 0x00	; 0
     c04:	95 83       	std	Z+5, r25	; 0x05
     c06:	84 83       	std	Z+4, r24	; 0x04
     c08:	08 95       	ret

00000c0a <DrvBitmapGetBitmapBatteryValue>:
}

void DrvBitmapGetBitmapBatteryValue( SBitmap *bmp, uint8_t value )
{
     c0a:	fc 01       	movw	r30, r24
	if(value == 100)	bmp->bmp = bitmapBattery100;
     c0c:	64 36       	cpi	r22, 0x64	; 100
     c0e:	29 f4       	brne	.+10     	; 0xc1a <DrvBitmapGetBitmapBatteryValue+0x10>
     c10:	86 ea       	ldi	r24, 0xA6	; 166
     c12:	91 e0       	ldi	r25, 0x01	; 1
     c14:	91 83       	std	Z+1, r25	; 0x01
     c16:	80 83       	st	Z, r24
     c18:	19 c0       	rjmp	.+50     	; 0xc4c <DrvBitmapGetBitmapBatteryValue+0x42>
	else if(value >= 75)	bmp->bmp = bitmapBattery75;
     c1a:	6b 34       	cpi	r22, 0x4B	; 75
     c1c:	28 f0       	brcs	.+10     	; 0xc28 <DrvBitmapGetBitmapBatteryValue+0x1e>
     c1e:	88 e9       	ldi	r24, 0x98	; 152
     c20:	91 e0       	ldi	r25, 0x01	; 1
     c22:	91 83       	std	Z+1, r25	; 0x01
     c24:	80 83       	st	Z, r24
     c26:	12 c0       	rjmp	.+36     	; 0xc4c <DrvBitmapGetBitmapBatteryValue+0x42>
	else if(value >= 50)	bmp->bmp = bitmapBattery50;
     c28:	62 33       	cpi	r22, 0x32	; 50
     c2a:	28 f0       	brcs	.+10     	; 0xc36 <DrvBitmapGetBitmapBatteryValue+0x2c>
     c2c:	8a e8       	ldi	r24, 0x8A	; 138
     c2e:	91 e0       	ldi	r25, 0x01	; 1
     c30:	91 83       	std	Z+1, r25	; 0x01
     c32:	80 83       	st	Z, r24
     c34:	0b c0       	rjmp	.+22     	; 0xc4c <DrvBitmapGetBitmapBatteryValue+0x42>
	else if(value >= 25)	bmp->bmp = bitmapBattery25;
     c36:	69 31       	cpi	r22, 0x19	; 25
     c38:	28 f0       	brcs	.+10     	; 0xc44 <DrvBitmapGetBitmapBatteryValue+0x3a>
     c3a:	8c e7       	ldi	r24, 0x7C	; 124
     c3c:	91 e0       	ldi	r25, 0x01	; 1
     c3e:	91 83       	std	Z+1, r25	; 0x01
     c40:	80 83       	st	Z, r24
     c42:	04 c0       	rjmp	.+8      	; 0xc4c <DrvBitmapGetBitmapBatteryValue+0x42>
	else bmp->bmp = bitmapBattery0;
     c44:	8e e6       	ldi	r24, 0x6E	; 110
     c46:	91 e0       	ldi	r25, 0x01	; 1
     c48:	91 83       	std	Z+1, r25	; 0x01
     c4a:	80 83       	st	Z, r24
	bmp->width = 8U * 2U;
     c4c:	80 e1       	ldi	r24, 0x10	; 16
     c4e:	90 e0       	ldi	r25, 0x00	; 0
     c50:	93 83       	std	Z+3, r25	; 0x03
     c52:	82 83       	std	Z+2, r24	; 0x02
	bmp->height = 7U;
     c54:	87 e0       	ldi	r24, 0x07	; 7
     c56:	90 e0       	ldi	r25, 0x00	; 0
     c58:	95 83       	std	Z+5, r25	; 0x05
     c5a:	84 83       	std	Z+4, r24	; 0x04
     c5c:	08 95       	ret

00000c5e <DrvBitmapGetBitmapCommunication>:
}

void DrvBitmapGetBitmapCommunication( SBitmap *bmp )
{
     c5e:	fc 01       	movw	r30, r24
	bmp->bmp = bitmapCommunication;
     c60:	86 e2       	ldi	r24, 0x26	; 38
     c62:	91 e0       	ldi	r25, 0x01	; 1
     c64:	91 83       	std	Z+1, r25	; 0x01
     c66:	80 83       	st	Z, r24
	bmp->width = 8U * 2U;
     c68:	80 e1       	ldi	r24, 0x10	; 16
     c6a:	90 e0       	ldi	r25, 0x00	; 0
     c6c:	93 83       	std	Z+3, r25	; 0x03
     c6e:	82 83       	std	Z+2, r24	; 0x02
	bmp->height = 6U;
     c70:	86 e0       	ldi	r24, 0x06	; 6
     c72:	90 e0       	ldi	r25, 0x00	; 0
     c74:	95 83       	std	Z+5, r25	; 0x05
     c76:	84 83       	std	Z+4, r24	; 0x04
     c78:	08 95       	ret

00000c7a <DrvButtonIsrCallbackTimer>:

//Fonction qui retourne l'etat actuel du bouton
EButtonState DrvButtonGetState( Int8U idButton )
{
	return MesButtons[ idButton ].state;
}
     c7a:	80 91 34 0d 	lds	r24, 0x0D34	; 0x800d34 <MesButtons+0x1>
     c7e:	81 30       	cpi	r24, 0x01	; 1
     c80:	51 f5       	brne	.+84     	; 0xcd6 <DrvButtonIsrCallbackTimer+0x5c>
     c82:	80 91 36 0d 	lds	r24, 0x0D36	; 0x800d36 <MesButtons+0x3>
     c86:	81 30       	cpi	r24, 0x01	; 1
     c88:	99 f4       	brne	.+38     	; 0xcb0 <DrvButtonIsrCallbackTimer+0x36>
     c8a:	80 91 33 0d 	lds	r24, 0x0D33	; 0x800d33 <MesButtons>
     c8e:	c7 d0       	rcall	.+398    	; 0xe1e <DrvIoGetPinState>
     c90:	81 11       	cpse	r24, r1
     c92:	0b c0       	rjmp	.+22     	; 0xcaa <DrvButtonIsrCallbackTimer+0x30>
     c94:	e3 e3       	ldi	r30, 0x33	; 51
     c96:	fd e0       	ldi	r31, 0x0D	; 13
     c98:	82 81       	ldd	r24, Z+2	; 0x02
     c9a:	8f 5f       	subi	r24, 0xFF	; 255
     c9c:	82 83       	std	Z+2, r24	; 0x02
     c9e:	82 81       	ldd	r24, Z+2	; 0x02
     ca0:	8a 30       	cpi	r24, 0x0A	; 10
     ca2:	c8 f0       	brcs	.+50     	; 0xcd6 <DrvButtonIsrCallbackTimer+0x5c>
     ca4:	13 82       	std	Z+3, r1	; 0x03
     ca6:	12 82       	std	Z+2, r1	; 0x02
     ca8:	08 95       	ret
     caa:	10 92 35 0d 	sts	0x0D35, r1	; 0x800d35 <MesButtons+0x2>
     cae:	08 95       	ret
     cb0:	80 91 33 0d 	lds	r24, 0x0D33	; 0x800d33 <MesButtons>
     cb4:	b4 d0       	rcall	.+360    	; 0xe1e <DrvIoGetPinState>
     cb6:	81 30       	cpi	r24, 0x01	; 1
     cb8:	61 f4       	brne	.+24     	; 0xcd2 <DrvButtonIsrCallbackTimer+0x58>
     cba:	e3 e3       	ldi	r30, 0x33	; 51
     cbc:	fd e0       	ldi	r31, 0x0D	; 13
     cbe:	82 81       	ldd	r24, Z+2	; 0x02
     cc0:	8f 5f       	subi	r24, 0xFF	; 255
     cc2:	82 83       	std	Z+2, r24	; 0x02
     cc4:	82 81       	ldd	r24, Z+2	; 0x02
     cc6:	8a 30       	cpi	r24, 0x0A	; 10
     cc8:	30 f0       	brcs	.+12     	; 0xcd6 <DrvButtonIsrCallbackTimer+0x5c>
     cca:	81 e0       	ldi	r24, 0x01	; 1
     ccc:	83 83       	std	Z+3, r24	; 0x03
     cce:	12 82       	std	Z+2, r1	; 0x02
     cd0:	08 95       	ret
     cd2:	10 92 35 0d 	sts	0x0D35, r1	; 0x800d35 <MesButtons+0x2>
     cd6:	08 95       	ret

00000cd8 <DrvButtonInit>:
     cd8:	2d e3       	ldi	r18, 0x3D	; 61
     cda:	36 e0       	ldi	r19, 0x06	; 6
     cdc:	41 e0       	ldi	r20, 0x01	; 1
     cde:	65 e0       	ldi	r22, 0x05	; 5
     ce0:	70 e0       	ldi	r23, 0x00	; 0
     ce2:	80 e0       	ldi	r24, 0x00	; 0
     ce4:	0e 94 dc 10 	call	0x21b8	; 0x21b8 <DrvTimerAddTimer>
     ce8:	81 e0       	ldi	r24, 0x01	; 1
     cea:	08 95       	ret

00000cec <DrvButtonAddButton>:
     cec:	81 11       	cpse	r24, r1
     cee:	0d c0       	rjmp	.+26     	; 0xd0a <DrvButtonAddButton+0x1e>
     cf0:	80 91 b4 01 	lds	r24, 0x01B4	; 0x8001b4 <ButtonsPins>
     cf4:	e3 e3       	ldi	r30, 0x33	; 51
     cf6:	fd e0       	ldi	r31, 0x0D	; 13
     cf8:	80 83       	st	Z, r24
     cfa:	81 e0       	ldi	r24, 0x01	; 1
     cfc:	81 83       	std	Z+1, r24	; 0x01
     cfe:	12 82       	std	Z+2, r1	; 0x02
     d00:	14 82       	std	Z+4, r1	; 0x04
     d02:	83 83       	std	Z+3, r24	; 0x03
     d04:	80 81       	ld	r24, Z
     d06:	6a c0       	rjmp	.+212    	; 0xddc <DrvIoSetPinInput>
     d08:	08 95       	ret
     d0a:	80 e0       	ldi	r24, 0x00	; 0
     d0c:	08 95       	ret

00000d0e <DrvButtonPushed>:

//Fonction qui retourne le changement d'etat du bouton
Boolean DrvButtonPushed( Int8U idButton )
{
	Boolean oStatus = FALSE;
	if(MesButtons[ idButton ].state == E_BUTTON_STATE_PUSHED)
     d0e:	90 e0       	ldi	r25, 0x00	; 0
     d10:	fc 01       	movw	r30, r24
     d12:	ee 0f       	add	r30, r30
     d14:	ff 1f       	adc	r31, r31
     d16:	ee 0f       	add	r30, r30
     d18:	ff 1f       	adc	r31, r31
     d1a:	e8 0f       	add	r30, r24
     d1c:	f9 1f       	adc	r31, r25
     d1e:	ed 5c       	subi	r30, 0xCD	; 205
     d20:	f2 4f       	sbci	r31, 0xF2	; 242
     d22:	23 81       	ldd	r18, Z+3	; 0x03
     d24:	21 11       	cpse	r18, r1
     d26:	19 c0       	rjmp	.+50     	; 0xd5a <DrvButtonPushed+0x4c>
	{
		if(	FALSE == MesButtons[ idButton ].buttonPushed )
     d28:	fc 01       	movw	r30, r24
     d2a:	ee 0f       	add	r30, r30
     d2c:	ff 1f       	adc	r31, r31
     d2e:	ee 0f       	add	r30, r30
     d30:	ff 1f       	adc	r31, r31
     d32:	e8 0f       	add	r30, r24
     d34:	f9 1f       	adc	r31, r25
     d36:	ed 5c       	subi	r30, 0xCD	; 205
     d38:	f2 4f       	sbci	r31, 0xF2	; 242
     d3a:	24 81       	ldd	r18, Z+4	; 0x04
     d3c:	21 11       	cpse	r18, r1
     d3e:	1a c0       	rjmp	.+52     	; 0xd74 <DrvButtonPushed+0x66>
		{
			MesButtons[ idButton ].buttonPushed = TRUE;
     d40:	fc 01       	movw	r30, r24
     d42:	ee 0f       	add	r30, r30
     d44:	ff 1f       	adc	r31, r31
     d46:	ee 0f       	add	r30, r30
     d48:	ff 1f       	adc	r31, r31
     d4a:	8e 0f       	add	r24, r30
     d4c:	9f 1f       	adc	r25, r31
     d4e:	fc 01       	movw	r30, r24
     d50:	ed 5c       	subi	r30, 0xCD	; 205
     d52:	f2 4f       	sbci	r31, 0xF2	; 242
     d54:	81 e0       	ldi	r24, 0x01	; 1
     d56:	84 83       	std	Z+4, r24	; 0x04
     d58:	08 95       	ret
			oStatus = TRUE;
		}
	}
	else
	{
		MesButtons[ idButton ].buttonPushed = FALSE;
     d5a:	fc 01       	movw	r30, r24
     d5c:	ee 0f       	add	r30, r30
     d5e:	ff 1f       	adc	r31, r31
     d60:	ee 0f       	add	r30, r30
     d62:	ff 1f       	adc	r31, r31
     d64:	8e 0f       	add	r24, r30
     d66:	9f 1f       	adc	r25, r31
     d68:	fc 01       	movw	r30, r24
     d6a:	ed 5c       	subi	r30, 0xCD	; 205
     d6c:	f2 4f       	sbci	r31, 0xF2	; 242
     d6e:	14 82       	std	Z+4, r1	; 0x04
		oStatus = FALSE;
     d70:	80 e0       	ldi	r24, 0x00	; 0
     d72:	08 95       	ret


//Fonction qui retourne le changement d'etat du bouton
Boolean DrvButtonPushed( Int8U idButton )
{
	Boolean oStatus = FALSE;
     d74:	80 e0       	ldi	r24, 0x00	; 0
	{
		MesButtons[ idButton ].buttonPushed = FALSE;
		oStatus = FALSE;
	}
	return oStatus;
}
     d76:	08 95       	ret

00000d78 <DrvEepromIsConfigured>:

////////////////////////////////////////PRIVATE FUNCTIONS/////////////////////////////////////////
//Fonction de lecture eeprom
Int8U DrvEepromReadByte ( const Int8U * addr )
{
	return eeprom_read_byte(addr);
     d78:	80 e0       	ldi	r24, 0x00	; 0
     d7a:	90 e0       	ldi	r25, 0x00	; 0
     d7c:	0e 94 b5 23 	call	0x476a	; 0x476a <eeprom_read_byte>
}

//retourne l'etat de config de l'eeprom
Boolean DrvEepromIsConfigured ( void )
{
	return DrvEepromReadByte( ADDR_EEPROM_CHECK_EEPROM ) == EEPROM_DEFAULT_VALUE ? FALSE : TRUE ;
     d80:	91 e0       	ldi	r25, 0x01	; 1
     d82:	8f 3f       	cpi	r24, 0xFF	; 255
     d84:	09 f4       	brne	.+2      	; 0xd88 <DrvEepromIsConfigured+0x10>
     d86:	90 e0       	ldi	r25, 0x00	; 0
}
     d88:	89 2f       	mov	r24, r25
     d8a:	08 95       	ret

00000d8c <DrvEepromInit>:
Boolean DrvEepromInit ( void )
{
	Boolean oSuccess = TRUE;
	
	//return from boot with OK
	if( DrvEepromIsConfigured() == FALSE ) 
     d8c:	f5 df       	rcall	.-22     	; 0xd78 <DrvEepromIsConfigured>
     d8e:	81 11       	cpse	r24, r1
     d90:	0a c0       	rjmp	.+20     	; 0xda6 <DrvEepromInit+0x1a>
//Fonction d ecriture eeprom
void DrvEepromWriteByte ( Int8U * addr, Int8U byte)
{
	if(EEPROM_WRITE_ENABLE)
	{
		eeprom_write_byte(addr,byte);
     d92:	61 e3       	ldi	r22, 0x31	; 49
     d94:	81 e0       	ldi	r24, 0x01	; 1
     d96:	90 e0       	ldi	r25, 0x00	; 0
     d98:	0e 94 bd 23 	call	0x477a	; 0x477a <eeprom_write_byte>
     d9c:	61 e3       	ldi	r22, 0x31	; 49
     d9e:	82 e0       	ldi	r24, 0x02	; 2
     da0:	90 e0       	ldi	r25, 0x00	; 0
     da2:	0e 94 bd 23 	call	0x477a	; 0x477a <eeprom_write_byte>
		//on ecrit la version hardware
		DrvEepromWriteByte(ADDR_EEPROM_VERSION_HARD, VERSION_HARDWARE);
	}

	return oSuccess;
}
     da6:	81 e0       	ldi	r24, 0x01	; 1
     da8:	08 95       	ret

00000daa <DrvIoSetPinOutput>:
	*(ioTable[pin].port) |= (Int8U)( level << (Int8U)ioTable[pin].bit );
}

void DrvIoTogglePinState( EIoPin pin )
{
	*(ioTable[pin].port) ^= (1U << ioTable[pin].bit);
     daa:	80 32       	cpi	r24, 0x20	; 32
     dac:	a8 f4       	brcc	.+42     	; 0xdd8 <DrvIoSetPinOutput+0x2e>
     dae:	97 e0       	ldi	r25, 0x07	; 7
     db0:	89 9f       	mul	r24, r25
     db2:	f0 01       	movw	r30, r0
     db4:	11 24       	eor	r1, r1
     db6:	e8 5d       	subi	r30, 0xD8	; 216
     db8:	fb 4f       	sbci	r31, 0xFB	; 251
     dba:	a2 81       	ldd	r26, Z+2	; 0x02
     dbc:	b3 81       	ldd	r27, Z+3	; 0x03
     dbe:	2c 91       	ld	r18, X
     dc0:	81 e0       	ldi	r24, 0x01	; 1
     dc2:	90 e0       	ldi	r25, 0x00	; 0
     dc4:	06 80       	ldd	r0, Z+6	; 0x06
     dc6:	02 c0       	rjmp	.+4      	; 0xdcc <DrvIoSetPinOutput+0x22>
     dc8:	88 0f       	add	r24, r24
     dca:	99 1f       	adc	r25, r25
     dcc:	0a 94       	dec	r0
     dce:	e2 f7       	brpl	.-8      	; 0xdc8 <DrvIoSetPinOutput+0x1e>
     dd0:	82 2b       	or	r24, r18
     dd2:	8c 93       	st	X, r24
     dd4:	81 e0       	ldi	r24, 0x01	; 1
     dd6:	08 95       	ret
     dd8:	80 e0       	ldi	r24, 0x00	; 0
     dda:	08 95       	ret

00000ddc <DrvIoSetPinInput>:
     ddc:	80 32       	cpi	r24, 0x20	; 32
     dde:	e8 f4       	brcc	.+58     	; 0xe1a <DrvIoSetPinInput+0x3e>
     de0:	97 e0       	ldi	r25, 0x07	; 7
     de2:	89 9f       	mul	r24, r25
     de4:	f0 01       	movw	r30, r0
     de6:	11 24       	eor	r1, r1
     de8:	e8 5d       	subi	r30, 0xD8	; 216
     dea:	fb 4f       	sbci	r31, 0xFB	; 251
     dec:	a2 81       	ldd	r26, Z+2	; 0x02
     dee:	b3 81       	ldd	r27, Z+3	; 0x03
     df0:	2c 91       	ld	r18, X
     df2:	81 e0       	ldi	r24, 0x01	; 1
     df4:	90 e0       	ldi	r25, 0x00	; 0
     df6:	06 80       	ldd	r0, Z+6	; 0x06
     df8:	02 c0       	rjmp	.+4      	; 0xdfe <DrvIoSetPinInput+0x22>
     dfa:	88 0f       	add	r24, r24
     dfc:	99 1f       	adc	r25, r25
     dfe:	0a 94       	dec	r0
     e00:	e2 f7       	brpl	.-8      	; 0xdfa <DrvIoSetPinInput+0x1e>
     e02:	80 95       	com	r24
     e04:	92 2f       	mov	r25, r18
     e06:	98 23       	and	r25, r24
     e08:	9c 93       	st	X, r25
     e0a:	01 90       	ld	r0, Z+
     e0c:	f0 81       	ld	r31, Z
     e0e:	e0 2d       	mov	r30, r0
     e10:	90 81       	ld	r25, Z
     e12:	89 23       	and	r24, r25
     e14:	80 83       	st	Z, r24
     e16:	81 e0       	ldi	r24, 0x01	; 1
     e18:	08 95       	ret
     e1a:	80 e0       	ldi	r24, 0x00	; 0
     e1c:	08 95       	ret

00000e1e <DrvIoGetPinState>:
     e1e:	27 e0       	ldi	r18, 0x07	; 7
     e20:	82 9f       	mul	r24, r18
     e22:	c0 01       	movw	r24, r0
     e24:	11 24       	eor	r1, r1
     e26:	fc 01       	movw	r30, r24
     e28:	e8 5d       	subi	r30, 0xD8	; 216
     e2a:	fb 4f       	sbci	r31, 0xFB	; 251
     e2c:	a4 81       	ldd	r26, Z+4	; 0x04
     e2e:	b5 81       	ldd	r27, Z+5	; 0x05
     e30:	8c 91       	ld	r24, X
     e32:	90 e0       	ldi	r25, 0x00	; 0
     e34:	06 80       	ldd	r0, Z+6	; 0x06
     e36:	02 c0       	rjmp	.+4      	; 0xe3c <DrvIoGetPinState+0x1e>
     e38:	95 95       	asr	r25
     e3a:	87 95       	ror	r24
     e3c:	0a 94       	dec	r0
     e3e:	e2 f7       	brpl	.-8      	; 0xe38 <DrvIoGetPinState+0x1a>
     e40:	81 70       	andi	r24, 0x01	; 1
     e42:	08 95       	ret

00000e44 <DrvIoSetPinState>:
     e44:	27 e0       	ldi	r18, 0x07	; 7
     e46:	82 9f       	mul	r24, r18
     e48:	c0 01       	movw	r24, r0
     e4a:	11 24       	eor	r1, r1
     e4c:	dc 01       	movw	r26, r24
     e4e:	a8 5d       	subi	r26, 0xD8	; 216
     e50:	bb 4f       	sbci	r27, 0xFB	; 251
     e52:	ed 91       	ld	r30, X+
     e54:	fc 91       	ld	r31, X
     e56:	11 97       	sbiw	r26, 0x01	; 1
     e58:	80 81       	ld	r24, Z
     e5a:	16 96       	adiw	r26, 0x06	; 6
     e5c:	4c 91       	ld	r20, X
     e5e:	91 e0       	ldi	r25, 0x01	; 1
     e60:	96 27       	eor	r25, r22
     e62:	29 2f       	mov	r18, r25
     e64:	21 70       	andi	r18, 0x01	; 1
     e66:	30 e0       	ldi	r19, 0x00	; 0
     e68:	04 2e       	mov	r0, r20
     e6a:	02 c0       	rjmp	.+4      	; 0xe70 <DrvIoSetPinState+0x2c>
     e6c:	22 0f       	add	r18, r18
     e6e:	33 1f       	adc	r19, r19
     e70:	0a 94       	dec	r0
     e72:	e2 f7       	brpl	.-8      	; 0xe6c <DrvIoSetPinState+0x28>
     e74:	20 95       	com	r18
     e76:	28 23       	and	r18, r24
     e78:	20 83       	st	Z, r18
     e7a:	80 81       	ld	r24, Z
     e7c:	70 e0       	ldi	r23, 0x00	; 0
     e7e:	02 c0       	rjmp	.+4      	; 0xe84 <DrvIoSetPinState+0x40>
     e80:	66 0f       	add	r22, r22
     e82:	77 1f       	adc	r23, r23
     e84:	4a 95       	dec	r20
     e86:	e2 f7       	brpl	.-8      	; 0xe80 <DrvIoSetPinState+0x3c>
     e88:	68 2b       	or	r22, r24
     e8a:	60 83       	st	Z, r22
     e8c:	08 95       	ret

00000e8e <DrvIoSetInterruptPin>:
}

void DrvIoSetInterruptPin ( EIoPin pin )
{
	if(pin < EIO_PORT_A)
     e8e:	88 30       	cpi	r24, 0x08	; 8
     e90:	c8 f4       	brcc	.+50     	; 0xec4 <DrvIoSetInterruptPin+0x36>
	{
		BIT_HIGH(PCICR,PCIE0);
     e92:	e8 e6       	ldi	r30, 0x68	; 104
     e94:	f0 e0       	ldi	r31, 0x00	; 0
     e96:	90 81       	ld	r25, Z
     e98:	91 60       	ori	r25, 0x01	; 1
     e9a:	90 83       	st	Z, r25
		BIT_HIGH(PCMSK0,ioTable[pin].bit);
     e9c:	ab e6       	ldi	r26, 0x6B	; 107
     e9e:	b0 e0       	ldi	r27, 0x00	; 0
     ea0:	2c 91       	ld	r18, X
     ea2:	97 e0       	ldi	r25, 0x07	; 7
     ea4:	89 9f       	mul	r24, r25
     ea6:	f0 01       	movw	r30, r0
     ea8:	11 24       	eor	r1, r1
     eaa:	e8 5d       	subi	r30, 0xD8	; 216
     eac:	fb 4f       	sbci	r31, 0xFB	; 251
     eae:	81 e0       	ldi	r24, 0x01	; 1
     eb0:	90 e0       	ldi	r25, 0x00	; 0
     eb2:	06 80       	ldd	r0, Z+6	; 0x06
     eb4:	02 c0       	rjmp	.+4      	; 0xeba <DrvIoSetInterruptPin+0x2c>
     eb6:	88 0f       	add	r24, r24
     eb8:	99 1f       	adc	r25, r25
     eba:	0a 94       	dec	r0
     ebc:	e2 f7       	brpl	.-8      	; 0xeb6 <DrvIoSetInterruptPin+0x28>
     ebe:	82 2b       	or	r24, r18
     ec0:	8c 93       	st	X, r24
     ec2:	08 95       	ret
	}
	else if(pin < EIO_PORT_B)
     ec4:	80 31       	cpi	r24, 0x10	; 16
     ec6:	c8 f4       	brcc	.+50     	; 0xefa <DrvIoSetInterruptPin+0x6c>
	{
		BIT_HIGH(PCICR,PCIE1);
     ec8:	e8 e6       	ldi	r30, 0x68	; 104
     eca:	f0 e0       	ldi	r31, 0x00	; 0
     ecc:	90 81       	ld	r25, Z
     ece:	92 60       	ori	r25, 0x02	; 2
     ed0:	90 83       	st	Z, r25
		BIT_HIGH(PCMSK1,ioTable[pin].bit);	
     ed2:	ac e6       	ldi	r26, 0x6C	; 108
     ed4:	b0 e0       	ldi	r27, 0x00	; 0
     ed6:	2c 91       	ld	r18, X
     ed8:	97 e0       	ldi	r25, 0x07	; 7
     eda:	89 9f       	mul	r24, r25
     edc:	f0 01       	movw	r30, r0
     ede:	11 24       	eor	r1, r1
     ee0:	e8 5d       	subi	r30, 0xD8	; 216
     ee2:	fb 4f       	sbci	r31, 0xFB	; 251
     ee4:	81 e0       	ldi	r24, 0x01	; 1
     ee6:	90 e0       	ldi	r25, 0x00	; 0
     ee8:	06 80       	ldd	r0, Z+6	; 0x06
     eea:	02 c0       	rjmp	.+4      	; 0xef0 <DrvIoSetInterruptPin+0x62>
     eec:	88 0f       	add	r24, r24
     eee:	99 1f       	adc	r25, r25
     ef0:	0a 94       	dec	r0
     ef2:	e2 f7       	brpl	.-8      	; 0xeec <DrvIoSetInterruptPin+0x5e>
     ef4:	82 2b       	or	r24, r18
     ef6:	8c 93       	st	X, r24
     ef8:	08 95       	ret
	}
	else if(pin < EIO_PORT_C)
     efa:	88 31       	cpi	r24, 0x18	; 24
     efc:	c8 f4       	brcc	.+50     	; 0xf30 <DrvIoSetInterruptPin+0xa2>
	{
		BIT_HIGH(PCICR,PCIE2);
     efe:	e8 e6       	ldi	r30, 0x68	; 104
     f00:	f0 e0       	ldi	r31, 0x00	; 0
     f02:	90 81       	ld	r25, Z
     f04:	94 60       	ori	r25, 0x04	; 4
     f06:	90 83       	st	Z, r25
		BIT_HIGH(PCMSK2,ioTable[pin].bit);	
     f08:	ad e6       	ldi	r26, 0x6D	; 109
     f0a:	b0 e0       	ldi	r27, 0x00	; 0
     f0c:	2c 91       	ld	r18, X
     f0e:	97 e0       	ldi	r25, 0x07	; 7
     f10:	89 9f       	mul	r24, r25
     f12:	f0 01       	movw	r30, r0
     f14:	11 24       	eor	r1, r1
     f16:	e8 5d       	subi	r30, 0xD8	; 216
     f18:	fb 4f       	sbci	r31, 0xFB	; 251
     f1a:	81 e0       	ldi	r24, 0x01	; 1
     f1c:	90 e0       	ldi	r25, 0x00	; 0
     f1e:	06 80       	ldd	r0, Z+6	; 0x06
     f20:	02 c0       	rjmp	.+4      	; 0xf26 <DrvIoSetInterruptPin+0x98>
     f22:	88 0f       	add	r24, r24
     f24:	99 1f       	adc	r25, r25
     f26:	0a 94       	dec	r0
     f28:	e2 f7       	brpl	.-8      	; 0xf22 <DrvIoSetInterruptPin+0x94>
     f2a:	82 2b       	or	r24, r18
     f2c:	8c 93       	st	X, r24
     f2e:	08 95       	ret
	}
	else if(pin < EIO_PORT_D)
     f30:	80 32       	cpi	r24, 0x20	; 32
     f32:	c0 f4       	brcc	.+48     	; 0xf64 <DrvIoSetInterruptPin+0xd6>
	{
		#ifdef PCIE3
		BIT_HIGH(PCICR,PCIE3);
     f34:	e8 e6       	ldi	r30, 0x68	; 104
     f36:	f0 e0       	ldi	r31, 0x00	; 0
     f38:	90 81       	ld	r25, Z
     f3a:	98 60       	ori	r25, 0x08	; 8
     f3c:	90 83       	st	Z, r25
		BIT_HIGH(PCMSK3,ioTable[pin].bit);	
     f3e:	a3 e7       	ldi	r26, 0x73	; 115
     f40:	b0 e0       	ldi	r27, 0x00	; 0
     f42:	2c 91       	ld	r18, X
     f44:	97 e0       	ldi	r25, 0x07	; 7
     f46:	89 9f       	mul	r24, r25
     f48:	f0 01       	movw	r30, r0
     f4a:	11 24       	eor	r1, r1
     f4c:	e8 5d       	subi	r30, 0xD8	; 216
     f4e:	fb 4f       	sbci	r31, 0xFB	; 251
     f50:	81 e0       	ldi	r24, 0x01	; 1
     f52:	90 e0       	ldi	r25, 0x00	; 0
     f54:	06 80       	ldd	r0, Z+6	; 0x06
     f56:	02 c0       	rjmp	.+4      	; 0xf5c <DrvIoSetInterruptPin+0xce>
     f58:	88 0f       	add	r24, r24
     f5a:	99 1f       	adc	r25, r25
     f5c:	0a 94       	dec	r0
     f5e:	e2 f7       	brpl	.-8      	; 0xf58 <DrvIoSetInterruptPin+0xca>
     f60:	82 2b       	or	r24, r18
     f62:	8c 93       	st	X, r24
     f64:	08 95       	ret

00000f66 <DrvLedIsrCallbackTimer>:
		MesLeds[ idLed ].mode = E_LED_ON_OFF;
		MesLeds[ idLed ].state = E_LED_STATE_OFF;
		DrvIoSetPinState(MesLeds[ idLed ].pin,FALSE);
	}
	return oSuccess;
}
     f66:	cf 92       	push	r12
     f68:	df 92       	push	r13
     f6a:	ef 92       	push	r14
     f6c:	ff 92       	push	r15
     f6e:	1f 93       	push	r17
     f70:	cf 93       	push	r28
     f72:	df 93       	push	r29
     f74:	c0 e0       	ldi	r28, 0x00	; 0
     f76:	d0 e0       	ldi	r29, 0x00	; 0
     f78:	1b e0       	ldi	r17, 0x0B	; 11
     f7a:	7e 01       	movw	r14, r28
     f7c:	1c 9f       	mul	r17, r28
     f7e:	f0 01       	movw	r30, r0
     f80:	1d 9f       	mul	r17, r29
     f82:	f0 0d       	add	r31, r0
     f84:	11 24       	eor	r1, r1
     f86:	e8 5c       	subi	r30, 0xC8	; 200
     f88:	f2 4f       	sbci	r31, 0xF2	; 242
     f8a:	82 81       	ldd	r24, Z+2	; 0x02
     f8c:	81 30       	cpi	r24, 0x01	; 1
     f8e:	09 f0       	breq	.+2      	; 0xf92 <DrvLedIsrCallbackTimer+0x2c>
     f90:	4b c0       	rjmp	.+150    	; 0x1028 <DrvLedIsrCallbackTimer+0xc2>
     f92:	1c 9f       	mul	r17, r28
     f94:	f0 01       	movw	r30, r0
     f96:	1d 9f       	mul	r17, r29
     f98:	f0 0d       	add	r31, r0
     f9a:	11 24       	eor	r1, r1
     f9c:	e8 5c       	subi	r30, 0xC8	; 200
     f9e:	f2 4f       	sbci	r31, 0xF2	; 242
     fa0:	81 81       	ldd	r24, Z+1	; 0x01
     fa2:	81 11       	cpse	r24, r1
     fa4:	1c c0       	rjmp	.+56     	; 0xfde <DrvLedIsrCallbackTimer+0x78>
     fa6:	1c 9f       	mul	r17, r28
     fa8:	f0 01       	movw	r30, r0
     faa:	1d 9f       	mul	r17, r29
     fac:	f0 0d       	add	r31, r0
     fae:	11 24       	eor	r1, r1
     fb0:	e8 5c       	subi	r30, 0xC8	; 200
     fb2:	f2 4f       	sbci	r31, 0xF2	; 242
     fb4:	85 81       	ldd	r24, Z+5	; 0x05
     fb6:	96 81       	ldd	r25, Z+6	; 0x06
     fb8:	9c 01       	movw	r18, r24
     fba:	2f 5f       	subi	r18, 0xFF	; 255
     fbc:	3f 4f       	sbci	r19, 0xFF	; 255
     fbe:	36 83       	std	Z+6, r19	; 0x06
     fc0:	25 83       	std	Z+5, r18	; 0x05
     fc2:	23 81       	ldd	r18, Z+3	; 0x03
     fc4:	34 81       	ldd	r19, Z+4	; 0x04
     fc6:	28 17       	cp	r18, r24
     fc8:	39 07       	cpc	r19, r25
     fca:	48 f4       	brcc	.+18     	; 0xfde <DrvLedIsrCallbackTimer+0x78>
     fcc:	6f 01       	movw	r12, r30
     fce:	81 e0       	ldi	r24, 0x01	; 1
     fd0:	81 83       	std	Z+1, r24	; 0x01
     fd2:	80 81       	ld	r24, Z
     fd4:	60 e0       	ldi	r22, 0x00	; 0
     fd6:	36 df       	rcall	.-404    	; 0xe44 <DrvIoSetPinState>
     fd8:	f6 01       	movw	r30, r12
     fda:	16 82       	std	Z+6, r1	; 0x06
     fdc:	15 82       	std	Z+5, r1	; 0x05
     fde:	1e 9d       	mul	r17, r14
     fe0:	f0 01       	movw	r30, r0
     fe2:	1f 9d       	mul	r17, r15
     fe4:	f0 0d       	add	r31, r0
     fe6:	11 24       	eor	r1, r1
     fe8:	e8 5c       	subi	r30, 0xC8	; 200
     fea:	f2 4f       	sbci	r31, 0xF2	; 242
     fec:	81 81       	ldd	r24, Z+1	; 0x01
     fee:	81 30       	cpi	r24, 0x01	; 1
     ff0:	d9 f4       	brne	.+54     	; 0x1028 <DrvLedIsrCallbackTimer+0xc2>
     ff2:	1e 9d       	mul	r17, r14
     ff4:	f0 01       	movw	r30, r0
     ff6:	1f 9d       	mul	r17, r15
     ff8:	f0 0d       	add	r31, r0
     ffa:	11 24       	eor	r1, r1
     ffc:	e8 5c       	subi	r30, 0xC8	; 200
     ffe:	f2 4f       	sbci	r31, 0xF2	; 242
    1000:	87 81       	ldd	r24, Z+7	; 0x07
    1002:	90 85       	ldd	r25, Z+8	; 0x08
    1004:	9c 01       	movw	r18, r24
    1006:	2f 5f       	subi	r18, 0xFF	; 255
    1008:	3f 4f       	sbci	r19, 0xFF	; 255
    100a:	30 87       	std	Z+8, r19	; 0x08
    100c:	27 83       	std	Z+7, r18	; 0x07
    100e:	21 85       	ldd	r18, Z+9	; 0x09
    1010:	32 85       	ldd	r19, Z+10	; 0x0a
    1012:	28 17       	cp	r18, r24
    1014:	39 07       	cpc	r19, r25
    1016:	40 f4       	brcc	.+16     	; 0x1028 <DrvLedIsrCallbackTimer+0xc2>
    1018:	7f 01       	movw	r14, r30
    101a:	11 82       	std	Z+1, r1	; 0x01
    101c:	80 81       	ld	r24, Z
    101e:	61 e0       	ldi	r22, 0x01	; 1
    1020:	11 df       	rcall	.-478    	; 0xe44 <DrvIoSetPinState>
    1022:	f7 01       	movw	r30, r14
    1024:	10 86       	std	Z+8, r1	; 0x08
    1026:	17 82       	std	Z+7, r1	; 0x07
    1028:	21 96       	adiw	r28, 0x01	; 1
    102a:	c4 30       	cpi	r28, 0x04	; 4
    102c:	d1 05       	cpc	r29, r1
    102e:	09 f0       	breq	.+2      	; 0x1032 <DrvLedIsrCallbackTimer+0xcc>
    1030:	a4 cf       	rjmp	.-184    	; 0xf7a <DrvLedIsrCallbackTimer+0x14>
    1032:	df 91       	pop	r29
    1034:	cf 91       	pop	r28
    1036:	1f 91       	pop	r17
    1038:	ff 90       	pop	r15
    103a:	ef 90       	pop	r14
    103c:	df 90       	pop	r13
    103e:	cf 90       	pop	r12
    1040:	08 95       	ret

00001042 <DrvLedInit>:
    1042:	23 eb       	ldi	r18, 0xB3	; 179
    1044:	37 e0       	ldi	r19, 0x07	; 7
    1046:	41 e0       	ldi	r20, 0x01	; 1
    1048:	61 e0       	ldi	r22, 0x01	; 1
    104a:	70 e0       	ldi	r23, 0x00	; 0
    104c:	81 e0       	ldi	r24, 0x01	; 1
    104e:	0e 94 dc 10 	call	0x21b8	; 0x21b8 <DrvTimerAddTimer>
    1052:	81 e0       	ldi	r24, 0x01	; 1
    1054:	08 95       	ret

00001056 <DrvLedSetPinLed>:
    1056:	84 30       	cpi	r24, 0x04	; 4
    1058:	e0 f4       	brcc	.+56     	; 0x1092 <DrvLedSetPinLed+0x3c>
    105a:	90 e0       	ldi	r25, 0x00	; 0
    105c:	fc 01       	movw	r30, r24
    105e:	eb 54       	subi	r30, 0x4B	; 75
    1060:	fe 4f       	sbci	r31, 0xFE	; 254
    1062:	20 81       	ld	r18, Z
    1064:	3b e0       	ldi	r19, 0x0B	; 11
    1066:	38 9f       	mul	r19, r24
    1068:	f0 01       	movw	r30, r0
    106a:	39 9f       	mul	r19, r25
    106c:	f0 0d       	add	r31, r0
    106e:	11 24       	eor	r1, r1
    1070:	e8 5c       	subi	r30, 0xC8	; 200
    1072:	f2 4f       	sbci	r31, 0xF2	; 242
    1074:	20 83       	st	Z, r18
    1076:	81 e0       	ldi	r24, 0x01	; 1
    1078:	81 83       	std	Z+1, r24	; 0x01
    107a:	12 82       	std	Z+2, r1	; 0x02
    107c:	14 82       	std	Z+4, r1	; 0x04
    107e:	13 82       	std	Z+3, r1	; 0x03
    1080:	16 82       	std	Z+6, r1	; 0x06
    1082:	15 82       	std	Z+5, r1	; 0x05
    1084:	10 86       	std	Z+8, r1	; 0x08
    1086:	17 82       	std	Z+7, r1	; 0x07
    1088:	12 86       	std	Z+10, r1	; 0x0a
    108a:	11 86       	std	Z+9, r1	; 0x09
    108c:	80 81       	ld	r24, Z
    108e:	8d ce       	rjmp	.-742    	; 0xdaa <DrvIoSetPinOutput>
    1090:	08 95       	ret
    1092:	80 e0       	ldi	r24, 0x00	; 0
    1094:	08 95       	ret

00001096 <DrvLedSetToggle>:
//Fonction de modification d'etat de la led en TOGGLE
Boolean DrvLedSetToggle ( Int8U idLed )
{
	Boolean oSuccess = FALSE;
	
	if( idLed < E_NB_LEDS )
    1096:	84 30       	cpi	r24, 0x04	; 4
    1098:	88 f5       	brcc	.+98     	; 0x10fc <DrvLedSetToggle+0x66>
	{
		MesLeds[ idLed ].mode = E_LED_ON_OFF;
    109a:	28 2f       	mov	r18, r24
    109c:	30 e0       	ldi	r19, 0x00	; 0
    109e:	9b e0       	ldi	r25, 0x0B	; 11
    10a0:	89 9f       	mul	r24, r25
    10a2:	f0 01       	movw	r30, r0
    10a4:	11 24       	eor	r1, r1
    10a6:	e8 5c       	subi	r30, 0xC8	; 200
    10a8:	f2 4f       	sbci	r31, 0xF2	; 242
    10aa:	12 82       	std	Z+2, r1	; 0x02
		if( MesLeds[ idLed ].state == E_LED_STATE_ON )
    10ac:	81 81       	ldd	r24, Z+1	; 0x01
    10ae:	81 11       	cpse	r24, r1
    10b0:	0e c0       	rjmp	.+28     	; 0x10ce <DrvLedSetToggle+0x38>
		{
			MesLeds[ idLed ].state = E_LED_STATE_OFF;
    10b2:	8b e0       	ldi	r24, 0x0B	; 11
    10b4:	82 9f       	mul	r24, r18
    10b6:	f0 01       	movw	r30, r0
    10b8:	83 9f       	mul	r24, r19
    10ba:	f0 0d       	add	r31, r0
    10bc:	11 24       	eor	r1, r1
    10be:	e8 5c       	subi	r30, 0xC8	; 200
    10c0:	f2 4f       	sbci	r31, 0xF2	; 242
    10c2:	81 e0       	ldi	r24, 0x01	; 1
    10c4:	81 83       	std	Z+1, r24	; 0x01
			DrvIoSetPinState(MesLeds[ idLed ].pin,TRUE);
    10c6:	80 81       	ld	r24, Z
    10c8:	61 e0       	ldi	r22, 0x01	; 1
    10ca:	bc de       	rcall	.-648    	; 0xe44 <DrvIoSetPinState>
    10cc:	17 c0       	rjmp	.+46     	; 0x10fc <DrvLedSetToggle+0x66>
		}
		else if( MesLeds[ idLed ].state == E_LED_STATE_OFF )
    10ce:	8b e0       	ldi	r24, 0x0B	; 11
    10d0:	82 9f       	mul	r24, r18
    10d2:	f0 01       	movw	r30, r0
    10d4:	83 9f       	mul	r24, r19
    10d6:	f0 0d       	add	r31, r0
    10d8:	11 24       	eor	r1, r1
    10da:	e8 5c       	subi	r30, 0xC8	; 200
    10dc:	f2 4f       	sbci	r31, 0xF2	; 242
    10de:	81 81       	ldd	r24, Z+1	; 0x01
    10e0:	81 30       	cpi	r24, 0x01	; 1
    10e2:	61 f4       	brne	.+24     	; 0x10fc <DrvLedSetToggle+0x66>
		{
			MesLeds[ idLed ].state = E_LED_STATE_ON;
    10e4:	8b e0       	ldi	r24, 0x0B	; 11
    10e6:	82 9f       	mul	r24, r18
    10e8:	f0 01       	movw	r30, r0
    10ea:	83 9f       	mul	r24, r19
    10ec:	f0 0d       	add	r31, r0
    10ee:	11 24       	eor	r1, r1
    10f0:	e8 5c       	subi	r30, 0xC8	; 200
    10f2:	f2 4f       	sbci	r31, 0xF2	; 242
    10f4:	11 82       	std	Z+1, r1	; 0x01
			DrvIoSetPinState(MesLeds[ idLed ].pin,FALSE);
    10f6:	80 81       	ld	r24, Z
    10f8:	60 e0       	ldi	r22, 0x00	; 0
    10fa:	a4 de       	rcall	.-696    	; 0xe44 <DrvIoSetPinState>
		}
	}
	return oSuccess;
}
    10fc:	80 e0       	ldi	r24, 0x00	; 0
    10fe:	08 95       	ret

00001100 <DrvLedSetState>:
//Fonction de modification d'etat de la led
Boolean DrvLedSetState ( Int8U idLed, ELedState state )
{
	Boolean oSuccess = FALSE;
	
	if( idLed < E_NB_LEDS )
    1100:	84 30       	cpi	r24, 0x04	; 4
    1102:	28 f5       	brcc	.+74     	; 0x114e <DrvLedSetState+0x4e>
	{
		MesLeds[ idLed ].mode = E_LED_ON_OFF;
    1104:	28 2f       	mov	r18, r24
    1106:	30 e0       	ldi	r19, 0x00	; 0
    1108:	9b e0       	ldi	r25, 0x0B	; 11
    110a:	89 9f       	mul	r24, r25
    110c:	f0 01       	movw	r30, r0
    110e:	11 24       	eor	r1, r1
    1110:	e8 5c       	subi	r30, 0xC8	; 200
    1112:	f2 4f       	sbci	r31, 0xF2	; 242
    1114:	12 82       	std	Z+2, r1	; 0x02
		if( state == E_LED_STATE_ON )
    1116:	61 11       	cpse	r22, r1
    1118:	0c c0       	rjmp	.+24     	; 0x1132 <DrvLedSetState+0x32>
		{
			MesLeds[ idLed ].state = E_LED_STATE_ON;
    111a:	8b e0       	ldi	r24, 0x0B	; 11
    111c:	82 9f       	mul	r24, r18
    111e:	f0 01       	movw	r30, r0
    1120:	83 9f       	mul	r24, r19
    1122:	f0 0d       	add	r31, r0
    1124:	11 24       	eor	r1, r1
    1126:	e8 5c       	subi	r30, 0xC8	; 200
    1128:	f2 4f       	sbci	r31, 0xF2	; 242
    112a:	11 82       	std	Z+1, r1	; 0x01
			DrvIoSetPinState(MesLeds[ idLed ].pin,FALSE);
    112c:	80 81       	ld	r24, Z
    112e:	8a de       	rcall	.-748    	; 0xe44 <DrvIoSetPinState>
    1130:	0e c0       	rjmp	.+28     	; 0x114e <DrvLedSetState+0x4e>
		}
		else if( state == E_LED_STATE_OFF )
    1132:	61 30       	cpi	r22, 0x01	; 1
    1134:	61 f4       	brne	.+24     	; 0x114e <DrvLedSetState+0x4e>
		{
			MesLeds[ idLed ].state = E_LED_STATE_OFF;
    1136:	8b e0       	ldi	r24, 0x0B	; 11
    1138:	82 9f       	mul	r24, r18
    113a:	f0 01       	movw	r30, r0
    113c:	83 9f       	mul	r24, r19
    113e:	f0 0d       	add	r31, r0
    1140:	11 24       	eor	r1, r1
    1142:	e8 5c       	subi	r30, 0xC8	; 200
    1144:	f2 4f       	sbci	r31, 0xF2	; 242
    1146:	81 e0       	ldi	r24, 0x01	; 1
    1148:	81 83       	std	Z+1, r24	; 0x01
			DrvIoSetPinState(MesLeds[ idLed ].pin,TRUE);
    114a:	80 81       	ld	r24, Z
    114c:	7b de       	rcall	.-778    	; 0xe44 <DrvIoSetPinState>
		}
	}
	return oSuccess;
}
    114e:	80 e0       	ldi	r24, 0x00	; 0
    1150:	08 95       	ret

00001152 <DrvLegInit>:
 static volatile float L, L1;
 static volatile float alpha, alpha1,alpha2,beta,gama;

// Init of Drv PWM
Boolean DrvLegInit( void )
{
    1152:	6f 92       	push	r6
    1154:	7f 92       	push	r7
    1156:	8f 92       	push	r8
    1158:	9f 92       	push	r9
    115a:	af 92       	push	r10
    115c:	bf 92       	push	r11
    115e:	cf 92       	push	r12
    1160:	df 92       	push	r13
    1162:	ef 92       	push	r14
    1164:	ff 92       	push	r15
    1166:	0f 93       	push	r16
    1168:	1f 93       	push	r17
    116a:	cf 93       	push	r28
    116c:	df 93       	push	r29
	DrvServoInit();
    116e:	56 d5       	rcall	.+2732   	; 0x1c1c <DrvServoInit>
    1170:	0d e4       	ldi	r16, 0x4D	; 77
    1172:	15 e0       	ldi	r17, 0x05	; 5
    1174:	c0 e0       	ldi	r28, 0x00	; 0
	//init each servos of each leg
	for(Int8U i = 0U ; i < NB_LEGS ; i++ )
    1176:	d0 e0       	ldi	r29, 0x00	; 0
	{
		legs[i].id					= i ;
    1178:	f8 01       	movw	r30, r16
    117a:	d0 83       	st	Z, r29
		
		legs[i].coxaAngle				= DrvServoGetStruture(i * 3) ;
    117c:	8c 2f       	mov	r24, r28
    117e:	54 d7       	rcall	.+3752   	; 0x2028 <DrvServoGetStruture>
    1180:	f8 01       	movw	r30, r16
    1182:	92 83       	std	Z+2, r25	; 0x02
    1184:	81 83       	std	Z+1, r24	; 0x01
		legs[i].coxaAngle->id			= (i * 3);
    1186:	fc 01       	movw	r30, r24
    1188:	c0 83       	st	Z, r28
    118a:	ff 24       	eor	r15, r15
    118c:	f3 94       	inc	r15
		legs[i].femurAngle				= DrvServoGetStruture((i * 3) + 1) ;
    118e:	fc 0e       	add	r15, r28
    1190:	8f 2d       	mov	r24, r15
    1192:	4a d7       	rcall	.+3732   	; 0x2028 <DrvServoGetStruture>
    1194:	f8 01       	movw	r30, r16
    1196:	94 83       	std	Z+4, r25	; 0x04
    1198:	83 83       	std	Z+3, r24	; 0x03
		legs[i].femurAngle->id			= (i * 3) + 1 ;
    119a:	fc 01       	movw	r30, r24
    119c:	f0 82       	st	Z, r15
    119e:	68 94       	set
    11a0:	ff 24       	eor	r15, r15
    11a2:	f1 f8       	bld	r15, 1
		legs[i].tibiaAngle				= DrvServoGetStruture((i * 3) + 2) ;
    11a4:	fc 0e       	add	r15, r28
    11a6:	8f 2d       	mov	r24, r15
    11a8:	3f d7       	rcall	.+3710   	; 0x2028 <DrvServoGetStruture>
    11aa:	f8 01       	movw	r30, r16
    11ac:	96 83       	std	Z+6, r25	; 0x06
    11ae:	85 83       	std	Z+5, r24	; 0x05
		legs[i].tibiaAngle->id			= (i * 3) + 2 ;
    11b0:	fc 01       	movw	r30, r24
    11b2:	f0 82       	st	Z, r15
// Init of Drv PWM
Boolean DrvLegInit( void )
{
	DrvServoInit();
	//init each servos of each leg
	for(Int8U i = 0U ; i < NB_LEGS ; i++ )
    11b4:	df 5f       	subi	r29, 0xFF	; 255
    11b6:	09 5f       	subi	r16, 0xF9	; 249
    11b8:	1f 4f       	sbci	r17, 0xFF	; 255
    11ba:	cd 5f       	subi	r28, 0xFD	; 253
    11bc:	d6 30       	cpi	r29, 0x06	; 6
    11be:	e1 f6       	brne	.-72     	; 0x1178 <DrvLegInit+0x26>
 * 
 * \return Boolean if success
 */
static Boolean DrvLegSetOffset ( void ) 
{		
	legs[ E_LEG_U_L ].coxaAngle->currentPosition		= LEG_COXA_U_L_MID ;
    11c0:	ed e4       	ldi	r30, 0x4D	; 77
    11c2:	f5 e0       	ldi	r31, 0x05	; 5
    11c4:	a1 81       	ldd	r26, Z+1	; 0x01
    11c6:	b2 81       	ldd	r27, Z+2	; 0x02
    11c8:	2b ef       	ldi	r18, 0xFB	; 251
    11ca:	3f ef       	ldi	r19, 0xFF	; 255
    11cc:	12 96       	adiw	r26, 0x02	; 2
    11ce:	3c 93       	st	X, r19
    11d0:	2e 93       	st	-X, r18
    11d2:	11 97       	sbiw	r26, 0x01	; 1
	legs[ E_LEG_U_L ].coxaAngle->targetPosition		= LEG_COXA_U_L_MID ;
    11d4:	a1 81       	ldd	r26, Z+1	; 0x01
    11d6:	b2 81       	ldd	r27, Z+2	; 0x02
    11d8:	16 96       	adiw	r26, 0x06	; 6
    11da:	3c 93       	st	X, r19
    11dc:	2e 93       	st	-X, r18
    11de:	15 97       	sbiw	r26, 0x05	; 5
	legs[ E_LEG_U_L ].coxaAngle->mid			= LEG_COXA_U_L_MID ;
    11e0:	52 96       	adiw	r26, 0x12	; 18
    11e2:	3c 93       	st	X, r19
    11e4:	2e 93       	st	-X, r18
    11e6:	51 97       	sbiw	r26, 0x11	; 17
	legs[ E_LEG_U_L ].coxaAngle->min			= LEG_COXA_U_L_MIN ;
    11e8:	0d ed       	ldi	r16, 0xDD	; 221
    11ea:	1f ef       	ldi	r17, 0xFF	; 255
    11ec:	50 96       	adiw	r26, 0x10	; 16
    11ee:	1c 93       	st	X, r17
    11f0:	0e 93       	st	-X, r16
    11f2:	1f 97       	sbiw	r26, 0x0f	; 15
	legs[ E_LEG_U_L ].coxaAngle->max			= LEG_COXA_U_L_MAX ;
    11f4:	0f 2e       	mov	r0, r31
    11f6:	f9 e1       	ldi	r31, 0x19	; 25
    11f8:	af 2e       	mov	r10, r31
    11fa:	b1 2c       	mov	r11, r1
    11fc:	f0 2d       	mov	r31, r0
    11fe:	54 96       	adiw	r26, 0x14	; 20
    1200:	bc 92       	st	X, r11
    1202:	ae 92       	st	-X, r10
    1204:	53 97       	sbiw	r26, 0x13	; 19
	legs[ E_LEG_U_L ].femurAngle->currentPosition			= LEG_FEMUR_U_L_MAX ;
    1206:	c3 81       	ldd	r28, Z+3	; 0x03
    1208:	d4 81       	ldd	r29, Z+4	; 0x04
    120a:	a0 e5       	ldi	r26, 0x50	; 80
    120c:	b0 e0       	ldi	r27, 0x00	; 0
    120e:	ba 83       	std	Y+2, r27	; 0x02
    1210:	a9 83       	std	Y+1, r26	; 0x01
	legs[ E_LEG_U_L ].femurAngle->targetPosition		= LEG_FEMUR_U_L_MAX ;
    1212:	c3 81       	ldd	r28, Z+3	; 0x03
    1214:	d4 81       	ldd	r29, Z+4	; 0x04
    1216:	be 83       	std	Y+6, r27	; 0x06
    1218:	ad 83       	std	Y+5, r26	; 0x05
	legs[ E_LEG_U_L ].femurAngle->mid			= LEG_FEMUR_U_L_MID ;
    121a:	1a 8a       	std	Y+18, r1	; 0x12
    121c:	19 8a       	std	Y+17, r1	; 0x11
	legs[ E_LEG_U_L ].femurAngle->min			= LEG_FEMUR_U_L_MIN ;
    121e:	80 eb       	ldi	r24, 0xB0	; 176
    1220:	9f ef       	ldi	r25, 0xFF	; 255
    1222:	98 8b       	std	Y+16, r25	; 0x10
    1224:	8f 87       	std	Y+15, r24	; 0x0f
	legs[ E_LEG_U_L ].femurAngle->max			= LEG_FEMUR_U_L_MAX ;
    1226:	bc 8b       	std	Y+20, r27	; 0x14
    1228:	ab 8b       	std	Y+19, r26	; 0x13
	legs[ E_LEG_U_L ].tibiaAngle->currentPosition		= LEG_TIBIA_U_L_MAX ;
    122a:	c5 81       	ldd	r28, Z+5	; 0x05
    122c:	d6 81       	ldd	r29, Z+6	; 0x06
    122e:	8c e3       	ldi	r24, 0x3C	; 60
    1230:	90 e0       	ldi	r25, 0x00	; 0
    1232:	9a 83       	std	Y+2, r25	; 0x02
    1234:	89 83       	std	Y+1, r24	; 0x01
	legs[ E_LEG_U_L ].tibiaAngle->targetPosition		= LEG_TIBIA_U_L_MAX ;
    1236:	c5 81       	ldd	r28, Z+5	; 0x05
    1238:	d6 81       	ldd	r29, Z+6	; 0x06
    123a:	9e 83       	std	Y+6, r25	; 0x06
    123c:	8d 83       	std	Y+5, r24	; 0x05
	legs[ E_LEG_U_L ].tibiaAngle->mid			= LEG_TIBIA_U_L_MID ;
    123e:	c5 81       	ldd	r28, Z+5	; 0x05
    1240:	d6 81       	ldd	r29, Z+6	; 0x06
    1242:	1a 8a       	std	Y+18, r1	; 0x12
    1244:	19 8a       	std	Y+17, r1	; 0x11
	legs[ E_LEG_U_L ].tibiaAngle->min			= LEG_TIBIA_U_L_MIN ;
    1246:	44 ec       	ldi	r20, 0xC4	; 196
    1248:	5f ef       	ldi	r21, 0xFF	; 255
    124a:	58 8b       	std	Y+16, r21	; 0x10
    124c:	4f 87       	std	Y+15, r20	; 0x0f
	legs[ E_LEG_U_L ].tibiaAngle->max			= LEG_TIBIA_U_L_MAX ;
    124e:	9c 8b       	std	Y+20, r25	; 0x14
    1250:	8b 8b       	std	Y+19, r24	; 0x13
		
	legs[ E_LEG_M_L ].coxaAngle->currentPosition		= LEG_COXA_M_L_MID ;
    1252:	c0 85       	ldd	r28, Z+8	; 0x08
    1254:	d1 85       	ldd	r29, Z+9	; 0x09
    1256:	66 ef       	ldi	r22, 0xF6	; 246
    1258:	7f ef       	ldi	r23, 0xFF	; 255
    125a:	7a 83       	std	Y+2, r23	; 0x02
    125c:	69 83       	std	Y+1, r22	; 0x01
	legs[ E_LEG_M_L ].coxaAngle->targetPosition		= LEG_COXA_M_L_MID ;
    125e:	c0 85       	ldd	r28, Z+8	; 0x08
    1260:	d1 85       	ldd	r29, Z+9	; 0x09
    1262:	7e 83       	std	Y+6, r23	; 0x06
    1264:	6d 83       	std	Y+5, r22	; 0x05
	legs[ E_LEG_M_L ].coxaAngle->mid			= LEG_COXA_M_L_MID ;
    1266:	c0 85       	ldd	r28, Z+8	; 0x08
    1268:	d1 85       	ldd	r29, Z+9	; 0x09
    126a:	7a 8b       	std	Y+18, r23	; 0x12
    126c:	69 8b       	std	Y+17, r22	; 0x11
	legs[ E_LEG_M_L ].coxaAngle->min			= LEG_COXA_M_L_MIN ;
    126e:	68 ed       	ldi	r22, 0xD8	; 216
    1270:	7f ef       	ldi	r23, 0xFF	; 255
    1272:	78 8b       	std	Y+16, r23	; 0x10
    1274:	6f 87       	std	Y+15, r22	; 0x0f
	legs[ E_LEG_M_L ].coxaAngle->max			= LEG_COXA_M_L_MAX ;
    1276:	0f 2e       	mov	r0, r31
    1278:	f4 e1       	ldi	r31, 0x14	; 20
    127a:	ef 2e       	mov	r14, r31
    127c:	f1 2c       	mov	r15, r1
    127e:	f0 2d       	mov	r31, r0
    1280:	fc 8a       	std	Y+20, r15	; 0x14
    1282:	eb 8a       	std	Y+19, r14	; 0x13
	legs[ E_LEG_M_L ].femurAngle->currentPosition		= LEG_FEMUR_M_L_MAX ;
    1284:	c2 85       	ldd	r28, Z+10	; 0x0a
    1286:	d3 85       	ldd	r29, Z+11	; 0x0b
    1288:	63 e5       	ldi	r22, 0x53	; 83
    128a:	70 e0       	ldi	r23, 0x00	; 0
    128c:	7a 83       	std	Y+2, r23	; 0x02
    128e:	69 83       	std	Y+1, r22	; 0x01
	legs[ E_LEG_M_L ].femurAngle->targetPosition		= LEG_FEMUR_M_L_MAX ;
    1290:	c2 85       	ldd	r28, Z+10	; 0x0a
    1292:	d3 85       	ldd	r29, Z+11	; 0x0b
    1294:	7e 83       	std	Y+6, r23	; 0x06
    1296:	6d 83       	std	Y+5, r22	; 0x05
	legs[ E_LEG_M_L ].femurAngle->mid			= LEG_FEMUR_M_L_MID ;
    1298:	c2 85       	ldd	r28, Z+10	; 0x0a
    129a:	d3 85       	ldd	r29, Z+11	; 0x0b
    129c:	0f 2e       	mov	r0, r31
    129e:	f3 e0       	ldi	r31, 0x03	; 3
    12a0:	cf 2e       	mov	r12, r31
    12a2:	d1 2c       	mov	r13, r1
    12a4:	f0 2d       	mov	r31, r0
    12a6:	da 8a       	std	Y+18, r13	; 0x12
    12a8:	c9 8a       	std	Y+17, r12	; 0x11
	legs[ E_LEG_M_L ].femurAngle->min			= LEG_FEMUR_M_L_MIN ;
    12aa:	0f 2e       	mov	r0, r31
    12ac:	f3 eb       	ldi	r31, 0xB3	; 179
    12ae:	cf 2e       	mov	r12, r31
    12b0:	dd 24       	eor	r13, r13
    12b2:	da 94       	dec	r13
    12b4:	f0 2d       	mov	r31, r0
    12b6:	d8 8a       	std	Y+16, r13	; 0x10
    12b8:	cf 86       	std	Y+15, r12	; 0x0f
	legs[ E_LEG_M_L ].femurAngle->max			= LEG_FEMUR_M_L_MAX ;
    12ba:	7c 8b       	std	Y+20, r23	; 0x14
    12bc:	6b 8b       	std	Y+19, r22	; 0x13
	legs[ E_LEG_M_L ].tibiaAngle->currentPosition		= LEG_TIBIA_M_L_MAX ;
    12be:	c4 85       	ldd	r28, Z+12	; 0x0c
    12c0:	d5 85       	ldd	r29, Z+13	; 0x0d
    12c2:	9a 83       	std	Y+2, r25	; 0x02
    12c4:	89 83       	std	Y+1, r24	; 0x01
	legs[ E_LEG_M_L ].tibiaAngle->targetPosition		= LEG_TIBIA_M_L_MAX ;
    12c6:	c4 85       	ldd	r28, Z+12	; 0x0c
    12c8:	d5 85       	ldd	r29, Z+13	; 0x0d
    12ca:	9e 83       	std	Y+6, r25	; 0x06
    12cc:	8d 83       	std	Y+5, r24	; 0x05
	legs[ E_LEG_M_L ].tibiaAngle->mid			= LEG_TIBIA_M_L_MID ;
    12ce:	c4 85       	ldd	r28, Z+12	; 0x0c
    12d0:	d5 85       	ldd	r29, Z+13	; 0x0d
    12d2:	1a 8a       	std	Y+18, r1	; 0x12
    12d4:	19 8a       	std	Y+17, r1	; 0x11
	legs[ E_LEG_M_L ].tibiaAngle->min			= LEG_TIBIA_M_L_MIN ;
    12d6:	58 8b       	std	Y+16, r21	; 0x10
    12d8:	4f 87       	std	Y+15, r20	; 0x0f
	legs[ E_LEG_M_L ].tibiaAngle->max			= LEG_TIBIA_M_L_MAX ;
    12da:	9c 8b       	std	Y+20, r25	; 0x14
    12dc:	8b 8b       	std	Y+19, r24	; 0x13
		
	legs[ E_LEG_B_L ].coxaAngle->currentPosition		= LEG_COXA_B_L_MID ;
    12de:	c7 85       	ldd	r28, Z+15	; 0x0f
    12e0:	d0 89       	ldd	r29, Z+16	; 0x10
    12e2:	6a e0       	ldi	r22, 0x0A	; 10
    12e4:	70 e0       	ldi	r23, 0x00	; 0
    12e6:	7a 83       	std	Y+2, r23	; 0x02
    12e8:	69 83       	std	Y+1, r22	; 0x01
	legs[ E_LEG_B_L ].coxaAngle->targetPosition		= LEG_COXA_B_L_MID ;
    12ea:	c7 85       	ldd	r28, Z+15	; 0x0f
    12ec:	d0 89       	ldd	r29, Z+16	; 0x10
    12ee:	7e 83       	std	Y+6, r23	; 0x06
    12f0:	6d 83       	std	Y+5, r22	; 0x05
	legs[ E_LEG_B_L ].coxaAngle->mid			= LEG_COXA_B_L_MID ;
    12f2:	c7 85       	ldd	r28, Z+15	; 0x0f
    12f4:	d0 89       	ldd	r29, Z+16	; 0x10
    12f6:	7a 8b       	std	Y+18, r23	; 0x12
    12f8:	69 8b       	std	Y+17, r22	; 0x11
	legs[ E_LEG_B_L ].coxaAngle->min			= LEG_COXA_B_L_MIN ;
    12fa:	0f 2e       	mov	r0, r31
    12fc:	fc ee       	ldi	r31, 0xEC	; 236
    12fe:	cf 2e       	mov	r12, r31
    1300:	dd 24       	eor	r13, r13
    1302:	da 94       	dec	r13
    1304:	f0 2d       	mov	r31, r0
    1306:	d8 8a       	std	Y+16, r13	; 0x10
    1308:	cf 86       	std	Y+15, r12	; 0x0f
	legs[ E_LEG_B_L ].coxaAngle->max			= LEG_COXA_B_L_MAX ;
    130a:	c7 85       	ldd	r28, Z+15	; 0x0f
    130c:	d0 89       	ldd	r29, Z+16	; 0x10
    130e:	0f 2e       	mov	r0, r31
    1310:	f8 e2       	ldi	r31, 0x28	; 40
    1312:	cf 2e       	mov	r12, r31
    1314:	d1 2c       	mov	r13, r1
    1316:	f0 2d       	mov	r31, r0
    1318:	dc 8a       	std	Y+20, r13	; 0x14
    131a:	cb 8a       	std	Y+19, r12	; 0x13
	legs[ E_LEG_B_L ].femurAngle->currentPosition		= LEG_FEMUR_B_L_MAX ;
    131c:	c1 88       	ldd	r12, Z+17	; 0x11
    131e:	d2 88       	ldd	r13, Z+18	; 0x12
    1320:	0f 2e       	mov	r0, r31
    1322:	fb e4       	ldi	r31, 0x4B	; 75
    1324:	6f 2e       	mov	r6, r31
    1326:	71 2c       	mov	r7, r1
    1328:	f0 2d       	mov	r31, r0
    132a:	e6 01       	movw	r28, r12
    132c:	7a 82       	std	Y+2, r7	; 0x02
    132e:	69 82       	std	Y+1, r6	; 0x01
	legs[ E_LEG_B_L ].femurAngle->targetPosition		= LEG_FEMUR_B_L_MAX ;
    1330:	c1 88       	ldd	r12, Z+17	; 0x11
    1332:	d2 88       	ldd	r13, Z+18	; 0x12
    1334:	e6 01       	movw	r28, r12
    1336:	7e 82       	std	Y+6, r7	; 0x06
    1338:	6d 82       	std	Y+5, r6	; 0x05
	legs[ E_LEG_B_L ].femurAngle->mid			= LEG_FEMUR_B_L_MID ;
    133a:	c1 88       	ldd	r12, Z+17	; 0x11
    133c:	d2 88       	ldd	r13, Z+18	; 0x12
    133e:	e6 01       	movw	r28, r12
    1340:	3a 8b       	std	Y+18, r19	; 0x12
    1342:	29 8b       	std	Y+17, r18	; 0x11
	legs[ E_LEG_B_L ].femurAngle->min			= LEG_FEMUR_B_L_MIN ;
    1344:	c1 88       	ldd	r12, Z+17	; 0x11
    1346:	d2 88       	ldd	r13, Z+18	; 0x12
    1348:	0f 2e       	mov	r0, r31
    134a:	fb ea       	ldi	r31, 0xAB	; 171
    134c:	8f 2e       	mov	r8, r31
    134e:	99 24       	eor	r9, r9
    1350:	9a 94       	dec	r9
    1352:	f0 2d       	mov	r31, r0
    1354:	e6 01       	movw	r28, r12
    1356:	98 8a       	std	Y+16, r9	; 0x10
    1358:	8f 86       	std	Y+15, r8	; 0x0f
	legs[ E_LEG_B_L ].femurAngle->max			= LEG_FEMUR_B_L_MAX ;
    135a:	c1 88       	ldd	r12, Z+17	; 0x11
    135c:	d2 88       	ldd	r13, Z+18	; 0x12
    135e:	e6 01       	movw	r28, r12
    1360:	7c 8a       	std	Y+20, r7	; 0x14
    1362:	6b 8a       	std	Y+19, r6	; 0x13
	legs[ E_LEG_B_L ].tibiaAngle->currentPosition		= LEG_TIBIA_B_L_MAX ;
    1364:	c3 88       	ldd	r12, Z+19	; 0x13
    1366:	d4 88       	ldd	r13, Z+20	; 0x14
    1368:	0f 2e       	mov	r0, r31
    136a:	fd e3       	ldi	r31, 0x3D	; 61
    136c:	6f 2e       	mov	r6, r31
    136e:	71 2c       	mov	r7, r1
    1370:	f0 2d       	mov	r31, r0
    1372:	e6 01       	movw	r28, r12
    1374:	7a 82       	std	Y+2, r7	; 0x02
    1376:	69 82       	std	Y+1, r6	; 0x01
	legs[ E_LEG_B_L ].tibiaAngle->targetPosition		= LEG_TIBIA_B_L_MAX ;
    1378:	c3 88       	ldd	r12, Z+19	; 0x13
    137a:	d4 88       	ldd	r13, Z+20	; 0x14
    137c:	e6 01       	movw	r28, r12
    137e:	7e 82       	std	Y+6, r7	; 0x06
    1380:	6d 82       	std	Y+5, r6	; 0x05
	legs[ E_LEG_B_L ].tibiaAngle->mid			= LEG_TIBIA_B_L_MID ;
    1382:	c3 88       	ldd	r12, Z+19	; 0x13
    1384:	d4 88       	ldd	r13, Z+20	; 0x14
    1386:	88 24       	eor	r8, r8
    1388:	83 94       	inc	r8
    138a:	91 2c       	mov	r9, r1
    138c:	e6 01       	movw	r28, r12
    138e:	9a 8a       	std	Y+18, r9	; 0x12
    1390:	89 8a       	std	Y+17, r8	; 0x11
	legs[ E_LEG_B_L ].tibiaAngle->min			= LEG_TIBIA_B_L_MIN ;
    1392:	c3 88       	ldd	r12, Z+19	; 0x13
    1394:	d4 88       	ldd	r13, Z+20	; 0x14
    1396:	0f 2e       	mov	r0, r31
    1398:	f5 ec       	ldi	r31, 0xC5	; 197
    139a:	8f 2e       	mov	r8, r31
    139c:	99 24       	eor	r9, r9
    139e:	9a 94       	dec	r9
    13a0:	f0 2d       	mov	r31, r0
    13a2:	e6 01       	movw	r28, r12
    13a4:	98 8a       	std	Y+16, r9	; 0x10
    13a6:	8f 86       	std	Y+15, r8	; 0x0f
	legs[ E_LEG_B_L ].tibiaAngle->max			= LEG_TIBIA_B_L_MAX ;
    13a8:	c3 88       	ldd	r12, Z+19	; 0x13
    13aa:	d4 88       	ldd	r13, Z+20	; 0x14
    13ac:	e6 01       	movw	r28, r12
    13ae:	7c 8a       	std	Y+20, r7	; 0x14
    13b0:	6b 8a       	std	Y+19, r6	; 0x13
		
	legs[ E_LEG_U_R ].coxaAngle->currentPosition		= LEG_COXA_U_R_MID ;
    13b2:	c6 88       	ldd	r12, Z+22	; 0x16
    13b4:	d7 88       	ldd	r13, Z+23	; 0x17
    13b6:	0f 2e       	mov	r0, r31
    13b8:	f2 e3       	ldi	r31, 0x32	; 50
    13ba:	8f 2e       	mov	r8, r31
    13bc:	91 2c       	mov	r9, r1
    13be:	f0 2d       	mov	r31, r0
    13c0:	e6 01       	movw	r28, r12
    13c2:	9a 82       	std	Y+2, r9	; 0x02
    13c4:	89 82       	std	Y+1, r8	; 0x01
	legs[ E_LEG_U_R ].coxaAngle->targetPosition		= LEG_COXA_U_R_MID ;
    13c6:	c6 88       	ldd	r12, Z+22	; 0x16
    13c8:	d7 88       	ldd	r13, Z+23	; 0x17
    13ca:	e6 01       	movw	r28, r12
    13cc:	9e 82       	std	Y+6, r9	; 0x06
    13ce:	8d 82       	std	Y+5, r8	; 0x05
	legs[ E_LEG_U_R ].coxaAngle->mid			= LEG_COXA_U_R_MID ;
    13d0:	c6 88       	ldd	r12, Z+22	; 0x16
    13d2:	d7 88       	ldd	r13, Z+23	; 0x17
    13d4:	e6 01       	movw	r28, r12
    13d6:	9a 8a       	std	Y+18, r9	; 0x12
    13d8:	89 8a       	std	Y+17, r8	; 0x11
	legs[ E_LEG_U_R ].coxaAngle->min			= LEG_COXA_U_R_MIN ;
    13da:	c6 89       	ldd	r28, Z+22	; 0x16
    13dc:	d7 89       	ldd	r29, Z+23	; 0x17
    13de:	f8 8a       	std	Y+16, r15	; 0x10
    13e0:	ef 86       	std	Y+15, r14	; 0x0f
	legs[ E_LEG_U_R ].coxaAngle->max			= LEG_COXA_U_R_MAX ;
    13e2:	c6 89       	ldd	r28, Z+22	; 0x16
    13e4:	d7 89       	ldd	r29, Z+23	; 0x17
    13e6:	bc 8b       	std	Y+20, r27	; 0x14
    13e8:	ab 8b       	std	Y+19, r26	; 0x13
	legs[ E_LEG_U_R ].femurAngle->currentPosition			= LEG_FEMUR_U_R_MIN ;
    13ea:	c0 8d       	ldd	r28, Z+24	; 0x18
    13ec:	d1 8d       	ldd	r29, Z+25	; 0x19
    13ee:	af ea       	ldi	r26, 0xAF	; 175
    13f0:	bf ef       	ldi	r27, 0xFF	; 255
    13f2:	ba 83       	std	Y+2, r27	; 0x02
    13f4:	a9 83       	std	Y+1, r26	; 0x01
	legs[ E_LEG_U_R ].femurAngle->targetPosition		= LEG_FEMUR_U_R_MIN ;
    13f6:	c0 8d       	ldd	r28, Z+24	; 0x18
    13f8:	d1 8d       	ldd	r29, Z+25	; 0x19
    13fa:	be 83       	std	Y+6, r27	; 0x06
    13fc:	ad 83       	std	Y+5, r26	; 0x05
	legs[ E_LEG_U_R ].femurAngle->mid			= LEG_FEMUR_U_R_MID ;
    13fe:	c0 8d       	ldd	r28, Z+24	; 0x18
    1400:	d1 8d       	ldd	r29, Z+25	; 0x19
    1402:	ee 24       	eor	r14, r14
    1404:	ea 94       	dec	r14
    1406:	fe 2c       	mov	r15, r14
    1408:	fa 8a       	std	Y+18, r15	; 0x12
    140a:	e9 8a       	std	Y+17, r14	; 0x11
	legs[ E_LEG_U_R ].femurAngle->min			= LEG_FEMUR_U_R_MIN ;
    140c:	c0 8d       	ldd	r28, Z+24	; 0x18
    140e:	d1 8d       	ldd	r29, Z+25	; 0x19
    1410:	b8 8b       	std	Y+16, r27	; 0x10
    1412:	af 87       	std	Y+15, r26	; 0x0f
	legs[ E_LEG_U_R ].femurAngle->max			= LEG_FEMUR_U_R_MAX ;
    1414:	a0 8d       	ldd	r26, Z+24	; 0x18
    1416:	b1 8d       	ldd	r27, Z+25	; 0x19
    1418:	cf e4       	ldi	r28, 0x4F	; 79
    141a:	d0 e0       	ldi	r29, 0x00	; 0
    141c:	54 96       	adiw	r26, 0x14	; 20
    141e:	dc 93       	st	X, r29
    1420:	ce 93       	st	-X, r28
    1422:	53 97       	sbiw	r26, 0x13	; 19
	legs[ E_LEG_U_R ].tibiaAngle->currentPosition		= LEG_TIBIA_U_R_MIN ;
    1424:	c2 8d       	ldd	r28, Z+26	; 0x1a
    1426:	d3 8d       	ldd	r29, Z+27	; 0x1b
    1428:	ae ec       	ldi	r26, 0xCE	; 206
    142a:	bf ef       	ldi	r27, 0xFF	; 255
    142c:	ba 83       	std	Y+2, r27	; 0x02
    142e:	a9 83       	std	Y+1, r26	; 0x01
	legs[ E_LEG_U_R ].tibiaAngle->targetPosition		= LEG_TIBIA_U_R_MIN ;
    1430:	c2 8d       	ldd	r28, Z+26	; 0x1a
    1432:	d3 8d       	ldd	r29, Z+27	; 0x1b
    1434:	be 83       	std	Y+6, r27	; 0x06
    1436:	ad 83       	std	Y+5, r26	; 0x05
	legs[ E_LEG_U_R ].tibiaAngle->mid			= LEG_TIBIA_U_R_MID ;
    1438:	c2 8d       	ldd	r28, Z+26	; 0x1a
    143a:	d3 8d       	ldd	r29, Z+27	; 0x1b
    143c:	7a 8b       	std	Y+18, r23	; 0x12
    143e:	69 8b       	std	Y+17, r22	; 0x11
	legs[ E_LEG_U_R ].tibiaAngle->min			= LEG_TIBIA_U_R_MIN ;
    1440:	c2 8d       	ldd	r28, Z+26	; 0x1a
    1442:	d3 8d       	ldd	r29, Z+27	; 0x1b
    1444:	b8 8b       	std	Y+16, r27	; 0x10
    1446:	af 87       	std	Y+15, r26	; 0x0f
	legs[ E_LEG_U_R ].tibiaAngle->max			= LEG_TIBIA_U_R_MAX ;
    1448:	a2 8d       	ldd	r26, Z+26	; 0x1a
    144a:	b3 8d       	ldd	r27, Z+27	; 0x1b
    144c:	66 e4       	ldi	r22, 0x46	; 70
    144e:	70 e0       	ldi	r23, 0x00	; 0
    1450:	54 96       	adiw	r26, 0x14	; 20
    1452:	7c 93       	st	X, r23
    1454:	6e 93       	st	-X, r22
    1456:	53 97       	sbiw	r26, 0x13	; 19
				  
	legs[ E_LEG_M_R ].coxaAngle->currentPosition		= LEG_COXA_M_R_MID ;
    1458:	a5 8d       	ldd	r26, Z+29	; 0x1d
    145a:	b6 8d       	ldd	r27, Z+30	; 0x1e
    145c:	67 e2       	ldi	r22, 0x27	; 39
    145e:	70 e0       	ldi	r23, 0x00	; 0
    1460:	12 96       	adiw	r26, 0x02	; 2
    1462:	7c 93       	st	X, r23
    1464:	6e 93       	st	-X, r22
    1466:	11 97       	sbiw	r26, 0x01	; 1
	legs[ E_LEG_M_R ].coxaAngle->targetPosition		= LEG_COXA_M_R_MID ;
    1468:	a5 8d       	ldd	r26, Z+29	; 0x1d
    146a:	b6 8d       	ldd	r27, Z+30	; 0x1e
    146c:	16 96       	adiw	r26, 0x06	; 6
    146e:	7c 93       	st	X, r23
    1470:	6e 93       	st	-X, r22
    1472:	15 97       	sbiw	r26, 0x05	; 5
	legs[ E_LEG_M_R ].coxaAngle->mid			= LEG_COXA_M_R_MID ;
    1474:	a5 8d       	ldd	r26, Z+29	; 0x1d
    1476:	b6 8d       	ldd	r27, Z+30	; 0x1e
    1478:	52 96       	adiw	r26, 0x12	; 18
    147a:	7c 93       	st	X, r23
    147c:	6e 93       	st	-X, r22
    147e:	51 97       	sbiw	r26, 0x11	; 17
	legs[ E_LEG_M_R ].coxaAngle->min			= LEG_COXA_M_R_MIN ;
    1480:	a5 8d       	ldd	r26, Z+29	; 0x1d
    1482:	b6 8d       	ldd	r27, Z+30	; 0x1e
    1484:	69 e0       	ldi	r22, 0x09	; 9
    1486:	70 e0       	ldi	r23, 0x00	; 0
    1488:	50 96       	adiw	r26, 0x10	; 16
    148a:	7c 93       	st	X, r23
    148c:	6e 93       	st	-X, r22
    148e:	1f 97       	sbiw	r26, 0x0f	; 15
	legs[ E_LEG_M_R ].coxaAngle->max			= LEG_COXA_M_R_MAX ;
    1490:	a5 8d       	ldd	r26, Z+29	; 0x1d
    1492:	b6 8d       	ldd	r27, Z+30	; 0x1e
    1494:	65 e4       	ldi	r22, 0x45	; 69
    1496:	70 e0       	ldi	r23, 0x00	; 0
    1498:	54 96       	adiw	r26, 0x14	; 20
    149a:	7c 93       	st	X, r23
    149c:	6e 93       	st	-X, r22
    149e:	53 97       	sbiw	r26, 0x13	; 19
	legs[ E_LEG_M_R ].femurAngle->currentPosition		= LEG_FEMUR_M_R_MIN ;
    14a0:	a7 8d       	ldd	r26, Z+31	; 0x1f
    14a2:	b0 a1       	ldd	r27, Z+32	; 0x20
    14a4:	6c eb       	ldi	r22, 0xBC	; 188
    14a6:	7f ef       	ldi	r23, 0xFF	; 255
    14a8:	12 96       	adiw	r26, 0x02	; 2
    14aa:	7c 93       	st	X, r23
    14ac:	6e 93       	st	-X, r22
    14ae:	11 97       	sbiw	r26, 0x01	; 1
	legs[ E_LEG_M_R ].femurAngle->targetPosition		= LEG_FEMUR_M_R_MIN ;
    14b0:	a7 8d       	ldd	r26, Z+31	; 0x1f
    14b2:	b0 a1       	ldd	r27, Z+32	; 0x20
    14b4:	16 96       	adiw	r26, 0x06	; 6
    14b6:	7c 93       	st	X, r23
    14b8:	6e 93       	st	-X, r22
    14ba:	15 97       	sbiw	r26, 0x05	; 5
	legs[ E_LEG_M_R ].femurAngle->mid			= LEG_FEMUR_M_R_MID ;
    14bc:	a7 8d       	ldd	r26, Z+31	; 0x1f
    14be:	b0 a1       	ldd	r27, Z+32	; 0x20
    14c0:	cc e0       	ldi	r28, 0x0C	; 12
    14c2:	d0 e0       	ldi	r29, 0x00	; 0
    14c4:	52 96       	adiw	r26, 0x12	; 18
    14c6:	dc 93       	st	X, r29
    14c8:	ce 93       	st	-X, r28
    14ca:	51 97       	sbiw	r26, 0x11	; 17
	legs[ E_LEG_M_R ].femurAngle->min			= LEG_FEMUR_M_R_MIN ;
    14cc:	a7 8d       	ldd	r26, Z+31	; 0x1f
    14ce:	b0 a1       	ldd	r27, Z+32	; 0x20
    14d0:	50 96       	adiw	r26, 0x10	; 16
    14d2:	7c 93       	st	X, r23
    14d4:	6e 93       	st	-X, r22
    14d6:	1f 97       	sbiw	r26, 0x0f	; 15
	legs[ E_LEG_M_R ].femurAngle->max			= LEG_FEMUR_M_R_MAX ;
    14d8:	a7 8d       	ldd	r26, Z+31	; 0x1f
    14da:	b0 a1       	ldd	r27, Z+32	; 0x20
    14dc:	6c e5       	ldi	r22, 0x5C	; 92
    14de:	70 e0       	ldi	r23, 0x00	; 0
    14e0:	54 96       	adiw	r26, 0x14	; 20
    14e2:	7c 93       	st	X, r23
    14e4:	6e 93       	st	-X, r22
    14e6:	53 97       	sbiw	r26, 0x13	; 19
	legs[ E_LEG_M_R ].tibiaAngle->currentPosition		= LEG_TIBIA_M_R_MIN ;
    14e8:	a1 a1       	ldd	r26, Z+33	; 0x21
    14ea:	b2 a1       	ldd	r27, Z+34	; 0x22
    14ec:	68 ec       	ldi	r22, 0xC8	; 200
    14ee:	7f ef       	ldi	r23, 0xFF	; 255
    14f0:	12 96       	adiw	r26, 0x02	; 2
    14f2:	7c 93       	st	X, r23
    14f4:	6e 93       	st	-X, r22
    14f6:	11 97       	sbiw	r26, 0x01	; 1
	legs[ E_LEG_M_R ].tibiaAngle->targetPosition		= LEG_TIBIA_M_R_MIN ;
    14f8:	a1 a1       	ldd	r26, Z+33	; 0x21
    14fa:	b2 a1       	ldd	r27, Z+34	; 0x22
    14fc:	16 96       	adiw	r26, 0x06	; 6
    14fe:	7c 93       	st	X, r23
    1500:	6e 93       	st	-X, r22
    1502:	15 97       	sbiw	r26, 0x05	; 5
	legs[ E_LEG_M_R ].tibiaAngle->mid			= LEG_TIBIA_M_R_MID ;
    1504:	a1 a1       	ldd	r26, Z+33	; 0x21
    1506:	b2 a1       	ldd	r27, Z+34	; 0x22
    1508:	c4 e0       	ldi	r28, 0x04	; 4
    150a:	d0 e0       	ldi	r29, 0x00	; 0
    150c:	52 96       	adiw	r26, 0x12	; 18
    150e:	dc 93       	st	X, r29
    1510:	ce 93       	st	-X, r28
    1512:	51 97       	sbiw	r26, 0x11	; 17
	legs[ E_LEG_M_R ].tibiaAngle->min			= LEG_TIBIA_M_R_MIN ;
    1514:	a1 a1       	ldd	r26, Z+33	; 0x21
    1516:	b2 a1       	ldd	r27, Z+34	; 0x22
    1518:	50 96       	adiw	r26, 0x10	; 16
    151a:	7c 93       	st	X, r23
    151c:	6e 93       	st	-X, r22
    151e:	1f 97       	sbiw	r26, 0x0f	; 15
	legs[ E_LEG_M_R ].tibiaAngle->max			= LEG_TIBIA_M_R_MAX ;
    1520:	a1 a1       	ldd	r26, Z+33	; 0x21
    1522:	b2 a1       	ldd	r27, Z+34	; 0x22
    1524:	60 e4       	ldi	r22, 0x40	; 64
    1526:	70 e0       	ldi	r23, 0x00	; 0
    1528:	54 96       	adiw	r26, 0x14	; 20
    152a:	7c 93       	st	X, r23
    152c:	6e 93       	st	-X, r22
    152e:	53 97       	sbiw	r26, 0x13	; 19
				  
	legs[ E_LEG_B_R ].coxaAngle->currentPosition		= LEG_COXA_B_R_MID ;
    1530:	a4 a1       	ldd	r26, Z+36	; 0x24
    1532:	b5 a1       	ldd	r27, Z+37	; 0x25
    1534:	12 96       	adiw	r26, 0x02	; 2
    1536:	3c 93       	st	X, r19
    1538:	2e 93       	st	-X, r18
    153a:	11 97       	sbiw	r26, 0x01	; 1
	legs[ E_LEG_B_R ].coxaAngle->targetPosition		= LEG_COXA_B_R_MID ;
    153c:	a4 a1       	ldd	r26, Z+36	; 0x24
    153e:	b5 a1       	ldd	r27, Z+37	; 0x25
    1540:	16 96       	adiw	r26, 0x06	; 6
    1542:	3c 93       	st	X, r19
    1544:	2e 93       	st	-X, r18
    1546:	15 97       	sbiw	r26, 0x05	; 5
	legs[ E_LEG_B_R ].coxaAngle->mid			= LEG_COXA_B_R_MID ;
    1548:	a4 a1       	ldd	r26, Z+36	; 0x24
    154a:	b5 a1       	ldd	r27, Z+37	; 0x25
    154c:	52 96       	adiw	r26, 0x12	; 18
    154e:	3c 93       	st	X, r19
    1550:	2e 93       	st	-X, r18
    1552:	51 97       	sbiw	r26, 0x11	; 17
	legs[ E_LEG_B_R ].coxaAngle->min			= LEG_COXA_B_R_MIN ;
    1554:	a4 a1       	ldd	r26, Z+36	; 0x24
    1556:	b5 a1       	ldd	r27, Z+37	; 0x25
    1558:	50 96       	adiw	r26, 0x10	; 16
    155a:	1c 93       	st	X, r17
    155c:	0e 93       	st	-X, r16
    155e:	1f 97       	sbiw	r26, 0x0f	; 15
	legs[ E_LEG_B_R ].coxaAngle->max			= LEG_COXA_B_R_MAX ;
    1560:	a4 a1       	ldd	r26, Z+36	; 0x24
    1562:	b5 a1       	ldd	r27, Z+37	; 0x25
    1564:	54 96       	adiw	r26, 0x14	; 20
    1566:	bc 92       	st	X, r11
    1568:	ae 92       	st	-X, r10
    156a:	53 97       	sbiw	r26, 0x13	; 19
	legs[ E_LEG_B_R ].femurAngle->currentPosition		= LEG_FEMUR_B_R_MIN ;
    156c:	a6 a1       	ldd	r26, Z+38	; 0x26
    156e:	b7 a1       	ldd	r27, Z+39	; 0x27
    1570:	22 eb       	ldi	r18, 0xB2	; 178
    1572:	3f ef       	ldi	r19, 0xFF	; 255
    1574:	12 96       	adiw	r26, 0x02	; 2
    1576:	3c 93       	st	X, r19
    1578:	2e 93       	st	-X, r18
    157a:	11 97       	sbiw	r26, 0x01	; 1
	legs[ E_LEG_B_R ].femurAngle->targetPosition		= LEG_FEMUR_B_R_MIN ;
    157c:	a6 a1       	ldd	r26, Z+38	; 0x26
    157e:	b7 a1       	ldd	r27, Z+39	; 0x27
    1580:	16 96       	adiw	r26, 0x06	; 6
    1582:	3c 93       	st	X, r19
    1584:	2e 93       	st	-X, r18
    1586:	15 97       	sbiw	r26, 0x05	; 5
	legs[ E_LEG_B_R ].femurAngle->mid			= LEG_FEMUR_B_R_MID ;
    1588:	a6 a1       	ldd	r26, Z+38	; 0x26
    158a:	b7 a1       	ldd	r27, Z+39	; 0x27
    158c:	62 e0       	ldi	r22, 0x02	; 2
    158e:	70 e0       	ldi	r23, 0x00	; 0
    1590:	52 96       	adiw	r26, 0x12	; 18
    1592:	7c 93       	st	X, r23
    1594:	6e 93       	st	-X, r22
    1596:	51 97       	sbiw	r26, 0x11	; 17
	legs[ E_LEG_B_R ].femurAngle->min			= LEG_FEMUR_B_R_MIN ;
    1598:	a6 a1       	ldd	r26, Z+38	; 0x26
    159a:	b7 a1       	ldd	r27, Z+39	; 0x27
    159c:	50 96       	adiw	r26, 0x10	; 16
    159e:	3c 93       	st	X, r19
    15a0:	2e 93       	st	-X, r18
    15a2:	1f 97       	sbiw	r26, 0x0f	; 15
	legs[ E_LEG_B_R ].femurAngle->max			= LEG_FEMUR_B_R_MAX ;
    15a4:	a6 a1       	ldd	r26, Z+38	; 0x26
    15a6:	b7 a1       	ldd	r27, Z+39	; 0x27
    15a8:	22 e5       	ldi	r18, 0x52	; 82
    15aa:	30 e0       	ldi	r19, 0x00	; 0
    15ac:	54 96       	adiw	r26, 0x14	; 20
    15ae:	3c 93       	st	X, r19
    15b0:	2e 93       	st	-X, r18
    15b2:	53 97       	sbiw	r26, 0x13	; 19
	legs[ E_LEG_B_R ].tibiaAngle->currentPosition		= LEG_TIBIA_B_R_MIN ;
    15b4:	a0 a5       	ldd	r26, Z+40	; 0x28
    15b6:	b1 a5       	ldd	r27, Z+41	; 0x29
    15b8:	12 96       	adiw	r26, 0x02	; 2
    15ba:	5c 93       	st	X, r21
    15bc:	4e 93       	st	-X, r20
    15be:	11 97       	sbiw	r26, 0x01	; 1
	legs[ E_LEG_B_R ].tibiaAngle->targetPosition		= LEG_TIBIA_B_R_MIN ;
    15c0:	a0 a5       	ldd	r26, Z+40	; 0x28
    15c2:	b1 a5       	ldd	r27, Z+41	; 0x29
    15c4:	16 96       	adiw	r26, 0x06	; 6
    15c6:	5c 93       	st	X, r21
    15c8:	4e 93       	st	-X, r20
    15ca:	15 97       	sbiw	r26, 0x05	; 5
	legs[ E_LEG_B_R ].tibiaAngle->mid			= LEG_TIBIA_B_R_MID ;
    15cc:	a0 a5       	ldd	r26, Z+40	; 0x28
    15ce:	b1 a5       	ldd	r27, Z+41	; 0x29
    15d0:	52 96       	adiw	r26, 0x12	; 18
    15d2:	1c 92       	st	X, r1
    15d4:	1e 92       	st	-X, r1
    15d6:	51 97       	sbiw	r26, 0x11	; 17
	legs[ E_LEG_B_R ].tibiaAngle->min			= LEG_TIBIA_B_R_MIN ;
    15d8:	a0 a5       	ldd	r26, Z+40	; 0x28
    15da:	b1 a5       	ldd	r27, Z+41	; 0x29
    15dc:	50 96       	adiw	r26, 0x10	; 16
    15de:	5c 93       	st	X, r21
    15e0:	4e 93       	st	-X, r20
    15e2:	1f 97       	sbiw	r26, 0x0f	; 15
	legs[ E_LEG_B_R ].tibiaAngle->max			= LEG_TIBIA_B_R_MAX ;
    15e4:	00 a4       	ldd	r0, Z+40	; 0x28
    15e6:	f1 a5       	ldd	r31, Z+41	; 0x29
    15e8:	e0 2d       	mov	r30, r0
    15ea:	94 8b       	std	Z+20, r25	; 0x14
    15ec:	83 8b       	std	Z+19, r24	; 0x13
		legs[i].tibiaAngle				= DrvServoGetStruture((i * 3) + 2) ;
		legs[i].tibiaAngle->id			= (i * 3) + 2 ;
	}
	//offset and limits
	DrvLegSetOffset();	
	update = 0;
    15ee:	10 92 4c 05 	sts	0x054C, r1	; 0x80054c <update>
	
	return TRUE;
}
    15f2:	81 e0       	ldi	r24, 0x01	; 1
    15f4:	df 91       	pop	r29
    15f6:	cf 91       	pop	r28
    15f8:	1f 91       	pop	r17
    15fa:	0f 91       	pop	r16
    15fc:	ff 90       	pop	r15
    15fe:	ef 90       	pop	r14
    1600:	df 90       	pop	r13
    1602:	cf 90       	pop	r12
    1604:	bf 90       	pop	r11
    1606:	af 90       	pop	r10
    1608:	9f 90       	pop	r9
    160a:	8f 90       	pop	r8
    160c:	7f 90       	pop	r7
    160e:	6f 90       	pop	r6
    1610:	08 95       	ret

00001612 <DrvLegGetLeg>:

S_Leg* DrvLegGetLeg( E_LEG indexLeg )
{
	return &legs[ indexLeg ];
    1612:	27 e0       	ldi	r18, 0x07	; 7
    1614:	82 9f       	mul	r24, r18
    1616:	c0 01       	movw	r24, r0
    1618:	11 24       	eor	r1, r1
}
    161a:	83 5b       	subi	r24, 0xB3	; 179
    161c:	9a 4f       	sbci	r25, 0xFA	; 250
    161e:	08 95       	ret

00001620 <DrvLegCheckTarget>:

Boolean DrvLegCheckTarget( E_LEG indexLeg )
{
    1620:	cf 93       	push	r28
	Int8U indexEpaule = 0U + (indexLeg * 3U);
    1622:	c8 2f       	mov	r28, r24
    1624:	cc 0f       	add	r28, r28
    1626:	c8 0f       	add	r28, r24
	Int8U indexCoude  = 1U + (indexLeg * 3U);
	Int8U indexPoigne = 2U + (indexLeg * 3U);
	if( 
		DrvServoCheckPosition(indexEpaule) &&
    1628:	8c 2f       	mov	r24, r28
    162a:	74 d3       	rcall	.+1768   	; 0x1d14 <DrvServoCheckPosition>
    162c:	98 2f       	mov	r25, r24
Boolean DrvLegCheckTarget( E_LEG indexLeg )
{
	Int8U indexEpaule = 0U + (indexLeg * 3U);
	Int8U indexCoude  = 1U + (indexLeg * 3U);
	Int8U indexPoigne = 2U + (indexLeg * 3U);
	if( 
    162e:	88 23       	and	r24, r24
    1630:	69 f0       	breq	.+26     	; 0x164c <DrvLegCheckTarget+0x2c>
		DrvServoCheckPosition(indexEpaule) &&
		DrvServoCheckPosition(indexCoude) &&
    1632:	81 e0       	ldi	r24, 0x01	; 1
    1634:	8c 0f       	add	r24, r28
    1636:	6e d3       	rcall	.+1756   	; 0x1d14 <DrvServoCheckPosition>
    1638:	98 2f       	mov	r25, r24
{
	Int8U indexEpaule = 0U + (indexLeg * 3U);
	Int8U indexCoude  = 1U + (indexLeg * 3U);
	Int8U indexPoigne = 2U + (indexLeg * 3U);
	if( 
		DrvServoCheckPosition(indexEpaule) &&
    163a:	88 23       	and	r24, r24
    163c:	39 f0       	breq	.+14     	; 0x164c <DrvLegCheckTarget+0x2c>
		DrvServoCheckPosition(indexCoude) &&
		DrvServoCheckPosition(indexPoigne) 
    163e:	82 e0       	ldi	r24, 0x02	; 2
    1640:	8c 0f       	add	r24, r28
    1642:	68 d3       	rcall	.+1744   	; 0x1d14 <DrvServoCheckPosition>
		)
		{
			return TRUE;
    1644:	91 e0       	ldi	r25, 0x01	; 1
    1646:	81 11       	cpse	r24, r1
    1648:	01 c0       	rjmp	.+2      	; 0x164c <DrvLegCheckTarget+0x2c>
    164a:	90 e0       	ldi	r25, 0x00	; 0
		}
	return FALSE;
}
    164c:	89 2f       	mov	r24, r25
    164e:	cf 91       	pop	r28
    1650:	08 95       	ret

00001652 <DrvLegSetXYZ>:

Boolean DrvLegSetXYZ( E_LEG indexLeg, Int16S x, Int16S y, Int16S z, Int16U speed )
{	
    1652:	2f 92       	push	r2
    1654:	3f 92       	push	r3
    1656:	4f 92       	push	r4
    1658:	5f 92       	push	r5
    165a:	6f 92       	push	r6
    165c:	7f 92       	push	r7
    165e:	8f 92       	push	r8
    1660:	9f 92       	push	r9
    1662:	af 92       	push	r10
    1664:	bf 92       	push	r11
    1666:	cf 92       	push	r12
    1668:	df 92       	push	r13
    166a:	ef 92       	push	r14
    166c:	ff 92       	push	r15
    166e:	0f 93       	push	r16
    1670:	1f 93       	push	r17
    1672:	cf 93       	push	r28
    1674:	df 93       	push	r29
    1676:	cd b7       	in	r28, 0x3d	; 61
    1678:	de b7       	in	r29, 0x3e	; 62
    167a:	28 97       	sbiw	r28, 0x08	; 8
    167c:	0f b6       	in	r0, 0x3f	; 63
    167e:	f8 94       	cli
    1680:	de bf       	out	0x3e, r29	; 62
    1682:	0f be       	out	0x3f, r0	; 63
    1684:	cd bf       	out	0x3d, r28	; 61
	//http://te.unib.ac.id/lecturer/indraagustian/2014/05/3dof-inverse-kinematic-for-armleg-of-robot-use-arduino/
	if(indexLeg < E_NB_LEGS)
    1686:	86 30       	cpi	r24, 0x06	; 6
    1688:	08 f0       	brcs	.+2      	; 0x168c <DrvLegSetXYZ+0x3a>
    168a:	7c c2       	rjmp	.+1272   	; 0x1b84 <DrvLegSetXYZ+0x532>
    168c:	6b 01       	movw	r12, r22
    168e:	28 2e       	mov	r2, r24
	{
		//index of servos
		Int8U indexHanche = 0U + (indexLeg * 3U);
    1690:	38 2e       	mov	r3, r24
    1692:	33 0c       	add	r3, r3
    1694:	38 0e       	add	r3, r24
		Int8U indexGenoux  = 1U + (indexLeg * 3U);
    1696:	81 e0       	ldi	r24, 0x01	; 1
    1698:	83 0d       	add	r24, r3
    169a:	89 83       	std	Y+1, r24	; 0x01
		Int8U indexCheville = 2U + (indexLeg * 3U);
    169c:	92 e0       	ldi	r25, 0x02	; 2
    169e:	93 0d       	add	r25, r3
    16a0:	9a 83       	std	Y+2, r25	; 0x02
	
		//add size of members
		y += (LEG_COCYX_LENGHT + LEG_FEMUR_LENGHT );
    16a2:	7a 01       	movw	r14, r20
    16a4:	e9 e6       	ldi	r30, 0x69	; 105
    16a6:	ee 0e       	add	r14, r30
    16a8:	f1 1c       	adc	r15, r1
		z += LEG_TIBIA_LENGHT;
    16aa:	c9 01       	movw	r24, r18
    16ac:	83 58       	subi	r24, 0x83	; 131
    16ae:	9f 4f       	sbci	r25, 0xFF	; 255
    16b0:	98 87       	std	Y+8, r25	; 0x08
    16b2:	8f 83       	std	Y+7, r24	; 0x07
		
		//compute angles from distances
		L1 = (float)sqrt((x * x) + (y * y));
    16b4:	66 9f       	mul	r22, r22
    16b6:	40 01       	movw	r8, r0
    16b8:	67 9f       	mul	r22, r23
    16ba:	90 0c       	add	r9, r0
    16bc:	90 0c       	add	r9, r0
    16be:	11 24       	eor	r1, r1
    16c0:	ee 9c       	mul	r14, r14
    16c2:	c0 01       	movw	r24, r0
    16c4:	ef 9c       	mul	r14, r15
    16c6:	90 0d       	add	r25, r0
    16c8:	90 0d       	add	r25, r0
    16ca:	11 24       	eor	r1, r1
    16cc:	88 0e       	add	r8, r24
    16ce:	99 1e       	adc	r9, r25
    16d0:	09 2c       	mov	r0, r9
    16d2:	00 0c       	add	r0, r0
    16d4:	aa 08       	sbc	r10, r10
    16d6:	bb 08       	sbc	r11, r11
    16d8:	c5 01       	movw	r24, r10
    16da:	b4 01       	movw	r22, r8
    16dc:	0e 94 d0 20 	call	0x41a0	; 0x41a0 <__floatsisf>
    16e0:	0e 94 e4 22 	call	0x45c8	; 0x45c8 <sqrt>
    16e4:	60 93 40 05 	sts	0x0540, r22	; 0x800540 <L1>
    16e8:	70 93 41 05 	sts	0x0541, r23	; 0x800541 <L1+0x1>
    16ec:	80 93 42 05 	sts	0x0542, r24	; 0x800542 <L1+0x2>
    16f0:	90 93 43 05 	sts	0x0543, r25	; 0x800543 <L1+0x3>
		gama = (float)atan((float)x / (float)y);
    16f4:	b6 01       	movw	r22, r12
    16f6:	dd 0c       	add	r13, r13
    16f8:	88 0b       	sbc	r24, r24
    16fa:	99 0b       	sbc	r25, r25
    16fc:	0e 94 d0 20 	call	0x41a0	; 0x41a0 <__floatsisf>
    1700:	4b 01       	movw	r8, r22
    1702:	5c 01       	movw	r10, r24
    1704:	b7 01       	movw	r22, r14
    1706:	ff 0c       	add	r15, r15
    1708:	88 0b       	sbc	r24, r24
    170a:	99 0b       	sbc	r25, r25
    170c:	0e 94 d0 20 	call	0x41a0	; 0x41a0 <__floatsisf>
    1710:	9b 01       	movw	r18, r22
    1712:	ac 01       	movw	r20, r24
    1714:	c5 01       	movw	r24, r10
    1716:	b4 01       	movw	r22, r8
    1718:	0e 94 35 20 	call	0x406a	; 0x406a <__divsf3>
    171c:	0e 94 06 20 	call	0x400c	; 0x400c <atan>
    1720:	60 93 2c 05 	sts	0x052C, r22	; 0x80052c <gama>
    1724:	70 93 2d 05 	sts	0x052D, r23	; 0x80052d <gama+0x1>
    1728:	80 93 2e 05 	sts	0x052E, r24	; 0x80052e <gama+0x2>
    172c:	90 93 2f 05 	sts	0x052F, r25	; 0x80052f <gama+0x3>
		L = (float)sqrt(((L1 - LEG_COCYX_LENGHT) * (L1 - LEG_COCYX_LENGHT)) + (z * z));
    1730:	80 90 40 05 	lds	r8, 0x0540	; 0x800540 <L1>
    1734:	90 90 41 05 	lds	r9, 0x0541	; 0x800541 <L1+0x1>
    1738:	a0 90 42 05 	lds	r10, 0x0542	; 0x800542 <L1+0x2>
    173c:	b0 90 43 05 	lds	r11, 0x0543	; 0x800543 <L1+0x3>
    1740:	c0 90 40 05 	lds	r12, 0x0540	; 0x800540 <L1>
    1744:	d0 90 41 05 	lds	r13, 0x0541	; 0x800541 <L1+0x1>
    1748:	e0 90 42 05 	lds	r14, 0x0542	; 0x800542 <L1+0x2>
    174c:	f0 90 43 05 	lds	r15, 0x0543	; 0x800543 <L1+0x3>
    1750:	20 e0       	ldi	r18, 0x00	; 0
    1752:	30 e0       	ldi	r19, 0x00	; 0
    1754:	40 ef       	ldi	r20, 0xF0	; 240
    1756:	51 e4       	ldi	r21, 0x41	; 65
    1758:	c5 01       	movw	r24, r10
    175a:	b4 01       	movw	r22, r8
    175c:	0e 94 a1 1f 	call	0x3f42	; 0x3f42 <__subsf3>
    1760:	2b 01       	movw	r4, r22
    1762:	3c 01       	movw	r6, r24
    1764:	20 e0       	ldi	r18, 0x00	; 0
    1766:	30 e0       	ldi	r19, 0x00	; 0
    1768:	40 ef       	ldi	r20, 0xF0	; 240
    176a:	51 e4       	ldi	r21, 0x41	; 65
    176c:	c7 01       	movw	r24, r14
    176e:	b6 01       	movw	r22, r12
    1770:	0e 94 a1 1f 	call	0x3f42	; 0x3f42 <__subsf3>
    1774:	9b 01       	movw	r18, r22
    1776:	ac 01       	movw	r20, r24
    1778:	c3 01       	movw	r24, r6
    177a:	b2 01       	movw	r22, r4
    177c:	0e 94 57 22 	call	0x44ae	; 0x44ae <__mulsf3>
    1780:	6b 83       	std	Y+3, r22	; 0x03
    1782:	7c 83       	std	Y+4, r23	; 0x04
    1784:	8d 83       	std	Y+5, r24	; 0x05
    1786:	9e 83       	std	Y+6, r25	; 0x06
    1788:	ef 81       	ldd	r30, Y+7	; 0x07
    178a:	f8 85       	ldd	r31, Y+8	; 0x08
    178c:	ee 9f       	mul	r30, r30
    178e:	c0 01       	movw	r24, r0
    1790:	ef 9f       	mul	r30, r31
    1792:	90 0d       	add	r25, r0
    1794:	90 0d       	add	r25, r0
    1796:	11 24       	eor	r1, r1
    1798:	2c 01       	movw	r4, r24
    179a:	99 0f       	add	r25, r25
    179c:	66 08       	sbc	r6, r6
    179e:	77 08       	sbc	r7, r7
    17a0:	20 e0       	ldi	r18, 0x00	; 0
    17a2:	30 e0       	ldi	r19, 0x00	; 0
    17a4:	40 ef       	ldi	r20, 0xF0	; 240
    17a6:	51 e4       	ldi	r21, 0x41	; 65
    17a8:	c5 01       	movw	r24, r10
    17aa:	b4 01       	movw	r22, r8
    17ac:	0e 94 a1 1f 	call	0x3f42	; 0x3f42 <__subsf3>
    17b0:	4b 01       	movw	r8, r22
    17b2:	5c 01       	movw	r10, r24
    17b4:	20 e0       	ldi	r18, 0x00	; 0
    17b6:	30 e0       	ldi	r19, 0x00	; 0
    17b8:	40 ef       	ldi	r20, 0xF0	; 240
    17ba:	51 e4       	ldi	r21, 0x41	; 65
    17bc:	c7 01       	movw	r24, r14
    17be:	b6 01       	movw	r22, r12
    17c0:	0e 94 a1 1f 	call	0x3f42	; 0x3f42 <__subsf3>
    17c4:	9b 01       	movw	r18, r22
    17c6:	ac 01       	movw	r20, r24
    17c8:	c5 01       	movw	r24, r10
    17ca:	b4 01       	movw	r22, r8
    17cc:	0e 94 57 22 	call	0x44ae	; 0x44ae <__mulsf3>
    17d0:	6b 01       	movw	r12, r22
    17d2:	7c 01       	movw	r14, r24
    17d4:	c3 01       	movw	r24, r6
    17d6:	b2 01       	movw	r22, r4
    17d8:	0e 94 d0 20 	call	0x41a0	; 0x41a0 <__floatsisf>
    17dc:	9b 01       	movw	r18, r22
    17de:	ac 01       	movw	r20, r24
    17e0:	c7 01       	movw	r24, r14
    17e2:	b6 01       	movw	r22, r12
    17e4:	0e 94 a2 1f 	call	0x3f44	; 0x3f44 <__addsf3>
    17e8:	0e 94 e4 22 	call	0x45c8	; 0x45c8 <sqrt>
    17ec:	60 93 44 05 	sts	0x0544, r22	; 0x800544 <L>
    17f0:	70 93 45 05 	sts	0x0545, r23	; 0x800545 <L+0x1>
    17f4:	80 93 46 05 	sts	0x0546, r24	; 0x800546 <L+0x2>
    17f8:	90 93 47 05 	sts	0x0547, r25	; 0x800547 <L+0x3>
		beta = (float)acos(((LEG_TIBIA_LENGHT * LEG_TIBIA_LENGHT) + (LEG_FEMUR_LENGHT * LEG_FEMUR_LENGHT) - (L * L)) / (2 * LEG_TIBIA_LENGHT * LEG_FEMUR_LENGHT));
    17fc:	60 91 44 05 	lds	r22, 0x0544	; 0x800544 <L>
    1800:	70 91 45 05 	lds	r23, 0x0545	; 0x800545 <L+0x1>
    1804:	80 91 46 05 	lds	r24, 0x0546	; 0x800546 <L+0x2>
    1808:	90 91 47 05 	lds	r25, 0x0547	; 0x800547 <L+0x3>
    180c:	20 91 44 05 	lds	r18, 0x0544	; 0x800544 <L>
    1810:	30 91 45 05 	lds	r19, 0x0545	; 0x800545 <L+0x1>
    1814:	40 91 46 05 	lds	r20, 0x0546	; 0x800546 <L+0x2>
    1818:	50 91 47 05 	lds	r21, 0x0547	; 0x800547 <L+0x3>
    181c:	0e 94 57 22 	call	0x44ae	; 0x44ae <__mulsf3>
    1820:	9b 01       	movw	r18, r22
    1822:	ac 01       	movw	r20, r24
    1824:	60 e0       	ldi	r22, 0x00	; 0
    1826:	74 e0       	ldi	r23, 0x04	; 4
    1828:	86 ea       	ldi	r24, 0xA6	; 166
    182a:	96 e4       	ldi	r25, 0x46	; 70
    182c:	0e 94 a1 1f 	call	0x3f42	; 0x3f42 <__subsf3>
    1830:	20 e0       	ldi	r18, 0x00	; 0
    1832:	3c e7       	ldi	r19, 0x7C	; 124
    1834:	42 e9       	ldi	r20, 0x92	; 146
    1836:	56 e4       	ldi	r21, 0x46	; 70
    1838:	0e 94 35 20 	call	0x406a	; 0x406a <__divsf3>
    183c:	0e 94 93 1f 	call	0x3f26	; 0x3f26 <acos>
    1840:	60 93 30 05 	sts	0x0530, r22	; 0x800530 <beta>
    1844:	70 93 31 05 	sts	0x0531, r23	; 0x800531 <beta+0x1>
    1848:	80 93 32 05 	sts	0x0532, r24	; 0x800532 <beta+0x2>
    184c:	90 93 33 05 	sts	0x0533, r25	; 0x800533 <beta+0x3>
		alpha1 = (float)acos(z / L);
    1850:	c0 90 44 05 	lds	r12, 0x0544	; 0x800544 <L>
    1854:	d0 90 45 05 	lds	r13, 0x0545	; 0x800545 <L+0x1>
    1858:	e0 90 46 05 	lds	r14, 0x0546	; 0x800546 <L+0x2>
    185c:	f0 90 47 05 	lds	r15, 0x0547	; 0x800547 <L+0x3>
    1860:	2f 81       	ldd	r18, Y+7	; 0x07
    1862:	38 85       	ldd	r19, Y+8	; 0x08
    1864:	b9 01       	movw	r22, r18
    1866:	33 0f       	add	r19, r19
    1868:	88 0b       	sbc	r24, r24
    186a:	99 0b       	sbc	r25, r25
    186c:	0e 94 d0 20 	call	0x41a0	; 0x41a0 <__floatsisf>
    1870:	a7 01       	movw	r20, r14
    1872:	96 01       	movw	r18, r12
    1874:	0e 94 35 20 	call	0x406a	; 0x406a <__divsf3>
    1878:	0e 94 93 1f 	call	0x3f26	; 0x3f26 <acos>
    187c:	60 93 38 05 	sts	0x0538, r22	; 0x800538 <alpha1>
    1880:	70 93 39 05 	sts	0x0539, r23	; 0x800539 <alpha1+0x1>
    1884:	80 93 3a 05 	sts	0x053A, r24	; 0x80053a <alpha1+0x2>
    1888:	90 93 3b 05 	sts	0x053B, r25	; 0x80053b <alpha1+0x3>
		alpha2 = (float)acos(((LEG_FEMUR_LENGHT * LEG_FEMUR_LENGHT) + (L * L) - (LEG_TIBIA_LENGHT * LEG_TIBIA_LENGHT)) / (2 * LEG_FEMUR_LENGHT * L));
    188c:	60 91 44 05 	lds	r22, 0x0544	; 0x800544 <L>
    1890:	70 91 45 05 	lds	r23, 0x0545	; 0x800545 <L+0x1>
    1894:	80 91 46 05 	lds	r24, 0x0546	; 0x800546 <L+0x2>
    1898:	90 91 47 05 	lds	r25, 0x0547	; 0x800547 <L+0x3>
    189c:	20 91 44 05 	lds	r18, 0x0544	; 0x800544 <L>
    18a0:	30 91 45 05 	lds	r19, 0x0545	; 0x800545 <L+0x1>
    18a4:	40 91 46 05 	lds	r20, 0x0546	; 0x800546 <L+0x2>
    18a8:	50 91 47 05 	lds	r21, 0x0547	; 0x800547 <L+0x3>
    18ac:	80 90 44 05 	lds	r8, 0x0544	; 0x800544 <L>
    18b0:	90 90 45 05 	lds	r9, 0x0545	; 0x800545 <L+0x1>
    18b4:	a0 90 46 05 	lds	r10, 0x0546	; 0x800546 <L+0x2>
    18b8:	b0 90 47 05 	lds	r11, 0x0547	; 0x800547 <L+0x3>
    18bc:	0e 94 57 22 	call	0x44ae	; 0x44ae <__mulsf3>
    18c0:	20 e0       	ldi	r18, 0x00	; 0
    18c2:	38 ec       	ldi	r19, 0xC8	; 200
    18c4:	4f ea       	ldi	r20, 0xAF	; 175
    18c6:	55 e4       	ldi	r21, 0x45	; 69
    18c8:	0e 94 a2 1f 	call	0x3f44	; 0x3f44 <__addsf3>
    18cc:	20 e0       	ldi	r18, 0x00	; 0
    18ce:	34 e2       	ldi	r19, 0x24	; 36
    18d0:	44 e7       	ldi	r20, 0x74	; 116
    18d2:	56 e4       	ldi	r21, 0x46	; 70
    18d4:	0e 94 a1 1f 	call	0x3f42	; 0x3f42 <__subsf3>
    18d8:	6b 01       	movw	r12, r22
    18da:	7c 01       	movw	r14, r24
    18dc:	20 e0       	ldi	r18, 0x00	; 0
    18de:	30 e0       	ldi	r19, 0x00	; 0
    18e0:	46 e1       	ldi	r20, 0x16	; 22
    18e2:	53 e4       	ldi	r21, 0x43	; 67
    18e4:	c5 01       	movw	r24, r10
    18e6:	b4 01       	movw	r22, r8
    18e8:	0e 94 57 22 	call	0x44ae	; 0x44ae <__mulsf3>
    18ec:	9b 01       	movw	r18, r22
    18ee:	ac 01       	movw	r20, r24
    18f0:	c7 01       	movw	r24, r14
    18f2:	b6 01       	movw	r22, r12
    18f4:	0e 94 35 20 	call	0x406a	; 0x406a <__divsf3>
    18f8:	0e 94 93 1f 	call	0x3f26	; 0x3f26 <acos>
    18fc:	60 93 34 05 	sts	0x0534, r22	; 0x800534 <alpha2>
    1900:	70 93 35 05 	sts	0x0535, r23	; 0x800535 <alpha2+0x1>
    1904:	80 93 36 05 	sts	0x0536, r24	; 0x800536 <alpha2+0x2>
    1908:	90 93 37 05 	sts	0x0537, r25	; 0x800537 <alpha2+0x3>
		alpha = alpha1 + alpha2;
    190c:	60 91 38 05 	lds	r22, 0x0538	; 0x800538 <alpha1>
    1910:	70 91 39 05 	lds	r23, 0x0539	; 0x800539 <alpha1+0x1>
    1914:	80 91 3a 05 	lds	r24, 0x053A	; 0x80053a <alpha1+0x2>
    1918:	90 91 3b 05 	lds	r25, 0x053B	; 0x80053b <alpha1+0x3>
    191c:	20 91 34 05 	lds	r18, 0x0534	; 0x800534 <alpha2>
    1920:	30 91 35 05 	lds	r19, 0x0535	; 0x800535 <alpha2+0x1>
    1924:	40 91 36 05 	lds	r20, 0x0536	; 0x800536 <alpha2+0x2>
    1928:	50 91 37 05 	lds	r21, 0x0537	; 0x800537 <alpha2+0x3>
    192c:	0e 94 a2 1f 	call	0x3f44	; 0x3f44 <__addsf3>
    1930:	60 93 3c 05 	sts	0x053C, r22	; 0x80053c <alpha>
    1934:	70 93 3d 05 	sts	0x053D, r23	; 0x80053d <alpha+0x1>
    1938:	80 93 3e 05 	sts	0x053E, r24	; 0x80053e <alpha+0x2>
    193c:	90 93 3f 05 	sts	0x053F, r25	; 0x80053f <alpha+0x3>
	
		// if left
		if(indexLeg < E_LEG_U_R)
    1940:	32 e0       	ldi	r19, 0x02	; 2
    1942:	32 15       	cp	r19, r2
    1944:	08 f4       	brcc	.+2      	; 0x1948 <DrvLegSetXYZ+0x2f6>
    1946:	64 c0       	rjmp	.+200    	; 0x1a10 <DrvLegSetXYZ+0x3be>
		{
			gama  = (gama * 180) / M_PI;
    1948:	60 91 2c 05 	lds	r22, 0x052C	; 0x80052c <gama>
    194c:	70 91 2d 05 	lds	r23, 0x052D	; 0x80052d <gama+0x1>
    1950:	80 91 2e 05 	lds	r24, 0x052E	; 0x80052e <gama+0x2>
    1954:	90 91 2f 05 	lds	r25, 0x052F	; 0x80052f <gama+0x3>
    1958:	20 e0       	ldi	r18, 0x00	; 0
    195a:	30 e0       	ldi	r19, 0x00	; 0
    195c:	44 e3       	ldi	r20, 0x34	; 52
    195e:	53 e4       	ldi	r21, 0x43	; 67
    1960:	0e 94 57 22 	call	0x44ae	; 0x44ae <__mulsf3>
    1964:	2b ed       	ldi	r18, 0xDB	; 219
    1966:	3f e0       	ldi	r19, 0x0F	; 15
    1968:	49 e4       	ldi	r20, 0x49	; 73
    196a:	50 e4       	ldi	r21, 0x40	; 64
    196c:	0e 94 35 20 	call	0x406a	; 0x406a <__divsf3>
    1970:	60 93 2c 05 	sts	0x052C, r22	; 0x80052c <gama>
    1974:	70 93 2d 05 	sts	0x052D, r23	; 0x80052d <gama+0x1>
    1978:	80 93 2e 05 	sts	0x052E, r24	; 0x80052e <gama+0x2>
    197c:	90 93 2f 05 	sts	0x052F, r25	; 0x80052f <gama+0x3>
			alpha = ((-alpha * 180) / M_PI) + 90.0;
    1980:	80 91 3c 05 	lds	r24, 0x053C	; 0x80053c <alpha>
    1984:	90 91 3d 05 	lds	r25, 0x053D	; 0x80053d <alpha+0x1>
    1988:	a0 91 3e 05 	lds	r26, 0x053E	; 0x80053e <alpha+0x2>
    198c:	b0 91 3f 05 	lds	r27, 0x053F	; 0x80053f <alpha+0x3>
    1990:	bc 01       	movw	r22, r24
    1992:	cd 01       	movw	r24, r26
    1994:	90 58       	subi	r25, 0x80	; 128
    1996:	20 e0       	ldi	r18, 0x00	; 0
    1998:	30 e0       	ldi	r19, 0x00	; 0
    199a:	44 e3       	ldi	r20, 0x34	; 52
    199c:	53 e4       	ldi	r21, 0x43	; 67
    199e:	0e 94 57 22 	call	0x44ae	; 0x44ae <__mulsf3>
    19a2:	2b ed       	ldi	r18, 0xDB	; 219
    19a4:	3f e0       	ldi	r19, 0x0F	; 15
    19a6:	49 e4       	ldi	r20, 0x49	; 73
    19a8:	50 e4       	ldi	r21, 0x40	; 64
    19aa:	0e 94 35 20 	call	0x406a	; 0x406a <__divsf3>
    19ae:	20 e0       	ldi	r18, 0x00	; 0
    19b0:	30 e0       	ldi	r19, 0x00	; 0
    19b2:	44 eb       	ldi	r20, 0xB4	; 180
    19b4:	52 e4       	ldi	r21, 0x42	; 66
    19b6:	0e 94 a2 1f 	call	0x3f44	; 0x3f44 <__addsf3>
    19ba:	60 93 3c 05 	sts	0x053C, r22	; 0x80053c <alpha>
    19be:	70 93 3d 05 	sts	0x053D, r23	; 0x80053d <alpha+0x1>
    19c2:	80 93 3e 05 	sts	0x053E, r24	; 0x80053e <alpha+0x2>
    19c6:	90 93 3f 05 	sts	0x053F, r25	; 0x80053f <alpha+0x3>
			beta  = ((beta * 180) / M_PI) - 90.0;
    19ca:	60 91 30 05 	lds	r22, 0x0530	; 0x800530 <beta>
    19ce:	70 91 31 05 	lds	r23, 0x0531	; 0x800531 <beta+0x1>
    19d2:	80 91 32 05 	lds	r24, 0x0532	; 0x800532 <beta+0x2>
    19d6:	90 91 33 05 	lds	r25, 0x0533	; 0x800533 <beta+0x3>
    19da:	20 e0       	ldi	r18, 0x00	; 0
    19dc:	30 e0       	ldi	r19, 0x00	; 0
    19de:	44 e3       	ldi	r20, 0x34	; 52
    19e0:	53 e4       	ldi	r21, 0x43	; 67
    19e2:	0e 94 57 22 	call	0x44ae	; 0x44ae <__mulsf3>
    19e6:	2b ed       	ldi	r18, 0xDB	; 219
    19e8:	3f e0       	ldi	r19, 0x0F	; 15
    19ea:	49 e4       	ldi	r20, 0x49	; 73
    19ec:	50 e4       	ldi	r21, 0x40	; 64
    19ee:	0e 94 35 20 	call	0x406a	; 0x406a <__divsf3>
    19f2:	20 e0       	ldi	r18, 0x00	; 0
    19f4:	30 e0       	ldi	r19, 0x00	; 0
    19f6:	44 eb       	ldi	r20, 0xB4	; 180
    19f8:	52 e4       	ldi	r21, 0x42	; 66
    19fa:	0e 94 a1 1f 	call	0x3f42	; 0x3f42 <__subsf3>
    19fe:	60 93 30 05 	sts	0x0530, r22	; 0x800530 <beta>
    1a02:	70 93 31 05 	sts	0x0531, r23	; 0x800531 <beta+0x1>
    1a06:	80 93 32 05 	sts	0x0532, r24	; 0x800532 <beta+0x2>
    1a0a:	90 93 33 05 	sts	0x0533, r25	; 0x800533 <beta+0x3>
    1a0e:	66 c0       	rjmp	.+204    	; 0x1adc <DrvLegSetXYZ+0x48a>
		}
		//else right
		else
		{
			gama  = (-gama * 180) / M_PI;
    1a10:	80 91 2c 05 	lds	r24, 0x052C	; 0x80052c <gama>
    1a14:	90 91 2d 05 	lds	r25, 0x052D	; 0x80052d <gama+0x1>
    1a18:	a0 91 2e 05 	lds	r26, 0x052E	; 0x80052e <gama+0x2>
    1a1c:	b0 91 2f 05 	lds	r27, 0x052F	; 0x80052f <gama+0x3>
    1a20:	bc 01       	movw	r22, r24
    1a22:	cd 01       	movw	r24, r26
    1a24:	90 58       	subi	r25, 0x80	; 128
    1a26:	20 e0       	ldi	r18, 0x00	; 0
    1a28:	30 e0       	ldi	r19, 0x00	; 0
    1a2a:	44 e3       	ldi	r20, 0x34	; 52
    1a2c:	53 e4       	ldi	r21, 0x43	; 67
    1a2e:	0e 94 57 22 	call	0x44ae	; 0x44ae <__mulsf3>
    1a32:	2b ed       	ldi	r18, 0xDB	; 219
    1a34:	3f e0       	ldi	r19, 0x0F	; 15
    1a36:	49 e4       	ldi	r20, 0x49	; 73
    1a38:	50 e4       	ldi	r21, 0x40	; 64
    1a3a:	0e 94 35 20 	call	0x406a	; 0x406a <__divsf3>
    1a3e:	60 93 2c 05 	sts	0x052C, r22	; 0x80052c <gama>
    1a42:	70 93 2d 05 	sts	0x052D, r23	; 0x80052d <gama+0x1>
    1a46:	80 93 2e 05 	sts	0x052E, r24	; 0x80052e <gama+0x2>
    1a4a:	90 93 2f 05 	sts	0x052F, r25	; 0x80052f <gama+0x3>
			alpha = ((alpha * 180) / M_PI) - 90.0;
    1a4e:	60 91 3c 05 	lds	r22, 0x053C	; 0x80053c <alpha>
    1a52:	70 91 3d 05 	lds	r23, 0x053D	; 0x80053d <alpha+0x1>
    1a56:	80 91 3e 05 	lds	r24, 0x053E	; 0x80053e <alpha+0x2>
    1a5a:	90 91 3f 05 	lds	r25, 0x053F	; 0x80053f <alpha+0x3>
    1a5e:	20 e0       	ldi	r18, 0x00	; 0
    1a60:	30 e0       	ldi	r19, 0x00	; 0
    1a62:	44 e3       	ldi	r20, 0x34	; 52
    1a64:	53 e4       	ldi	r21, 0x43	; 67
    1a66:	0e 94 57 22 	call	0x44ae	; 0x44ae <__mulsf3>
    1a6a:	2b ed       	ldi	r18, 0xDB	; 219
    1a6c:	3f e0       	ldi	r19, 0x0F	; 15
    1a6e:	49 e4       	ldi	r20, 0x49	; 73
    1a70:	50 e4       	ldi	r21, 0x40	; 64
    1a72:	0e 94 35 20 	call	0x406a	; 0x406a <__divsf3>
    1a76:	20 e0       	ldi	r18, 0x00	; 0
    1a78:	30 e0       	ldi	r19, 0x00	; 0
    1a7a:	44 eb       	ldi	r20, 0xB4	; 180
    1a7c:	52 e4       	ldi	r21, 0x42	; 66
    1a7e:	0e 94 a1 1f 	call	0x3f42	; 0x3f42 <__subsf3>
    1a82:	60 93 3c 05 	sts	0x053C, r22	; 0x80053c <alpha>
    1a86:	70 93 3d 05 	sts	0x053D, r23	; 0x80053d <alpha+0x1>
    1a8a:	80 93 3e 05 	sts	0x053E, r24	; 0x80053e <alpha+0x2>
    1a8e:	90 93 3f 05 	sts	0x053F, r25	; 0x80053f <alpha+0x3>
			beta  = ((-beta * 180) / M_PI) + 90.0;
    1a92:	80 91 30 05 	lds	r24, 0x0530	; 0x800530 <beta>
    1a96:	90 91 31 05 	lds	r25, 0x0531	; 0x800531 <beta+0x1>
    1a9a:	a0 91 32 05 	lds	r26, 0x0532	; 0x800532 <beta+0x2>
    1a9e:	b0 91 33 05 	lds	r27, 0x0533	; 0x800533 <beta+0x3>
    1aa2:	bc 01       	movw	r22, r24
    1aa4:	cd 01       	movw	r24, r26
    1aa6:	90 58       	subi	r25, 0x80	; 128
    1aa8:	20 e0       	ldi	r18, 0x00	; 0
    1aaa:	30 e0       	ldi	r19, 0x00	; 0
    1aac:	44 e3       	ldi	r20, 0x34	; 52
    1aae:	53 e4       	ldi	r21, 0x43	; 67
    1ab0:	0e 94 57 22 	call	0x44ae	; 0x44ae <__mulsf3>
    1ab4:	2b ed       	ldi	r18, 0xDB	; 219
    1ab6:	3f e0       	ldi	r19, 0x0F	; 15
    1ab8:	49 e4       	ldi	r20, 0x49	; 73
    1aba:	50 e4       	ldi	r21, 0x40	; 64
    1abc:	0e 94 35 20 	call	0x406a	; 0x406a <__divsf3>
    1ac0:	20 e0       	ldi	r18, 0x00	; 0
    1ac2:	30 e0       	ldi	r19, 0x00	; 0
    1ac4:	44 eb       	ldi	r20, 0xB4	; 180
    1ac6:	52 e4       	ldi	r21, 0x42	; 66
    1ac8:	0e 94 a2 1f 	call	0x3f44	; 0x3f44 <__addsf3>
    1acc:	60 93 30 05 	sts	0x0530, r22	; 0x800530 <beta>
    1ad0:	70 93 31 05 	sts	0x0531, r23	; 0x800531 <beta+0x1>
    1ad4:	80 93 32 05 	sts	0x0532, r24	; 0x800532 <beta+0x2>
    1ad8:	90 93 33 05 	sts	0x0533, r25	; 0x800533 <beta+0x3>
		}
	
		//set servos position
		DrvServoSetTarget(indexHanche,		(Int16S)round(gama)		+ legs[ indexLeg ].coxaAngle->mid	,	speed );
    1adc:	60 91 2c 05 	lds	r22, 0x052C	; 0x80052c <gama>
    1ae0:	70 91 2d 05 	lds	r23, 0x052D	; 0x80052d <gama+0x1>
    1ae4:	80 91 2e 05 	lds	r24, 0x052E	; 0x80052e <gama+0x2>
    1ae8:	90 91 2f 05 	lds	r25, 0x052F	; 0x80052f <gama+0x3>
    1aec:	0e 94 ba 22 	call	0x4574	; 0x4574 <round>
    1af0:	27 e0       	ldi	r18, 0x07	; 7
    1af2:	22 9e       	mul	r2, r18
    1af4:	f0 01       	movw	r30, r0
    1af6:	11 24       	eor	r1, r1
    1af8:	e3 5b       	subi	r30, 0xB3	; 179
    1afa:	fa 4f       	sbci	r31, 0xFA	; 250
    1afc:	fc 83       	std	Y+4, r31	; 0x04
    1afe:	eb 83       	std	Y+3, r30	; 0x03
    1b00:	e1 80       	ldd	r14, Z+1	; 0x01
    1b02:	f2 80       	ldd	r15, Z+2	; 0x02
    1b04:	0e 94 9d 20 	call	0x413a	; 0x413a <__fixsfsi>
    1b08:	f7 01       	movw	r30, r14
    1b0a:	21 89       	ldd	r18, Z+17	; 0x11
    1b0c:	32 89       	ldd	r19, Z+18	; 0x12
    1b0e:	62 0f       	add	r22, r18
    1b10:	73 1f       	adc	r23, r19
    1b12:	a8 01       	movw	r20, r16
    1b14:	83 2d       	mov	r24, r3
    1b16:	b9 d0       	rcall	.+370    	; 0x1c8a <DrvServoSetTarget>
		DrvServoSetTarget(indexGenoux,		(Int16S)(round(alpha))	+ legs[ indexLeg ].femurAngle->mid	,	speed );
    1b18:	60 91 3c 05 	lds	r22, 0x053C	; 0x80053c <alpha>
    1b1c:	70 91 3d 05 	lds	r23, 0x053D	; 0x80053d <alpha+0x1>
    1b20:	80 91 3e 05 	lds	r24, 0x053E	; 0x80053e <alpha+0x2>
    1b24:	90 91 3f 05 	lds	r25, 0x053F	; 0x80053f <alpha+0x3>
    1b28:	0e 94 ba 22 	call	0x4574	; 0x4574 <round>
    1b2c:	eb 81       	ldd	r30, Y+3	; 0x03
    1b2e:	fc 81       	ldd	r31, Y+4	; 0x04
    1b30:	e3 80       	ldd	r14, Z+3	; 0x03
    1b32:	f4 80       	ldd	r15, Z+4	; 0x04
    1b34:	0e 94 9d 20 	call	0x413a	; 0x413a <__fixsfsi>
    1b38:	f7 01       	movw	r30, r14
    1b3a:	21 89       	ldd	r18, Z+17	; 0x11
    1b3c:	32 89       	ldd	r19, Z+18	; 0x12
    1b3e:	62 0f       	add	r22, r18
    1b40:	73 1f       	adc	r23, r19
    1b42:	a8 01       	movw	r20, r16
    1b44:	89 81       	ldd	r24, Y+1	; 0x01
    1b46:	a1 d0       	rcall	.+322    	; 0x1c8a <DrvServoSetTarget>
		DrvServoSetTarget(indexCheville,	(Int16S)(round(beta) )	+ legs[ indexLeg ].tibiaAngle->mid	,	speed );
    1b48:	60 91 30 05 	lds	r22, 0x0530	; 0x800530 <beta>
    1b4c:	70 91 31 05 	lds	r23, 0x0531	; 0x800531 <beta+0x1>
    1b50:	80 91 32 05 	lds	r24, 0x0532	; 0x800532 <beta+0x2>
    1b54:	90 91 33 05 	lds	r25, 0x0533	; 0x800533 <beta+0x3>
    1b58:	0e 94 ba 22 	call	0x4574	; 0x4574 <round>
    1b5c:	eb 81       	ldd	r30, Y+3	; 0x03
    1b5e:	fc 81       	ldd	r31, Y+4	; 0x04
    1b60:	05 80       	ldd	r0, Z+5	; 0x05
    1b62:	f6 81       	ldd	r31, Z+6	; 0x06
    1b64:	e0 2d       	mov	r30, r0
    1b66:	fc 83       	std	Y+4, r31	; 0x04
    1b68:	eb 83       	std	Y+3, r30	; 0x03
    1b6a:	0e 94 9d 20 	call	0x413a	; 0x413a <__fixsfsi>
    1b6e:	eb 81       	ldd	r30, Y+3	; 0x03
    1b70:	fc 81       	ldd	r31, Y+4	; 0x04
    1b72:	21 89       	ldd	r18, Z+17	; 0x11
    1b74:	32 89       	ldd	r19, Z+18	; 0x12
    1b76:	62 0f       	add	r22, r18
    1b78:	73 1f       	adc	r23, r19
    1b7a:	a8 01       	movw	r20, r16
    1b7c:	8a 81       	ldd	r24, Y+2	; 0x02
    1b7e:	85 d0       	rcall	.+266    	; 0x1c8a <DrvServoSetTarget>
	
		return TRUE;
    1b80:	81 e0       	ldi	r24, 0x01	; 1
    1b82:	01 c0       	rjmp	.+2      	; 0x1b86 <DrvLegSetXYZ+0x534>
	}
	return FALSE;
    1b84:	80 e0       	ldi	r24, 0x00	; 0
}
    1b86:	28 96       	adiw	r28, 0x08	; 8
    1b88:	0f b6       	in	r0, 0x3f	; 63
    1b8a:	f8 94       	cli
    1b8c:	de bf       	out	0x3e, r29	; 62
    1b8e:	0f be       	out	0x3f, r0	; 63
    1b90:	cd bf       	out	0x3d, r28	; 61
    1b92:	df 91       	pop	r29
    1b94:	cf 91       	pop	r28
    1b96:	1f 91       	pop	r17
    1b98:	0f 91       	pop	r16
    1b9a:	ff 90       	pop	r15
    1b9c:	ef 90       	pop	r14
    1b9e:	df 90       	pop	r13
    1ba0:	cf 90       	pop	r12
    1ba2:	bf 90       	pop	r11
    1ba4:	af 90       	pop	r10
    1ba6:	9f 90       	pop	r9
    1ba8:	8f 90       	pop	r8
    1baa:	7f 90       	pop	r7
    1bac:	6f 90       	pop	r6
    1bae:	5f 90       	pop	r5
    1bb0:	4f 90       	pop	r4
    1bb2:	3f 90       	pop	r3
    1bb4:	2f 90       	pop	r2
    1bb6:	08 95       	ret

00001bb8 <DrvLegSetPosition>:

Boolean DrvLegSetPosition( E_LEG indexLeg, Int16S coxaAngle, Int16S femurAngle, Int16S tibiaAngle, Int16U speed )
{
    1bb8:	cf 92       	push	r12
    1bba:	df 92       	push	r13
    1bbc:	ef 92       	push	r14
    1bbe:	ff 92       	push	r15
    1bc0:	0f 93       	push	r16
    1bc2:	1f 93       	push	r17
    1bc4:	cf 93       	push	r28
	if(indexLeg < E_NB_LEGS)
    1bc6:	86 30       	cpi	r24, 0x06	; 6
    1bc8:	a0 f4       	brcc	.+40     	; 0x1bf2 <DrvLegSetPosition+0x3a>
    1bca:	79 01       	movw	r14, r18
    1bcc:	6a 01       	movw	r12, r20
	{
		//index of servos
		Int8U indexHanche = 0U + (indexLeg * 3U);
    1bce:	c8 2f       	mov	r28, r24
    1bd0:	cc 0f       	add	r28, r28
    1bd2:	c8 0f       	add	r28, r24
		Int8U indexGenoux  = 1U + (indexLeg * 3U);
		Int8U indexCheville = 2U + (indexLeg * 3U);
		//set servos position
		DrvServoSetTarget(indexHanche, coxaAngle, speed );
    1bd4:	a8 01       	movw	r20, r16
    1bd6:	8c 2f       	mov	r24, r28
    1bd8:	58 d0       	rcall	.+176    	; 0x1c8a <DrvServoSetTarget>
		DrvServoSetTarget(indexGenoux, femurAngle,	speed );
    1bda:	a8 01       	movw	r20, r16
    1bdc:	b6 01       	movw	r22, r12
    1bde:	81 e0       	ldi	r24, 0x01	; 1
    1be0:	8c 0f       	add	r24, r28
    1be2:	53 d0       	rcall	.+166    	; 0x1c8a <DrvServoSetTarget>
		DrvServoSetTarget(indexCheville, tibiaAngle, speed );
    1be4:	a8 01       	movw	r20, r16
    1be6:	b7 01       	movw	r22, r14
    1be8:	82 e0       	ldi	r24, 0x02	; 2
    1bea:	8c 0f       	add	r24, r28
    1bec:	4e d0       	rcall	.+156    	; 0x1c8a <DrvServoSetTarget>
		return TRUE;
    1bee:	81 e0       	ldi	r24, 0x01	; 1
    1bf0:	01 c0       	rjmp	.+2      	; 0x1bf4 <DrvLegSetPosition+0x3c>
	}
	return FALSE;
    1bf2:	80 e0       	ldi	r24, 0x00	; 0
}
    1bf4:	cf 91       	pop	r28
    1bf6:	1f 91       	pop	r17
    1bf8:	0f 91       	pop	r16
    1bfa:	ff 90       	pop	r15
    1bfc:	ef 90       	pop	r14
    1bfe:	df 90       	pop	r13
    1c00:	cf 90       	pop	r12
    1c02:	08 95       	ret

00001c04 <DrvLegUpdate>:
{
	//update servos every 15 ms
	//if ((DrvTickGetTimeMs() - prevMillisServosUpdate) > 1U)
	{
		//update each servo
		DrvServoUpdate();
    1c04:	98 d0       	rcall	.+304    	; 0x1d36 <DrvServoUpdate>
		prevMillisServosUpdate = DrvTickGetTimeMs();
    1c06:	6d d2       	rcall	.+1242   	; 0x20e2 <DrvTickGetTimeMs>
    1c08:	60 93 48 05 	sts	0x0548, r22	; 0x800548 <prevMillisServosUpdate>
    1c0c:	70 93 49 05 	sts	0x0549, r23	; 0x800549 <prevMillisServosUpdate+0x1>
    1c10:	80 93 4a 05 	sts	0x054A, r24	; 0x80054a <prevMillisServosUpdate+0x2>
    1c14:	90 93 4b 05 	sts	0x054B, r25	; 0x80054b <prevMillisServosUpdate+0x3>
    1c18:	81 e0       	ldi	r24, 0x01	; 1
	}

	return TRUE;
} 
    1c1a:	08 95       	ret

00001c1c <DrvServoInit>:
    1c1c:	e7 e7       	ldi	r30, 0x77	; 119

// get the target of the selected servo
Int16S DrvServoGetTarget( Int8U index )
{
	return servos[ index ].targetPosition;
}
    1c1e:	f5 e0       	ldi	r31, 0x05	; 5
    1c20:	80 e0       	ldi	r24, 0x00	; 0
    1c22:	4a e5       	ldi	r20, 0x5A	; 90
    1c24:	50 e0       	ldi	r21, 0x00	; 0
    1c26:	24 eb       	ldi	r18, 0xB4	; 180
    1c28:	30 e0       	ldi	r19, 0x00	; 0
    1c2a:	80 83       	st	Z, r24
    1c2c:	12 82       	std	Z+2, r1	; 0x02
    1c2e:	11 82       	std	Z+1, r1	; 0x01
    1c30:	14 82       	std	Z+4, r1	; 0x04
    1c32:	13 82       	std	Z+3, r1	; 0x03
    1c34:	16 82       	std	Z+6, r1	; 0x06
    1c36:	15 82       	std	Z+5, r1	; 0x05
    1c38:	14 86       	std	Z+12, r1	; 0x0c
    1c3a:	13 86       	std	Z+11, r1	; 0x0b
    1c3c:	17 82       	std	Z+7, r1	; 0x07
    1c3e:	10 86       	std	Z+8, r1	; 0x08
    1c40:	11 86       	std	Z+9, r1	; 0x09
    1c42:	12 86       	std	Z+10, r1	; 0x0a
    1c44:	16 86       	std	Z+14, r1	; 0x0e
    1c46:	15 86       	std	Z+13, r1	; 0x0d
    1c48:	10 8a       	std	Z+16, r1	; 0x10
    1c4a:	17 86       	std	Z+15, r1	; 0x0f
    1c4c:	52 8b       	std	Z+18, r21	; 0x12
    1c4e:	41 8b       	std	Z+17, r20	; 0x11
    1c50:	34 8b       	std	Z+20, r19	; 0x14
    1c52:	23 8b       	std	Z+19, r18	; 0x13
    1c54:	15 8a       	std	Z+21, r1	; 0x15
    1c56:	8f 5f       	subi	r24, 0xFF	; 255
    1c58:	76 96       	adiw	r30, 0x16	; 22
    1c5a:	82 31       	cpi	r24, 0x12	; 18
    1c5c:	31 f7       	brne	.-52     	; 0x1c2a <DrvServoInit+0xe>
    1c5e:	80 e4       	ldi	r24, 0x40	; 64
    1c60:	0e 94 a5 00 	call	0x14a	; 0x14a <CmpPCA9685Init>
    1c64:	81 e4       	ldi	r24, 0x41	; 65
    1c66:	0e 94 a5 00 	call	0x14a	; 0x14a <CmpPCA9685Init>
    1c6a:	40 e0       	ldi	r20, 0x00	; 0
    1c6c:	50 e0       	ldi	r21, 0x00	; 0
    1c6e:	60 e7       	ldi	r22, 0x70	; 112
    1c70:	72 e4       	ldi	r23, 0x42	; 66
    1c72:	80 e4       	ldi	r24, 0x40	; 64
    1c74:	0e 94 a8 00 	call	0x150	; 0x150 <CmpPCA9685SetPWMFreq>
    1c78:	40 e0       	ldi	r20, 0x00	; 0
    1c7a:	50 e0       	ldi	r21, 0x00	; 0
    1c7c:	60 e7       	ldi	r22, 0x70	; 112
    1c7e:	72 e4       	ldi	r23, 0x42	; 66
    1c80:	81 e4       	ldi	r24, 0x41	; 65
    1c82:	0e 94 a8 00 	call	0x150	; 0x150 <CmpPCA9685SetPWMFreq>
    1c86:	81 e0       	ldi	r24, 0x01	; 1
    1c88:	08 95       	ret

00001c8a <DrvServoSetTarget>:
    1c8a:	cf 93       	push	r28
    1c8c:	df 93       	push	r29
    1c8e:	82 31       	cpi	r24, 0x12	; 18
    1c90:	b8 f5       	brcc	.+110    	; 0x1d00 <DrvServoSetTarget+0x76>
    1c92:	28 2f       	mov	r18, r24
    1c94:	30 e0       	ldi	r19, 0x00	; 0
    1c96:	96 e1       	ldi	r25, 0x16	; 22
    1c98:	89 9f       	mul	r24, r25
    1c9a:	f0 01       	movw	r30, r0
    1c9c:	11 24       	eor	r1, r1
    1c9e:	e9 58       	subi	r30, 0x89	; 137
    1ca0:	fa 4f       	sbci	r31, 0xFA	; 250
    1ca2:	87 85       	ldd	r24, Z+15	; 0x0f
    1ca4:	90 89       	ldd	r25, Z+16	; 0x10
    1ca6:	68 17       	cp	r22, r24
    1ca8:	79 07       	cpc	r23, r25
    1caa:	64 f1       	brlt	.+88     	; 0x1d04 <DrvServoSetTarget+0x7a>
    1cac:	86 e1       	ldi	r24, 0x16	; 22
    1cae:	82 9f       	mul	r24, r18
    1cb0:	f0 01       	movw	r30, r0
    1cb2:	83 9f       	mul	r24, r19
    1cb4:	f0 0d       	add	r31, r0
    1cb6:	11 24       	eor	r1, r1
    1cb8:	e9 58       	subi	r30, 0x89	; 137
    1cba:	fa 4f       	sbci	r31, 0xFA	; 250
    1cbc:	83 89       	ldd	r24, Z+19	; 0x13
    1cbe:	94 89       	ldd	r25, Z+20	; 0x14
    1cc0:	86 17       	cp	r24, r22
    1cc2:	97 07       	cpc	r25, r23
    1cc4:	0c f1       	brlt	.+66     	; 0x1d08 <DrvServoSetTarget+0x7e>
    1cc6:	86 e1       	ldi	r24, 0x16	; 22
    1cc8:	82 9f       	mul	r24, r18
    1cca:	f0 01       	movw	r30, r0
    1ccc:	83 9f       	mul	r24, r19
    1cce:	f0 0d       	add	r31, r0
    1cd0:	11 24       	eor	r1, r1
    1cd2:	e9 58       	subi	r30, 0x89	; 137
    1cd4:	fa 4f       	sbci	r31, 0xFA	; 250
    1cd6:	54 87       	std	Z+12, r21	; 0x0c
    1cd8:	43 87       	std	Z+11, r20	; 0x0b
    1cda:	85 81       	ldd	r24, Z+5	; 0x05
    1cdc:	96 81       	ldd	r25, Z+6	; 0x06
    1cde:	68 17       	cp	r22, r24
    1ce0:	79 07       	cpc	r23, r25
    1ce2:	a1 f0       	breq	.+40     	; 0x1d0c <DrvServoSetTarget+0x82>
    1ce4:	ef 01       	movw	r28, r30
    1ce6:	81 81       	ldd	r24, Z+1	; 0x01
    1ce8:	92 81       	ldd	r25, Z+2	; 0x02
    1cea:	94 83       	std	Z+4, r25	; 0x04
    1cec:	83 83       	std	Z+3, r24	; 0x03
    1cee:	76 83       	std	Z+6, r23	; 0x06
    1cf0:	65 83       	std	Z+5, r22	; 0x05
    1cf2:	f7 d1       	rcall	.+1006   	; 0x20e2 <DrvTickGetTimeMs>
    1cf4:	6f 83       	std	Y+7, r22	; 0x07
    1cf6:	78 87       	std	Y+8, r23	; 0x08
    1cf8:	89 87       	std	Y+9, r24	; 0x09
    1cfa:	9a 87       	std	Y+10, r25	; 0x0a
    1cfc:	81 e0       	ldi	r24, 0x01	; 1
    1cfe:	07 c0       	rjmp	.+14     	; 0x1d0e <DrvServoSetTarget+0x84>
    1d00:	80 e0       	ldi	r24, 0x00	; 0
    1d02:	05 c0       	rjmp	.+10     	; 0x1d0e <DrvServoSetTarget+0x84>
    1d04:	80 e0       	ldi	r24, 0x00	; 0
    1d06:	03 c0       	rjmp	.+6      	; 0x1d0e <DrvServoSetTarget+0x84>
    1d08:	80 e0       	ldi	r24, 0x00	; 0
    1d0a:	01 c0       	rjmp	.+2      	; 0x1d0e <DrvServoSetTarget+0x84>
    1d0c:	80 e0       	ldi	r24, 0x00	; 0
    1d0e:	df 91       	pop	r29
    1d10:	cf 91       	pop	r28
    1d12:	08 95       	ret

00001d14 <DrvServoCheckPosition>:

//check if servo reaches target
Boolean DrvServoCheckPosition( Int8U index )
{
	if( servos[index].currentPosition != servos[index].targetPosition ) 
    1d14:	26 e1       	ldi	r18, 0x16	; 22
    1d16:	82 9f       	mul	r24, r18
    1d18:	c0 01       	movw	r24, r0
    1d1a:	11 24       	eor	r1, r1
    1d1c:	fc 01       	movw	r30, r24
    1d1e:	e9 58       	subi	r30, 0x89	; 137
    1d20:	fa 4f       	sbci	r31, 0xFA	; 250
    1d22:	81 e0       	ldi	r24, 0x01	; 1
    1d24:	41 81       	ldd	r20, Z+1	; 0x01
    1d26:	52 81       	ldd	r21, Z+2	; 0x02
    1d28:	25 81       	ldd	r18, Z+5	; 0x05
    1d2a:	36 81       	ldd	r19, Z+6	; 0x06
    1d2c:	42 17       	cp	r20, r18
    1d2e:	53 07       	cpc	r21, r19
    1d30:	09 f0       	breq	.+2      	; 0x1d34 <DrvServoCheckPosition+0x20>
    1d32:	80 e0       	ldi	r24, 0x00	; 0
	{
		return FALSE;
	}
	return TRUE;
}
    1d34:	08 95       	ret

00001d36 <DrvServoUpdate>:

//set the position
void DrvServoUpdate ( void )
{
    1d36:	2f 92       	push	r2
    1d38:	3f 92       	push	r3
    1d3a:	4f 92       	push	r4
    1d3c:	5f 92       	push	r5
    1d3e:	6f 92       	push	r6
    1d40:	7f 92       	push	r7
    1d42:	8f 92       	push	r8
    1d44:	9f 92       	push	r9
    1d46:	af 92       	push	r10
    1d48:	bf 92       	push	r11
    1d4a:	ff 92       	push	r15
    1d4c:	0f 93       	push	r16
    1d4e:	1f 93       	push	r17
    1d50:	cf 93       	push	r28
    1d52:	df 93       	push	r29
    1d54:	cd b7       	in	r28, 0x3d	; 61
    1d56:	de b7       	in	r29, 0x3e	; 62
    1d58:	2e 97       	sbiw	r28, 0x0e	; 14
    1d5a:	0f b6       	in	r0, 0x3f	; 63
    1d5c:	f8 94       	cli
    1d5e:	de bf       	out	0x3e, r29	; 62
    1d60:	0f be       	out	0x3f, r0	; 63
    1d62:	cd bf       	out	0x3d, r28	; 61
    1d64:	88 e7       	ldi	r24, 0x78	; 120
    1d66:	95 e0       	ldi	r25, 0x05	; 5
	for (Int8U index = 0U; index < NB_SERVOS ; index++)
    1d68:	10 e0       	ldi	r17, 0x00	; 0
  return (x - in_min) * (out_max - out_min) / (in_max - in_min) + out_min;
}

static inline float SetRangeInt16(Int16U x, Int16U in_min, Int16U in_max, Int16U out_min, Int16U out_max)
{
	return ((Int32U)(x - in_min) * (out_max - out_min)) / (in_max - in_min) + out_min;
    1d6a:	9e 87       	std	Y+14, r25	; 0x0e
    1d6c:	8d 87       	std	Y+13, r24	; 0x0d
    1d6e:	f1 2e       	mov	r15, r17
	{
		//if needed
		if( DrvServoCheckPosition(index) == FALSE )
    1d70:	8f 2d       	mov	r24, r15
    1d72:	d0 df       	rcall	.-96     	; 0x1d14 <DrvServoCheckPosition>
    1d74:	81 11       	cpse	r24, r1
    1d76:	39 c1       	rjmp	.+626    	; 0x1fea <DrvServoUpdate+0x2b4>

////////////////////////////////////////PRIVATE FUNCTIONS/////////////////////////////////////////

void DrvServoComputeAngle ( Int8U index )
{
	float currentTime	= DrvTickGetTimeMs() - servos[ index ].startTime;
    1d78:	b4 d1       	rcall	.+872    	; 0x20e2 <DrvTickGetTimeMs>
    1d7a:	2d 84       	ldd	r2, Y+13	; 0x0d
    1d7c:	3e 84       	ldd	r3, Y+14	; 0x0e
    1d7e:	d1 01       	movw	r26, r2
    1d80:	16 96       	adiw	r26, 0x06	; 6
    1d82:	0d 91       	ld	r16, X+
    1d84:	1d 91       	ld	r17, X+
    1d86:	2d 91       	ld	r18, X+
    1d88:	3c 91       	ld	r19, X
    1d8a:	19 97       	sbiw	r26, 0x09	; 9
    1d8c:	60 1b       	sub	r22, r16
    1d8e:	71 0b       	sbc	r23, r17
    1d90:	82 0b       	sbc	r24, r18
    1d92:	93 0b       	sbc	r25, r19
    1d94:	0e 94 ce 20 	call	0x419c	; 0x419c <__floatunsisf>
    1d98:	69 83       	std	Y+1, r22	; 0x01
    1d9a:	7a 83       	std	Y+2, r23	; 0x02
    1d9c:	8b 83       	std	Y+3, r24	; 0x03
    1d9e:	9c 83       	std	Y+4, r25	; 0x04
    1da0:	f1 01       	movw	r30, r2
	float startValue	= servos[ index ].startPosition;
    1da2:	62 81       	ldd	r22, Z+2	; 0x02
    1da4:	73 81       	ldd	r23, Z+3	; 0x03
    1da6:	07 2e       	mov	r0, r23
    1da8:	00 0c       	add	r0, r0
    1daa:	88 0b       	sbc	r24, r24
    1dac:	99 0b       	sbc	r25, r25
    1dae:	0e 94 d0 20 	call	0x41a0	; 0x41a0 <__floatsisf>
    1db2:	6d 83       	std	Y+5, r22	; 0x05
    1db4:	7e 83       	std	Y+6, r23	; 0x06
    1db6:	8f 83       	std	Y+7, r24	; 0x07
    1db8:	98 87       	std	Y+8, r25	; 0x08
    1dba:	d1 01       	movw	r26, r2
	float changeValue	= servos[ index ].targetPosition - startValue;
    1dbc:	14 96       	adiw	r26, 0x04	; 4
    1dbe:	0d 91       	ld	r16, X+
    1dc0:	1c 91       	ld	r17, X
    1dc2:	15 97       	sbiw	r26, 0x05	; 5
    1dc4:	b8 01       	movw	r22, r16
    1dc6:	01 2e       	mov	r0, r17
    1dc8:	00 0c       	add	r0, r0
    1dca:	88 0b       	sbc	r24, r24
    1dcc:	99 0b       	sbc	r25, r25
    1dce:	0e 94 d0 20 	call	0x41a0	; 0x41a0 <__floatsisf>
    1dd2:	2d 81       	ldd	r18, Y+5	; 0x05
    1dd4:	3e 81       	ldd	r19, Y+6	; 0x06
    1dd6:	4f 81       	ldd	r20, Y+7	; 0x07
    1dd8:	58 85       	ldd	r21, Y+8	; 0x08
    1dda:	0e 94 a1 1f 	call	0x3f42	; 0x3f42 <__subsf3>
    1dde:	2b 01       	movw	r4, r22
    1de0:	3c 01       	movw	r6, r24
    1de2:	f1 01       	movw	r30, r2
	float duration		= servos[ index ].movingTime;
    1de4:	62 85       	ldd	r22, Z+10	; 0x0a
    1de6:	73 85       	ldd	r23, Z+11	; 0x0b
    1de8:	80 e0       	ldi	r24, 0x00	; 0
    1dea:	90 e0       	ldi	r25, 0x00	; 0
    1dec:	0e 94 ce 20 	call	0x419c	; 0x419c <__floatunsisf>
    1df0:	4b 01       	movw	r8, r22
    1df2:	5c 01       	movw	r10, r24
    1df4:	d1 01       	movw	r26, r2
	
	if(servos[ index ].ease == E_SERVO_EASE_LINEAR)
    1df6:	54 96       	adiw	r26, 0x14	; 20
    1df8:	8c 91       	ld	r24, X
    1dfa:	81 11       	cpse	r24, r1
    1dfc:	1a c0       	rjmp	.+52     	; 0x1e32 <DrvServoUpdate+0xfc>
    1dfe:	a5 01       	movw	r20, r10
	{
		servos[index].currentPosition = round(changeValue * (currentTime / duration) + startValue);
    1e00:	94 01       	movw	r18, r8
    1e02:	69 81       	ldd	r22, Y+1	; 0x01
    1e04:	7a 81       	ldd	r23, Y+2	; 0x02
    1e06:	8b 81       	ldd	r24, Y+3	; 0x03
    1e08:	9c 81       	ldd	r25, Y+4	; 0x04
    1e0a:	0e 94 35 20 	call	0x406a	; 0x406a <__divsf3>
    1e0e:	a3 01       	movw	r20, r6
    1e10:	92 01       	movw	r18, r4
    1e12:	0e 94 57 22 	call	0x44ae	; 0x44ae <__mulsf3>
    1e16:	2d 81       	ldd	r18, Y+5	; 0x05
    1e18:	3e 81       	ldd	r19, Y+6	; 0x06
    1e1a:	4f 81       	ldd	r20, Y+7	; 0x07
    1e1c:	58 85       	ldd	r21, Y+8	; 0x08
    1e1e:	0e 94 a2 1f 	call	0x3f44	; 0x3f44 <__addsf3>
    1e22:	0e 94 ba 22 	call	0x4574	; 0x4574 <round>
    1e26:	0e 94 9d 20 	call	0x413a	; 0x413a <__fixsfsi>
    1e2a:	f1 01       	movw	r30, r2
    1e2c:	71 83       	std	Z+1, r23	; 0x01
    1e2e:	60 83       	st	Z, r22
    1e30:	8f c0       	rjmp	.+286    	; 0x1f50 <DrvServoUpdate+0x21a>
    1e32:	81 30       	cpi	r24, 0x01	; 1
	}
	else if(servos[ index ].ease == E_SERVO_EASE_SINUS_IN)
    1e34:	49 f5       	brne	.+82     	; 0x1e88 <DrvServoUpdate+0x152>
    1e36:	a5 01       	movw	r20, r10
	{
		servos[index].currentPosition = round(-changeValue * cos( M_PI_2 * (currentTime / duration)) + changeValue + startValue);
    1e38:	94 01       	movw	r18, r8
    1e3a:	69 81       	ldd	r22, Y+1	; 0x01
    1e3c:	7a 81       	ldd	r23, Y+2	; 0x02
    1e3e:	8b 81       	ldd	r24, Y+3	; 0x03
    1e40:	9c 81       	ldd	r25, Y+4	; 0x04
    1e42:	0e 94 35 20 	call	0x406a	; 0x406a <__divsf3>
    1e46:	2b ed       	ldi	r18, 0xDB	; 219
    1e48:	3f e0       	ldi	r19, 0x0F	; 15
    1e4a:	49 ec       	ldi	r20, 0xC9	; 201
    1e4c:	5f e3       	ldi	r21, 0x3F	; 63
    1e4e:	0e 94 57 22 	call	0x44ae	; 0x44ae <__mulsf3>
    1e52:	0e 94 32 20 	call	0x4064	; 0x4064 <cos>
    1e56:	9b 01       	movw	r18, r22
    1e58:	ac 01       	movw	r20, r24
    1e5a:	c3 01       	movw	r24, r6
    1e5c:	b2 01       	movw	r22, r4
    1e5e:	90 58       	subi	r25, 0x80	; 128
    1e60:	0e 94 57 22 	call	0x44ae	; 0x44ae <__mulsf3>
    1e64:	a3 01       	movw	r20, r6
    1e66:	92 01       	movw	r18, r4
    1e68:	0e 94 a2 1f 	call	0x3f44	; 0x3f44 <__addsf3>
    1e6c:	2d 81       	ldd	r18, Y+5	; 0x05
    1e6e:	3e 81       	ldd	r19, Y+6	; 0x06
    1e70:	4f 81       	ldd	r20, Y+7	; 0x07
    1e72:	58 85       	ldd	r21, Y+8	; 0x08
    1e74:	0e 94 a2 1f 	call	0x3f44	; 0x3f44 <__addsf3>
    1e78:	0e 94 ba 22 	call	0x4574	; 0x4574 <round>
    1e7c:	0e 94 9d 20 	call	0x413a	; 0x413a <__fixsfsi>
    1e80:	d1 01       	movw	r26, r2
    1e82:	6d 93       	st	X+, r22
    1e84:	7c 93       	st	X, r23
    1e86:	64 c0       	rjmp	.+200    	; 0x1f50 <DrvServoUpdate+0x21a>
    1e88:	82 30       	cpi	r24, 0x02	; 2
	}
	else if(servos[ index ].ease == E_SERVO_EASE_SINUS_OUT)
    1e8a:	21 f5       	brne	.+72     	; 0x1ed4 <DrvServoUpdate+0x19e>
    1e8c:	a5 01       	movw	r20, r10
	{
		servos[index].currentPosition = round(changeValue * sin( M_PI_2 * (currentTime / duration)) + startValue);
    1e8e:	94 01       	movw	r18, r8
    1e90:	69 81       	ldd	r22, Y+1	; 0x01
    1e92:	7a 81       	ldd	r23, Y+2	; 0x02
    1e94:	8b 81       	ldd	r24, Y+3	; 0x03
    1e96:	9c 81       	ldd	r25, Y+4	; 0x04
    1e98:	0e 94 35 20 	call	0x406a	; 0x406a <__divsf3>
    1e9c:	2b ed       	ldi	r18, 0xDB	; 219
    1e9e:	3f e0       	ldi	r19, 0x0F	; 15
    1ea0:	49 ec       	ldi	r20, 0xC9	; 201
    1ea2:	5f e3       	ldi	r21, 0x3F	; 63
    1ea4:	0e 94 57 22 	call	0x44ae	; 0x44ae <__mulsf3>
    1ea8:	0e 94 da 22 	call	0x45b4	; 0x45b4 <sin>
    1eac:	9b 01       	movw	r18, r22
    1eae:	ac 01       	movw	r20, r24
    1eb0:	c3 01       	movw	r24, r6
    1eb2:	b2 01       	movw	r22, r4
    1eb4:	0e 94 57 22 	call	0x44ae	; 0x44ae <__mulsf3>
    1eb8:	2d 81       	ldd	r18, Y+5	; 0x05
    1eba:	3e 81       	ldd	r19, Y+6	; 0x06
    1ebc:	4f 81       	ldd	r20, Y+7	; 0x07
    1ebe:	58 85       	ldd	r21, Y+8	; 0x08
    1ec0:	0e 94 a2 1f 	call	0x3f44	; 0x3f44 <__addsf3>
    1ec4:	0e 94 ba 22 	call	0x4574	; 0x4574 <round>
    1ec8:	0e 94 9d 20 	call	0x413a	; 0x413a <__fixsfsi>
    1ecc:	f1 01       	movw	r30, r2
    1ece:	71 83       	std	Z+1, r23	; 0x01
    1ed0:	60 83       	st	Z, r22
    1ed2:	3e c0       	rjmp	.+124    	; 0x1f50 <DrvServoUpdate+0x21a>
    1ed4:	83 30       	cpi	r24, 0x03	; 3
	}
	else if(servos[ index ].ease == E_SERVO_EASE_SINUS_IN_OUT)
    1ed6:	e1 f5       	brne	.+120    	; 0x1f50 <DrvServoUpdate+0x21a>
    1ed8:	a5 01       	movw	r20, r10
	{
		servos[index].currentPosition = round((-changeValue/2) * (cos( M_PI * (currentTime / duration)) - 1 ) + startValue);
    1eda:	94 01       	movw	r18, r8
    1edc:	69 81       	ldd	r22, Y+1	; 0x01
    1ede:	7a 81       	ldd	r23, Y+2	; 0x02
    1ee0:	8b 81       	ldd	r24, Y+3	; 0x03
    1ee2:	9c 81       	ldd	r25, Y+4	; 0x04
    1ee4:	0e 94 35 20 	call	0x406a	; 0x406a <__divsf3>
    1ee8:	2b ed       	ldi	r18, 0xDB	; 219
    1eea:	3f e0       	ldi	r19, 0x0F	; 15
    1eec:	49 e4       	ldi	r20, 0x49	; 73
    1eee:	50 e4       	ldi	r21, 0x40	; 64
    1ef0:	0e 94 57 22 	call	0x44ae	; 0x44ae <__mulsf3>
    1ef4:	0e 94 32 20 	call	0x4064	; 0x4064 <cos>
    1ef8:	69 87       	std	Y+9, r22	; 0x09
    1efa:	7a 87       	std	Y+10, r23	; 0x0a
    1efc:	8b 87       	std	Y+11, r24	; 0x0b
    1efe:	9c 87       	std	Y+12, r25	; 0x0c
    1f00:	c3 01       	movw	r24, r6
    1f02:	b2 01       	movw	r22, r4
    1f04:	90 58       	subi	r25, 0x80	; 128
    1f06:	20 e0       	ldi	r18, 0x00	; 0
    1f08:	30 e0       	ldi	r19, 0x00	; 0
    1f0a:	40 e0       	ldi	r20, 0x00	; 0
    1f0c:	5f e3       	ldi	r21, 0x3F	; 63
    1f0e:	0e 94 57 22 	call	0x44ae	; 0x44ae <__mulsf3>
    1f12:	2b 01       	movw	r4, r22
    1f14:	3c 01       	movw	r6, r24
    1f16:	20 e0       	ldi	r18, 0x00	; 0
    1f18:	30 e0       	ldi	r19, 0x00	; 0
    1f1a:	40 e8       	ldi	r20, 0x80	; 128
    1f1c:	5f e3       	ldi	r21, 0x3F	; 63
    1f1e:	69 85       	ldd	r22, Y+9	; 0x09
    1f20:	7a 85       	ldd	r23, Y+10	; 0x0a
    1f22:	8b 85       	ldd	r24, Y+11	; 0x0b
    1f24:	9c 85       	ldd	r25, Y+12	; 0x0c
    1f26:	0e 94 a1 1f 	call	0x3f42	; 0x3f42 <__subsf3>
    1f2a:	9b 01       	movw	r18, r22
    1f2c:	ac 01       	movw	r20, r24
    1f2e:	c3 01       	movw	r24, r6
    1f30:	b2 01       	movw	r22, r4
    1f32:	0e 94 57 22 	call	0x44ae	; 0x44ae <__mulsf3>
    1f36:	2d 81       	ldd	r18, Y+5	; 0x05
    1f38:	3e 81       	ldd	r19, Y+6	; 0x06
    1f3a:	4f 81       	ldd	r20, Y+7	; 0x07
    1f3c:	58 85       	ldd	r21, Y+8	; 0x08
    1f3e:	0e 94 a2 1f 	call	0x3f44	; 0x3f44 <__addsf3>
    1f42:	0e 94 ba 22 	call	0x4574	; 0x4574 <round>
    1f46:	0e 94 9d 20 	call	0x413a	; 0x413a <__fixsfsi>
    1f4a:	d1 01       	movw	r26, r2
    1f4c:	6d 93       	st	X+, r22
    1f4e:	7c 93       	st	X, r23
    1f50:	a5 01       	movw	r20, r10
	}
	
	if(currentTime > duration)
    1f52:	94 01       	movw	r18, r8
    1f54:	69 81       	ldd	r22, Y+1	; 0x01
    1f56:	7a 81       	ldd	r23, Y+2	; 0x02
    1f58:	8b 81       	ldd	r24, Y+3	; 0x03
    1f5a:	9c 81       	ldd	r25, Y+4	; 0x04
    1f5c:	0e 94 4c 22 	call	0x4498	; 0x4498 <__gesf2>
    1f60:	18 16       	cp	r1, r24
    1f62:	24 f4       	brge	.+8      	; 0x1f6c <DrvServoUpdate+0x236>
    1f64:	f1 01       	movw	r30, r2
	{
		servos[index].currentPosition = servos[ index ].targetPosition;
    1f66:	11 83       	std	Z+1, r17	; 0x01
    1f68:	00 83       	st	Z, r16
    1f6a:	13 c0       	rjmp	.+38     	; 0x1f92 <DrvServoUpdate+0x25c>
    1f6c:	a5 01       	movw	r20, r10
	}
	else if(currentTime == duration)
    1f6e:	94 01       	movw	r18, r8
    1f70:	69 81       	ldd	r22, Y+1	; 0x01
    1f72:	7a 81       	ldd	r23, Y+2	; 0x02
    1f74:	8b 81       	ldd	r24, Y+3	; 0x03
    1f76:	9c 81       	ldd	r25, Y+4	; 0x04
    1f78:	0e 94 2e 20 	call	0x405c	; 0x405c <__cmpsf2>
    1f7c:	81 11       	cpse	r24, r1
    1f7e:	09 c0       	rjmp	.+18     	; 0x1f92 <DrvServoUpdate+0x25c>
    1f80:	d1 01       	movw	r26, r2
	{
		if(servos[index].callback != NULL)
    1f82:	1c 96       	adiw	r26, 0x0c	; 12
    1f84:	ed 91       	ld	r30, X+
    1f86:	fc 91       	ld	r31, X
    1f88:	1d 97       	sbiw	r26, 0x0d	; 13
    1f8a:	30 97       	sbiw	r30, 0x00	; 0
    1f8c:	11 f0       	breq	.+4      	; 0x1f92 <DrvServoUpdate+0x25c>
    1f8e:	8f 2d       	mov	r24, r15
		{
			servos[index].callback(index);
    1f90:	09 95       	icall
    1f92:	f1 01       	movw	r30, r2
	{
		//if needed
		if( DrvServoCheckPosition(index) == FALSE )
		{
			DrvServoComputeAngle(index);
			Int16S angle = servos[index].currentPosition;
    1f94:	20 81       	ld	r18, Z
    1f96:	31 81       	ldd	r19, Z+1	; 0x01
    1f98:	26 5a       	subi	r18, 0xA6	; 166
    1f9a:	3f 4f       	sbci	r19, 0xFF	; 255
    1f9c:	a8 e9       	ldi	r26, 0x98	; 152
    1f9e:	b1 e0       	ldi	r27, 0x01	; 1
    1fa0:	0e 94 73 23 	call	0x46e6	; 0x46e6 <__umulhisi3>
    1fa4:	24 eb       	ldi	r18, 0xB4	; 180
    1fa6:	30 e0       	ldi	r19, 0x00	; 0
    1fa8:	40 e0       	ldi	r20, 0x00	; 0
    1faa:	50 e0       	ldi	r21, 0x00	; 0
    1fac:	0e 94 51 23 	call	0x46a2	; 0x46a2 <__udivmodsi4>
    1fb0:	ca 01       	movw	r24, r20
    1fb2:	b9 01       	movw	r22, r18
    1fb4:	6e 58       	subi	r22, 0x8E	; 142
    1fb6:	7f 4f       	sbci	r23, 0xFF	; 255
    1fb8:	8f 4f       	sbci	r24, 0xFF	; 255
    1fba:	9f 4f       	sbci	r25, 0xFF	; 255
    1fbc:	0e 94 ce 20 	call	0x419c	; 0x419c <__floatunsisf>
    1fc0:	0e 94 9d 20 	call	0x413a	; 0x413a <__fixsfsi>
	
			//convert to 0 to 180,0
			angle += 90;
			angle = SetRangeInt16(angle, SERVO_ANGLE_MIN, SERVO_ANGLE_MAX, 114, 522);
    1fc4:	f8 e0       	ldi	r31, 0x08	; 8
	
			//send to PCA9685
			if(index > 8)
    1fc6:	ff 15       	cp	r31, r15
    1fc8:	48 f4       	brcc	.+18     	; 0x1fdc <DrvServoUpdate+0x2a6>
    1fca:	9b 01       	movw	r18, r22
			{
				CmpPCA9685SetPWM(PCA9685_ADDRESS_0, index - 9, 0, angle);
    1fcc:	40 e0       	ldi	r20, 0x00	; 0
    1fce:	50 e0       	ldi	r21, 0x00	; 0
    1fd0:	67 ef       	ldi	r22, 0xF7	; 247
    1fd2:	6f 0d       	add	r22, r15
    1fd4:	80 e4       	ldi	r24, 0x40	; 64
    1fd6:	0e 94 03 01 	call	0x206	; 0x206 <CmpPCA9685SetPWM>
    1fda:	07 c0       	rjmp	.+14     	; 0x1fea <DrvServoUpdate+0x2b4>
    1fdc:	9b 01       	movw	r18, r22
			}
			else
			{
				CmpPCA9685SetPWM(PCA9685_ADDRESS_1, index, 0, angle);
    1fde:	40 e0       	ldi	r20, 0x00	; 0
    1fe0:	50 e0       	ldi	r21, 0x00	; 0
    1fe2:	6f 2d       	mov	r22, r15
    1fe4:	81 e4       	ldi	r24, 0x41	; 65
    1fe6:	0e 94 03 01 	call	0x206	; 0x206 <CmpPCA9685SetPWM>
    1fea:	f3 94       	inc	r15
}

//set the position
void DrvServoUpdate ( void )
{
	for (Int8U index = 0U; index < NB_SERVOS ; index++)
    1fec:	8d 85       	ldd	r24, Y+13	; 0x0d
    1fee:	9e 85       	ldd	r25, Y+14	; 0x0e
    1ff0:	46 96       	adiw	r24, 0x16	; 22
    1ff2:	9e 87       	std	Y+14, r25	; 0x0e
    1ff4:	8d 87       	std	Y+13, r24	; 0x0d
    1ff6:	92 e1       	ldi	r25, 0x12	; 18
    1ff8:	f9 12       	cpse	r15, r25
    1ffa:	ba ce       	rjmp	.-652    	; 0x1d70 <DrvServoUpdate+0x3a>
    1ffc:	2e 96       	adiw	r28, 0x0e	; 14
			{
				CmpPCA9685SetPWM(PCA9685_ADDRESS_1, index, 0, angle);
			}
		}
	}
}
    1ffe:	0f b6       	in	r0, 0x3f	; 63
    2000:	f8 94       	cli
    2002:	de bf       	out	0x3e, r29	; 62
    2004:	0f be       	out	0x3f, r0	; 63
    2006:	cd bf       	out	0x3d, r28	; 61
    2008:	df 91       	pop	r29
    200a:	cf 91       	pop	r28
    200c:	1f 91       	pop	r17
    200e:	0f 91       	pop	r16
    2010:	ff 90       	pop	r15
    2012:	bf 90       	pop	r11
    2014:	af 90       	pop	r10
    2016:	9f 90       	pop	r9
    2018:	8f 90       	pop	r8
    201a:	7f 90       	pop	r7
    201c:	6f 90       	pop	r6
    201e:	5f 90       	pop	r5
    2020:	4f 90       	pop	r4
    2022:	3f 90       	pop	r3
    2024:	2f 90       	pop	r2
    2026:	08 95       	ret

00002028 <DrvServoGetStruture>:
    2028:	82 31       	cpi	r24, 0x12	; 18

// get the servo strucutre
SServo* DrvServoGetStruture( Int8U index )
{
	if( index < NB_SERVOS )
    202a:	38 f4       	brcc	.+14     	; 0x203a <DrvServoGetStruture+0x12>
	{
		return &servos[ index ];
    202c:	26 e1       	ldi	r18, 0x16	; 22
    202e:	82 9f       	mul	r24, r18
    2030:	c0 01       	movw	r24, r0
    2032:	11 24       	eor	r1, r1
    2034:	89 58       	subi	r24, 0x89	; 137
    2036:	9a 4f       	sbci	r25, 0xFA	; 250
    2038:	08 95       	ret
	}
	return NULL;
    203a:	80 e0       	ldi	r24, 0x00	; 0
    203c:	90 e0       	ldi	r25, 0x00	; 0
}
    203e:	08 95       	ret

00002040 <__vector_19>:


////////////////////////////////////////ISR FUNCTIONS/////////////////////////////////////////

ISR(SPI_STC_vect)
{
    2040:	1f 92       	push	r1
    2042:	0f 92       	push	r0
    2044:	0f b6       	in	r0, 0x3f	; 63
    2046:	0f 92       	push	r0
    2048:	11 24       	eor	r1, r1
    204a:	8f 93       	push	r24
	SPDR = data;
    204c:	80 91 03 07 	lds	r24, 0x0703	; 0x800703 <data>
    2050:	8e bd       	out	0x2e, r24	; 46
}
    2052:	8f 91       	pop	r24
    2054:	0f 90       	pop	r0
    2056:	0f be       	out	0x3f, r0	; 63
    2058:	0f 90       	pop	r0
    205a:	1f 90       	pop	r1
    205c:	18 95       	reti

0000205e <DrvTickInit>:
Int32U DrvTickGetTimeSec(void)
{
	Int32U ms = 0U;
	ms = DrvTickGetTimeMs();
    return (Int32U)(ms / 1000U) ;
}
    205e:	10 92 04 07 	sts	0x0704, r1	; 0x800704 <tickCounter>
    2062:	10 92 05 07 	sts	0x0705, r1	; 0x800705 <tickCounter+0x1>
    2066:	10 92 06 07 	sts	0x0706, r1	; 0x800706 <tickCounter+0x2>
    206a:	10 92 07 07 	sts	0x0707, r1	; 0x800707 <tickCounter+0x3>
    206e:	14 bc       	out	0x24, r1	; 36
    2070:	16 bc       	out	0x26, r1	; 38
    2072:	84 b5       	in	r24, 0x24	; 36
    2074:	8e 7f       	andi	r24, 0xFE	; 254
    2076:	84 bd       	out	0x24, r24	; 36
    2078:	84 b5       	in	r24, 0x24	; 36
    207a:	8d 7f       	andi	r24, 0xFD	; 253
    207c:	84 bd       	out	0x24, r24	; 36
    207e:	85 b5       	in	r24, 0x25	; 37
    2080:	87 7f       	andi	r24, 0xF7	; 247
    2082:	85 bd       	out	0x25, r24	; 37
    2084:	85 b5       	in	r24, 0x25	; 37
    2086:	82 60       	ori	r24, 0x02	; 2
    2088:	85 bd       	out	0x25, r24	; 37
    208a:	85 b5       	in	r24, 0x25	; 37
    208c:	8e 7f       	andi	r24, 0xFE	; 254
    208e:	85 bd       	out	0x25, r24	; 37
    2090:	ee e6       	ldi	r30, 0x6E	; 110
    2092:	f0 e0       	ldi	r31, 0x00	; 0
    2094:	80 81       	ld	r24, Z
    2096:	81 60       	ori	r24, 0x01	; 1
    2098:	80 83       	st	Z, r24
    209a:	81 e0       	ldi	r24, 0x01	; 1
    209c:	08 95       	ret

0000209e <DrvTickGetTimeUs>:
    209e:	3f b7       	in	r19, 0x3f	; 63
    20a0:	f8 94       	cli
    20a2:	80 91 04 07 	lds	r24, 0x0704	; 0x800704 <tickCounter>
    20a6:	90 91 05 07 	lds	r25, 0x0705	; 0x800705 <tickCounter+0x1>
    20aa:	a0 91 06 07 	lds	r26, 0x0706	; 0x800706 <tickCounter+0x2>
    20ae:	b0 91 07 07 	lds	r27, 0x0707	; 0x800707 <tickCounter+0x3>
    20b2:	26 b5       	in	r18, 0x26	; 38
    20b4:	a8 9b       	sbis	0x15, 0	; 21
    20b6:	05 c0       	rjmp	.+10     	; 0x20c2 <DrvTickGetTimeUs+0x24>
    20b8:	2f 3f       	cpi	r18, 0xFF	; 255
    20ba:	19 f0       	breq	.+6      	; 0x20c2 <DrvTickGetTimeUs+0x24>
    20bc:	01 96       	adiw	r24, 0x01	; 1
    20be:	a1 1d       	adc	r26, r1
    20c0:	b1 1d       	adc	r27, r1
    20c2:	3f bf       	out	0x3f, r19	; 63
    20c4:	ba 2f       	mov	r27, r26
    20c6:	a9 2f       	mov	r26, r25
    20c8:	98 2f       	mov	r25, r24
    20ca:	88 27       	eor	r24, r24
    20cc:	82 0f       	add	r24, r18
    20ce:	91 1d       	adc	r25, r1
    20d0:	a1 1d       	adc	r26, r1
    20d2:	b1 1d       	adc	r27, r1
    20d4:	bc 01       	movw	r22, r24
    20d6:	cd 01       	movw	r24, r26
    20d8:	96 95       	lsr	r25
    20da:	87 95       	ror	r24
    20dc:	77 95       	ror	r23
    20de:	67 95       	ror	r22
    20e0:	08 95       	ret

000020e2 <DrvTickGetTimeMs>:
    20e2:	dd df       	rcall	.-70     	; 0x209e <DrvTickGetTimeUs>
    20e4:	28 ee       	ldi	r18, 0xE8	; 232
    20e6:	33 e0       	ldi	r19, 0x03	; 3
    20e8:	40 e0       	ldi	r20, 0x00	; 0
    20ea:	50 e0       	ldi	r21, 0x00	; 0
    20ec:	0e 94 51 23 	call	0x46a2	; 0x46a2 <__udivmodsi4>
    20f0:	ca 01       	movw	r24, r20
    20f2:	b9 01       	movw	r22, r18
    20f4:	08 95       	ret

000020f6 <DrvTickDelayUs>:
	DrvTickDelayUs(delay_ms * 1000UL);
}


void DrvTickDelayUs( Int32U delay_us )
{
    20f6:	cf 92       	push	r12
    20f8:	df 92       	push	r13
    20fa:	ef 92       	push	r14
    20fc:	ff 92       	push	r15
    20fe:	6b 01       	movw	r12, r22
    2100:	7c 01       	movw	r14, r24
	Int32U timeToWait = 0UL;
	timeToWait = (Int32U)(DrvTickGetTimeUs() + (Int32U)delay_us);
    2102:	cd df       	rcall	.-102    	; 0x209e <DrvTickGetTimeUs>
    2104:	c6 0e       	add	r12, r22
    2106:	d7 1e       	adc	r13, r23
    2108:	e8 1e       	adc	r14, r24
    210a:	f9 1e       	adc	r15, r25
	do 
	{
		if(DrvTickGetTimeUs() >= timeToWait)
    210c:	c8 df       	rcall	.-112    	; 0x209e <DrvTickGetTimeUs>
    210e:	6c 15       	cp	r22, r12
    2110:	7d 05       	cpc	r23, r13
    2112:	8e 05       	cpc	r24, r14
    2114:	9f 05       	cpc	r25, r15
    2116:	d0 f3       	brcs	.-12     	; 0x210c <DrvTickDelayUs+0x16>
    2118:	ff 90       	pop	r15
		{
			break;
		}
	} while (TRUE);
}
    211a:	ef 90       	pop	r14
    211c:	df 90       	pop	r13
    211e:	cf 90       	pop	r12
    2120:	08 95       	ret

00002122 <DrvTickDelayMs>:
    2122:	9c 01       	movw	r18, r24
}


void DrvTickDelayMs( Int16U delay_ms )
{
	DrvTickDelayUs(delay_ms * 1000UL);
    2124:	a8 ee       	ldi	r26, 0xE8	; 232
    2126:	b3 e0       	ldi	r27, 0x03	; 3
    2128:	0e 94 73 23 	call	0x46e6	; 0x46e6 <__umulhisi3>
    212c:	e4 cf       	rjmp	.-56     	; 0x20f6 <DrvTickDelayUs>
    212e:	08 95       	ret

00002130 <__vector_18>:


///////////////////////////////////////////ISR FUNCTIONS//////////////////////////////////////////
//ISR timer system 0.5s * 256 =  0.128 ms
ISR(TIMER0_OVF_vect) 
{
    2130:	1f 92       	push	r1
    2132:	0f 92       	push	r0
    2134:	0f b6       	in	r0, 0x3f	; 63
    2136:	0f 92       	push	r0
    2138:	11 24       	eor	r1, r1
    213a:	8f 93       	push	r24
    213c:	9f 93       	push	r25
    213e:	af 93       	push	r26
    2140:	bf 93       	push	r27
	tickCounter += 1UL ;
    2142:	80 91 04 07 	lds	r24, 0x0704	; 0x800704 <tickCounter>
    2146:	90 91 05 07 	lds	r25, 0x0705	; 0x800705 <tickCounter+0x1>
    214a:	a0 91 06 07 	lds	r26, 0x0706	; 0x800706 <tickCounter+0x2>
    214e:	b0 91 07 07 	lds	r27, 0x0707	; 0x800707 <tickCounter+0x3>
    2152:	01 96       	adiw	r24, 0x01	; 1
    2154:	a1 1d       	adc	r26, r1
    2156:	b1 1d       	adc	r27, r1
    2158:	80 93 04 07 	sts	0x0704, r24	; 0x800704 <tickCounter>
    215c:	90 93 05 07 	sts	0x0705, r25	; 0x800705 <tickCounter+0x1>
    2160:	a0 93 06 07 	sts	0x0706, r26	; 0x800706 <tickCounter+0x2>
    2164:	b0 93 07 07 	sts	0x0707, r27	; 0x800707 <tickCounter+0x3>
}
    2168:	bf 91       	pop	r27
    216a:	af 91       	pop	r26
    216c:	9f 91       	pop	r25
    216e:	8f 91       	pop	r24
    2170:	0f 90       	pop	r0
    2172:	0f be       	out	0x3f, r0	; 63
    2174:	0f 90       	pop	r0
    2176:	1f 90       	pop	r1
    2178:	18 95       	reti

0000217a <DrvTimerInit>:

//fct qui fixe un delay au timer
void DrvTimerDelayTimer( Int8U index_timer , Int16U delay)
{
	MesTimers[ index_timer ].cpt_delay = 0U;	
	MesTimers[ index_timer ].delay	  = delay;
    217a:	e4 e6       	ldi	r30, 0x64	; 100
    217c:	fd e0       	ldi	r31, 0x0D	; 13
    217e:	10 82       	st	Z, r1
    2180:	10 86       	std	Z+8, r1	; 0x08
    2182:	17 82       	std	Z+7, r1	; 0x07
    2184:	11 86       	std	Z+9, r1	; 0x09
    2186:	11 8a       	std	Z+17, r1	; 0x11
    2188:	10 8a       	std	Z+16, r1	; 0x10
    218a:	10 92 b0 00 	sts	0x00B0, r1	; 0x8000b0 <__TEXT_REGION_LENGTH__+0x7e00b0>
    218e:	10 92 b2 00 	sts	0x00B2, r1	; 0x8000b2 <__TEXT_REGION_LENGTH__+0x7e00b2>
    2192:	e1 eb       	ldi	r30, 0xB1	; 177
    2194:	f0 e0       	ldi	r31, 0x00	; 0
    2196:	80 81       	ld	r24, Z
    2198:	81 60       	ori	r24, 0x01	; 1
    219a:	80 83       	st	Z, r24
    219c:	80 81       	ld	r24, Z
    219e:	84 60       	ori	r24, 0x04	; 4
    21a0:	80 83       	st	Z, r24
    21a2:	8d e7       	ldi	r24, 0x7D	; 125
    21a4:	80 93 b3 00 	sts	0x00B3, r24	; 0x8000b3 <__TEXT_REGION_LENGTH__+0x7e00b3>
    21a8:	b9 9a       	sbi	0x17, 1	; 23
    21aa:	e0 e7       	ldi	r30, 0x70	; 112
    21ac:	f0 e0       	ldi	r31, 0x00	; 0
    21ae:	80 81       	ld	r24, Z
    21b0:	82 60       	ori	r24, 0x02	; 2
    21b2:	80 83       	st	Z, r24
    21b4:	81 e0       	ldi	r24, 0x01	; 1
    21b6:	08 95       	ret

000021b8 <DrvTimerAddTimer>:
    21b8:	90 e0       	ldi	r25, 0x00	; 0
    21ba:	fc 01       	movw	r30, r24
    21bc:	ee 0f       	add	r30, r30
    21be:	ff 1f       	adc	r31, r31
    21c0:	ee 0f       	add	r30, r30
    21c2:	ff 1f       	adc	r31, r31
    21c4:	ee 0f       	add	r30, r30
    21c6:	ff 1f       	adc	r31, r31
    21c8:	8e 0f       	add	r24, r30
    21ca:	9f 1f       	adc	r25, r31
    21cc:	fc 01       	movw	r30, r24
    21ce:	ec 59       	subi	r30, 0x9C	; 156
    21d0:	f2 4f       	sbci	r31, 0xF2	; 242
    21d2:	72 83       	std	Z+2, r23	; 0x02
    21d4:	61 83       	std	Z+1, r22	; 0x01
    21d6:	14 82       	std	Z+4, r1	; 0x04
    21d8:	13 82       	std	Z+3, r1	; 0x03
    21da:	45 83       	std	Z+5, r20	; 0x05
    21dc:	30 87       	std	Z+8, r19	; 0x08
    21de:	27 83       	std	Z+7, r18	; 0x07
    21e0:	81 e0       	ldi	r24, 0x01	; 1
    21e2:	80 83       	st	Z, r24
    21e4:	08 95       	ret

000021e6 <DrvTimerStopTimer>:
    21e6:	90 e0       	ldi	r25, 0x00	; 0
    21e8:	fc 01       	movw	r30, r24
    21ea:	ee 0f       	add	r30, r30
    21ec:	ff 1f       	adc	r31, r31
    21ee:	ee 0f       	add	r30, r30
    21f0:	ff 1f       	adc	r31, r31
    21f2:	ee 0f       	add	r30, r30
    21f4:	ff 1f       	adc	r31, r31
    21f6:	8e 0f       	add	r24, r30
    21f8:	9f 1f       	adc	r25, r31
    21fa:	fc 01       	movw	r30, r24
    21fc:	ec 59       	subi	r30, 0x9C	; 156
    21fe:	f2 4f       	sbci	r31, 0xF2	; 242
    2200:	10 82       	st	Z, r1
    2202:	12 82       	std	Z+2, r1	; 0x02
    2204:	11 82       	std	Z+1, r1	; 0x01
    2206:	14 82       	std	Z+4, r1	; 0x04
    2208:	13 82       	std	Z+3, r1	; 0x03
    220a:	82 e0       	ldi	r24, 0x02	; 2
    220c:	85 83       	std	Z+5, r24	; 0x05
    220e:	10 86       	std	Z+8, r1	; 0x08
    2210:	17 82       	std	Z+7, r1	; 0x07
    2212:	08 95       	ret

00002214 <DrvTimerTickReset>:

//on reset tt les timers
void DrvTimerTickReset(void)
{
	//stop IT
	BIT_LOW(TIMSK2,OCIE2A);
    2214:	e0 e7       	ldi	r30, 0x70	; 112
    2216:	f0 e0       	ldi	r31, 0x00	; 0
    2218:	80 81       	ld	r24, Z
    221a:	8d 7f       	andi	r24, 0xFD	; 253
    221c:	80 83       	st	Z, r24
	//set the threshold
	OCR2A   = TIMER2_OFFSET_COMPA;
    221e:	8d e7       	ldi	r24, 0x7D	; 125
    2220:	80 93 b3 00 	sts	0x00B3, r24	; 0x8000b3 <__TEXT_REGION_LENGTH__+0x7e00b3>
	//on configure les timers autre que le timer event
	for(Int8U loop_index = 0U; loop_index < E_NB_TIMER ; loop_index++ )
	{
		MesTimers[ loop_index ].cpt_delay = 0U;	
    2224:	a4 e6       	ldi	r26, 0x64	; 100
    2226:	bd e0       	ldi	r27, 0x0D	; 13
    2228:	14 96       	adiw	r26, 0x04	; 4
    222a:	1c 92       	st	X, r1
    222c:	1e 92       	st	-X, r1
    222e:	13 97       	sbiw	r26, 0x03	; 3
    2230:	1d 96       	adiw	r26, 0x0d	; 13
    2232:	1c 92       	st	X, r1
    2234:	1e 92       	st	-X, r1
    2236:	1c 97       	sbiw	r26, 0x0c	; 12
	}
	//reset the counter
	TCNT2	= 0U;
    2238:	10 92 b2 00 	sts	0x00B2, r1	; 0x8000b2 <__TEXT_REGION_LENGTH__+0x7e00b2>
	//enable the IT
	BIT_HIGH(TIMSK2,OCIE2A);
    223c:	80 81       	ld	r24, Z
    223e:	82 60       	ori	r24, 0x02	; 2
    2240:	80 83       	st	Z, r24
    2242:	08 95       	ret

00002244 <__vector_9>:


/////////////////////////////////////ISR PRIVATE FUNCTIONS////////////////////////////////////////
//ISR timer event 1ms
ISR(TIMER2_COMPA_vect)
{
    2244:	1f 92       	push	r1
    2246:	0f 92       	push	r0
    2248:	0f b6       	in	r0, 0x3f	; 63
    224a:	0f 92       	push	r0
    224c:	11 24       	eor	r1, r1
    224e:	0b b6       	in	r0, 0x3b	; 59
    2250:	0f 92       	push	r0
    2252:	ef 92       	push	r14
    2254:	ff 92       	push	r15
    2256:	1f 93       	push	r17
    2258:	2f 93       	push	r18
    225a:	3f 93       	push	r19
    225c:	4f 93       	push	r20
    225e:	5f 93       	push	r21
    2260:	6f 93       	push	r22
    2262:	7f 93       	push	r23
    2264:	8f 93       	push	r24
    2266:	9f 93       	push	r25
    2268:	af 93       	push	r26
    226a:	bf 93       	push	r27
    226c:	cf 93       	push	r28
    226e:	df 93       	push	r29
    2270:	ef 93       	push	r30
    2272:	ff 93       	push	r31
	//on prend le temps de debut d'interruption
	Int8U tcnt2_start = TCNT2;
    2274:	10 91 b2 00 	lds	r17, 0x00B2	; 0x8000b2 <__TEXT_REGION_LENGTH__+0x7e00b2>
    2278:	c0 e0       	ldi	r28, 0x00	; 0
    227a:	d0 e0       	ldi	r29, 0x00	; 0
    227c:	8c 2f       	mov	r24, r28
	for(Int8U loop_index = 0U; loop_index < E_NB_TIMER ; loop_index++ )
	{
		//si le timer est activ
		if( MesTimers[ loop_index ].enable == TRUE )
    227e:	9e 01       	movw	r18, r28
    2280:	fe 01       	movw	r30, r28
    2282:	ee 0f       	add	r30, r30
    2284:	ff 1f       	adc	r31, r31
    2286:	ee 0f       	add	r30, r30
    2288:	ff 1f       	adc	r31, r31
    228a:	ee 0f       	add	r30, r30
    228c:	ff 1f       	adc	r31, r31
    228e:	ec 0f       	add	r30, r28
    2290:	fd 1f       	adc	r31, r29
    2292:	ec 59       	subi	r30, 0x9C	; 156
    2294:	f2 4f       	sbci	r31, 0xF2	; 242
    2296:	90 81       	ld	r25, Z
    2298:	91 30       	cpi	r25, 0x01	; 1
    229a:	09 f0       	breq	.+2      	; 0x229e <__vector_9+0x5a>
    229c:	6c c0       	rjmp	.+216    	; 0x2376 <__vector_9+0x132>
		{
			//on incremente le compteur
			MesTimers[ loop_index ].cpt_delay++;
    229e:	fe 01       	movw	r30, r28
    22a0:	ee 0f       	add	r30, r30
    22a2:	ff 1f       	adc	r31, r31
    22a4:	ee 0f       	add	r30, r30
    22a6:	ff 1f       	adc	r31, r31
    22a8:	ee 0f       	add	r30, r30
    22aa:	ff 1f       	adc	r31, r31
    22ac:	ec 0f       	add	r30, r28
    22ae:	fd 1f       	adc	r31, r29
    22b0:	ec 59       	subi	r30, 0x9C	; 156
    22b2:	f2 4f       	sbci	r31, 0xF2	; 242
    22b4:	43 81       	ldd	r20, Z+3	; 0x03
    22b6:	54 81       	ldd	r21, Z+4	; 0x04
    22b8:	4f 5f       	subi	r20, 0xFF	; 255
    22ba:	5f 4f       	sbci	r21, 0xFF	; 255
    22bc:	54 83       	std	Z+4, r21	; 0x04
    22be:	43 83       	std	Z+3, r20	; 0x03
			
			//on test par rapport a la valeur utilisateur
			if(MesTimers[ loop_index ].cpt_delay == MesTimers[ loop_index ].delay )
    22c0:	63 81       	ldd	r22, Z+3	; 0x03
    22c2:	74 81       	ldd	r23, Z+4	; 0x04
    22c4:	41 81       	ldd	r20, Z+1	; 0x01
    22c6:	52 81       	ldd	r21, Z+2	; 0x02
    22c8:	64 17       	cp	r22, r20
    22ca:	75 07       	cpc	r23, r21
    22cc:	09 f0       	breq	.+2      	; 0x22d0 <__vector_9+0x8c>
    22ce:	53 c0       	rjmp	.+166    	; 0x2376 <__vector_9+0x132>
			{
				if( MesTimers[ loop_index ].mode != E_TIMER_MODE_NONE )
    22d0:	f9 01       	movw	r30, r18
    22d2:	ee 0f       	add	r30, r30
    22d4:	ff 1f       	adc	r31, r31
    22d6:	ee 0f       	add	r30, r30
    22d8:	ff 1f       	adc	r31, r31
    22da:	ee 0f       	add	r30, r30
    22dc:	ff 1f       	adc	r31, r31
    22de:	e2 0f       	add	r30, r18
    22e0:	f3 1f       	adc	r31, r19
    22e2:	ec 59       	subi	r30, 0x9C	; 156
    22e4:	f2 4f       	sbci	r31, 0xF2	; 242
    22e6:	95 81       	ldd	r25, Z+5	; 0x05
    22e8:	92 30       	cpi	r25, 0x02	; 2
    22ea:	09 f4       	brne	.+2      	; 0x22ee <__vector_9+0xaa>
    22ec:	44 c0       	rjmp	.+136    	; 0x2376 <__vector_9+0x132>
				{
					//on remet a zero le compteur
					MesTimers[ loop_index ].cpt_delay = 0U;
    22ee:	f9 01       	movw	r30, r18
    22f0:	ee 0f       	add	r30, r30
    22f2:	ff 1f       	adc	r31, r31
    22f4:	ee 0f       	add	r30, r30
    22f6:	ff 1f       	adc	r31, r31
    22f8:	ee 0f       	add	r30, r30
    22fa:	ff 1f       	adc	r31, r31
    22fc:	e2 0f       	add	r30, r18
    22fe:	f3 1f       	adc	r31, r19
    2300:	ec 59       	subi	r30, 0x9C	; 156
    2302:	f2 4f       	sbci	r31, 0xF2	; 242
    2304:	14 82       	std	Z+4, r1	; 0x04
    2306:	13 82       	std	Z+3, r1	; 0x03
					
					//si on est en mode ONE SHOT 
					//on atteind le temp, on supprime le timer
					if (MesTimers[ loop_index ].mode == E_TIMER_MODE_ONE_SHOT)
    2308:	95 81       	ldd	r25, Z+5	; 0x05
    230a:	91 11       	cpse	r25, r1
    230c:	15 c0       	rjmp	.+42     	; 0x2338 <__vector_9+0xf4>
					{
						//on garde la fonction appel avant de tt effacer
						ptrfct_Isr_Callback_Timer ptrfct = MesTimers[ loop_index ].ptrfct;
    230e:	f9 01       	movw	r30, r18
    2310:	ee 0f       	add	r30, r30
    2312:	ff 1f       	adc	r31, r31
    2314:	ee 0f       	add	r30, r30
    2316:	ff 1f       	adc	r31, r31
    2318:	ee 0f       	add	r30, r30
    231a:	ff 1f       	adc	r31, r31
    231c:	2e 0f       	add	r18, r30
    231e:	3f 1f       	adc	r19, r31
    2320:	f9 01       	movw	r30, r18
    2322:	ec 59       	subi	r30, 0x9C	; 156
    2324:	f2 4f       	sbci	r31, 0xF2	; 242
    2326:	e7 80       	ldd	r14, Z+7	; 0x07
    2328:	f0 84       	ldd	r15, Z+8	; 0x08
						//on supprime le timer One Shot
						DrvTimerStopTimer( loop_index );
    232a:	5d df       	rcall	.-326    	; 0x21e6 <DrvTimerStopTimer>
						//on appelle la fonction
						if( ptrfct != NULL )
    232c:	e1 14       	cp	r14, r1
    232e:	f1 04       	cpc	r15, r1
    2330:	11 f1       	breq	.+68     	; 0x2376 <__vector_9+0x132>
						{
							ptrfct();
    2332:	f7 01       	movw	r30, r14
    2334:	09 95       	icall
    2336:	1f c0       	rjmp	.+62     	; 0x2376 <__vector_9+0x132>
						}
					}
					else
					{
						//on appelle la fonction
						if( MesTimers[ loop_index ].ptrfct != NULL )
    2338:	f9 01       	movw	r30, r18
    233a:	ee 0f       	add	r30, r30
    233c:	ff 1f       	adc	r31, r31
    233e:	ee 0f       	add	r30, r30
    2340:	ff 1f       	adc	r31, r31
    2342:	ee 0f       	add	r30, r30
    2344:	ff 1f       	adc	r31, r31
    2346:	e2 0f       	add	r30, r18
    2348:	f3 1f       	adc	r31, r19
    234a:	ec 59       	subi	r30, 0x9C	; 156
    234c:	f2 4f       	sbci	r31, 0xF2	; 242
    234e:	87 81       	ldd	r24, Z+7	; 0x07
    2350:	90 85       	ldd	r25, Z+8	; 0x08
    2352:	89 2b       	or	r24, r25
    2354:	81 f0       	breq	.+32     	; 0x2376 <__vector_9+0x132>
						{
							MesTimers[ loop_index ].ptrfct();
    2356:	f9 01       	movw	r30, r18
    2358:	ee 0f       	add	r30, r30
    235a:	ff 1f       	adc	r31, r31
    235c:	ee 0f       	add	r30, r30
    235e:	ff 1f       	adc	r31, r31
    2360:	ee 0f       	add	r30, r30
    2362:	ff 1f       	adc	r31, r31
    2364:	2e 0f       	add	r18, r30
    2366:	3f 1f       	adc	r19, r31
    2368:	f9 01       	movw	r30, r18
    236a:	ec 59       	subi	r30, 0x9C	; 156
    236c:	f2 4f       	sbci	r31, 0xF2	; 242
    236e:	07 80       	ldd	r0, Z+7	; 0x07
    2370:	f0 85       	ldd	r31, Z+8	; 0x08
    2372:	e0 2d       	mov	r30, r0
    2374:	09 95       	icall
    2376:	21 96       	adiw	r28, 0x01	; 1
//ISR timer event 1ms
ISR(TIMER2_COMPA_vect)
{
	//on prend le temps de debut d'interruption
	Int8U tcnt2_start = TCNT2;
	for(Int8U loop_index = 0U; loop_index < E_NB_TIMER ; loop_index++ )
    2378:	c2 30       	cpi	r28, 0x02	; 2
    237a:	d1 05       	cpc	r29, r1
    237c:	09 f0       	breq	.+2      	; 0x2380 <__vector_9+0x13c>
    237e:	7e cf       	rjmp	.-260    	; 0x227c <__vector_9+0x38>
				}
			}
		}			
	}
	//on prend le temps de fin d'interruption
	Int8U tcnt2_end = TCNT2;
    2380:	80 91 b2 00 	lds	r24, 0x00B2	; 0x8000b2 <__TEXT_REGION_LENGTH__+0x7e00b2>
	//reenclanche le timer dans 1ms
	OCR2A = tcnt2_end + TIMER2_OFFSET_COMPA - (tcnt2_end - tcnt2_start) - 1U ;
    2384:	14 58       	subi	r17, 0x84	; 132
    2386:	10 93 b3 00 	sts	0x00B3, r17	; 0x8000b3 <__TEXT_REGION_LENGTH__+0x7e00b3>
    238a:	ff 91       	pop	r31
    238c:	ef 91       	pop	r30
    238e:	df 91       	pop	r29
    2390:	cf 91       	pop	r28
    2392:	bf 91       	pop	r27
    2394:	af 91       	pop	r26
    2396:	9f 91       	pop	r25
    2398:	8f 91       	pop	r24
    239a:	7f 91       	pop	r23
    239c:	6f 91       	pop	r22
    239e:	5f 91       	pop	r21
    23a0:	4f 91       	pop	r20
    23a2:	3f 91       	pop	r19
    23a4:	2f 91       	pop	r18
    23a6:	1f 91       	pop	r17
    23a8:	ff 90       	pop	r15
    23aa:	ef 90       	pop	r14
    23ac:	0f 90       	pop	r0
    23ae:	0b be       	out	0x3b, r0	; 59
    23b0:	0f 90       	pop	r0
    23b2:	0f be       	out	0x3f, r0	; 63
    23b4:	0f 90       	pop	r0
    23b6:	1f 90       	pop	r1
    23b8:	18 95       	reti

000023ba <DrvTwiWaitTransmission>:
				}
			}
		}
	}
	return read_no_error; 
}	
    23ba:	8f ef       	ldi	r24, 0xFF	; 255
    23bc:	ec eb       	ldi	r30, 0xBC	; 188
    23be:	f0 e0       	ldi	r31, 0x00	; 0
    23c0:	0e c0       	rjmp	.+28     	; 0x23de <DrvTwiWaitTransmission+0x24>
    23c2:	81 50       	subi	r24, 0x01	; 1
    23c4:	61 f4       	brne	.+24     	; 0x23de <DrvTwiWaitTransmission+0x24>
    23c6:	80 91 08 07 	lds	r24, 0x0708	; 0x800708 <errorsCount>
    23ca:	90 91 09 07 	lds	r25, 0x0709	; 0x800709 <errorsCount+0x1>
    23ce:	01 96       	adiw	r24, 0x01	; 1
    23d0:	90 93 09 07 	sts	0x0709, r25	; 0x800709 <errorsCount+0x1>
    23d4:	80 93 08 07 	sts	0x0708, r24	; 0x800708 <errorsCount>
    23d8:	10 92 bc 00 	sts	0x00BC, r1	; 0x8000bc <__TEXT_REGION_LENGTH__+0x7e00bc>
    23dc:	08 95       	ret
    23de:	90 81       	ld	r25, Z
    23e0:	99 23       	and	r25, r25
    23e2:	7c f7       	brge	.-34     	; 0x23c2 <DrvTwiWaitTransmission+0x8>
    23e4:	08 95       	ret

000023e6 <DrvTwiInit>:
    23e6:	cf 92       	push	r12
    23e8:	df 92       	push	r13
    23ea:	ef 92       	push	r14
    23ec:	ff 92       	push	r15
    23ee:	cf 93       	push	r28
    23f0:	df 93       	push	r29
    23f2:	6b 01       	movw	r12, r22
    23f4:	7c 01       	movw	r14, r24
    23f6:	c9 eb       	ldi	r28, 0xB9	; 185
    23f8:	d1 e0       	ldi	r29, 0x01	; 1
    23fa:	88 81       	ld	r24, Y
    23fc:	0e 94 d5 06 	call	0xdaa	; 0xdaa <DrvIoSetPinOutput>
    2400:	89 81       	ldd	r24, Y+1	; 0x01
    2402:	0e 94 d5 06 	call	0xdaa	; 0xdaa <DrvIoSetPinOutput>
    2406:	60 e0       	ldi	r22, 0x00	; 0
    2408:	7d e2       	ldi	r23, 0x2D	; 45
    240a:	81 e3       	ldi	r24, 0x31	; 49
    240c:	91 e0       	ldi	r25, 0x01	; 1
    240e:	a7 01       	movw	r20, r14
    2410:	96 01       	movw	r18, r12
    2412:	0e 94 51 23 	call	0x46a2	; 0x46a2 <__udivmodsi4>
    2416:	20 51       	subi	r18, 0x10	; 16
    2418:	31 09       	sbc	r19, r1
    241a:	36 95       	lsr	r19
    241c:	27 95       	ror	r18
    241e:	20 93 b8 00 	sts	0x00B8, r18	; 0x8000b8 <__TEXT_REGION_LENGTH__+0x7e00b8>
    2422:	10 92 b9 00 	sts	0x00B9, r1	; 0x8000b9 <__TEXT_REGION_LENGTH__+0x7e00b9>
    2426:	84 e0       	ldi	r24, 0x04	; 4
    2428:	80 93 bc 00 	sts	0x00BC, r24	; 0x8000bc <__TEXT_REGION_LENGTH__+0x7e00bc>
    242c:	10 92 09 07 	sts	0x0709, r1	; 0x800709 <errorsCount+0x1>
    2430:	10 92 08 07 	sts	0x0708, r1	; 0x800708 <errorsCount>
    2434:	81 e0       	ldi	r24, 0x01	; 1
    2436:	df 91       	pop	r29
    2438:	cf 91       	pop	r28
    243a:	ff 90       	pop	r15
    243c:	ef 90       	pop	r14
    243e:	df 90       	pop	r13
    2440:	cf 90       	pop	r12
    2442:	08 95       	ret

00002444 <DrvTwiReadReg>:
    2444:	0f 93       	push	r16
    2446:	1f 93       	push	r17
    2448:	cf 93       	push	r28
    244a:	df 93       	push	r29
    244c:	c8 2f       	mov	r28, r24
    244e:	d6 2f       	mov	r29, r22
    2450:	8a 01       	movw	r16, r20
    2452:	84 ea       	ldi	r24, 0xA4	; 164
    2454:	80 93 bc 00 	sts	0x00BC, r24	; 0x8000bc <__TEXT_REGION_LENGTH__+0x7e00bc>
    2458:	b0 df       	rcall	.-160    	; 0x23ba <DrvTwiWaitTransmission>
    245a:	80 91 b9 00 	lds	r24, 0x00B9	; 0x8000b9 <__TEXT_REGION_LENGTH__+0x7e00b9>
    245e:	88 30       	cpi	r24, 0x08	; 8
    2460:	29 f0       	breq	.+10     	; 0x246c <DrvTwiReadReg+0x28>
    2462:	80 91 b9 00 	lds	r24, 0x00B9	; 0x8000b9 <__TEXT_REGION_LENGTH__+0x7e00b9>
    2466:	80 31       	cpi	r24, 0x10	; 16
    2468:	09 f0       	breq	.+2      	; 0x246c <DrvTwiReadReg+0x28>
    246a:	49 c0       	rjmp	.+146    	; 0x24fe <DrvTwiReadReg+0xba>
    246c:	8c 2f       	mov	r24, r28
    246e:	88 0f       	add	r24, r24
    2470:	80 93 bb 00 	sts	0x00BB, r24	; 0x8000bb <__TEXT_REGION_LENGTH__+0x7e00bb>
    2474:	84 e8       	ldi	r24, 0x84	; 132
    2476:	80 93 bc 00 	sts	0x00BC, r24	; 0x8000bc <__TEXT_REGION_LENGTH__+0x7e00bc>
    247a:	9f df       	rcall	.-194    	; 0x23ba <DrvTwiWaitTransmission>
    247c:	80 91 b9 00 	lds	r24, 0x00B9	; 0x8000b9 <__TEXT_REGION_LENGTH__+0x7e00b9>
    2480:	88 31       	cpi	r24, 0x18	; 24
    2482:	09 f0       	breq	.+2      	; 0x2486 <DrvTwiReadReg+0x42>
    2484:	3e c0       	rjmp	.+124    	; 0x2502 <DrvTwiReadReg+0xbe>
    2486:	d0 93 bb 00 	sts	0x00BB, r29	; 0x8000bb <__TEXT_REGION_LENGTH__+0x7e00bb>
    248a:	84 e8       	ldi	r24, 0x84	; 132
    248c:	80 93 bc 00 	sts	0x00BC, r24	; 0x8000bc <__TEXT_REGION_LENGTH__+0x7e00bc>
    2490:	94 df       	rcall	.-216    	; 0x23ba <DrvTwiWaitTransmission>
    2492:	80 91 b9 00 	lds	r24, 0x00B9	; 0x8000b9 <__TEXT_REGION_LENGTH__+0x7e00b9>
    2496:	88 32       	cpi	r24, 0x28	; 40
    2498:	b1 f5       	brne	.+108    	; 0x2506 <DrvTwiReadReg+0xc2>
    249a:	84 ea       	ldi	r24, 0xA4	; 164
    249c:	80 93 bc 00 	sts	0x00BC, r24	; 0x8000bc <__TEXT_REGION_LENGTH__+0x7e00bc>
    24a0:	8c df       	rcall	.-232    	; 0x23ba <DrvTwiWaitTransmission>
    24a2:	80 91 b9 00 	lds	r24, 0x00B9	; 0x8000b9 <__TEXT_REGION_LENGTH__+0x7e00b9>
    24a6:	80 31       	cpi	r24, 0x10	; 16
    24a8:	81 f5       	brne	.+96     	; 0x250a <DrvTwiReadReg+0xc6>
    24aa:	cc 0f       	add	r28, r28
    24ac:	c1 60       	ori	r28, 0x01	; 1
    24ae:	c0 93 bb 00 	sts	0x00BB, r28	; 0x8000bb <__TEXT_REGION_LENGTH__+0x7e00bb>
    24b2:	84 e8       	ldi	r24, 0x84	; 132
    24b4:	80 93 bc 00 	sts	0x00BC, r24	; 0x8000bc <__TEXT_REGION_LENGTH__+0x7e00bc>
    24b8:	80 df       	rcall	.-256    	; 0x23ba <DrvTwiWaitTransmission>
    24ba:	80 91 b9 00 	lds	r24, 0x00B9	; 0x8000b9 <__TEXT_REGION_LENGTH__+0x7e00b9>
    24be:	80 34       	cpi	r24, 0x40	; 64
    24c0:	31 f5       	brne	.+76     	; 0x250e <DrvTwiReadReg+0xca>
    24c2:	84 e8       	ldi	r24, 0x84	; 132
    24c4:	80 93 bc 00 	sts	0x00BC, r24	; 0x8000bc <__TEXT_REGION_LENGTH__+0x7e00bc>
    24c8:	78 df       	rcall	.-272    	; 0x23ba <DrvTwiWaitTransmission>
    24ca:	80 91 b9 00 	lds	r24, 0x00B9	; 0x8000b9 <__TEXT_REGION_LENGTH__+0x7e00b9>
    24ce:	88 35       	cpi	r24, 0x58	; 88
    24d0:	01 f5       	brne	.+64     	; 0x2512 <DrvTwiReadReg+0xce>
    24d2:	80 91 bb 00 	lds	r24, 0x00BB	; 0x8000bb <__TEXT_REGION_LENGTH__+0x7e00bb>
    24d6:	f8 01       	movw	r30, r16
    24d8:	80 83       	st	Z, r24
    24da:	84 e9       	ldi	r24, 0x94	; 148
    24dc:	80 93 bc 00 	sts	0x00BC, r24	; 0x8000bc <__TEXT_REGION_LENGTH__+0x7e00bc>
    24e0:	80 91 b9 00 	lds	r24, 0x00B9	; 0x8000b9 <__TEXT_REGION_LENGTH__+0x7e00b9>
    24e4:	88 3f       	cpi	r24, 0xF8	; 248
    24e6:	b9 f0       	breq	.+46     	; 0x2516 <DrvTwiReadReg+0xd2>
    24e8:	80 91 08 07 	lds	r24, 0x0708	; 0x800708 <errorsCount>
    24ec:	90 91 09 07 	lds	r25, 0x0709	; 0x800709 <errorsCount+0x1>
    24f0:	01 96       	adiw	r24, 0x01	; 1
    24f2:	90 93 09 07 	sts	0x0709, r25	; 0x800709 <errorsCount+0x1>
    24f6:	80 93 08 07 	sts	0x0708, r24	; 0x800708 <errorsCount>
    24fa:	80 e0       	ldi	r24, 0x00	; 0
    24fc:	0d c0       	rjmp	.+26     	; 0x2518 <DrvTwiReadReg+0xd4>
    24fe:	80 e0       	ldi	r24, 0x00	; 0
    2500:	0b c0       	rjmp	.+22     	; 0x2518 <DrvTwiReadReg+0xd4>
    2502:	80 e0       	ldi	r24, 0x00	; 0
    2504:	09 c0       	rjmp	.+18     	; 0x2518 <DrvTwiReadReg+0xd4>
    2506:	80 e0       	ldi	r24, 0x00	; 0
    2508:	07 c0       	rjmp	.+14     	; 0x2518 <DrvTwiReadReg+0xd4>
    250a:	80 e0       	ldi	r24, 0x00	; 0
    250c:	05 c0       	rjmp	.+10     	; 0x2518 <DrvTwiReadReg+0xd4>
    250e:	80 e0       	ldi	r24, 0x00	; 0
    2510:	03 c0       	rjmp	.+6      	; 0x2518 <DrvTwiReadReg+0xd4>
    2512:	80 e0       	ldi	r24, 0x00	; 0
    2514:	01 c0       	rjmp	.+2      	; 0x2518 <DrvTwiReadReg+0xd4>
    2516:	81 e0       	ldi	r24, 0x01	; 1
    2518:	df 91       	pop	r29
    251a:	cf 91       	pop	r28
    251c:	1f 91       	pop	r17
    251e:	0f 91       	pop	r16
    2520:	08 95       	ret

00002522 <DrvTwiWriteReg>:
    2522:	1f 93       	push	r17
    2524:	cf 93       	push	r28
    2526:	df 93       	push	r29
    2528:	c8 2f       	mov	r28, r24
    252a:	d6 2f       	mov	r29, r22
    252c:	14 2f       	mov	r17, r20
    252e:	84 ea       	ldi	r24, 0xA4	; 164
    2530:	80 93 bc 00 	sts	0x00BC, r24	; 0x8000bc <__TEXT_REGION_LENGTH__+0x7e00bc>
    2534:	42 df       	rcall	.-380    	; 0x23ba <DrvTwiWaitTransmission>
    2536:	80 91 b9 00 	lds	r24, 0x00B9	; 0x8000b9 <__TEXT_REGION_LENGTH__+0x7e00b9>
    253a:	88 30       	cpi	r24, 0x08	; 8
    253c:	21 f0       	breq	.+8      	; 0x2546 <DrvTwiWriteReg+0x24>
    253e:	80 91 b9 00 	lds	r24, 0x00B9	; 0x8000b9 <__TEXT_REGION_LENGTH__+0x7e00b9>
    2542:	80 31       	cpi	r24, 0x10	; 16
    2544:	89 f5       	brne	.+98     	; 0x25a8 <DrvTwiWriteReg+0x86>
    2546:	cc 0f       	add	r28, r28
    2548:	c0 93 bb 00 	sts	0x00BB, r28	; 0x8000bb <__TEXT_REGION_LENGTH__+0x7e00bb>
    254c:	84 e8       	ldi	r24, 0x84	; 132
    254e:	80 93 bc 00 	sts	0x00BC, r24	; 0x8000bc <__TEXT_REGION_LENGTH__+0x7e00bc>
    2552:	33 df       	rcall	.-410    	; 0x23ba <DrvTwiWaitTransmission>
    2554:	80 91 b9 00 	lds	r24, 0x00B9	; 0x8000b9 <__TEXT_REGION_LENGTH__+0x7e00b9>
    2558:	88 31       	cpi	r24, 0x18	; 24
    255a:	41 f5       	brne	.+80     	; 0x25ac <DrvTwiWriteReg+0x8a>
    255c:	d0 93 bb 00 	sts	0x00BB, r29	; 0x8000bb <__TEXT_REGION_LENGTH__+0x7e00bb>
    2560:	84 e8       	ldi	r24, 0x84	; 132
    2562:	80 93 bc 00 	sts	0x00BC, r24	; 0x8000bc <__TEXT_REGION_LENGTH__+0x7e00bc>
    2566:	29 df       	rcall	.-430    	; 0x23ba <DrvTwiWaitTransmission>
    2568:	80 91 b9 00 	lds	r24, 0x00B9	; 0x8000b9 <__TEXT_REGION_LENGTH__+0x7e00b9>
    256c:	88 32       	cpi	r24, 0x28	; 40
    256e:	01 f5       	brne	.+64     	; 0x25b0 <DrvTwiWriteReg+0x8e>
    2570:	10 93 bb 00 	sts	0x00BB, r17	; 0x8000bb <__TEXT_REGION_LENGTH__+0x7e00bb>
    2574:	84 e8       	ldi	r24, 0x84	; 132
    2576:	80 93 bc 00 	sts	0x00BC, r24	; 0x8000bc <__TEXT_REGION_LENGTH__+0x7e00bc>
    257a:	1f df       	rcall	.-450    	; 0x23ba <DrvTwiWaitTransmission>
    257c:	80 91 b9 00 	lds	r24, 0x00B9	; 0x8000b9 <__TEXT_REGION_LENGTH__+0x7e00b9>
    2580:	88 32       	cpi	r24, 0x28	; 40
    2582:	c1 f4       	brne	.+48     	; 0x25b4 <DrvTwiWriteReg+0x92>
    2584:	84 e9       	ldi	r24, 0x94	; 148
    2586:	80 93 bc 00 	sts	0x00BC, r24	; 0x8000bc <__TEXT_REGION_LENGTH__+0x7e00bc>
    258a:	80 91 b9 00 	lds	r24, 0x00B9	; 0x8000b9 <__TEXT_REGION_LENGTH__+0x7e00b9>
    258e:	88 3f       	cpi	r24, 0xF8	; 248
    2590:	99 f0       	breq	.+38     	; 0x25b8 <DrvTwiWriteReg+0x96>
    2592:	80 91 08 07 	lds	r24, 0x0708	; 0x800708 <errorsCount>
    2596:	90 91 09 07 	lds	r25, 0x0709	; 0x800709 <errorsCount+0x1>
    259a:	01 96       	adiw	r24, 0x01	; 1
    259c:	90 93 09 07 	sts	0x0709, r25	; 0x800709 <errorsCount+0x1>
    25a0:	80 93 08 07 	sts	0x0708, r24	; 0x800708 <errorsCount>
    25a4:	80 e0       	ldi	r24, 0x00	; 0
    25a6:	09 c0       	rjmp	.+18     	; 0x25ba <DrvTwiWriteReg+0x98>
    25a8:	80 e0       	ldi	r24, 0x00	; 0
    25aa:	07 c0       	rjmp	.+14     	; 0x25ba <DrvTwiWriteReg+0x98>
    25ac:	80 e0       	ldi	r24, 0x00	; 0
    25ae:	05 c0       	rjmp	.+10     	; 0x25ba <DrvTwiWriteReg+0x98>
    25b0:	80 e0       	ldi	r24, 0x00	; 0
    25b2:	03 c0       	rjmp	.+6      	; 0x25ba <DrvTwiWriteReg+0x98>
    25b4:	80 e0       	ldi	r24, 0x00	; 0
    25b6:	01 c0       	rjmp	.+2      	; 0x25ba <DrvTwiWriteReg+0x98>
    25b8:	81 e0       	ldi	r24, 0x01	; 1
    25ba:	df 91       	pop	r29
    25bc:	cf 91       	pop	r28
    25be:	1f 91       	pop	r17
    25c0:	08 95       	ret

000025c2 <DrvTwiWriteRegBuf>:

/************************************************************************/
/*Write many registers                                                  */
/************************************************************************/
Boolean DrvTwiWriteRegBuf(Int8U slave_address, Int8U slave_register, Int8U *buffer, Int8U buffer_size)
{
    25c2:	9f 92       	push	r9
    25c4:	af 92       	push	r10
    25c6:	bf 92       	push	r11
    25c8:	cf 92       	push	r12
    25ca:	df 92       	push	r13
    25cc:	ef 92       	push	r14
    25ce:	ff 92       	push	r15
    25d0:	0f 93       	push	r16
    25d2:	1f 93       	push	r17
    25d4:	cf 93       	push	r28
    25d6:	df 93       	push	r29
    25d8:	c8 2f       	mov	r28, r24
    25da:	f6 2e       	mov	r15, r22
    25dc:	8a 01       	movw	r16, r20
    25de:	d2 2f       	mov	r29, r18
	Boolean o_success = TRUE;
	
	TWCR = (1U<<TWINT)|(1U<<TWSTA)|(1U<<TWEN);           // SEND START
    25e0:	84 ea       	ldi	r24, 0xA4	; 164
    25e2:	80 93 bc 00 	sts	0x00BC, r24	; 0x8000bc <__TEXT_REGION_LENGTH__+0x7e00bc>
	DrvTwiWaitTransmission();
    25e6:	e9 de       	rcall	.-558    	; 0x23ba <DrvTwiWaitTransmission>

	if  ( ((TWSR==TW_START) || (TWSR==TW_REP_START)) )
    25e8:	80 91 b9 00 	lds	r24, 0x00B9	; 0x8000b9 <__TEXT_REGION_LENGTH__+0x7e00b9>
    25ec:	88 30       	cpi	r24, 0x08	; 8
    25ee:	29 f0       	breq	.+10     	; 0x25fa <DrvTwiWriteRegBuf+0x38>
    25f0:	80 91 b9 00 	lds	r24, 0x00B9	; 0x8000b9 <__TEXT_REGION_LENGTH__+0x7e00b9>
    25f4:	80 31       	cpi	r24, 0x10	; 16
    25f6:	09 f0       	breq	.+2      	; 0x25fa <DrvTwiWriteRegBuf+0x38>
    25f8:	51 c0       	rjmp	.+162    	; 0x269c <DrvTwiWriteRegBuf+0xda>
	{
		//send slave address
		TWDR =  (slave_address << 1 ) | TW_WRITE;
    25fa:	cc 0f       	add	r28, r28
    25fc:	c0 93 bb 00 	sts	0x00BB, r28	; 0x8000bb <__TEXT_REGION_LENGTH__+0x7e00bb>
		TWCR = (1U << TWINT) | (1U << TWEN);
    2600:	84 e8       	ldi	r24, 0x84	; 132
    2602:	80 93 bc 00 	sts	0x00BC, r24	; 0x8000bc <__TEXT_REGION_LENGTH__+0x7e00bc>
		DrvTwiWaitTransmission();
    2606:	d9 de       	rcall	.-590    	; 0x23ba <DrvTwiWaitTransmission>
		if ( (TWSR==TW_MT_SLA_ACK) )
    2608:	80 91 b9 00 	lds	r24, 0x00B9	; 0x8000b9 <__TEXT_REGION_LENGTH__+0x7e00b9>
    260c:	88 31       	cpi	r24, 0x18	; 24
    260e:	09 f0       	breq	.+2      	; 0x2612 <DrvTwiWriteRegBuf+0x50>
    2610:	47 c0       	rjmp	.+142    	; 0x26a0 <DrvTwiWriteRegBuf+0xde>
		{
			//send register address
			TWDR = slave_register;
    2612:	f0 92 bb 00 	sts	0x00BB, r15	; 0x8000bb <__TEXT_REGION_LENGTH__+0x7e00bb>
			TWCR = (1U<<TWINT) | (1U<<TWEN);
    2616:	84 e8       	ldi	r24, 0x84	; 132
    2618:	80 93 bc 00 	sts	0x00BC, r24	; 0x8000bc <__TEXT_REGION_LENGTH__+0x7e00bc>
			DrvTwiWaitTransmission();
    261c:	ce de       	rcall	.-612    	; 0x23ba <DrvTwiWaitTransmission>
			if ( (TWSR==TW_MT_DATA_ACK) )
    261e:	80 91 b9 00 	lds	r24, 0x00B9	; 0x8000b9 <__TEXT_REGION_LENGTH__+0x7e00b9>
    2622:	88 32       	cpi	r24, 0x28	; 40
    2624:	09 f0       	breq	.+2      	; 0x2628 <DrvTwiWriteRegBuf+0x66>
    2626:	3e c0       	rjmp	.+124    	; 0x26a4 <DrvTwiWriteRegBuf+0xe2>
			{
				for ( Int8U loop_write_twi = 0 ; loop_write_twi < buffer_size; loop_write_twi++ )
    2628:	dd 23       	and	r29, r29
    262a:	99 f1       	breq	.+102    	; 0x2692 <DrvTwiWriteRegBuf+0xd0>
    262c:	78 01       	movw	r14, r16
    262e:	d1 50       	subi	r29, 0x01	; 1
    2630:	cd 2f       	mov	r28, r29
    2632:	d0 e0       	ldi	r29, 0x00	; 0
    2634:	21 96       	adiw	r28, 0x01	; 1
    2636:	c0 0f       	add	r28, r16
    2638:	d1 1f       	adc	r29, r17
				{
					TWDR =  *buffer++;                                     // DATA TO WRITE
    263a:	0f 2e       	mov	r0, r31
    263c:	fb eb       	ldi	r31, 0xBB	; 187
    263e:	af 2e       	mov	r10, r31
    2640:	b1 2c       	mov	r11, r1
    2642:	f0 2d       	mov	r31, r0
					TWCR = (1U<<TWINT) | (1U<<TWEN);                       // send clock
    2644:	0f 2e       	mov	r0, r31
    2646:	fc eb       	ldi	r31, 0xBC	; 188
    2648:	cf 2e       	mov	r12, r31
    264a:	d1 2c       	mov	r13, r1
    264c:	f0 2d       	mov	r31, r0
    264e:	0f 2e       	mov	r0, r31
    2650:	f4 e8       	ldi	r31, 0x84	; 132
    2652:	9f 2e       	mov	r9, r31
    2654:	f0 2d       	mov	r31, r0
					DrvTwiWaitTransmission();
					
					if ( (TWSR!=TW_MT_DATA_ACK) )  
    2656:	09 eb       	ldi	r16, 0xB9	; 185
    2658:	10 e0       	ldi	r17, 0x00	; 0
			DrvTwiWaitTransmission();
			if ( (TWSR==TW_MT_DATA_ACK) )
			{
				for ( Int8U loop_write_twi = 0 ; loop_write_twi < buffer_size; loop_write_twi++ )
				{
					TWDR =  *buffer++;                                     // DATA TO WRITE
    265a:	f7 01       	movw	r30, r14
    265c:	81 91       	ld	r24, Z+
    265e:	7f 01       	movw	r14, r30
    2660:	f5 01       	movw	r30, r10
					TWCR = (1U<<TWINT) | (1U<<TWEN);                       // send clock
    2662:	80 83       	st	Z, r24
    2664:	f6 01       	movw	r30, r12
					DrvTwiWaitTransmission();
    2666:	90 82       	st	Z, r9
    2668:	a8 de       	rcall	.-688    	; 0x23ba <DrvTwiWaitTransmission>
					
					if ( (TWSR!=TW_MT_DATA_ACK) )  
    266a:	f8 01       	movw	r30, r16
    266c:	80 81       	ld	r24, Z
    266e:	88 32       	cpi	r24, 0x28	; 40
    2670:	59 f0       	breq	.+22     	; 0x2688 <DrvTwiWriteRegBuf+0xc6>
					{
						o_success = FALSE;
						errorsCount++;
    2672:	80 91 08 07 	lds	r24, 0x0708	; 0x800708 <errorsCount>
    2676:	90 91 09 07 	lds	r25, 0x0709	; 0x800709 <errorsCount+0x1>
    267a:	01 96       	adiw	r24, 0x01	; 1
    267c:	90 93 09 07 	sts	0x0709, r25	; 0x800709 <errorsCount+0x1>
    2680:	80 93 08 07 	sts	0x0708, r24	; 0x800708 <errorsCount>
					TWCR = (1U<<TWINT) | (1U<<TWEN);                       // send clock
					DrvTwiWaitTransmission();
					
					if ( (TWSR!=TW_MT_DATA_ACK) )  
					{
						o_success = FALSE;
    2684:	80 e0       	ldi	r24, 0x00	; 0
						errorsCount++;
						break;
    2686:	06 c0       	rjmp	.+12     	; 0x2694 <DrvTwiWriteRegBuf+0xd2>
			TWDR = slave_register;
			TWCR = (1U<<TWINT) | (1U<<TWEN);
			DrvTwiWaitTransmission();
			if ( (TWSR==TW_MT_DATA_ACK) )
			{
				for ( Int8U loop_write_twi = 0 ; loop_write_twi < buffer_size; loop_write_twi++ )
    2688:	ce 15       	cp	r28, r14
    268a:	df 05       	cpc	r29, r15
    268c:	31 f7       	brne	.-52     	; 0x265a <DrvTwiWriteRegBuf+0x98>
/************************************************************************/
/*Write many registers                                                  */
/************************************************************************/
Boolean DrvTwiWriteRegBuf(Int8U slave_address, Int8U slave_register, Int8U *buffer, Int8U buffer_size)
{
	Boolean o_success = TRUE;
    268e:	81 e0       	ldi	r24, 0x01	; 1
    2690:	01 c0       	rjmp	.+2      	; 0x2694 <DrvTwiWriteRegBuf+0xd2>
    2692:	81 e0       	ldi	r24, 0x01	; 1
						o_success = FALSE;
						errorsCount++;
						break;
					}
				}
				TWCR = (1U<<TWINT) | (1U<<TWEN)| (1U<<TWSTO);       // send stop
    2694:	94 e9       	ldi	r25, 0x94	; 148
    2696:	90 93 bc 00 	sts	0x00BC, r25	; 0x8000bc <__TEXT_REGION_LENGTH__+0x7e00bc>
    269a:	05 c0       	rjmp	.+10     	; 0x26a6 <DrvTwiWriteRegBuf+0xe4>
/************************************************************************/
/*Write many registers                                                  */
/************************************************************************/
Boolean DrvTwiWriteRegBuf(Int8U slave_address, Int8U slave_register, Int8U *buffer, Int8U buffer_size)
{
	Boolean o_success = TRUE;
    269c:	81 e0       	ldi	r24, 0x01	; 1
    269e:	03 c0       	rjmp	.+6      	; 0x26a6 <DrvTwiWriteRegBuf+0xe4>
    26a0:	81 e0       	ldi	r24, 0x01	; 1
    26a2:	01 c0       	rjmp	.+2      	; 0x26a6 <DrvTwiWriteRegBuf+0xe4>
    26a4:	81 e0       	ldi	r24, 0x01	; 1
				TWCR = (1U<<TWINT) | (1U<<TWEN)| (1U<<TWSTO);       // send stop
			}
		}
	}
	return o_success;
}
    26a6:	df 91       	pop	r29
    26a8:	cf 91       	pop	r28
    26aa:	1f 91       	pop	r17
    26ac:	0f 91       	pop	r16
    26ae:	ff 90       	pop	r15
    26b0:	ef 90       	pop	r14
    26b2:	df 90       	pop	r13
    26b4:	cf 90       	pop	r12
    26b6:	bf 90       	pop	r11
    26b8:	af 90       	pop	r10
    26ba:	9f 90       	pop	r9
    26bc:	08 95       	ret

000026be <DrvTwiFillRegBuf>:

/************************************************************************/
/*write many register with same data                                    */
/************************************************************************/
Boolean DrvTwiFillRegBuf(Int8U slave_address, Int8U slave_register, Int8U data, Int8U buffer_size) 
{
    26be:	af 92       	push	r10
    26c0:	bf 92       	push	r11
    26c2:	cf 92       	push	r12
    26c4:	df 92       	push	r13
    26c6:	ef 92       	push	r14
    26c8:	ff 92       	push	r15
    26ca:	0f 93       	push	r16
    26cc:	1f 93       	push	r17
    26ce:	cf 93       	push	r28
    26d0:	df 93       	push	r29
    26d2:	c8 2f       	mov	r28, r24
    26d4:	06 2f       	mov	r16, r22
    26d6:	14 2f       	mov	r17, r20
    26d8:	d2 2f       	mov	r29, r18
	Boolean o_success = TRUE;
	
	TWCR = (1U<<TWINT)|(1U<<TWSTA)|(1U<<TWEN);           // SEND START
    26da:	84 ea       	ldi	r24, 0xA4	; 164
    26dc:	80 93 bc 00 	sts	0x00BC, r24	; 0x8000bc <__TEXT_REGION_LENGTH__+0x7e00bc>
	DrvTwiWaitTransmission();
    26e0:	6c de       	rcall	.-808    	; 0x23ba <DrvTwiWaitTransmission>

	if  ( ((TWSR==TW_START) || (TWSR==TW_REP_START)) )
    26e2:	80 91 b9 00 	lds	r24, 0x00B9	; 0x8000b9 <__TEXT_REGION_LENGTH__+0x7e00b9>
    26e6:	88 30       	cpi	r24, 0x08	; 8
    26e8:	29 f0       	breq	.+10     	; 0x26f4 <DrvTwiFillRegBuf+0x36>
    26ea:	80 91 b9 00 	lds	r24, 0x00B9	; 0x8000b9 <__TEXT_REGION_LENGTH__+0x7e00b9>
    26ee:	80 31       	cpi	r24, 0x10	; 16
    26f0:	09 f0       	breq	.+2      	; 0x26f4 <DrvTwiFillRegBuf+0x36>
    26f2:	47 c0       	rjmp	.+142    	; 0x2782 <DrvTwiFillRegBuf+0xc4>
	{
		//send slave address
		TWDR =  (slave_address << 1 ) | TW_WRITE;
    26f4:	cc 0f       	add	r28, r28
    26f6:	c0 93 bb 00 	sts	0x00BB, r28	; 0x8000bb <__TEXT_REGION_LENGTH__+0x7e00bb>
		TWCR = (1U << TWINT) | (1U << TWEN);
    26fa:	84 e8       	ldi	r24, 0x84	; 132
    26fc:	80 93 bc 00 	sts	0x00BC, r24	; 0x8000bc <__TEXT_REGION_LENGTH__+0x7e00bc>
		DrvTwiWaitTransmission();
    2700:	5c de       	rcall	.-840    	; 0x23ba <DrvTwiWaitTransmission>
		if ( (TWSR==TW_MT_SLA_ACK) )
    2702:	80 91 b9 00 	lds	r24, 0x00B9	; 0x8000b9 <__TEXT_REGION_LENGTH__+0x7e00b9>
    2706:	88 31       	cpi	r24, 0x18	; 24
    2708:	09 f0       	breq	.+2      	; 0x270c <DrvTwiFillRegBuf+0x4e>
    270a:	3d c0       	rjmp	.+122    	; 0x2786 <DrvTwiFillRegBuf+0xc8>
		{
			//send register address
			TWDR = slave_register;
    270c:	00 93 bb 00 	sts	0x00BB, r16	; 0x8000bb <__TEXT_REGION_LENGTH__+0x7e00bb>
			TWCR = (1U<<TWINT) | (1U<<TWEN);
    2710:	84 e8       	ldi	r24, 0x84	; 132
    2712:	80 93 bc 00 	sts	0x00BC, r24	; 0x8000bc <__TEXT_REGION_LENGTH__+0x7e00bc>
			DrvTwiWaitTransmission();
    2716:	51 de       	rcall	.-862    	; 0x23ba <DrvTwiWaitTransmission>
			if ( (TWSR==TW_MT_DATA_ACK) )
    2718:	80 91 b9 00 	lds	r24, 0x00B9	; 0x8000b9 <__TEXT_REGION_LENGTH__+0x7e00b9>
    271c:	88 32       	cpi	r24, 0x28	; 40
    271e:	a9 f5       	brne	.+106    	; 0x278a <DrvTwiFillRegBuf+0xcc>
			{
				for ( Int8U loop_write_twi = 0 ; loop_write_twi < buffer_size; loop_write_twi++ )
    2720:	dd 23       	and	r29, r29
    2722:	51 f1       	breq	.+84     	; 0x2778 <DrvTwiFillRegBuf+0xba>
    2724:	c0 e0       	ldi	r28, 0x00	; 0
				{
					TWDR =  data;                                     // DATA TO WRITE
    2726:	0f 2e       	mov	r0, r31
    2728:	fb eb       	ldi	r31, 0xBB	; 187
    272a:	af 2e       	mov	r10, r31
    272c:	b1 2c       	mov	r11, r1
    272e:	f0 2d       	mov	r31, r0
					TWCR = (1U<<TWINT) | (1U<<TWEN);                       // send clock
    2730:	0f 2e       	mov	r0, r31
    2732:	fc eb       	ldi	r31, 0xBC	; 188
    2734:	cf 2e       	mov	r12, r31
    2736:	d1 2c       	mov	r13, r1
    2738:	f0 2d       	mov	r31, r0
    273a:	04 e8       	ldi	r16, 0x84	; 132
					DrvTwiWaitTransmission();
					
					if ( (TWSR!=TW_MT_DATA_ACK) )
    273c:	0f 2e       	mov	r0, r31
    273e:	f9 eb       	ldi	r31, 0xB9	; 185
    2740:	ef 2e       	mov	r14, r31
    2742:	f1 2c       	mov	r15, r1
    2744:	f0 2d       	mov	r31, r0
			DrvTwiWaitTransmission();
			if ( (TWSR==TW_MT_DATA_ACK) )
			{
				for ( Int8U loop_write_twi = 0 ; loop_write_twi < buffer_size; loop_write_twi++ )
				{
					TWDR =  data;                                     // DATA TO WRITE
    2746:	f5 01       	movw	r30, r10
					TWCR = (1U<<TWINT) | (1U<<TWEN);                       // send clock
    2748:	10 83       	st	Z, r17
    274a:	f6 01       	movw	r30, r12
					DrvTwiWaitTransmission();
    274c:	00 83       	st	Z, r16
    274e:	35 de       	rcall	.-918    	; 0x23ba <DrvTwiWaitTransmission>
					
					if ( (TWSR!=TW_MT_DATA_ACK) )
    2750:	f7 01       	movw	r30, r14
    2752:	80 81       	ld	r24, Z
    2754:	88 32       	cpi	r24, 0x28	; 40
    2756:	59 f0       	breq	.+22     	; 0x276e <DrvTwiFillRegBuf+0xb0>
					{
						o_success = FALSE;
						errorsCount++;
    2758:	80 91 08 07 	lds	r24, 0x0708	; 0x800708 <errorsCount>
    275c:	90 91 09 07 	lds	r25, 0x0709	; 0x800709 <errorsCount+0x1>
    2760:	01 96       	adiw	r24, 0x01	; 1
    2762:	90 93 09 07 	sts	0x0709, r25	; 0x800709 <errorsCount+0x1>
    2766:	80 93 08 07 	sts	0x0708, r24	; 0x800708 <errorsCount>
					TWCR = (1U<<TWINT) | (1U<<TWEN);                       // send clock
					DrvTwiWaitTransmission();
					
					if ( (TWSR!=TW_MT_DATA_ACK) )
					{
						o_success = FALSE;
    276a:	80 e0       	ldi	r24, 0x00	; 0
						errorsCount++;
						break;
    276c:	06 c0       	rjmp	.+12     	; 0x277a <DrvTwiFillRegBuf+0xbc>
			TWDR = slave_register;
			TWCR = (1U<<TWINT) | (1U<<TWEN);
			DrvTwiWaitTransmission();
			if ( (TWSR==TW_MT_DATA_ACK) )
			{
				for ( Int8U loop_write_twi = 0 ; loop_write_twi < buffer_size; loop_write_twi++ )
    276e:	cf 5f       	subi	r28, 0xFF	; 255
    2770:	dc 13       	cpse	r29, r28
    2772:	e9 cf       	rjmp	.-46     	; 0x2746 <DrvTwiFillRegBuf+0x88>
/************************************************************************/
/*write many register with same data                                    */
/************************************************************************/
Boolean DrvTwiFillRegBuf(Int8U slave_address, Int8U slave_register, Int8U data, Int8U buffer_size) 
{
	Boolean o_success = TRUE;
    2774:	81 e0       	ldi	r24, 0x01	; 1
    2776:	01 c0       	rjmp	.+2      	; 0x277a <DrvTwiFillRegBuf+0xbc>
    2778:	81 e0       	ldi	r24, 0x01	; 1
						o_success = FALSE;
						errorsCount++;
						break;
					}
				}
				TWCR = (1U<<TWINT) | (1U<<TWEN)| (1U<<TWSTO);       // send stop
    277a:	94 e9       	ldi	r25, 0x94	; 148
    277c:	90 93 bc 00 	sts	0x00BC, r25	; 0x8000bc <__TEXT_REGION_LENGTH__+0x7e00bc>
    2780:	05 c0       	rjmp	.+10     	; 0x278c <DrvTwiFillRegBuf+0xce>
/************************************************************************/
/*write many register with same data                                    */
/************************************************************************/
Boolean DrvTwiFillRegBuf(Int8U slave_address, Int8U slave_register, Int8U data, Int8U buffer_size) 
{
	Boolean o_success = TRUE;
    2782:	81 e0       	ldi	r24, 0x01	; 1
    2784:	03 c0       	rjmp	.+6      	; 0x278c <DrvTwiFillRegBuf+0xce>
    2786:	81 e0       	ldi	r24, 0x01	; 1
    2788:	01 c0       	rjmp	.+2      	; 0x278c <DrvTwiFillRegBuf+0xce>
    278a:	81 e0       	ldi	r24, 0x01	; 1
				TWCR = (1U<<TWINT) | (1U<<TWEN)| (1U<<TWSTO);       // send stop
			}
		}
	}
	return o_success;
}
    278c:	df 91       	pop	r29
    278e:	cf 91       	pop	r28
    2790:	1f 91       	pop	r17
    2792:	0f 91       	pop	r16
    2794:	ff 90       	pop	r15
    2796:	ef 90       	pop	r14
    2798:	df 90       	pop	r13
    279a:	cf 90       	pop	r12
    279c:	bf 90       	pop	r11
    279e:	af 90       	pop	r10
    27a0:	08 95       	ret

000027a2 <DrvUartInit>:

Int8U DrvUartDataUsedTXBuff(Int8U indexUart) 
{
	Int8U nbDataUsed = uartRingBuffer[indexUart].Tx.Head - uartRingBuffer[indexUart].Tx.Tail;
	return nbDataUsed%MAX_BUFFER;
}
    27a2:	65 30       	cpi	r22, 0x05	; 5
    27a4:	00 f5       	brcc	.+64     	; 0x27e6 <DrvUartInit+0x44>
    27a6:	81 11       	cpse	r24, r1
    27a8:	20 c0       	rjmp	.+64     	; 0x27ea <DrvUartInit+0x48>
    27aa:	8a e0       	ldi	r24, 0x0A	; 10
    27ac:	90 e0       	ldi	r25, 0x00	; 0
    27ae:	90 93 c5 00 	sts	0x00C5, r25	; 0x8000c5 <__TEXT_REGION_LENGTH__+0x7e00c5>
    27b2:	80 93 c4 00 	sts	0x00C4, r24	; 0x8000c4 <__TEXT_REGION_LENGTH__+0x7e00c4>
    27b6:	e1 ec       	ldi	r30, 0xC1	; 193
    27b8:	f0 e0       	ldi	r31, 0x00	; 0
    27ba:	80 81       	ld	r24, Z
    27bc:	80 61       	ori	r24, 0x10	; 16
    27be:	80 83       	st	Z, r24
    27c0:	80 81       	ld	r24, Z
    27c2:	88 60       	ori	r24, 0x08	; 8
    27c4:	80 83       	st	Z, r24
    27c6:	a2 ec       	ldi	r26, 0xC2	; 194
    27c8:	b0 e0       	ldi	r27, 0x00	; 0
    27ca:	8c 91       	ld	r24, X
    27cc:	82 60       	ori	r24, 0x02	; 2
    27ce:	8c 93       	st	X, r24
    27d0:	80 81       	ld	r24, Z
    27d2:	8f 7b       	andi	r24, 0xBF	; 191
    27d4:	80 83       	st	Z, r24
    27d6:	80 81       	ld	r24, Z
    27d8:	8f 7d       	andi	r24, 0xDF	; 223
    27da:	80 83       	st	Z, r24
    27dc:	80 81       	ld	r24, Z
    27de:	80 68       	ori	r24, 0x80	; 128
    27e0:	80 83       	st	Z, r24
    27e2:	81 e0       	ldi	r24, 0x01	; 1
    27e4:	08 95       	ret
    27e6:	80 e0       	ldi	r24, 0x00	; 0
    27e8:	08 95       	ret
    27ea:	80 e0       	ldi	r24, 0x00	; 0
    27ec:	08 95       	ret

000027ee <DrvUartFillTxBuffer>:
    27ee:	48 2f       	mov	r20, r24
    27f0:	50 e0       	ldi	r21, 0x00	; 0
    27f2:	82 e0       	ldi	r24, 0x02	; 2
    27f4:	92 e0       	ldi	r25, 0x02	; 2
    27f6:	48 9f       	mul	r20, r24
    27f8:	f0 01       	movw	r30, r0
    27fa:	49 9f       	mul	r20, r25
    27fc:	f0 0d       	add	r31, r0
    27fe:	58 9f       	mul	r21, r24
    2800:	f0 0d       	add	r31, r0
    2802:	11 24       	eor	r1, r1
    2804:	e5 5f       	subi	r30, 0xF5	; 245
    2806:	f7 4f       	sbci	r31, 0xF7	; 247
    2808:	20 81       	ld	r18, Z
    280a:	2f 5f       	subi	r18, 0xFF	; 255
    280c:	2f 3f       	cpi	r18, 0xFF	; 255
    280e:	09 f4       	brne	.+2      	; 0x2812 <DrvUartFillTxBuffer+0x24>
    2810:	20 e0       	ldi	r18, 0x00	; 0
    2812:	e2 e0       	ldi	r30, 0x02	; 2
    2814:	f2 e0       	ldi	r31, 0x02	; 2
    2816:	4e 9f       	mul	r20, r30
    2818:	c0 01       	movw	r24, r0
    281a:	4f 9f       	mul	r20, r31
    281c:	90 0d       	add	r25, r0
    281e:	5e 9f       	mul	r21, r30
    2820:	90 0d       	add	r25, r0
    2822:	11 24       	eor	r1, r1
    2824:	86 5f       	subi	r24, 0xF6	; 246
    2826:	98 4f       	sbci	r25, 0xF8	; 248
    2828:	fc 01       	movw	r30, r24
    282a:	e2 0f       	add	r30, r18
    282c:	f1 1d       	adc	r31, r1
    282e:	ed 5f       	subi	r30, 0xFD	; 253
    2830:	fe 4f       	sbci	r31, 0xFE	; 254
    2832:	60 83       	st	Z, r22
    2834:	fc 01       	movw	r30, r24
    2836:	ef 5f       	subi	r30, 0xFF	; 255
    2838:	fe 4f       	sbci	r31, 0xFE	; 254
    283a:	20 83       	st	Z, r18
    283c:	81 e0       	ldi	r24, 0x01	; 1
    283e:	08 95       	ret

00002840 <DrvUartSendData>:
    2840:	81 11       	cpse	r24, r1
    2842:	07 c0       	rjmp	.+14     	; 0x2852 <DrvUartSendData+0x12>
    2844:	e1 ec       	ldi	r30, 0xC1	; 193
    2846:	f0 e0       	ldi	r31, 0x00	; 0
    2848:	80 81       	ld	r24, Z
    284a:	80 62       	ori	r24, 0x20	; 32
    284c:	80 83       	st	Z, r24
    284e:	81 e0       	ldi	r24, 0x01	; 1
    2850:	08 95       	ret
    2852:	80 e0       	ldi	r24, 0x00	; 0
    2854:	08 95       	ret

00002856 <DrvUartReadData>:
    2856:	28 2f       	mov	r18, r24
    2858:	30 e0       	ldi	r19, 0x00	; 0
    285a:	82 e0       	ldi	r24, 0x02	; 2
    285c:	92 e0       	ldi	r25, 0x02	; 2
    285e:	28 9f       	mul	r18, r24
    2860:	f0 01       	movw	r30, r0
    2862:	29 9f       	mul	r18, r25
    2864:	f0 0d       	add	r31, r0
    2866:	38 9f       	mul	r19, r24
    2868:	f0 0d       	add	r31, r0
    286a:	11 24       	eor	r1, r1
    286c:	e6 5f       	subi	r30, 0xF6	; 246
    286e:	f8 4f       	sbci	r31, 0xF8	; 248
    2870:	91 81       	ldd	r25, Z+1	; 0x01
    2872:	df 01       	movw	r26, r30
    2874:	a9 0f       	add	r26, r25
    2876:	b1 1d       	adc	r27, r1
    2878:	12 96       	adiw	r26, 0x02	; 2
    287a:	8c 91       	ld	r24, X
    287c:	40 81       	ld	r20, Z
    287e:	94 17       	cp	r25, r20
    2880:	81 f0       	breq	.+32     	; 0x28a2 <DrvUartReadData+0x4c>
    2882:	9f 5f       	subi	r25, 0xFF	; 255
    2884:	9f 3f       	cpi	r25, 0xFF	; 255
    2886:	09 f4       	brne	.+2      	; 0x288a <DrvUartReadData+0x34>
    2888:	90 e0       	ldi	r25, 0x00	; 0
    288a:	42 e0       	ldi	r20, 0x02	; 2
    288c:	52 e0       	ldi	r21, 0x02	; 2
    288e:	24 9f       	mul	r18, r20
    2890:	f0 01       	movw	r30, r0
    2892:	25 9f       	mul	r18, r21
    2894:	f0 0d       	add	r31, r0
    2896:	34 9f       	mul	r19, r20
    2898:	f0 0d       	add	r31, r0
    289a:	11 24       	eor	r1, r1
    289c:	e6 5f       	subi	r30, 0xF6	; 246
    289e:	f8 4f       	sbci	r31, 0xF8	; 248
    28a0:	91 83       	std	Z+1, r25	; 0x01
    28a2:	08 95       	ret

000028a4 <DrvUartDataAvailable>:
    28a4:	22 e0       	ldi	r18, 0x02	; 2
    28a6:	32 e0       	ldi	r19, 0x02	; 2
    28a8:	48 2f       	mov	r20, r24
    28aa:	42 9f       	mul	r20, r18
    28ac:	c0 01       	movw	r24, r0
    28ae:	43 9f       	mul	r20, r19
    28b0:	90 0d       	add	r25, r0
    28b2:	11 24       	eor	r1, r1
    28b4:	fc 01       	movw	r30, r24
    28b6:	e6 5f       	subi	r30, 0xF6	; 246
    28b8:	f8 4f       	sbci	r31, 0xF8	; 248
    28ba:	80 81       	ld	r24, Z
    28bc:	91 81       	ldd	r25, Z+1	; 0x01
    28be:	89 1b       	sub	r24, r25
    28c0:	91 e0       	ldi	r25, 0x01	; 1
    28c2:	8f 3f       	cpi	r24, 0xFF	; 255
    28c4:	08 f4       	brcc	.+2      	; 0x28c8 <DrvUartDataAvailable+0x24>
    28c6:	90 e0       	ldi	r25, 0x00	; 0
    28c8:	89 0f       	add	r24, r25
    28ca:	08 95       	ret

000028cc <__vector_20>:
	ISR(USART0_RX_vect)
#endif
#ifdef USART_RX_vect
	ISR(USART_RX_vect)
#endif
{
    28cc:	1f 92       	push	r1
    28ce:	0f 92       	push	r0
    28d0:	0f b6       	in	r0, 0x3f	; 63
    28d2:	0f 92       	push	r0
    28d4:	11 24       	eor	r1, r1
    28d6:	0b b6       	in	r0, 0x3b	; 59
    28d8:	0f 92       	push	r0
    28da:	8f 93       	push	r24
    28dc:	9f 93       	push	r25
    28de:	ef 93       	push	r30
    28e0:	ff 93       	push	r31
	Int8U head = uartRingBuffer[E_UART_0].Rx.Head;
    28e2:	e0 91 0a 07 	lds	r30, 0x070A	; 0x80070a <uartRingBuffer>
	uartRingBuffer[E_UART_0].Rx.Buffer[head++] = UDR0;
    28e6:	81 e0       	ldi	r24, 0x01	; 1
    28e8:	8e 0f       	add	r24, r30
    28ea:	f0 e0       	ldi	r31, 0x00	; 0
    28ec:	90 91 c6 00 	lds	r25, 0x00C6	; 0x8000c6 <__TEXT_REGION_LENGTH__+0x7e00c6>
    28f0:	e6 5f       	subi	r30, 0xF6	; 246
    28f2:	f8 4f       	sbci	r31, 0xF8	; 248
    28f4:	92 83       	std	Z+2, r25	; 0x02
	if (head >= MAX_BUFFER)
    28f6:	8f 3f       	cpi	r24, 0xFF	; 255
    28f8:	09 f4       	brne	.+2      	; 0x28fc <__vector_20+0x30>
	{
		head = 0U;
    28fa:	80 e0       	ldi	r24, 0x00	; 0
	}
	uartRingBuffer[E_UART_0].Rx.Head = head;
    28fc:	80 93 0a 07 	sts	0x070A, r24	; 0x80070a <uartRingBuffer>
}
    2900:	ff 91       	pop	r31
    2902:	ef 91       	pop	r30
    2904:	9f 91       	pop	r25
    2906:	8f 91       	pop	r24
    2908:	0f 90       	pop	r0
    290a:	0b be       	out	0x3b, r0	; 59
    290c:	0f 90       	pop	r0
    290e:	0f be       	out	0x3f, r0	; 63
    2910:	0f 90       	pop	r0
    2912:	1f 90       	pop	r1
    2914:	18 95       	reti

00002916 <__vector_21>:
ISR(USART_UDRE_vect)
#endif
#ifdef USART0_UDRE_vect
ISR(USART0_UDRE_vect)
#endif
{
    2916:	1f 92       	push	r1
    2918:	0f 92       	push	r0
    291a:	0f b6       	in	r0, 0x3f	; 63
    291c:	0f 92       	push	r0
    291e:	11 24       	eor	r1, r1
    2920:	0b b6       	in	r0, 0x3b	; 59
    2922:	0f 92       	push	r0
    2924:	8f 93       	push	r24
    2926:	9f 93       	push	r25
    2928:	ef 93       	push	r30
    292a:	ff 93       	push	r31
	Int8U tail = uartRingBuffer[E_UART_0].Tx.Tail;
    292c:	90 91 0c 08 	lds	r25, 0x080C	; 0x80080c <uartRingBuffer+0x102>
	if (uartRingBuffer[E_UART_0].Tx.Head != tail)
    2930:	80 91 0b 08 	lds	r24, 0x080B	; 0x80080b <uartRingBuffer+0x101>
    2934:	98 17       	cp	r25, r24
    2936:	71 f0       	breq	.+28     	; 0x2954 <__vector_21+0x3e>
	{
		if (++tail >= MAX_BUFFER)
    2938:	81 e0       	ldi	r24, 0x01	; 1
    293a:	89 0f       	add	r24, r25
    293c:	8f 3f       	cpi	r24, 0xFF	; 255
    293e:	09 f4       	brne	.+2      	; 0x2942 <__vector_21+0x2c>
		{
			tail = 0U;
    2940:	80 e0       	ldi	r24, 0x00	; 0
		}
		UDR0 = uartRingBuffer[E_UART_0].Tx.Buffer[tail];
    2942:	e8 2f       	mov	r30, r24
    2944:	f0 e0       	ldi	r31, 0x00	; 0
    2946:	e3 5f       	subi	r30, 0xF3	; 243
    2948:	f7 4f       	sbci	r31, 0xF7	; 247
    294a:	90 81       	ld	r25, Z
    294c:	90 93 c6 00 	sts	0x00C6, r25	; 0x8000c6 <__TEXT_REGION_LENGTH__+0x7e00c6>
		uartRingBuffer[E_UART_0].Tx.Tail = tail;
    2950:	80 93 0c 08 	sts	0x080C, r24	; 0x80080c <uartRingBuffer+0x102>
	}
	if (tail == uartRingBuffer[E_UART_0].Tx.Head)
    2954:	90 91 0b 08 	lds	r25, 0x080B	; 0x80080b <uartRingBuffer+0x101>
    2958:	89 13       	cpse	r24, r25
    295a:	05 c0       	rjmp	.+10     	; 0x2966 <__vector_21+0x50>
	{
		BIT_LOW(UCSR0B,UDRIE0);
    295c:	e1 ec       	ldi	r30, 0xC1	; 193
    295e:	f0 e0       	ldi	r31, 0x00	; 0
    2960:	80 81       	ld	r24, Z
    2962:	8f 7d       	andi	r24, 0xDF	; 223
    2964:	80 83       	st	Z, r24
	}
}
    2966:	ff 91       	pop	r31
    2968:	ef 91       	pop	r30
    296a:	9f 91       	pop	r25
    296c:	8f 91       	pop	r24
    296e:	0f 90       	pop	r0
    2970:	0b be       	out	0x3b, r0	; 59
    2972:	0f 90       	pop	r0
    2974:	0f be       	out	0x3f, r0	; 63
    2976:	0f 90       	pop	r0
    2978:	1f 90       	pop	r1
    297a:	18 95       	reti

0000297c <__vector_22>:
ISR(USART_TX_vect)
#endif
#ifdef USART0_TX_vect
ISR(USART0_TX_vect)
#endif
{
    297c:	1f 92       	push	r1
    297e:	0f 92       	push	r0
    2980:	0f b6       	in	r0, 0x3f	; 63
    2982:	0f 92       	push	r0
    2984:	11 24       	eor	r1, r1

}
    2986:	0f 90       	pop	r0
    2988:	0f be       	out	0x3f, r0	; 63
    298a:	0f 90       	pop	r0
    298c:	1f 90       	pop	r1
    298e:	18 95       	reti

00002990 <__vector_28>:
#endif // UART_1_PINS


#ifdef UDR1
ISR(USART1_RX_vect)
{
    2990:	1f 92       	push	r1
    2992:	0f 92       	push	r0
    2994:	0f b6       	in	r0, 0x3f	; 63
    2996:	0f 92       	push	r0
    2998:	11 24       	eor	r1, r1
    299a:	0b b6       	in	r0, 0x3b	; 59
    299c:	0f 92       	push	r0
    299e:	8f 93       	push	r24
    29a0:	9f 93       	push	r25
    29a2:	ef 93       	push	r30
    29a4:	ff 93       	push	r31
	Int8U head = uartRingBuffer[E_UART_0].Rx.Head;
    29a6:	e0 91 0a 07 	lds	r30, 0x070A	; 0x80070a <uartRingBuffer>
	uartRingBuffer[E_UART_0].Rx.Buffer[head++] = UDR1;
    29aa:	81 e0       	ldi	r24, 0x01	; 1
    29ac:	8e 0f       	add	r24, r30
    29ae:	f0 e0       	ldi	r31, 0x00	; 0
    29b0:	90 91 ce 00 	lds	r25, 0x00CE	; 0x8000ce <__TEXT_REGION_LENGTH__+0x7e00ce>
    29b4:	e6 5f       	subi	r30, 0xF6	; 246
    29b6:	f8 4f       	sbci	r31, 0xF8	; 248
    29b8:	92 83       	std	Z+2, r25	; 0x02
	if (head >= MAX_BUFFER)
    29ba:	8f 3f       	cpi	r24, 0xFF	; 255
    29bc:	09 f4       	brne	.+2      	; 0x29c0 <__vector_28+0x30>
	{
		head = 0U;
    29be:	80 e0       	ldi	r24, 0x00	; 0
	}
	uartRingBuffer[E_UART_0].Rx.Head = head;
    29c0:	80 93 0a 07 	sts	0x070A, r24	; 0x80070a <uartRingBuffer>
}
    29c4:	ff 91       	pop	r31
    29c6:	ef 91       	pop	r30
    29c8:	9f 91       	pop	r25
    29ca:	8f 91       	pop	r24
    29cc:	0f 90       	pop	r0
    29ce:	0b be       	out	0x3b, r0	; 59
    29d0:	0f 90       	pop	r0
    29d2:	0f be       	out	0x3f, r0	; 63
    29d4:	0f 90       	pop	r0
    29d6:	1f 90       	pop	r1
    29d8:	18 95       	reti

000029da <__vector_29>:

ISR(USART1_UDRE_vect)
{
    29da:	1f 92       	push	r1
    29dc:	0f 92       	push	r0
    29de:	0f b6       	in	r0, 0x3f	; 63
    29e0:	0f 92       	push	r0
    29e2:	11 24       	eor	r1, r1
    29e4:	0b b6       	in	r0, 0x3b	; 59
    29e6:	0f 92       	push	r0
    29e8:	8f 93       	push	r24
    29ea:	9f 93       	push	r25
    29ec:	ef 93       	push	r30
    29ee:	ff 93       	push	r31
	Int8U tail = uartRingBuffer[E_UART_0].Tx.Tail;
    29f0:	90 91 0c 08 	lds	r25, 0x080C	; 0x80080c <uartRingBuffer+0x102>
	if (uartRingBuffer[E_UART_0].Tx.Head != tail)
    29f4:	80 91 0b 08 	lds	r24, 0x080B	; 0x80080b <uartRingBuffer+0x101>
    29f8:	98 17       	cp	r25, r24
    29fa:	71 f0       	breq	.+28     	; 0x2a18 <__vector_29+0x3e>
	{
		if (++tail >= MAX_BUFFER)
    29fc:	81 e0       	ldi	r24, 0x01	; 1
    29fe:	89 0f       	add	r24, r25
    2a00:	8f 3f       	cpi	r24, 0xFF	; 255
    2a02:	09 f4       	brne	.+2      	; 0x2a06 <__vector_29+0x2c>
		{
			tail = 0U;
    2a04:	80 e0       	ldi	r24, 0x00	; 0
		}
		UDR1 = uartRingBuffer[E_UART_0].Tx.Buffer[tail];
    2a06:	e8 2f       	mov	r30, r24
    2a08:	f0 e0       	ldi	r31, 0x00	; 0
    2a0a:	e3 5f       	subi	r30, 0xF3	; 243
    2a0c:	f7 4f       	sbci	r31, 0xF7	; 247
    2a0e:	90 81       	ld	r25, Z
    2a10:	90 93 ce 00 	sts	0x00CE, r25	; 0x8000ce <__TEXT_REGION_LENGTH__+0x7e00ce>
		uartRingBuffer[E_UART_0].Tx.Tail = tail;
    2a14:	80 93 0c 08 	sts	0x080C, r24	; 0x80080c <uartRingBuffer+0x102>
	}
	if (tail == uartRingBuffer[E_UART_0].Tx.Head)
    2a18:	90 91 0b 08 	lds	r25, 0x080B	; 0x80080b <uartRingBuffer+0x101>
    2a1c:	89 13       	cpse	r24, r25
    2a1e:	05 c0       	rjmp	.+10     	; 0x2a2a <__vector_29+0x50>
	{
		BIT_LOW(UCSR1B,UDRIE1);	
    2a20:	e9 ec       	ldi	r30, 0xC9	; 201
    2a22:	f0 e0       	ldi	r31, 0x00	; 0
    2a24:	80 81       	ld	r24, Z
    2a26:	8f 7d       	andi	r24, 0xDF	; 223
    2a28:	80 83       	st	Z, r24
	}
}
    2a2a:	ff 91       	pop	r31
    2a2c:	ef 91       	pop	r30
    2a2e:	9f 91       	pop	r25
    2a30:	8f 91       	pop	r24
    2a32:	0f 90       	pop	r0
    2a34:	0b be       	out	0x3b, r0	; 59
    2a36:	0f 90       	pop	r0
    2a38:	0f be       	out	0x3f, r0	; 63
    2a3a:	0f 90       	pop	r0
    2a3c:	1f 90       	pop	r1
    2a3e:	18 95       	reti

00002a40 <__vector_30>:

ISR(USART1_TX_vect)
{
    2a40:	1f 92       	push	r1
    2a42:	0f 92       	push	r0
    2a44:	0f b6       	in	r0, 0x3f	; 63
    2a46:	0f 92       	push	r0
    2a48:	11 24       	eor	r1, r1

}
    2a4a:	0f 90       	pop	r0
    2a4c:	0f be       	out	0x3f, r0	; 63
    2a4e:	0f 90       	pop	r0
    2a50:	1f 90       	pop	r1
    2a52:	18 95       	reti

00002a54 <main>:
int main(void)
{	
	// ********************* Reset Cause **********************************************
	//imu.status.lastResetCause = MCUSR;
	//reset status register
	MCUSR = 0U;
    2a54:	14 be       	out	0x34, r1	; 52
	
	// ********************* Interrupt Vectors ****************************************
	// Enable change of interrupt vectors
	MCUCR |= (1<<IVCE);
    2a56:	85 b7       	in	r24, 0x35	; 53
    2a58:	81 60       	ori	r24, 0x01	; 1
    2a5a:	85 bf       	out	0x35, r24	; 53
	// Move interrupts to app flash section
	MCUCR &= ~(1<<IVSEL);
    2a5c:	85 b7       	in	r24, 0x35	; 53
    2a5e:	8d 7f       	andi	r24, 0xFD	; 253
    2a60:	85 bf       	out	0x35, r24	; 53

	// ********************* Interrupt Disable ****************************************
	cli();
    2a62:	f8 94       	cli
				: "r0"
		);
	}
	else
	{
		__asm__ __volatile__ (
    2a64:	9e e0       	ldi	r25, 0x0E	; 14
    2a66:	88 e1       	ldi	r24, 0x18	; 24
    2a68:	0f b6       	in	r0, 0x3f	; 63
    2a6a:	f8 94       	cli
    2a6c:	a8 95       	wdr
    2a6e:	80 93 60 00 	sts	0x0060, r24	; 0x800060 <__TEXT_REGION_LENGTH__+0x7e0060>
    2a72:	0f be       	out	0x3f, r0	; 63
    2a74:	90 93 60 00 	sts	0x0060, r25	; 0x800060 <__TEXT_REGION_LENGTH__+0x7e0060>
	
	// ********************* WatchDog Enable ******************************************
	wdt_enable(WDTO_1S);
	
	// ********************* Interrupt Enable *****************************************
	sei();
    2a78:	78 94       	sei

	// ********************* Core init ****************************************
	SrvCoreInit();
    2a7a:	37 d3       	rcall	.+1646   	; 0x30ea <SrvCoreInit>
    2a7c:	d8 e1       	ldi	r29, 0x18	; 24
    2a7e:	ce e0       	ldi	r28, 0x0E	; 14
    2a80:	0f b6       	in	r0, 0x3f	; 63
    2a82:	f8 94       	cli
    2a84:	a8 95       	wdr
    2a86:	d0 93 60 00 	sts	0x0060, r29	; 0x800060 <__TEXT_REGION_LENGTH__+0x7e0060>
    2a8a:	0f be       	out	0x3f, r0	; 63
    2a8c:	c0 93 60 00 	sts	0x0060, r28	; 0x800060 <__TEXT_REGION_LENGTH__+0x7e0060>
	{
		// ********************* Watchdog *********************************************
		wdt_enable(WDTO_1S);
								
		// ********************* Call services******************
		SrvCoreLoop();
    2a90:	69 d3       	rcall	.+1746   	; 0x3164 <SrvCoreLoop>
    2a92:	f6 cf       	rjmp	.-20     	; 0x2a80 <main+0x2c>

00002a94 <SrvBatteryInit>:


EBatteryLevel SrvBatteryGetLevel (void)
{
	return level;
}
    2a94:	84 e0       	ldi	r24, 0x04	; 4
    2a96:	80 93 78 0d 	sts	0x0D78, r24	; 0x800d78 <level>
    2a9a:	10 92 77 0d 	sts	0x0D77, r1	; 0x800d77 <batteryPercentage+0x1>
    2a9e:	10 92 76 0d 	sts	0x0D76, r1	; 0x800d76 <batteryPercentage>
    2aa2:	0c 94 7d 05 	jmp	0xafa	; 0xafa <DrvAdcInit>
    2aa6:	08 95       	ret

00002aa8 <SrvBatteryUpdate>:
    2aa8:	80 e0       	ldi	r24, 0x00	; 0
    2aaa:	0e 94 af 05 	call	0xb5e	; 0xb5e <DrvAdcRead>
    2aae:	90 93 77 0d 	sts	0x0D77, r25	; 0x800d77 <batteryPercentage+0x1>
    2ab2:	80 93 76 0d 	sts	0x0D76, r24	; 0x800d76 <batteryPercentage>
    2ab6:	8f 35       	cpi	r24, 0x5F	; 95
    2ab8:	91 05       	cpc	r25, r1
    2aba:	18 f0       	brcs	.+6      	; 0x2ac2 <SrvBatteryUpdate+0x1a>
    2abc:	10 92 78 0d 	sts	0x0D78, r1	; 0x800d78 <level>
    2ac0:	08 95       	ret
    2ac2:	8b 34       	cpi	r24, 0x4B	; 75
    2ac4:	91 05       	cpc	r25, r1
    2ac6:	20 f0       	brcs	.+8      	; 0x2ad0 <SrvBatteryUpdate+0x28>
    2ac8:	81 e0       	ldi	r24, 0x01	; 1
    2aca:	80 93 78 0d 	sts	0x0D78, r24	; 0x800d78 <level>
    2ace:	08 95       	ret
    2ad0:	82 33       	cpi	r24, 0x32	; 50
    2ad2:	91 05       	cpc	r25, r1
    2ad4:	20 f0       	brcs	.+8      	; 0x2ade <SrvBatteryUpdate+0x36>
    2ad6:	82 e0       	ldi	r24, 0x02	; 2
    2ad8:	80 93 78 0d 	sts	0x0D78, r24	; 0x800d78 <level>
    2adc:	08 95       	ret
    2ade:	49 97       	sbiw	r24, 0x19	; 25
    2ae0:	20 f0       	brcs	.+8      	; 0x2aea <SrvBatteryUpdate+0x42>
    2ae2:	83 e0       	ldi	r24, 0x03	; 3
    2ae4:	80 93 78 0d 	sts	0x0D78, r24	; 0x800d78 <level>
    2ae8:	08 95       	ret
    2aea:	84 e0       	ldi	r24, 0x04	; 4
    2aec:	80 93 78 0d 	sts	0x0D78, r24	; 0x800d78 <level>
    2af0:	08 95       	ret

00002af2 <SrvBatteryGetValue>:
uint8_t SrvBatteryGetValue (void) 
{
	return batteryPercentage;
    2af2:	80 91 76 0d 	lds	r24, 0x0D76	; 0x800d76 <batteryPercentage>
    2af6:	08 95       	ret

00002af8 <SrvBodyInit>:
extern struct SBody Body;


//Fonction d'initialisation
Boolean SrvBodyInit ( void ) 
{
    2af8:	0f 93       	push	r16
    2afa:	1f 93       	push	r17
    2afc:	cf 93       	push	r28
	DrvLegInit();
    2afe:	0e 94 a9 08 	call	0x1152	; 0x1152 <DrvLegInit>
    2b02:	09 e7       	ldi	r16, 0x79	; 121
    2b04:	1d e0       	ldi	r17, 0x0D	; 13
	
	//init each servos of each leg
	for(Int8U i = 0U ; i < NB_LEGS ; i++ )
    2b06:	c0 e0       	ldi	r28, 0x00	; 0
	{
		Body.legs[ i ] = DrvLegGetLeg( i );
    2b08:	8c 2f       	mov	r24, r28
    2b0a:	0e 94 09 0b 	call	0x1612	; 0x1612 <DrvLegGetLeg>
    2b0e:	f8 01       	movw	r30, r16
    2b10:	81 93       	st	Z+, r24
    2b12:	91 93       	st	Z+, r25
    2b14:	8f 01       	movw	r16, r30
Boolean SrvBodyInit ( void ) 
{
	DrvLegInit();
	
	//init each servos of each leg
	for(Int8U i = 0U ; i < NB_LEGS ; i++ )
    2b16:	cf 5f       	subi	r28, 0xFF	; 255
    2b18:	c6 30       	cpi	r28, 0x06	; 6
    2b1a:	b1 f7       	brne	.-20     	; 0x2b08 <SrvBodyInit+0x10>
		Body.legs[ i ] = DrvLegGetLeg( i );
	}
	
	
	return TRUE;
}
    2b1c:	81 e0       	ldi	r24, 0x01	; 1
    2b1e:	cf 91       	pop	r28
    2b20:	1f 91       	pop	r17
    2b22:	0f 91       	pop	r16
    2b24:	08 95       	ret

00002b26 <SrvBodyUpdate>:

//Fonction de dispatching d'evenements
void SrvBodyUpdate (void)
{
	SrvWalkUpdate();
    2b26:	0c 94 b7 1d 	jmp	0x3b6e	; 0x3b6e <SrvWalkUpdate>
    2b2a:	08 95       	ret

00002b2c <SrvBodySetPosition>:


Boolean SrvBodySetPosition( E_BODY_POSITION position, uint16_t delay)
{
	return TRUE;
}
    2b2c:	81 e0       	ldi	r24, 0x01	; 1
    2b2e:	08 95       	ret

00002b30 <SrvBodySetWalk>:

Boolean SrvBodySetWalk( E_WALK walk, uint16_t delay )
{
    2b30:	cf 93       	push	r28
    2b32:	c8 2f       	mov	r28, r24
	if(SrvWalkSetWalk(walk,delay))
    2b34:	0e 94 67 1f 	call	0x3ece	; 0x3ece <SrvWalkSetWalk>
    2b38:	88 23       	and	r24, r24
    2b3a:	79 f0       	breq	.+30     	; 0x2b5a <SrvBodySetWalk+0x2a>
	{
		if(walk == E_WALK_FW)		SrvDisplaySetDirection(ARROW_UP);
    2b3c:	c1 30       	cpi	r28, 0x01	; 1
    2b3e:	21 f4       	brne	.+8      	; 0x2b48 <SrvBodySetWalk+0x18>
    2b40:	80 e0       	ldi	r24, 0x00	; 0
    2b42:	62 d3       	rcall	.+1732   	; 0x3208 <SrvDisplaySetDirection>
		else if(walk == E_WALK_RV)		SrvDisplaySetDirection(ARROW_DOWN);
		else SrvDisplaySetDirection(ARROW_CENTER);
		return TRUE;
    2b44:	81 e0       	ldi	r24, 0x01	; 1
    2b46:	09 c0       	rjmp	.+18     	; 0x2b5a <SrvBodySetWalk+0x2a>
Boolean SrvBodySetWalk( E_WALK walk, uint16_t delay )
{
	if(SrvWalkSetWalk(walk,delay))
	{
		if(walk == E_WALK_FW)		SrvDisplaySetDirection(ARROW_UP);
		else if(walk == E_WALK_RV)		SrvDisplaySetDirection(ARROW_DOWN);
    2b48:	c2 30       	cpi	r28, 0x02	; 2
    2b4a:	21 f4       	brne	.+8      	; 0x2b54 <SrvBodySetWalk+0x24>
    2b4c:	81 e0       	ldi	r24, 0x01	; 1
    2b4e:	5c d3       	rcall	.+1720   	; 0x3208 <SrvDisplaySetDirection>
		else SrvDisplaySetDirection(ARROW_CENTER);
		return TRUE;
    2b50:	81 e0       	ldi	r24, 0x01	; 1
{
	if(SrvWalkSetWalk(walk,delay))
	{
		if(walk == E_WALK_FW)		SrvDisplaySetDirection(ARROW_UP);
		else if(walk == E_WALK_RV)		SrvDisplaySetDirection(ARROW_DOWN);
		else SrvDisplaySetDirection(ARROW_CENTER);
    2b52:	03 c0       	rjmp	.+6      	; 0x2b5a <SrvBodySetWalk+0x2a>
    2b54:	84 e0       	ldi	r24, 0x04	; 4
    2b56:	58 d3       	rcall	.+1712   	; 0x3208 <SrvDisplaySetDirection>
		return TRUE;
    2b58:	81 e0       	ldi	r24, 0x01	; 1
	}
	
	return FALSE;
}
    2b5a:	cf 91       	pop	r28
    2b5c:	08 95       	ret

00002b5e <SrvBodySetGait>:

Boolean SrvBodySetGait( E_GAIT gait, uint16_t delay )
{
	return SrvWalkSetGait(gait,delay);
    2b5e:	0c 94 78 1f 	jmp	0x3ef0	; 0x3ef0 <SrvWalkSetGait>
    2b62:	08 95       	ret

00002b64 <formatMessageMinMax>:
		itoa(servoDelay,(char*)&message[ 10U ],10);
	}
}

static void formatMessageMinMax ( uint8_t servoId, uint8_t servoPos, uint8_t *message)
{
    2b64:	1f 93       	push	r17
    2b66:	cf 93       	push	r28
    2b68:	df 93       	push	r29
    2b6a:	16 2f       	mov	r17, r22
    2b6c:	ea 01       	movw	r28, r20
	if( servoId >= 10)
    2b6e:	8a 30       	cpi	r24, 0x0A	; 10
    2b70:	40 f0       	brcs	.+16     	; 0x2b82 <formatMessageMinMax+0x1e>
    } else if (__radix < 2 || __radix > 36) {
	*__s = 0;
	return __s;
    } else {
	extern char *__itoa_ncheck (int, char *, unsigned char);
	return __itoa_ncheck (__val, __s, __radix);
    2b72:	4a e0       	ldi	r20, 0x0A	; 10
    2b74:	be 01       	movw	r22, r28
    2b76:	6e 5f       	subi	r22, 0xFE	; 254
    2b78:	7f 4f       	sbci	r23, 0xFF	; 255
    2b7a:	90 e0       	ldi	r25, 0x00	; 0
    2b7c:	0e 94 82 23 	call	0x4704	; 0x4704 <__itoa_ncheck>
    2b80:	09 c0       	rjmp	.+18     	; 0x2b94 <formatMessageMinMax+0x30>
	{
		itoa(servoId,(char*)&message[ 2U ],10); //servo id
	}
	else if( servoId >= 0)
	{
		message[ 2U ] = '0';
    2b82:	90 e3       	ldi	r25, 0x30	; 48
    2b84:	9a 83       	std	Y+2, r25	; 0x02
    2b86:	4a e0       	ldi	r20, 0x0A	; 10
    2b88:	be 01       	movw	r22, r28
    2b8a:	6d 5f       	subi	r22, 0xFD	; 253
    2b8c:	7f 4f       	sbci	r23, 0xFF	; 255
    2b8e:	90 e0       	ldi	r25, 0x00	; 0
    2b90:	0e 94 82 23 	call	0x4704	; 0x4704 <__itoa_ncheck>
		itoa(servoId,(char*)&message[ 3U ],10); //servo id
	}
	
	if( servoPos >= 100)
    2b94:	14 36       	cpi	r17, 0x64	; 100
    2b96:	48 f0       	brcs	.+18     	; 0x2baa <formatMessageMinMax+0x46>
    2b98:	be 01       	movw	r22, r28
    2b9a:	6c 5f       	subi	r22, 0xFC	; 252
    2b9c:	7f 4f       	sbci	r23, 0xFF	; 255
    2b9e:	4a e0       	ldi	r20, 0x0A	; 10
    2ba0:	81 2f       	mov	r24, r17
    2ba2:	90 e0       	ldi	r25, 0x00	; 0
    2ba4:	0e 94 82 23 	call	0x4704	; 0x4704 <__itoa_ncheck>
    2ba8:	18 c0       	rjmp	.+48     	; 0x2bda <formatMessageMinMax+0x76>
	{
		itoa(servoPos,(char*)&message[ 4U ],10);
	}
	else if( servoPos >= 10)
    2baa:	1a 30       	cpi	r17, 0x0A	; 10
    2bac:	58 f0       	brcs	.+22     	; 0x2bc4 <formatMessageMinMax+0x60>
	{
		message[ 4U ] = '0';
    2bae:	80 e3       	ldi	r24, 0x30	; 48
    2bb0:	8c 83       	std	Y+4, r24	; 0x04
    2bb2:	be 01       	movw	r22, r28
    2bb4:	6b 5f       	subi	r22, 0xFB	; 251
    2bb6:	7f 4f       	sbci	r23, 0xFF	; 255
    2bb8:	4a e0       	ldi	r20, 0x0A	; 10
    2bba:	81 2f       	mov	r24, r17
    2bbc:	90 e0       	ldi	r25, 0x00	; 0
    2bbe:	0e 94 82 23 	call	0x4704	; 0x4704 <__itoa_ncheck>
    2bc2:	0b c0       	rjmp	.+22     	; 0x2bda <formatMessageMinMax+0x76>
		itoa(servoPos,(char*)&message[ 5U ],10);
	}
	else if( servoPos >= 0)
	{
		message[ 4U ] = '0';
    2bc4:	80 e3       	ldi	r24, 0x30	; 48
    2bc6:	8c 83       	std	Y+4, r24	; 0x04
		message[ 5U ] = '0';
    2bc8:	8d 83       	std	Y+5, r24	; 0x05
    2bca:	be 01       	movw	r22, r28
    2bcc:	6a 5f       	subi	r22, 0xFA	; 250
    2bce:	7f 4f       	sbci	r23, 0xFF	; 255
    2bd0:	4a e0       	ldi	r20, 0x0A	; 10
    2bd2:	81 2f       	mov	r24, r17
    2bd4:	90 e0       	ldi	r25, 0x00	; 0
    2bd6:	0e 94 82 23 	call	0x4704	; 0x4704 <__itoa_ncheck>
		itoa(servoPos,(char*)&message[ 6U ],10);
	}
    2bda:	df 91       	pop	r29
    2bdc:	cf 91       	pop	r28
    2bde:	1f 91       	pop	r17
    2be0:	08 95       	ret

00002be2 <SrvCommWriteMessage>:
	return oSuccess;
}

//send message
static Boolean SrvCommWriteMessage( uint8_t *outcomFrame, uint8_t len )
{
    2be2:	0f 93       	push	r16
    2be4:	1f 93       	push	r17
    2be6:	cf 93       	push	r28
    2be8:	df 93       	push	r29
    2bea:	8c 01       	movw	r16, r24
    2bec:	c6 2f       	mov	r28, r22
	DrvUartFillTxBuffer(E_UART_0,'<');
    2bee:	6c e3       	ldi	r22, 0x3C	; 60
    2bf0:	80 e0       	ldi	r24, 0x00	; 0
    2bf2:	fd dd       	rcall	.-1030   	; 0x27ee <DrvUartFillTxBuffer>
	//fill buffer
	for(Int16U loop = 0U; loop < len ; loop++)
    2bf4:	6c 2f       	mov	r22, r28
    2bf6:	70 e0       	ldi	r23, 0x00	; 0
    2bf8:	61 15       	cp	r22, r1
    2bfa:	71 05       	cpc	r23, r1
    2bfc:	49 f0       	breq	.+18     	; 0x2c10 <SrvCommWriteMessage+0x2e>
    2bfe:	e8 01       	movw	r28, r16
    2c00:	06 0f       	add	r16, r22
    2c02:	17 1f       	adc	r17, r23
	{
		//get pointer and loop on each usefull data
		DrvUartFillTxBuffer(E_UART_0,((Int8U *)outcomFrame)[loop]);
    2c04:	69 91       	ld	r22, Y+
    2c06:	80 e0       	ldi	r24, 0x00	; 0
    2c08:	f2 dd       	rcall	.-1052   	; 0x27ee <DrvUartFillTxBuffer>
//send message
static Boolean SrvCommWriteMessage( uint8_t *outcomFrame, uint8_t len )
{
	DrvUartFillTxBuffer(E_UART_0,'<');
	//fill buffer
	for(Int16U loop = 0U; loop < len ; loop++)
    2c0a:	c0 17       	cp	r28, r16
    2c0c:	d1 07       	cpc	r29, r17
    2c0e:	d1 f7       	brne	.-12     	; 0x2c04 <SrvCommWriteMessage+0x22>
	{
		//get pointer and loop on each usefull data
		DrvUartFillTxBuffer(E_UART_0,((Int8U *)outcomFrame)[loop]);
	}
	DrvUartFillTxBuffer(E_UART_0,'>');
    2c10:	6e e3       	ldi	r22, 0x3E	; 62
    2c12:	80 e0       	ldi	r24, 0x00	; 0
	
	//can send over uart
	return DrvUartSendData(E_UART_0);
    2c14:	ec dd       	rcall	.-1064   	; 0x27ee <DrvUartFillTxBuffer>
    2c16:	80 e0       	ldi	r24, 0x00	; 0
    2c18:	13 de       	rcall	.-986    	; 0x2840 <DrvUartSendData>
}
    2c1a:	df 91       	pop	r29
    2c1c:	cf 91       	pop	r28
    2c1e:	1f 91       	pop	r17
    2c20:	0f 91       	pop	r16
    2c22:	08 95       	ret

00002c24 <SrvCommInit>:
/************************************************************************/
/*init de la communication                                              */
/************************************************************************/
Boolean SrvCommInit (void) 
{
	status = COMM_START;
    2c24:	10 92 0e 0b 	sts	0x0B0E, r1	; 0x800b0e <status>
	inMessage.header = 0;
    2c28:	e5 e8       	ldi	r30, 0x85	; 133
    2c2a:	fd e0       	ldi	r31, 0x0D	; 13
    2c2c:	10 82       	st	Z, r1
	inMessage.command = 0;
    2c2e:	11 82       	std	Z+1, r1	; 0x01
	inMessage.size = 0;
    2c30:	12 82       	std	Z+2, r1	; 0x02
	return DrvUartInit( E_UART_0, UART_SPEED_115200 );
    2c32:	64 e0       	ldi	r22, 0x04	; 4
    2c34:	80 e0       	ldi	r24, 0x00	; 0
    2c36:	b5 cd       	rjmp	.-1174   	; 0x27a2 <DrvUartInit>
}	
    2c38:	08 95       	ret

00002c3a <SrvCommUpdate>:

/************************************************************************/
/*dispatcher d'evenements                                               */
/************************************************************************/
void SrvCommUpdate ( void ) 
{
    2c3a:	bf 92       	push	r11
    2c3c:	cf 92       	push	r12
    2c3e:	df 92       	push	r13
    2c40:	ef 92       	push	r14
    2c42:	ff 92       	push	r15
    2c44:	0f 93       	push	r16
    2c46:	1f 93       	push	r17
    2c48:	cf 93       	push	r28
    2c4a:	df 93       	push	r29
    2c4c:	cd b7       	in	r28, 0x3d	; 61
    2c4e:	de b7       	in	r29, 0x3e	; 62
    2c50:	68 97       	sbiw	r28, 0x18	; 24
    2c52:	0f b6       	in	r0, 0x3f	; 63
    2c54:	f8 94       	cli
    2c56:	de bf       	out	0x3e, r29	; 62
    2c58:	0f be       	out	0x3f, r0	; 63
    2c5a:	cd bf       	out	0x3d, r28	; 61
}

//permits to decode the incoming data
static Boolean SrvCommDecodeMessage( void )
{
	nbDataAvailable = DrvUartDataAvailable(E_UART_0);
    2c5c:	80 e0       	ldi	r24, 0x00	; 0
    2c5e:	22 de       	rcall	.-956    	; 0x28a4 <DrvUartDataAvailable>
    2c60:	90 e0       	ldi	r25, 0x00	; 0
    2c62:	90 93 10 0b 	sts	0x0B10, r25	; 0x800b10 <nbDataAvailable+0x1>
    2c66:	80 93 0f 0b 	sts	0x0B0F, r24	; 0x800b0f <nbDataAvailable>
	
	//loop until the data is over
	for(Int16U loop = 0U; loop < nbDataAvailable ; loop++)
    2c6a:	89 2b       	or	r24, r25
    2c6c:	09 f4       	brne	.+2      	; 0x2c70 <SrvCommUpdate+0x36>
    2c6e:	2d c2       	rjmp	.+1114   	; 0x30ca <SrvCommUpdate+0x490>
    2c70:	00 e0       	ldi	r16, 0x00	; 0
    2c72:	10 e0       	ldi	r17, 0x00	; 0
					inMessage.size = 0U;
				}
			break;
			case COMM_HEADER:
				//get header
				inMessage.header = datum;
    2c74:	0f 2e       	mov	r0, r31
    2c76:	f5 e8       	ldi	r31, 0x85	; 133
    2c78:	ef 2e       	mov	r14, r31
    2c7a:	fd e0       	ldi	r31, 0x0D	; 13
    2c7c:	ff 2e       	mov	r15, r31
    2c7e:	f0 2d       	mov	r31, r0
				status = COMM_COMMAND;
    2c80:	68 94       	set
    2c82:	cc 24       	eor	r12, r12
    2c84:	c1 f8       	bld	r12, 1
			case COMM_START:
				//wait for start and end
				if( datum == '<' )
				{
					//new frame is coming
					status = COMM_HEADER;
    2c86:	bb 24       	eor	r11, r11
    2c88:	b3 94       	inc	r11
			break;
			
			case COMM_COMMAND:
				//get command id
				inMessage.command = datum;
				status = COMM_PARAMS;
    2c8a:	0f 2e       	mov	r0, r31
    2c8c:	f3 e0       	ldi	r31, 0x03	; 3
    2c8e:	df 2e       	mov	r13, r31
    2c90:	f0 2d       	mov	r31, r0
	
	//loop until the data is over
	for(Int16U loop = 0U; loop < nbDataAvailable ; loop++)
	{
		//get the datum
		Int8U datum = DrvUartReadData(E_UART_0);
    2c92:	80 e0       	ldi	r24, 0x00	; 0
    2c94:	e0 dd       	rcall	.-1088   	; 0x2856 <DrvUartReadData>
		//switch
		switch((Int8U) status)
    2c96:	90 91 0e 0b 	lds	r25, 0x0B0E	; 0x800b0e <status>
    2c9a:	91 30       	cpi	r25, 0x01	; 1
    2c9c:	79 f0       	breq	.+30     	; 0x2cbc <SrvCommUpdate+0x82>
    2c9e:	28 f0       	brcs	.+10     	; 0x2caa <SrvCommUpdate+0x70>
    2ca0:	92 30       	cpi	r25, 0x02	; 2
    2ca2:	89 f0       	breq	.+34     	; 0x2cc6 <SrvCommUpdate+0x8c>
    2ca4:	93 30       	cpi	r25, 0x03	; 3
    2ca6:	a9 f0       	breq	.+42     	; 0x2cd2 <SrvCommUpdate+0x98>
    2ca8:	06 c2       	rjmp	.+1036   	; 0x30b6 <SrvCommUpdate+0x47c>
		{
			case COMM_START:
				//wait for start and end
				if( datum == '<' )
    2caa:	8c 33       	cpi	r24, 0x3C	; 60
    2cac:	09 f0       	breq	.+2      	; 0x2cb0 <SrvCommUpdate+0x76>
    2cae:	03 c2       	rjmp	.+1030   	; 0x30b6 <SrvCommUpdate+0x47c>
				{
					//new frame is coming
					status = COMM_HEADER;
    2cb0:	b0 92 0e 0b 	sts	0x0B0E, r11	; 0x800b0e <status>
					//reset pointer
					inMessage.size = 0U;
    2cb4:	d7 01       	movw	r26, r14
    2cb6:	12 96       	adiw	r26, 0x02	; 2
    2cb8:	1c 92       	st	X, r1
    2cba:	fd c1       	rjmp	.+1018   	; 0x30b6 <SrvCommUpdate+0x47c>
				}
			break;
			case COMM_HEADER:
				//get header
				inMessage.header = datum;
    2cbc:	f7 01       	movw	r30, r14
    2cbe:	80 83       	st	Z, r24
				status = COMM_COMMAND;
    2cc0:	c0 92 0e 0b 	sts	0x0B0E, r12	; 0x800b0e <status>
    2cc4:	f8 c1       	rjmp	.+1008   	; 0x30b6 <SrvCommUpdate+0x47c>
			break;
			
			case COMM_COMMAND:
				//get command id
				inMessage.command = datum;
    2cc6:	d7 01       	movw	r26, r14
    2cc8:	11 96       	adiw	r26, 0x01	; 1
    2cca:	8c 93       	st	X, r24
				status = COMM_PARAMS;
    2ccc:	d0 92 0e 0b 	sts	0x0B0E, r13	; 0x800b0e <status>
    2cd0:	f2 c1       	rjmp	.+996    	; 0x30b6 <SrvCommUpdate+0x47c>
			break;
			
			case COMM_PARAMS:
				//if end of frame
				if( datum == '>' )
    2cd2:	8e 33       	cpi	r24, 0x3E	; 62
    2cd4:	09 f0       	breq	.+2      	; 0x2cd8 <SrvCommUpdate+0x9e>
    2cd6:	da c1       	rjmp	.+948    	; 0x308c <SrvCommUpdate+0x452>
				{
					//reset pointer
					inMessage.size = 0U;
    2cd8:	e5 e8       	ldi	r30, 0x85	; 133
    2cda:	fd e0       	ldi	r31, 0x0D	; 13
    2cdc:	12 82       	std	Z+2, r1	; 0x02
					status = COMM_START;
    2cde:	10 92 0e 0b 	sts	0x0B0E, r1	; 0x800b0e <status>
{
	Boolean oSuccess = FALSE;
	uint8_t servoId = 0xFFU;
	uint8_t legId = 0xFFU;
	SServo *servo;
	uint8_t response [20U] = { 0U };
    2ce2:	9e 01       	movw	r18, r28
    2ce4:	2f 5f       	subi	r18, 0xFF	; 255
    2ce6:	3f 4f       	sbci	r19, 0xFF	; 255
    2ce8:	84 e1       	ldi	r24, 0x14	; 20
    2cea:	d9 01       	movw	r26, r18
    2cec:	1d 92       	st	X+, r1
    2cee:	8a 95       	dec	r24
    2cf0:	e9 f7       	brne	.-6      	; 0x2cec <SrvCommUpdate+0xb2>
		
	//check command 
	if( inMessage.command ==  COMM_COMMAND_VERSION)
    2cf2:	81 81       	ldd	r24, Z+1	; 0x01
    2cf4:	80 33       	cpi	r24, 0x30	; 48
    2cf6:	51 f4       	brne	.+20     	; 0x2d0c <SrvCommUpdate+0xd2>
	{
		//prepare output string
		uint8_t responseVersion [ 4U ] = { COMM_HEADER_MESSAGE ,COMM_COMMAND_VERSION, VERSION_SOFTWARE, VERSION_HARDWARE };
    2cf8:	8d 8b       	std	Y+21, r24	; 0x15
    2cfa:	8e 8b       	std	Y+22, r24	; 0x16
    2cfc:	81 e3       	ldi	r24, 0x31	; 49
    2cfe:	8f 8b       	std	Y+23, r24	; 0x17
    2d00:	88 8f       	std	Y+24, r24	; 0x18
		SrvCommWriteMessage(responseVersion, 4U);
    2d02:	64 e0       	ldi	r22, 0x04	; 4
    2d04:	ce 01       	movw	r24, r28
    2d06:	45 96       	adiw	r24, 0x15	; 21
    2d08:	6c df       	rcall	.-296    	; 0x2be2 <SrvCommWriteMessage>
    2d0a:	b6 c1       	rjmp	.+876    	; 0x3078 <SrvCommUpdate+0x43e>
				
		//can send data
		oSuccess = TRUE;
	}
	else if( inMessage.command ==  COMM_COMMAND_SERVO_READ)
    2d0c:	81 33       	cpi	r24, 0x31	; 49
    2d0e:	09 f0       	breq	.+2      	; 0x2d12 <SrvCommUpdate+0xd8>
    2d10:	80 c0       	rjmp	.+256    	; 0x2e12 <SrvCommUpdate+0x1d8>
	{
		servoId = (uint8_t)((inMessage.data[ 0U ] * 10U) + inMessage.data[ 1U ]);
    2d12:	e5 e8       	ldi	r30, 0x85	; 133
    2d14:	fd e0       	ldi	r31, 0x0D	; 13
    2d16:	83 81       	ldd	r24, Z+3	; 0x03
    2d18:	88 0f       	add	r24, r24
    2d1a:	18 2f       	mov	r17, r24
    2d1c:	11 0f       	add	r17, r17
    2d1e:	11 0f       	add	r17, r17
    2d20:	18 0f       	add	r17, r24
    2d22:	84 81       	ldd	r24, Z+4	; 0x04
    2d24:	18 0f       	add	r17, r24
		//if legs
		if(servoId < NB_LEGS * NB_SERVOS_PER_LEG)
    2d26:	12 31       	cpi	r17, 0x12	; 18
    2d28:	08 f0       	brcs	.+2      	; 0x2d2c <SrvCommUpdate+0xf2>
		{
			servo = DrvServoGetStruture(servoId);  
    2d2a:	ab c1       	rjmp	.+854    	; 0x3082 <SrvCommUpdate+0x448>
    2d2c:	81 2f       	mov	r24, r17
    2d2e:	7c d9       	rcall	.-3336   	; 0x2028 <DrvServoGetStruture>
				
			response[ 0U ] = '0'; //header
    2d30:	20 e3       	ldi	r18, 0x30	; 48
    2d32:	29 83       	std	Y+1, r18	; 0x01
			response[ 1U ] = COMM_COMMAND_SERVO_READ; //command
    2d34:	21 e3       	ldi	r18, 0x31	; 49
    2d36:	2a 83       	std	Y+2, r18	; 0x02
			formatMessage(servoId, servo->targetPosition, servo->movingTime, response);
    2d38:	fc 01       	movw	r30, r24
    2d3a:	03 85       	ldd	r16, Z+11	; 0x0b
    2d3c:	e0 2e       	mov	r14, r16
    2d3e:	f5 80       	ldd	r15, Z+5	; 0x05
    2d40:	df 2c       	mov	r13, r15
	return FALSE;
}

static void formatMessage ( uint8_t servoId, uint8_t servoPos, uint8_t servoDelay, uint8_t *message)
{
	if( servoId >= 10)
    2d42:	1a 30       	cpi	r17, 0x0A	; 10
    2d44:	48 f0       	brcs	.+18     	; 0x2d58 <SrvCommUpdate+0x11e>
    2d46:	4a e0       	ldi	r20, 0x0A	; 10
    2d48:	be 01       	movw	r22, r28
    2d4a:	6d 5f       	subi	r22, 0xFD	; 253
    2d4c:	7f 4f       	sbci	r23, 0xFF	; 255
    2d4e:	81 2f       	mov	r24, r17
    2d50:	90 e0       	ldi	r25, 0x00	; 0
    2d52:	0e 94 82 23 	call	0x4704	; 0x4704 <__itoa_ncheck>
    2d56:	0a c0       	rjmp	.+20     	; 0x2d6c <SrvCommUpdate+0x132>
	{
		itoa(servoId,(char*)&message[ 2U ],10); //servo id
	}
	else if( servoId >= 0)
	{
		message[ 2U ] = '0';
    2d58:	80 e3       	ldi	r24, 0x30	; 48
    2d5a:	8b 83       	std	Y+3, r24	; 0x03
    2d5c:	4a e0       	ldi	r20, 0x0A	; 10
    2d5e:	be 01       	movw	r22, r28
    2d60:	6c 5f       	subi	r22, 0xFC	; 252
    2d62:	7f 4f       	sbci	r23, 0xFF	; 255
    2d64:	81 2f       	mov	r24, r17
    2d66:	90 e0       	ldi	r25, 0x00	; 0
    2d68:	0e 94 82 23 	call	0x4704	; 0x4704 <__itoa_ncheck>
		itoa(servoId,(char*)&message[ 3U ],10); //servo id
	}
	
	if( servoPos >= 100)
    2d6c:	f3 e6       	ldi	r31, 0x63	; 99
    2d6e:	fd 15       	cp	r31, r13
    2d70:	48 f4       	brcc	.+18     	; 0x2d84 <SrvCommUpdate+0x14a>
    2d72:	4a e0       	ldi	r20, 0x0A	; 10
    2d74:	be 01       	movw	r22, r28
    2d76:	6b 5f       	subi	r22, 0xFB	; 251
    2d78:	7f 4f       	sbci	r23, 0xFF	; 255
    2d7a:	8f 2d       	mov	r24, r15
    2d7c:	90 e0       	ldi	r25, 0x00	; 0
    2d7e:	0e 94 82 23 	call	0x4704	; 0x4704 <__itoa_ncheck>
    2d82:	19 c0       	rjmp	.+50     	; 0x2db6 <SrvCommUpdate+0x17c>
	{
		itoa(servoPos,(char*)&message[ 4U ],10);
	}
	else if( servoPos >= 10)
    2d84:	89 e0       	ldi	r24, 0x09	; 9
    2d86:	8d 15       	cp	r24, r13
    2d88:	58 f4       	brcc	.+22     	; 0x2da0 <SrvCommUpdate+0x166>
	{
		message[ 4U ] = '0';
    2d8a:	80 e3       	ldi	r24, 0x30	; 48
    2d8c:	8d 83       	std	Y+5, r24	; 0x05
    2d8e:	4a e0       	ldi	r20, 0x0A	; 10
    2d90:	be 01       	movw	r22, r28
    2d92:	6a 5f       	subi	r22, 0xFA	; 250
    2d94:	7f 4f       	sbci	r23, 0xFF	; 255
    2d96:	8f 2d       	mov	r24, r15
    2d98:	90 e0       	ldi	r25, 0x00	; 0
    2d9a:	0e 94 82 23 	call	0x4704	; 0x4704 <__itoa_ncheck>
    2d9e:	0b c0       	rjmp	.+22     	; 0x2db6 <SrvCommUpdate+0x17c>
		itoa(servoPos,(char*)&message[ 5U ],10);
	}
	else if( servoPos >= 0)
	{
		message[ 4U ] = '0';
    2da0:	80 e3       	ldi	r24, 0x30	; 48
    2da2:	8d 83       	std	Y+5, r24	; 0x05
		message[ 5U ] = '0';
    2da4:	8e 83       	std	Y+6, r24	; 0x06
    2da6:	4a e0       	ldi	r20, 0x0A	; 10
    2da8:	be 01       	movw	r22, r28
    2daa:	69 5f       	subi	r22, 0xF9	; 249
    2dac:	7f 4f       	sbci	r23, 0xFF	; 255
    2dae:	8f 2d       	mov	r24, r15
    2db0:	90 e0       	ldi	r25, 0x00	; 0
    2db2:	0e 94 82 23 	call	0x4704	; 0x4704 <__itoa_ncheck>
	
	if( servoDelay >= 1000)
	{
		itoa(servoDelay,(char*)&message[ 7U ],10);
	}
	else if( servoDelay >= 100)
    2db6:	93 e6       	ldi	r25, 0x63	; 99
    2db8:	9e 15       	cp	r25, r14
    2dba:	58 f4       	brcc	.+22     	; 0x2dd2 <SrvCommUpdate+0x198>
	{
		message[ 7U ] = '0';
    2dbc:	80 e3       	ldi	r24, 0x30	; 48
    2dbe:	88 87       	std	Y+8, r24	; 0x08
    2dc0:	4a e0       	ldi	r20, 0x0A	; 10
    2dc2:	be 01       	movw	r22, r28
    2dc4:	67 5f       	subi	r22, 0xF7	; 247
    2dc6:	7f 4f       	sbci	r23, 0xFF	; 255
    2dc8:	80 2f       	mov	r24, r16
    2dca:	90 e0       	ldi	r25, 0x00	; 0
    2dcc:	0e 94 82 23 	call	0x4704	; 0x4704 <__itoa_ncheck>
    2dd0:	1b c0       	rjmp	.+54     	; 0x2e08 <SrvCommUpdate+0x1ce>
		itoa(servoDelay,(char*)&message[ 8U ],10);
	}
	else if( servoDelay >= 10)
    2dd2:	a9 e0       	ldi	r26, 0x09	; 9
    2dd4:	ae 15       	cp	r26, r14
    2dd6:	60 f4       	brcc	.+24     	; 0x2df0 <SrvCommUpdate+0x1b6>
	{
		message[ 7U ] = '0';
    2dd8:	80 e3       	ldi	r24, 0x30	; 48
    2dda:	88 87       	std	Y+8, r24	; 0x08
		message[ 8U ] = '0';
    2ddc:	89 87       	std	Y+9, r24	; 0x09
    2dde:	4a e0       	ldi	r20, 0x0A	; 10
    2de0:	be 01       	movw	r22, r28
    2de2:	66 5f       	subi	r22, 0xF6	; 246
    2de4:	7f 4f       	sbci	r23, 0xFF	; 255
    2de6:	80 2f       	mov	r24, r16
    2de8:	90 e0       	ldi	r25, 0x00	; 0
    2dea:	0e 94 82 23 	call	0x4704	; 0x4704 <__itoa_ncheck>
    2dee:	0c c0       	rjmp	.+24     	; 0x2e08 <SrvCommUpdate+0x1ce>
		itoa(servoDelay,(char*)&message[ 9U ],10);
	}
	else if( servoDelay >= 0)
	{
		message[ 7U ] = '0';
    2df0:	80 e3       	ldi	r24, 0x30	; 48
    2df2:	88 87       	std	Y+8, r24	; 0x08
		message[ 8U ] = '0';
    2df4:	89 87       	std	Y+9, r24	; 0x09
		message[ 9U ] = '0';
    2df6:	8a 87       	std	Y+10, r24	; 0x0a
    2df8:	4a e0       	ldi	r20, 0x0A	; 10
    2dfa:	be 01       	movw	r22, r28
    2dfc:	65 5f       	subi	r22, 0xF5	; 245
    2dfe:	7f 4f       	sbci	r23, 0xFF	; 255
    2e00:	80 2f       	mov	r24, r16
    2e02:	90 e0       	ldi	r25, 0x00	; 0
    2e04:	0e 94 82 23 	call	0x4704	; 0x4704 <__itoa_ncheck>
			servo = DrvServoGetStruture(servoId);  
				
			response[ 0U ] = '0'; //header
			response[ 1U ] = COMM_COMMAND_SERVO_READ; //command
			formatMessage(servoId, servo->targetPosition, servo->movingTime, response);
			SrvCommWriteMessage(response, 11U);
    2e08:	6b e0       	ldi	r22, 0x0B	; 11
    2e0a:	ce 01       	movw	r24, r28
    2e0c:	01 96       	adiw	r24, 0x01	; 1
    2e0e:	e9 de       	rcall	.-558    	; 0x2be2 <SrvCommWriteMessage>
    2e10:	33 c1       	rjmp	.+614    	; 0x3078 <SrvCommUpdate+0x43e>
			//can send data
			oSuccess = TRUE;
		}
	}
	else if( inMessage.command ==  COMM_COMMAND_SERVO_WRITE)
    2e12:	82 33       	cpi	r24, 0x32	; 50
    2e14:	09 f0       	breq	.+2      	; 0x2e18 <SrvCommUpdate+0x1de>
    2e16:	45 c0       	rjmp	.+138    	; 0x2ea2 <SrvCommUpdate+0x268>
	{
		servoId = (uint8_t)((inMessage.data [ 0U ] * 10U) + inMessage.data[ 1U ]);
    2e18:	e5 e8       	ldi	r30, 0x85	; 133
    2e1a:	fd e0       	ldi	r31, 0x0D	; 13
    2e1c:	83 81       	ldd	r24, Z+3	; 0x03
    2e1e:	88 0f       	add	r24, r24
    2e20:	98 2f       	mov	r25, r24
    2e22:	99 0f       	add	r25, r25
    2e24:	99 0f       	add	r25, r25
    2e26:	89 0f       	add	r24, r25
    2e28:	94 81       	ldd	r25, Z+4	; 0x04
    2e2a:	89 0f       	add	r24, r25
		//if legs
		if(servoId < NB_LEGS * NB_SERVOS_PER_LEG)
    2e2c:	82 31       	cpi	r24, 0x12	; 18
    2e2e:	08 f0       	brcs	.+2      	; 0x2e32 <SrvCommUpdate+0x1f8>
    2e30:	28 c1       	rjmp	.+592    	; 0x3082 <SrvCommUpdate+0x448>
		{
			int16_t servoPos =  inMessage.data[ 2U ] * 100 + inMessage.data[ 3U ] * 10 + inMessage.data[ 4U ];
			uint16_t delay = inMessage.data[ 5U ] * 1000 + inMessage.data[ 6U ] * 100 + inMessage.data[ 7U ] * 10 + inMessage.data[ 8U ];
			
			DrvServoSetTarget(servoId,servoPos,delay);
    2e32:	90 85       	ldd	r25, Z+8	; 0x08
    2e34:	28 ee       	ldi	r18, 0xE8	; 232
    2e36:	33 e0       	ldi	r19, 0x03	; 3
    2e38:	92 9f       	mul	r25, r18
    2e3a:	a0 01       	movw	r20, r0
    2e3c:	93 9f       	mul	r25, r19
    2e3e:	50 0d       	add	r21, r0
    2e40:	11 24       	eor	r1, r1
    2e42:	21 85       	ldd	r18, Z+9	; 0x09
    2e44:	94 e6       	ldi	r25, 0x64	; 100
    2e46:	92 9f       	mul	r25, r18
    2e48:	40 0d       	add	r20, r0
    2e4a:	51 1d       	adc	r21, r1
    2e4c:	11 24       	eor	r1, r1
    2e4e:	22 85       	ldd	r18, Z+10	; 0x0a
    2e50:	30 e0       	ldi	r19, 0x00	; 0
    2e52:	b9 01       	movw	r22, r18
    2e54:	66 0f       	add	r22, r22
    2e56:	77 1f       	adc	r23, r23
    2e58:	22 0f       	add	r18, r18
    2e5a:	33 1f       	adc	r19, r19
    2e5c:	22 0f       	add	r18, r18
    2e5e:	33 1f       	adc	r19, r19
    2e60:	22 0f       	add	r18, r18
    2e62:	33 1f       	adc	r19, r19
    2e64:	26 0f       	add	r18, r22
    2e66:	37 1f       	adc	r19, r23
    2e68:	42 0f       	add	r20, r18
    2e6a:	53 1f       	adc	r21, r19
    2e6c:	23 85       	ldd	r18, Z+11	; 0x0b
    2e6e:	42 0f       	add	r20, r18
    2e70:	51 1d       	adc	r21, r1
    2e72:	a5 81       	ldd	r26, Z+5	; 0x05
    2e74:	26 81       	ldd	r18, Z+6	; 0x06
    2e76:	30 e0       	ldi	r19, 0x00	; 0
    2e78:	b9 01       	movw	r22, r18
    2e7a:	66 0f       	add	r22, r22
    2e7c:	77 1f       	adc	r23, r23
    2e7e:	22 0f       	add	r18, r18
    2e80:	33 1f       	adc	r19, r19
    2e82:	22 0f       	add	r18, r18
    2e84:	33 1f       	adc	r19, r19
    2e86:	22 0f       	add	r18, r18
    2e88:	33 1f       	adc	r19, r19
    2e8a:	62 0f       	add	r22, r18
    2e8c:	73 1f       	adc	r23, r19
    2e8e:	9a 9f       	mul	r25, r26
    2e90:	60 0d       	add	r22, r0
    2e92:	71 1d       	adc	r23, r1
    2e94:	11 24       	eor	r1, r1
    2e96:	97 81       	ldd	r25, Z+7	; 0x07
    2e98:	69 0f       	add	r22, r25
    2e9a:	71 1d       	adc	r23, r1
    2e9c:	0e 94 45 0e 	call	0x1c8a	; 0x1c8a <DrvServoSetTarget>
    2ea0:	eb c0       	rjmp	.+470    	; 0x3078 <SrvCommUpdate+0x43e>
			//can send data
			oSuccess = TRUE;
		}
	}
	else if( inMessage.command ==  COMM_COMMAND_SERVO_MIN_READ)
    2ea2:	83 33       	cpi	r24, 0x33	; 51
    2ea4:	f9 f4       	brne	.+62     	; 0x2ee4 <SrvCommUpdate+0x2aa>
	{
		servoId = (uint8_t)((inMessage.data[ 0U ] * 10U) + inMessage.data[ 1U ]);
    2ea6:	e5 e8       	ldi	r30, 0x85	; 133
    2ea8:	fd e0       	ldi	r31, 0x0D	; 13
    2eaa:	83 81       	ldd	r24, Z+3	; 0x03
    2eac:	88 0f       	add	r24, r24
    2eae:	18 2f       	mov	r17, r24
    2eb0:	11 0f       	add	r17, r17
    2eb2:	11 0f       	add	r17, r17
    2eb4:	18 0f       	add	r17, r24
    2eb6:	84 81       	ldd	r24, Z+4	; 0x04
		//if legs
		if(servoId < NB_LEGS * NB_SERVOS_PER_LEG)
    2eb8:	18 0f       	add	r17, r24
    2eba:	12 31       	cpi	r17, 0x12	; 18
    2ebc:	08 f0       	brcs	.+2      	; 0x2ec0 <SrvCommUpdate+0x286>
		{
			servo = DrvServoGetStruture(servoId);  
    2ebe:	e1 c0       	rjmp	.+450    	; 0x3082 <SrvCommUpdate+0x448>
    2ec0:	81 2f       	mov	r24, r17
    2ec2:	b2 d8       	rcall	.-3740   	; 0x2028 <DrvServoGetStruture>
				
			response[ 0U ] = '0'; //header
    2ec4:	20 e3       	ldi	r18, 0x30	; 48
    2ec6:	29 83       	std	Y+1, r18	; 0x01
			response[ 1U ] = COMM_COMMAND_SERVO_MIN_READ; //command
    2ec8:	23 e3       	ldi	r18, 0x33	; 51
    2eca:	2a 83       	std	Y+2, r18	; 0x02
			formatMessageMinMax(servoId, servo->min, response);
    2ecc:	ae 01       	movw	r20, r28
    2ece:	4f 5f       	subi	r20, 0xFF	; 255
    2ed0:	5f 4f       	sbci	r21, 0xFF	; 255
    2ed2:	fc 01       	movw	r30, r24
    2ed4:	67 85       	ldd	r22, Z+15	; 0x0f
    2ed6:	81 2f       	mov	r24, r17
			SrvCommWriteMessage(response, 7U);
    2ed8:	45 de       	rcall	.-886    	; 0x2b64 <formatMessageMinMax>
    2eda:	67 e0       	ldi	r22, 0x07	; 7
    2edc:	ce 01       	movw	r24, r28
    2ede:	01 96       	adiw	r24, 0x01	; 1
    2ee0:	80 de       	rcall	.-768    	; 0x2be2 <SrvCommWriteMessage>
    2ee2:	ca c0       	rjmp	.+404    	; 0x3078 <SrvCommUpdate+0x43e>
			//can send data
			oSuccess = TRUE;
		}
	}
	else if( inMessage.command ==  COMM_COMMAND_SERVO_MAX_READ)
    2ee4:	85 33       	cpi	r24, 0x35	; 53
    2ee6:	01 f5       	brne	.+64     	; 0x2f28 <SrvCommUpdate+0x2ee>
	{
		servoId = (uint8_t)((inMessage.data[ 0U ] * 10U) + inMessage.data[ 1U ]);
    2ee8:	e5 e8       	ldi	r30, 0x85	; 133
    2eea:	fd e0       	ldi	r31, 0x0D	; 13
    2eec:	83 81       	ldd	r24, Z+3	; 0x03
    2eee:	88 0f       	add	r24, r24
    2ef0:	18 2f       	mov	r17, r24
    2ef2:	11 0f       	add	r17, r17
    2ef4:	11 0f       	add	r17, r17
    2ef6:	18 0f       	add	r17, r24
    2ef8:	84 81       	ldd	r24, Z+4	; 0x04
		//if legs
		if(servoId < NB_LEGS * NB_SERVOS_PER_LEG)
    2efa:	18 0f       	add	r17, r24
    2efc:	12 31       	cpi	r17, 0x12	; 18
    2efe:	08 f0       	brcs	.+2      	; 0x2f02 <SrvCommUpdate+0x2c8>
		{
			servo = DrvServoGetStruture(servoId);  
    2f00:	c0 c0       	rjmp	.+384    	; 0x3082 <SrvCommUpdate+0x448>
    2f02:	81 2f       	mov	r24, r17
    2f04:	91 d8       	rcall	.-3806   	; 0x2028 <DrvServoGetStruture>
				
			response[ 0U ] = '0'; //header
    2f06:	20 e3       	ldi	r18, 0x30	; 48
    2f08:	29 83       	std	Y+1, r18	; 0x01
			response[ 1U ] = COMM_COMMAND_SERVO_MAX_READ; //command
    2f0a:	25 e3       	ldi	r18, 0x35	; 53
			formatMessageMinMax(servoId, servo->max, response);
    2f0c:	2a 83       	std	Y+2, r18	; 0x02
    2f0e:	ae 01       	movw	r20, r28
    2f10:	4f 5f       	subi	r20, 0xFF	; 255
    2f12:	5f 4f       	sbci	r21, 0xFF	; 255
    2f14:	dc 01       	movw	r26, r24
    2f16:	53 96       	adiw	r26, 0x13	; 19
    2f18:	6c 91       	ld	r22, X
    2f1a:	81 2f       	mov	r24, r17
			SrvCommWriteMessage(response, 7U);
    2f1c:	23 de       	rcall	.-954    	; 0x2b64 <formatMessageMinMax>
    2f1e:	67 e0       	ldi	r22, 0x07	; 7
    2f20:	ce 01       	movw	r24, r28
    2f22:	01 96       	adiw	r24, 0x01	; 1
    2f24:	5e de       	rcall	.-836    	; 0x2be2 <SrvCommWriteMessage>
    2f26:	a8 c0       	rjmp	.+336    	; 0x3078 <SrvCommUpdate+0x43e>
			//can send data
			oSuccess = TRUE;
		}
	}
	else if( inMessage.command ==  COMM_COMMAND_LEG_WRITE)
    2f28:	87 33       	cpi	r24, 0x37	; 55
    2f2a:	81 f5       	brne	.+96     	; 0x2f8c <SrvCommUpdate+0x352>
		
		DrvLegSetPosition(legId,
		inMessage.data[ 2U ] * 100 + inMessage.data[ 3U ] * 10 + inMessage.data[ 4U ],
		inMessage.data[ 2U ] * 100 + inMessage.data[ 3U ] * 10 + inMessage.data[ 4U ],
		inMessage.data[ 2U ] * 100 + inMessage.data[ 3U ] * 10 + inMessage.data[ 4U ],
		inMessage.data[ 1U ] * 1000 + inMessage.data[ 2U ] * 100 + inMessage.data[ 3U ] * 10 + inMessage.data[ 4U ]);
    2f2c:	e5 e8       	ldi	r30, 0x85	; 133
    2f2e:	fd e0       	ldi	r31, 0x0D	; 13
    2f30:	45 81       	ldd	r20, Z+5	; 0x05
    2f32:	b4 e6       	ldi	r27, 0x64	; 100
    2f34:	4b 9f       	mul	r20, r27
    2f36:	a0 01       	movw	r20, r0
    2f38:	11 24       	eor	r1, r1
    2f3a:	26 81       	ldd	r18, Z+6	; 0x06
    2f3c:	30 e0       	ldi	r19, 0x00	; 0
    2f3e:	c9 01       	movw	r24, r18
    2f40:	88 0f       	add	r24, r24
    2f42:	99 1f       	adc	r25, r25
    2f44:	22 0f       	add	r18, r18
    2f46:	33 1f       	adc	r19, r19
    2f48:	22 0f       	add	r18, r18
    2f4a:	33 1f       	adc	r19, r19
    2f4c:	22 0f       	add	r18, r18
    2f4e:	33 1f       	adc	r19, r19
    2f50:	82 0f       	add	r24, r18
    2f52:	93 1f       	adc	r25, r19
    2f54:	27 81       	ldd	r18, Z+7	; 0x07
    2f56:	30 e0       	ldi	r19, 0x00	; 0
	}
	else if( inMessage.command ==  COMM_COMMAND_LEG_WRITE)
	{		 
		legId  = (uint8_t)(inMessage.data[ 0U ]) ;
		
		DrvLegSetPosition(legId,
    2f58:	ba 01       	movw	r22, r20
    2f5a:	68 0f       	add	r22, r24
    2f5c:	79 1f       	adc	r23, r25
    2f5e:	62 0f       	add	r22, r18
    2f60:	73 1f       	adc	r23, r19
    2f62:	f4 80       	ldd	r15, Z+4	; 0x04
    2f64:	08 ee       	ldi	r16, 0xE8	; 232
    2f66:	13 e0       	ldi	r17, 0x03	; 3
    2f68:	f0 9e       	mul	r15, r16
    2f6a:	d0 01       	movw	r26, r0
    2f6c:	f1 9e       	mul	r15, r17
    2f6e:	b0 0d       	add	r27, r0
    2f70:	11 24       	eor	r1, r1
    2f72:	4a 0f       	add	r20, r26
    2f74:	5b 1f       	adc	r21, r27
    2f76:	84 0f       	add	r24, r20
    2f78:	95 1f       	adc	r25, r21
    2f7a:	8c 01       	movw	r16, r24
    2f7c:	02 0f       	add	r16, r18
    2f7e:	13 1f       	adc	r17, r19
    2f80:	9b 01       	movw	r18, r22
    2f82:	ab 01       	movw	r20, r22
    2f84:	83 81       	ldd	r24, Z+3	; 0x03
    2f86:	0e 94 dc 0d 	call	0x1bb8	; 0x1bb8 <DrvLegSetPosition>
    2f8a:	7b c0       	rjmp	.+246    	; 0x3082 <SrvCommUpdate+0x448>
		inMessage.data[ 2U ] * 100 + inMessage.data[ 3U ] * 10 + inMessage.data[ 4U ],
		inMessage.data[ 2U ] * 100 + inMessage.data[ 3U ] * 10 + inMessage.data[ 4U ],
		inMessage.data[ 2U ] * 100 + inMessage.data[ 3U ] * 10 + inMessage.data[ 4U ],
		inMessage.data[ 1U ] * 1000 + inMessage.data[ 2U ] * 100 + inMessage.data[ 3U ] * 10 + inMessage.data[ 4U ]);
	}
	else if( inMessage.command ==  COMM_COMMAND_SET_POSITION)
    2f8c:	88 33       	cpi	r24, 0x38	; 56
    2f8e:	29 f5       	brne	.+74     	; 0x2fda <SrvCommUpdate+0x3a0>
	{
		uint16_t delay = inMessage.data[ 1U ] * 1000 + inMessage.data[ 2U ] * 100 + inMessage.data[ 3U ] * 10 + inMessage.data[ 4U ];
    2f90:	e5 e8       	ldi	r30, 0x85	; 133
    2f92:	fd e0       	ldi	r31, 0x0D	; 13
		oSuccess = SrvBodySetPosition((E_BODY_POSITION)inMessage.data[ 0U ], delay);
    2f94:	24 81       	ldd	r18, Z+4	; 0x04
    2f96:	88 ee       	ldi	r24, 0xE8	; 232
    2f98:	93 e0       	ldi	r25, 0x03	; 3
    2f9a:	28 9f       	mul	r18, r24
    2f9c:	b0 01       	movw	r22, r0
    2f9e:	29 9f       	mul	r18, r25
    2fa0:	70 0d       	add	r23, r0
    2fa2:	11 24       	eor	r1, r1
    2fa4:	85 81       	ldd	r24, Z+5	; 0x05
    2fa6:	94 e6       	ldi	r25, 0x64	; 100
    2fa8:	89 9f       	mul	r24, r25
    2faa:	60 0d       	add	r22, r0
    2fac:	71 1d       	adc	r23, r1
    2fae:	11 24       	eor	r1, r1
    2fb0:	86 81       	ldd	r24, Z+6	; 0x06
    2fb2:	90 e0       	ldi	r25, 0x00	; 0
    2fb4:	9c 01       	movw	r18, r24
    2fb6:	22 0f       	add	r18, r18
    2fb8:	33 1f       	adc	r19, r19
    2fba:	88 0f       	add	r24, r24
    2fbc:	99 1f       	adc	r25, r25
    2fbe:	88 0f       	add	r24, r24
    2fc0:	99 1f       	adc	r25, r25
    2fc2:	88 0f       	add	r24, r24
    2fc4:	99 1f       	adc	r25, r25
    2fc6:	82 0f       	add	r24, r18
    2fc8:	93 1f       	adc	r25, r19
    2fca:	68 0f       	add	r22, r24
    2fcc:	79 1f       	adc	r23, r25
    2fce:	87 81       	ldd	r24, Z+7	; 0x07
    2fd0:	68 0f       	add	r22, r24
    2fd2:	71 1d       	adc	r23, r1
    2fd4:	83 81       	ldd	r24, Z+3	; 0x03
    2fd6:	aa dd       	rcall	.-1196   	; 0x2b2c <SrvBodySetPosition>
    2fd8:	4d c0       	rjmp	.+154    	; 0x3074 <SrvCommUpdate+0x43a>
	}
	else if( inMessage.command ==  COMM_COMMAND_SET_WALK)
    2fda:	89 33       	cpi	r24, 0x39	; 57
    2fdc:	29 f5       	brne	.+74     	; 0x3028 <SrvCommUpdate+0x3ee>
	{
		uint16_t delay = inMessage.data[ 1U ] * 1000 + inMessage.data[ 2U ] * 100 + inMessage.data[ 3U ] * 10 + inMessage.data[ 4U ];
    2fde:	e5 e8       	ldi	r30, 0x85	; 133
    2fe0:	fd e0       	ldi	r31, 0x0D	; 13
		oSuccess = SrvBodySetWalk((E_WALK)inMessage.data[ 0U ], delay);
    2fe2:	24 81       	ldd	r18, Z+4	; 0x04
    2fe4:	88 ee       	ldi	r24, 0xE8	; 232
    2fe6:	93 e0       	ldi	r25, 0x03	; 3
    2fe8:	28 9f       	mul	r18, r24
    2fea:	b0 01       	movw	r22, r0
    2fec:	29 9f       	mul	r18, r25
    2fee:	70 0d       	add	r23, r0
    2ff0:	11 24       	eor	r1, r1
    2ff2:	85 81       	ldd	r24, Z+5	; 0x05
    2ff4:	a4 e6       	ldi	r26, 0x64	; 100
    2ff6:	8a 9f       	mul	r24, r26
    2ff8:	60 0d       	add	r22, r0
    2ffa:	71 1d       	adc	r23, r1
    2ffc:	11 24       	eor	r1, r1
    2ffe:	86 81       	ldd	r24, Z+6	; 0x06
    3000:	90 e0       	ldi	r25, 0x00	; 0
    3002:	9c 01       	movw	r18, r24
    3004:	22 0f       	add	r18, r18
    3006:	33 1f       	adc	r19, r19
    3008:	88 0f       	add	r24, r24
    300a:	99 1f       	adc	r25, r25
    300c:	88 0f       	add	r24, r24
    300e:	99 1f       	adc	r25, r25
    3010:	88 0f       	add	r24, r24
    3012:	99 1f       	adc	r25, r25
    3014:	82 0f       	add	r24, r18
    3016:	93 1f       	adc	r25, r19
    3018:	68 0f       	add	r22, r24
    301a:	79 1f       	adc	r23, r25
    301c:	87 81       	ldd	r24, Z+7	; 0x07
    301e:	68 0f       	add	r22, r24
    3020:	71 1d       	adc	r23, r1
    3022:	83 81       	ldd	r24, Z+3	; 0x03
    3024:	85 dd       	rcall	.-1270   	; 0x2b30 <SrvBodySetWalk>
    3026:	26 c0       	rjmp	.+76     	; 0x3074 <SrvCommUpdate+0x43a>
	}
	else if( inMessage.command ==  COMM_COMMAND_SET_MOVE)
    3028:	81 34       	cpi	r24, 0x41	; 65
    302a:	59 f5       	brne	.+86     	; 0x3082 <SrvCommUpdate+0x448>
	{
		uint16_t delay = inMessage.data[ 1U ] * 1000 + inMessage.data[ 2U ] * 100 + inMessage.data[ 3U ] * 10 + inMessage.data[ 4U ];
    302c:	e5 e8       	ldi	r30, 0x85	; 133
    302e:	fd e0       	ldi	r31, 0x0D	; 13
		oSuccess = SrvBodySetGait((E_GAIT)inMessage.data[ 0U ], delay);
    3030:	24 81       	ldd	r18, Z+4	; 0x04
    3032:	88 ee       	ldi	r24, 0xE8	; 232
    3034:	93 e0       	ldi	r25, 0x03	; 3
    3036:	28 9f       	mul	r18, r24
    3038:	b0 01       	movw	r22, r0
    303a:	29 9f       	mul	r18, r25
    303c:	70 0d       	add	r23, r0
    303e:	11 24       	eor	r1, r1
    3040:	85 81       	ldd	r24, Z+5	; 0x05
    3042:	b4 e6       	ldi	r27, 0x64	; 100
    3044:	8b 9f       	mul	r24, r27
    3046:	60 0d       	add	r22, r0
    3048:	71 1d       	adc	r23, r1
    304a:	11 24       	eor	r1, r1
    304c:	86 81       	ldd	r24, Z+6	; 0x06
    304e:	90 e0       	ldi	r25, 0x00	; 0
    3050:	9c 01       	movw	r18, r24
    3052:	22 0f       	add	r18, r18
    3054:	33 1f       	adc	r19, r19
    3056:	88 0f       	add	r24, r24
    3058:	99 1f       	adc	r25, r25
    305a:	88 0f       	add	r24, r24
    305c:	99 1f       	adc	r25, r25
    305e:	88 0f       	add	r24, r24
    3060:	99 1f       	adc	r25, r25
    3062:	82 0f       	add	r24, r18
    3064:	93 1f       	adc	r25, r19
    3066:	68 0f       	add	r22, r24
    3068:	79 1f       	adc	r23, r25
    306a:	87 81       	ldd	r24, Z+7	; 0x07
    306c:	68 0f       	add	r22, r24
    306e:	71 1d       	adc	r23, r1
				{
					//reset pointer
					inMessage.size = 0U;
					status = COMM_START;
					//execute incoming message
					if(SrvCommExecuteMessage())
    3070:	83 81       	ldd	r24, Z+3	; 0x03
    3072:	75 dd       	rcall	.-1302   	; 0x2b5e <SrvBodySetGait>
					{
						SrvCommWriteMessage((uint8_t*)WRITE_OK,2U);
    3074:	88 23       	and	r24, r24
    3076:	29 f0       	breq	.+10     	; 0x3082 <SrvCommUpdate+0x448>
    3078:	62 e0       	ldi	r22, 0x02	; 2
    307a:	88 e0       	ldi	r24, 0x08	; 8
    307c:	95 e0       	ldi	r25, 0x05	; 5
    307e:	b1 dd       	rcall	.-1182   	; 0x2be2 <SrvCommWriteMessage>
						return TRUE;
					}
					else
					{
						SrvCommWriteMessage((uint8_t*)WRITE_KO,2U);
    3080:	24 c0       	rjmp	.+72     	; 0x30ca <SrvCommUpdate+0x490>
    3082:	62 e0       	ldi	r22, 0x02	; 2
    3084:	8b e0       	ldi	r24, 0x0B	; 11
    3086:	95 e0       	ldi	r25, 0x05	; 5
    3088:	ac dd       	rcall	.-1192   	; 0x2be2 <SrvCommWriteMessage>
    308a:	1f c0       	rjmp	.+62     	; 0x30ca <SrvCommUpdate+0x490>
					}
				}
				else
				{
					//fill buffer
					inMessage.data[ inMessage.size ] = datum;
    308c:	f7 01       	movw	r30, r14
    308e:	92 81       	ldd	r25, Z+2	; 0x02
    3090:	29 2f       	mov	r18, r25
    3092:	30 e0       	ldi	r19, 0x00	; 0
    3094:	f9 01       	movw	r30, r18
    3096:	eb 57       	subi	r30, 0x7B	; 123
    3098:	f2 4f       	sbci	r31, 0xF2	; 242
    309a:	83 83       	std	Z+3, r24	; 0x03
					if( (datum != '-') && (datum != '+') )
    309c:	8d 32       	cpi	r24, 0x2D	; 45
    309e:	39 f0       	breq	.+14     	; 0x30ae <SrvCommUpdate+0x474>
    30a0:	8b 32       	cpi	r24, 0x2B	; 43
    30a2:	29 f0       	breq	.+10     	; 0x30ae <SrvCommUpdate+0x474>
					{
						inMessage.data[ inMessage.size ] -= 0x30U;
    30a4:	f9 01       	movw	r30, r18
    30a6:	eb 57       	subi	r30, 0x7B	; 123
    30a8:	f2 4f       	sbci	r31, 0xF2	; 242
    30aa:	80 53       	subi	r24, 0x30	; 48
    30ac:	83 83       	std	Z+3, r24	; 0x03
					}
					inMessage.size++;
    30ae:	9f 5f       	subi	r25, 0xFF	; 255
    30b0:	d7 01       	movw	r26, r14
    30b2:	12 96       	adiw	r26, 0x02	; 2
    30b4:	9c 93       	st	X, r25
static Boolean SrvCommDecodeMessage( void )
{
	nbDataAvailable = DrvUartDataAvailable(E_UART_0);
	
	//loop until the data is over
	for(Int16U loop = 0U; loop < nbDataAvailable ; loop++)
    30b6:	0f 5f       	subi	r16, 0xFF	; 255
    30b8:	1f 4f       	sbci	r17, 0xFF	; 255
    30ba:	80 91 0f 0b 	lds	r24, 0x0B0F	; 0x800b0f <nbDataAvailable>
    30be:	90 91 10 0b 	lds	r25, 0x0B10	; 0x800b10 <nbDataAvailable+0x1>
    30c2:	08 17       	cp	r16, r24
    30c4:	19 07       	cpc	r17, r25
    30c6:	08 f4       	brcc	.+2      	; 0x30ca <SrvCommUpdate+0x490>
    30c8:	e4 cd       	rjmp	.-1080   	; 0x2c92 <SrvCommUpdate+0x58>
/*dispatcher d'evenements                                               */
/************************************************************************/
void SrvCommUpdate ( void ) 
{
	SrvCommDecodeMessage();
}
    30ca:	68 96       	adiw	r28, 0x18	; 24
    30cc:	0f b6       	in	r0, 0x3f	; 63
    30ce:	f8 94       	cli
    30d0:	de bf       	out	0x3e, r29	; 62
    30d2:	0f be       	out	0x3f, r0	; 63
    30d4:	cd bf       	out	0x3d, r28	; 61
    30d6:	df 91       	pop	r29
    30d8:	cf 91       	pop	r28
    30da:	1f 91       	pop	r17
    30dc:	0f 91       	pop	r16
    30de:	ff 90       	pop	r15
    30e0:	ef 90       	pop	r14
    30e2:	df 90       	pop	r13
    30e4:	cf 90       	pop	r12
    30e6:	bf 90       	pop	r11
    30e8:	08 95       	ret

000030ea <SrvCoreInit>:



//Fonction d'initialisation
Boolean SrvCoreInit ( void ) 
{
    30ea:	ef 92       	push	r14
    30ec:	ff 92       	push	r15
    30ee:	1f 93       	push	r17
    30f0:	cf 93       	push	r28
    30f2:	df 93       	push	r29
	Boolean oSuccess = TRUE;
	
	//Init Drivers
	oSuccess == TRUE ? oSuccess = DrvTickInit() : FALSE;
    30f4:	0e 94 2f 10 	call	0x205e	; 0x205e <DrvTickInit>
    30f8:	18 2f       	mov	r17, r24
	oSuccess == TRUE ? oSuccess = DrvTimerInit() : FALSE;
    30fa:	81 30       	cpi	r24, 0x01	; 1
    30fc:	a9 f4       	brne	.+42     	; 0x3128 <SrvCoreInit+0x3e>
    30fe:	3d d8       	rcall	.-3974   	; 0x217a <DrvTimerInit>
    3100:	18 2f       	mov	r17, r24
	oSuccess == TRUE ? oSuccess = DrvEepromInit() : FALSE;
    3102:	81 30       	cpi	r24, 0x01	; 1
    3104:	89 f4       	brne	.+34     	; 0x3128 <SrvCoreInit+0x3e>
    3106:	0e 94 c6 06 	call	0xd8c	; 0xd8c <DrvEepromInit>
    310a:	18 2f       	mov	r17, r24
	oSuccess == TRUE ? oSuccess = DrvUartInit( E_UART_0, UART_SPEED_115200 ) : FALSE;
    310c:	81 30       	cpi	r24, 0x01	; 1
    310e:	61 f4       	brne	.+24     	; 0x3128 <SrvCoreInit+0x3e>
    3110:	64 e0       	ldi	r22, 0x04	; 4
    3112:	80 e0       	ldi	r24, 0x00	; 0
    3114:	46 db       	rcall	.-2420   	; 0x27a2 <DrvUartInit>
    3116:	18 2f       	mov	r17, r24
	oSuccess == TRUE ? oSuccess = DrvTwiInit( TWI_SPEED_400K ) : FALSE;
    3118:	81 30       	cpi	r24, 0x01	; 1
    311a:	31 f4       	brne	.+12     	; 0x3128 <SrvCoreInit+0x3e>
    311c:	60 e8       	ldi	r22, 0x80	; 128
    311e:	7a e1       	ldi	r23, 0x1A	; 26
    3120:	86 e0       	ldi	r24, 0x06	; 6
    3122:	90 e0       	ldi	r25, 0x00	; 0
    3124:	60 d9       	rcall	.-3392   	; 0x23e6 <DrvTwiInit>
    3126:	18 2f       	mov	r17, r24
    3128:	cb eb       	ldi	r28, 0xBB	; 187
    312a:	d1 e0       	ldi	r29, 0x01	; 1
    312c:	0f 2e       	mov	r0, r31
    312e:	f7 e2       	ldi	r31, 0x27	; 39
    3130:	ef 2e       	mov	r14, r31
    3132:	f2 e0       	ldi	r31, 0x02	; 2
    3134:	ff 2e       	mov	r15, r31
    3136:	f0 2d       	mov	r31, r0

	
	for(uint8_t i = 0U ; i < NB_SERVICES ; i++)
	{
		oSuccess == TRUE ? oSuccess = coreServices[i].init() : FALSE;
    3138:	11 30       	cpi	r17, 0x01	; 1
    313a:	21 f4       	brne	.+8      	; 0x3144 <SrvCoreInit+0x5a>
    313c:	e8 81       	ld	r30, Y
    313e:	f9 81       	ldd	r31, Y+1	; 0x01
    3140:	09 95       	icall
    3142:	18 2f       	mov	r17, r24
		coreServices[i].updateTime = 0UL;
    3144:	1c 82       	std	Y+4, r1	; 0x04
    3146:	1d 82       	std	Y+5, r1	; 0x05
    3148:	1e 82       	std	Y+6, r1	; 0x06
    314a:	1f 82       	std	Y+7, r1	; 0x07
    314c:	2c 96       	adiw	r28, 0x0c	; 12
	oSuccess == TRUE ? oSuccess = DrvEepromInit() : FALSE;
	oSuccess == TRUE ? oSuccess = DrvUartInit( E_UART_0, UART_SPEED_115200 ) : FALSE;
	oSuccess == TRUE ? oSuccess = DrvTwiInit( TWI_SPEED_400K ) : FALSE;

	
	for(uint8_t i = 0U ; i < NB_SERVICES ; i++)
    314e:	ce 15       	cp	r28, r14
    3150:	df 05       	cpc	r29, r15
		oSuccess == TRUE ? oSuccess = coreServices[i].init() : FALSE;
		coreServices[i].updateTime = 0UL;
	}
		
	//Reset time
	DrvTimerTickReset();
    3152:	91 f7       	brne	.-28     	; 0x3138 <SrvCoreInit+0x4e>
    3154:	5f d8       	rcall	.-3906   	; 0x2214 <DrvTimerTickReset>
	
	return oSuccess;
}
    3156:	81 2f       	mov	r24, r17
    3158:	df 91       	pop	r29
    315a:	cf 91       	pop	r28
    315c:	1f 91       	pop	r17
    315e:	ff 90       	pop	r15
    3160:	ef 90       	pop	r14
    3162:	08 95       	ret

00003164 <SrvCoreLoop>:

Boolean SrvCoreLoop ( void ) 
{
    3164:	cf 92       	push	r12
    3166:	df 92       	push	r13
    3168:	ef 92       	push	r14
    316a:	ff 92       	push	r15
    316c:	0f 93       	push	r16
    316e:	1f 93       	push	r17
    3170:	cf 93       	push	r28
    3172:	df 93       	push	r29
    3174:	cb eb       	ldi	r28, 0xBB	; 187
    3176:	d1 e0       	ldi	r29, 0x01	; 1
    3178:	07 e2       	ldi	r16, 0x27	; 39
    317a:	12 e0       	ldi	r17, 0x02	; 2
	Boolean oSuccess = FALSE;
	for(uint8_t i = 0U ; i < NB_SERVICES ; i++)
	{
		//get time
		Int32U now = DrvTickGetTimeUs();
    317c:	0e 94 4f 10 	call	0x209e	; 0x209e <DrvTickGetTimeUs>
    3180:	6b 01       	movw	r12, r22
    3182:	7c 01       	movw	r14, r24
		coreServices[i].update();
    3184:	ea 81       	ldd	r30, Y+2	; 0x02
    3186:	fb 81       	ldd	r31, Y+3	; 0x03
    3188:	09 95       	icall
		//get loop update time
		coreServices[i].updateTime = DrvTickGetTimeUs() - now;
    318a:	0e 94 4f 10 	call	0x209e	; 0x209e <DrvTickGetTimeUs>
    318e:	dc 01       	movw	r26, r24
    3190:	cb 01       	movw	r24, r22
    3192:	8c 19       	sub	r24, r12
    3194:	9d 09       	sbc	r25, r13
    3196:	ae 09       	sbc	r26, r14
    3198:	bf 09       	sbc	r27, r15
    319a:	8c 83       	std	Y+4, r24	; 0x04
    319c:	9d 83       	std	Y+5, r25	; 0x05
    319e:	ae 83       	std	Y+6, r26	; 0x06
    31a0:	bf 83       	std	Y+7, r27	; 0x07
		//get the max time
		if(coreServices[i].updateTime > coreServices[i].updateTimeMax)
    31a2:	c8 84       	ldd	r12, Y+8	; 0x08
    31a4:	d9 84       	ldd	r13, Y+9	; 0x09
    31a6:	ea 84       	ldd	r14, Y+10	; 0x0a
    31a8:	fb 84       	ldd	r15, Y+11	; 0x0b
    31aa:	c8 16       	cp	r12, r24
    31ac:	d9 06       	cpc	r13, r25
    31ae:	ea 06       	cpc	r14, r26
    31b0:	fb 06       	cpc	r15, r27
    31b2:	20 f4       	brcc	.+8      	; 0x31bc <SrvCoreLoop+0x58>
		{
			coreServices[i].updateTimeMax = coreServices[i].updateTime;
    31b4:	88 87       	std	Y+8, r24	; 0x08
    31b6:	99 87       	std	Y+9, r25	; 0x09
    31b8:	aa 87       	std	Y+10, r26	; 0x0a
    31ba:	bb 87       	std	Y+11, r27	; 0x0b
    31bc:	2c 96       	adiw	r28, 0x0c	; 12
}

Boolean SrvCoreLoop ( void ) 
{
	Boolean oSuccess = FALSE;
	for(uint8_t i = 0U ; i < NB_SERVICES ; i++)
    31be:	c0 17       	cp	r28, r16
    31c0:	d1 07       	cpc	r29, r17
    31c2:	e1 f6       	brne	.-72     	; 0x317c <SrvCoreLoop+0x18>
		{
			coreServices[i].updateTimeMax = coreServices[i].updateTime;
		}
	}
	return oSuccess;
}
    31c4:	80 e0       	ldi	r24, 0x00	; 0
    31c6:	df 91       	pop	r29
    31c8:	cf 91       	pop	r28
    31ca:	1f 91       	pop	r17
    31cc:	0f 91       	pop	r16
    31ce:	ff 90       	pop	r15
    31d0:	ef 90       	pop	r14
    31d2:	df 90       	pop	r13
    31d4:	cf 90       	pop	r12
    31d6:	08 95       	ret

000031d8 <SrvDisplayInit>:


//Fonction d'initialisation
Boolean SrvDisplayInit ( void ) 
{
	prevMillisDisplay = 0U;
    31d8:	10 92 14 0b 	sts	0x0B14, r1	; 0x800b14 <prevMillisDisplay>
    31dc:	10 92 15 0b 	sts	0x0B15, r1	; 0x800b15 <prevMillisDisplay+0x1>
    31e0:	10 92 16 0b 	sts	0x0B16, r1	; 0x800b16 <prevMillisDisplay+0x2>
    31e4:	10 92 17 0b 	sts	0x0B17, r1	; 0x800b17 <prevMillisDisplay+0x3>
	tempPercentage = 0U;
    31e8:	10 92 13 0b 	sts	0x0B13, r1	; 0x800b13 <tempPercentage>
	batteryLevel = 100U;
    31ec:	84 e6       	ldi	r24, 0x64	; 100
    31ee:	80 93 27 02 	sts	0x0227, r24	; 0x800227 <batteryLevel>
	toggleBatteryLogo = FALSE;
    31f2:	10 92 12 0b 	sts	0x0B12, r1	; 0x800b12 <toggleBatteryLogo>
	initStepDisplay = 0U;
    31f6:	10 92 11 0b 	sts	0x0B11, r1	; 0x800b11 <initStepDisplay>
	direction = ARROW_CENTER;
    31fa:	84 e0       	ldi	r24, 0x04	; 4
    31fc:	80 93 9a 0d 	sts	0x0D9A, r24	; 0x800d9a <direction>
	return CmpSSD1306Init(SSD1306_ADDRESS);
    3200:	8c e3       	ldi	r24, 0x3C	; 60
    3202:	0c 94 42 05 	jmp	0xa84	; 0xa84 <CmpSSD1306Init>
}
    3206:	08 95       	ret

00003208 <SrvDisplaySetDirection>:
	}
}

void SrvDisplaySetDirection (EBitmapArrow dir) 
{
	direction = dir;
    3208:	80 93 9a 0d 	sts	0x0D9A, r24	; 0x800d9a <direction>
    320c:	08 95       	ret

0000320e <SrvDisplayScreenShowCommunication>:
	tabUs1[len + 1U] = 'm';
	SrvDisplayScreenShowString(SCREEN_WIDTH - 26U ,11U,tabUs1);
}

void SrvDisplayScreenShowCommunication ( void )
{
    320e:	cf 93       	push	r28
    3210:	df 93       	push	r29
    3212:	00 d0       	rcall	.+0      	; 0x3214 <SrvDisplayScreenShowCommunication+0x6>
    3214:	00 d0       	rcall	.+0      	; 0x3216 <SrvDisplayScreenShowCommunication+0x8>
    3216:	00 d0       	rcall	.+0      	; 0x3218 <SrvDisplayScreenShowCommunication+0xa>
    3218:	cd b7       	in	r28, 0x3d	; 61
    321a:	de b7       	in	r29, 0x3e	; 62
	SBitmap bmp;
	DrvBitmapGetBitmapCommunication(&bmp);
    321c:	ce 01       	movw	r24, r28
    321e:	01 96       	adiw	r24, 0x01	; 1
    3220:	0e 94 2f 06 	call	0xc5e	; 0xc5e <DrvBitmapGetBitmapCommunication>
	CmpSSD1306DrawBitmap(&bmp,SCREEN_WIDTH - bmp.width - 20U, 0U, COLOR_WHITE);
    3224:	8b 81       	ldd	r24, Y+3	; 0x03
    3226:	9c 81       	ldd	r25, Y+4	; 0x04
    3228:	6c e6       	ldi	r22, 0x6C	; 108
    322a:	70 e0       	ldi	r23, 0x00	; 0
    322c:	68 1b       	sub	r22, r24
    322e:	79 0b       	sbc	r23, r25
    3230:	21 e0       	ldi	r18, 0x01	; 1
    3232:	40 e0       	ldi	r20, 0x00	; 0
    3234:	50 e0       	ldi	r21, 0x00	; 0
    3236:	ce 01       	movw	r24, r28
    3238:	01 96       	adiw	r24, 0x01	; 1
    323a:	0e 94 45 04 	call	0x88a	; 0x88a <CmpSSD1306DrawBitmap>
}
    323e:	26 96       	adiw	r28, 0x06	; 6
    3240:	0f b6       	in	r0, 0x3f	; 63
    3242:	f8 94       	cli
    3244:	de bf       	out	0x3e, r29	; 62
    3246:	0f be       	out	0x3f, r0	; 63
    3248:	cd bf       	out	0x3d, r28	; 61
    324a:	df 91       	pop	r29
    324c:	cf 91       	pop	r28
    324e:	08 95       	ret

00003250 <SrvDisplayScreenShowArrow>:

//display direction on screen
void SrvDisplayScreenShowArrow ( void )
{
    3250:	cf 93       	push	r28
    3252:	df 93       	push	r29
    3254:	00 d0       	rcall	.+0      	; 0x3256 <SrvDisplayScreenShowArrow+0x6>
    3256:	00 d0       	rcall	.+0      	; 0x3258 <SrvDisplayScreenShowArrow+0x8>
    3258:	00 d0       	rcall	.+0      	; 0x325a <SrvDisplayScreenShowArrow+0xa>
    325a:	cd b7       	in	r28, 0x3d	; 61
    325c:	de b7       	in	r29, 0x3e	; 62
	SBitmap bmp;
	DrvBitmapGetBitmapArrow(&bmp,direction);
    325e:	60 91 9a 0d 	lds	r22, 0x0D9A	; 0x800d9a <direction>
    3262:	ce 01       	movw	r24, r28
    3264:	01 96       	adiw	r24, 0x01	; 1
    3266:	0e 94 d9 05 	call	0xbb2	; 0xbb2 <DrvBitmapGetBitmapArrow>
	CmpSSD1306DrawBitmap(&bmp,SCREEN_WIDTH - bmp.width,0,COLOR_WHITE);
    326a:	8b 81       	ldd	r24, Y+3	; 0x03
    326c:	9c 81       	ldd	r25, Y+4	; 0x04
    326e:	60 e8       	ldi	r22, 0x80	; 128
    3270:	70 e0       	ldi	r23, 0x00	; 0
    3272:	68 1b       	sub	r22, r24
    3274:	79 0b       	sbc	r23, r25
    3276:	21 e0       	ldi	r18, 0x01	; 1
    3278:	40 e0       	ldi	r20, 0x00	; 0
    327a:	50 e0       	ldi	r21, 0x00	; 0
    327c:	ce 01       	movw	r24, r28
    327e:	01 96       	adiw	r24, 0x01	; 1
    3280:	0e 94 45 04 	call	0x88a	; 0x88a <CmpSSD1306DrawBitmap>
}
    3284:	26 96       	adiw	r28, 0x06	; 6
    3286:	0f b6       	in	r0, 0x3f	; 63
    3288:	f8 94       	cli
    328a:	de bf       	out	0x3e, r29	; 62
    328c:	0f be       	out	0x3f, r0	; 63
    328e:	cd bf       	out	0x3d, r28	; 61
    3290:	df 91       	pop	r29
    3292:	cf 91       	pop	r28
    3294:	08 95       	ret

00003296 <SrvDisplayScreenShowBattery>:
	}
}

//display battery on screen
void SrvDisplayScreenShowBattery ( uint8_t percentage )
{
    3296:	cf 93       	push	r28
    3298:	df 93       	push	r29
    329a:	00 d0       	rcall	.+0      	; 0x329c <SrvDisplayScreenShowBattery+0x6>
    329c:	00 d0       	rcall	.+0      	; 0x329e <SrvDisplayScreenShowBattery+0x8>
    329e:	00 d0       	rcall	.+0      	; 0x32a0 <SrvDisplayScreenShowBattery+0xa>
    32a0:	cd b7       	in	r28, 0x3d	; 61
    32a2:	de b7       	in	r29, 0x3e	; 62
	SBitmap bmp;
	DrvBitmapGetBitmapBatteryValue(&bmp,percentage);
    32a4:	68 2f       	mov	r22, r24
    32a6:	ce 01       	movw	r24, r28
    32a8:	01 96       	adiw	r24, 0x01	; 1
    32aa:	0e 94 05 06 	call	0xc0a	; 0xc0a <DrvBitmapGetBitmapBatteryValue>
	CmpSSD1306DrawBitmap(&bmp,0,0,COLOR_WHITE);
    32ae:	21 e0       	ldi	r18, 0x01	; 1
    32b0:	40 e0       	ldi	r20, 0x00	; 0
    32b2:	50 e0       	ldi	r21, 0x00	; 0
    32b4:	60 e0       	ldi	r22, 0x00	; 0
    32b6:	70 e0       	ldi	r23, 0x00	; 0
    32b8:	ce 01       	movw	r24, r28
    32ba:	01 96       	adiw	r24, 0x01	; 1
    32bc:	0e 94 45 04 	call	0x88a	; 0x88a <CmpSSD1306DrawBitmap>
}
    32c0:	26 96       	adiw	r28, 0x06	; 6
    32c2:	0f b6       	in	r0, 0x3f	; 63
    32c4:	f8 94       	cli
    32c6:	de bf       	out	0x3e, r29	; 62
    32c8:	0f be       	out	0x3f, r0	; 63
    32ca:	cd bf       	out	0x3d, r28	; 61
    32cc:	df 91       	pop	r29
    32ce:	cf 91       	pop	r28
    32d0:	08 95       	ret

000032d2 <SrvDisplayScreenShowString>:

//display string on screen
Boolean SrvDisplayScreenShowString (uint8_t x,uint8_t y, char * data )
{
    32d2:	ef 92       	push	r14
    32d4:	ff 92       	push	r15
    32d6:	0f 93       	push	r16
    32d8:	1f 93       	push	r17
    32da:	cf 93       	push	r28
    32dc:	c8 2f       	mov	r28, r24
    32de:	8a 01       	movw	r16, r20
	
	CmpSSD1306EraseArea(x,y,CHAR_WIDTH * 10U,CHAR_HEIGHT);
    32e0:	e6 2e       	mov	r14, r22
    32e2:	f1 2c       	mov	r15, r1
    32e4:	28 e0       	ldi	r18, 0x08	; 8
    32e6:	30 e0       	ldi	r19, 0x00	; 0
    32e8:	42 e3       	ldi	r20, 0x32	; 50
    32ea:	50 e0       	ldi	r21, 0x00	; 0
    32ec:	b7 01       	movw	r22, r14
    32ee:	90 e0       	ldi	r25, 0x00	; 0
    32f0:	0e 94 e0 02 	call	0x5c0	; 0x5c0 <CmpSSD1306EraseArea>
	while ( *data )
    32f4:	f8 01       	movw	r30, r16
    32f6:	80 81       	ld	r24, Z
    32f8:	88 23       	and	r24, r24
    32fa:	71 f0       	breq	.+28     	; 0x3318 <SrvDisplayScreenShowString+0x46>
    32fc:	0f 5f       	subi	r16, 0xFF	; 255
    32fe:	1f 4f       	sbci	r17, 0xFF	; 255
	{
		CmpSSD1306DrawChar(*data++, x, y, COLOR_WHITE);
    3300:	6c 2f       	mov	r22, r28
    3302:	70 e0       	ldi	r23, 0x00	; 0
    3304:	21 e0       	ldi	r18, 0x01	; 1
    3306:	a7 01       	movw	r20, r14
    3308:	0e 94 c3 03 	call	0x786	; 0x786 <CmpSSD1306DrawChar>
		x += CHAR_WIDTH;
    330c:	cb 5f       	subi	r28, 0xFB	; 251
//display string on screen
Boolean SrvDisplayScreenShowString (uint8_t x,uint8_t y, char * data )
{
	
	CmpSSD1306EraseArea(x,y,CHAR_WIDTH * 10U,CHAR_HEIGHT);
	while ( *data )
    330e:	f8 01       	movw	r30, r16
    3310:	81 91       	ld	r24, Z+
    3312:	8f 01       	movw	r16, r30
    3314:	81 11       	cpse	r24, r1
    3316:	f4 cf       	rjmp	.-24     	; 0x3300 <SrvDisplayScreenShowString+0x2e>
	{
		CmpSSD1306DrawChar(*data++, x, y, COLOR_WHITE);
		x += CHAR_WIDTH;
	}
	return TRUE;
}
    3318:	81 e0       	ldi	r24, 0x01	; 1
    331a:	cf 91       	pop	r28
    331c:	1f 91       	pop	r17
    331e:	0f 91       	pop	r16
    3320:	ff 90       	pop	r15
    3322:	ef 90       	pop	r14
    3324:	08 95       	ret

00003326 <SrvDisplayScreenShowUltrason>:
{
	direction = dir;
}

void SrvDisplayScreenShowUltrason ( void )
{
    3326:	cf 92       	push	r12
    3328:	df 92       	push	r13
    332a:	ef 92       	push	r14
    332c:	ff 92       	push	r15
    332e:	0f 93       	push	r16
    3330:	1f 93       	push	r17
    3332:	cf 93       	push	r28
    3334:	df 93       	push	r29
    3336:	cd b7       	in	r28, 0x3d	; 61
    3338:	de b7       	in	r29, 0x3e	; 62
    333a:	2a 97       	sbiw	r28, 0x0a	; 10
    333c:	0f b6       	in	r0, 0x3f	; 63
    333e:	f8 94       	cli
    3340:	de bf       	out	0x3e, r29	; 62
    3342:	0f be       	out	0x3f, r0	; 63
    3344:	cd bf       	out	0x3d, r28	; 61
	char tabUs0[5U] = {0U};
    3346:	85 e0       	ldi	r24, 0x05	; 5
    3348:	9e 01       	movw	r18, r28
    334a:	2f 5f       	subi	r18, 0xFF	; 255
    334c:	3f 4f       	sbci	r19, 0xFF	; 255
    334e:	79 01       	movw	r14, r18
    3350:	f9 01       	movw	r30, r18
    3352:	28 2f       	mov	r18, r24
    3354:	11 92       	st	Z+, r1
    3356:	2a 95       	dec	r18
    3358:	e9 f7       	brne	.-6      	; 0x3354 <SrvDisplayScreenShowUltrason+0x2e>
	char tabUs1[5U] = {0U};
    335a:	8e 01       	movw	r16, r28
    335c:	0a 5f       	subi	r16, 0xFA	; 250
    335e:	1f 4f       	sbci	r17, 0xFF	; 255
    3360:	f8 01       	movw	r30, r16
    3362:	11 92       	st	Z+, r1
    3364:	8a 95       	dec	r24
    3366:	e9 f7       	brne	.-6      	; 0x3362 <SrvDisplayScreenShowUltrason+0x3c>
	itoa (SrvUltrasonGetDistance(E_US_0), tabUs0, 10);
    3368:	80 e0       	ldi	r24, 0x00	; 0
    336a:	12 d3       	rcall	.+1572   	; 0x3990 <SrvUltrasonGetDistance>
    336c:	4a e0       	ldi	r20, 0x0A	; 10
    336e:	b7 01       	movw	r22, r14
    3370:	0e 94 82 23 	call	0x4704	; 0x4704 <__itoa_ncheck>
	size_t len = strlen(tabUs0);
    3374:	f7 01       	movw	r30, r14
    3376:	01 90       	ld	r0, Z+
    3378:	00 20       	and	r0, r0
    337a:	e9 f7       	brne	.-6      	; 0x3376 <SrvDisplayScreenShowUltrason+0x50>
    337c:	31 97       	sbiw	r30, 0x01	; 1
	tabUs0[len] = 'c';
    337e:	cf 01       	movw	r24, r30
    3380:	8e 19       	sub	r24, r14
    3382:	9f 09       	sbc	r25, r15
    3384:	0f 2e       	mov	r0, r31
    3386:	f3 e6       	ldi	r31, 0x63	; 99
    3388:	cf 2e       	mov	r12, r31
    338a:	f0 2d       	mov	r31, r0
    338c:	c0 82       	st	Z, r12
	tabUs0[len + 1U] = 'm';
    338e:	fe 01       	movw	r30, r28
    3390:	e8 0f       	add	r30, r24
    3392:	f9 1f       	adc	r31, r25
    3394:	0f 2e       	mov	r0, r31
    3396:	fd e6       	ldi	r31, 0x6D	; 109
    3398:	df 2e       	mov	r13, r31
    339a:	f0 2d       	mov	r31, r0
    339c:	d2 82       	std	Z+2, r13	; 0x02
	SrvDisplayScreenShowString(5U,11U,tabUs0);
    339e:	a7 01       	movw	r20, r14
    33a0:	6b e0       	ldi	r22, 0x0B	; 11
    33a2:	85 e0       	ldi	r24, 0x05	; 5
    33a4:	96 df       	rcall	.-212    	; 0x32d2 <SrvDisplayScreenShowString>
	itoa (SrvUltrasonGetDistance(E_US_1), tabUs1, 10);
    33a6:	81 e0       	ldi	r24, 0x01	; 1
    33a8:	f3 d2       	rcall	.+1510   	; 0x3990 <SrvUltrasonGetDistance>
    33aa:	4a e0       	ldi	r20, 0x0A	; 10
    33ac:	b8 01       	movw	r22, r16
    33ae:	0e 94 82 23 	call	0x4704	; 0x4704 <__itoa_ncheck>
    33b2:	f8 01       	movw	r30, r16
	len = strlen(tabUs1);
    33b4:	01 90       	ld	r0, Z+
    33b6:	00 20       	and	r0, r0
    33b8:	e9 f7       	brne	.-6      	; 0x33b4 <SrvDisplayScreenShowUltrason+0x8e>
    33ba:	31 97       	sbiw	r30, 0x01	; 1
    33bc:	cf 01       	movw	r24, r30
	tabUs1[len] = 'c';
    33be:	80 1b       	sub	r24, r16
    33c0:	91 0b       	sbc	r25, r17
    33c2:	c0 82       	st	Z, r12
    33c4:	fe 01       	movw	r30, r28
	tabUs1[len + 1U] = 'm';
    33c6:	e8 0f       	add	r30, r24
    33c8:	f9 1f       	adc	r31, r25
    33ca:	d7 82       	std	Z+7, r13	; 0x07
    33cc:	a8 01       	movw	r20, r16
	SrvDisplayScreenShowString(SCREEN_WIDTH - 26U ,11U,tabUs1);
    33ce:	6b e0       	ldi	r22, 0x0B	; 11
    33d0:	86 e6       	ldi	r24, 0x66	; 102
    33d2:	7f df       	rcall	.-258    	; 0x32d2 <SrvDisplayScreenShowString>
    33d4:	2a 96       	adiw	r28, 0x0a	; 10
}
    33d6:	0f b6       	in	r0, 0x3f	; 63
    33d8:	f8 94       	cli
    33da:	de bf       	out	0x3e, r29	; 62
    33dc:	0f be       	out	0x3f, r0	; 63
    33de:	cd bf       	out	0x3d, r28	; 61
    33e0:	df 91       	pop	r29
    33e2:	cf 91       	pop	r28
    33e4:	1f 91       	pop	r17
    33e6:	0f 91       	pop	r16
    33e8:	ff 90       	pop	r15
    33ea:	ef 90       	pop	r14
    33ec:	df 90       	pop	r13
    33ee:	cf 90       	pop	r12
    33f0:	08 95       	ret

000033f2 <SrvDisplayScreenBatteryManagement>:
    33f2:	0f 93       	push	r16
	CmpSSD1306DrawBitmap(&bmp,SCREEN_WIDTH - bmp.width,0,COLOR_WHITE);
}

//display battery on screen
void SrvDisplayScreenBatteryManagement ( void )
{
    33f4:	1f 93       	push	r17
    33f6:	cf 93       	push	r28
    33f8:	df 93       	push	r29
    33fa:	00 d0       	rcall	.+0      	; 0x33fc <SrvDisplayScreenBatteryManagement+0xa>
    33fc:	00 d0       	rcall	.+0      	; 0x33fe <SrvDisplayScreenBatteryManagement+0xc>
    33fe:	1f 92       	push	r1
    3400:	cd b7       	in	r28, 0x3d	; 61
    3402:	de b7       	in	r29, 0x3e	; 62
	if ((DrvTickGetTimeMs() - prevMillisDisplay) > 250U)
    3404:	0e 94 71 10 	call	0x20e2	; 0x20e2 <DrvTickGetTimeMs>
    3408:	00 91 14 0b 	lds	r16, 0x0B14	; 0x800b14 <prevMillisDisplay>
    340c:	10 91 15 0b 	lds	r17, 0x0B15	; 0x800b15 <prevMillisDisplay+0x1>
    3410:	20 91 16 0b 	lds	r18, 0x0B16	; 0x800b16 <prevMillisDisplay+0x2>
    3414:	30 91 17 0b 	lds	r19, 0x0B17	; 0x800b17 <prevMillisDisplay+0x3>
    3418:	dc 01       	movw	r26, r24
    341a:	cb 01       	movw	r24, r22
    341c:	80 1b       	sub	r24, r16
    341e:	91 0b       	sbc	r25, r17
    3420:	a2 0b       	sbc	r26, r18
    3422:	b3 0b       	sbc	r27, r19
    3424:	8b 3f       	cpi	r24, 0xFB	; 251
    3426:	91 05       	cpc	r25, r1
    3428:	a1 05       	cpc	r26, r1
    342a:	b1 05       	cpc	r27, r1
    342c:	c0 f1       	brcs	.+112    	; 0x349e <SrvDisplayScreenBatteryManagement+0xac>
	{
		prevMillisDisplay = DrvTickGetTimeMs();
    342e:	0e 94 71 10 	call	0x20e2	; 0x20e2 <DrvTickGetTimeMs>
    3432:	60 93 14 0b 	sts	0x0B14, r22	; 0x800b14 <prevMillisDisplay>
    3436:	70 93 15 0b 	sts	0x0B15, r23	; 0x800b15 <prevMillisDisplay+0x1>
    343a:	80 93 16 0b 	sts	0x0B16, r24	; 0x800b16 <prevMillisDisplay+0x2>
    343e:	90 93 17 0b 	sts	0x0B17, r25	; 0x800b17 <prevMillisDisplay+0x3>

		batteryLevel = SrvBatteryGetValue();
    3442:	57 db       	rcall	.-2386   	; 0x2af2 <SrvBatteryGetValue>
    3444:	80 93 27 02 	sts	0x0227, r24	; 0x800227 <batteryLevel>
		if( batteryLevel <= 25U )
    3448:	8a 31       	cpi	r24, 0x1A	; 26
    344a:	70 f4       	brcc	.+28     	; 0x3468 <SrvDisplayScreenBatteryManagement+0x76>
		{
			if(toggleBatteryLogo == TRUE)
    344c:	90 91 12 0b 	lds	r25, 0x0B12	; 0x800b12 <toggleBatteryLogo>
    3450:	91 30       	cpi	r25, 0x01	; 1
    3452:	21 f4       	brne	.+8      	; 0x345c <SrvDisplayScreenBatteryManagement+0x6a>
			{
				toggleBatteryLogo = FALSE;
    3454:	10 92 12 0b 	sts	0x0B12, r1	; 0x800b12 <toggleBatteryLogo>
				SrvDisplayScreenShowBattery(batteryLevel);
    3458:	1e df       	rcall	.-452    	; 0x3296 <SrvDisplayScreenShowBattery>
    345a:	07 c0       	rjmp	.+14     	; 0x346a <SrvDisplayScreenBatteryManagement+0x78>
			}
			else
			{
				toggleBatteryLogo = TRUE;
    345c:	81 e0       	ldi	r24, 0x01	; 1
    345e:	80 93 12 0b 	sts	0x0B12, r24	; 0x800b12 <toggleBatteryLogo>
				SrvDisplayScreenShowBattery(25);
    3462:	89 e1       	ldi	r24, 0x19	; 25
    3464:	18 df       	rcall	.-464    	; 0x3296 <SrvDisplayScreenShowBattery>
			}
		}
		else
		{
			//show battery
			SrvDisplayScreenShowBattery(batteryLevel);
    3466:	01 c0       	rjmp	.+2      	; 0x346a <SrvDisplayScreenBatteryManagement+0x78>
    3468:	16 df       	rcall	.-468    	; 0x3296 <SrvDisplayScreenShowBattery>
		}
		
		char tab[5U] = {0U};
    346a:	8e 01       	movw	r16, r28
    346c:	0f 5f       	subi	r16, 0xFF	; 255
    346e:	1f 4f       	sbci	r17, 0xFF	; 255
    3470:	85 e0       	ldi	r24, 0x05	; 5
    3472:	f8 01       	movw	r30, r16
    3474:	11 92       	st	Z+, r1
    3476:	8a 95       	dec	r24
    3478:	e9 f7       	brne	.-6      	; 0x3474 <SrvDisplayScreenBatteryManagement+0x82>
    347a:	80 91 27 02 	lds	r24, 0x0227	; 0x800227 <batteryLevel>
    347e:	4a e0       	ldi	r20, 0x0A	; 10
    3480:	b8 01       	movw	r22, r16
    3482:	90 e0       	ldi	r25, 0x00	; 0
    3484:	0e 94 82 23 	call	0x4704	; 0x4704 <__itoa_ncheck>
		itoa (batteryLevel, tab, 10);
		tab[strlen(tab)] = '%';
    3488:	f8 01       	movw	r30, r16
    348a:	01 90       	ld	r0, Z+
    348c:	00 20       	and	r0, r0
    348e:	e9 f7       	brne	.-6      	; 0x348a <SrvDisplayScreenBatteryManagement+0x98>
    3490:	31 97       	sbiw	r30, 0x01	; 1
    3492:	85 e2       	ldi	r24, 0x25	; 37
		SrvDisplayScreenShowString(18U,0U,tab);
    3494:	80 83       	st	Z, r24
    3496:	a8 01       	movw	r20, r16
    3498:	60 e0       	ldi	r22, 0x00	; 0
    349a:	82 e1       	ldi	r24, 0x12	; 18
    349c:	1a df       	rcall	.-460    	; 0x32d2 <SrvDisplayScreenShowString>
	}
}
    349e:	0f 90       	pop	r0
    34a0:	0f 90       	pop	r0
    34a2:	0f 90       	pop	r0
    34a4:	0f 90       	pop	r0
    34a6:	0f 90       	pop	r0
    34a8:	df 91       	pop	r29
    34aa:	cf 91       	pop	r28
    34ac:	1f 91       	pop	r17
    34ae:	0f 91       	pop	r16
    34b0:	08 95       	ret

000034b2 <SrvDisplayScreenHideProgressBar>:
	}
	return TRUE;
}
//display line on screen
Boolean SrvDisplayScreenHideProgressBar ( void )
{
    34b2:	0f 93       	push	r16
    34b4:	1f 93       	push	r17
    34b6:	cf 93       	push	r28
    34b8:	df 93       	push	r29
	#define WAITBAR_HEIGHT	5U
	//rectangle of the contour of progress bar
	CmpSSD1306DrawRectangle(
    34ba:	00 e0       	ldi	r16, 0x00	; 0
    34bc:	10 e0       	ldi	r17, 0x00	; 0
    34be:	25 e1       	ldi	r18, 0x15	; 21
    34c0:	30 e0       	ldi	r19, 0x00	; 0
    34c2:	4f e7       	ldi	r20, 0x7F	; 127
    34c4:	50 e0       	ldi	r21, 0x00	; 0
    34c6:	6f e0       	ldi	r22, 0x0F	; 15
    34c8:	70 e0       	ldi	r23, 0x00	; 0
    34ca:	80 e0       	ldi	r24, 0x00	; 0
    34cc:	90 e0       	ldi	r25, 0x00	; 0
    34ce:	0e 94 89 03 	call	0x712	; 0x712 <CmpSSD1306DrawRectangle>
    34d2:	0f c0       	rjmp	.+30     	; 0x34f2 <SrvDisplayScreenHideProgressBar+0x40>
	//show value
	for( uint8_t loop_x = 0U ; loop_x < SCREEN_WIDTH ; loop_x++ )
	{
		for( uint8_t loop_y = 0U ; loop_y < WAITBAR_HEIGHT ; loop_y++ )
		{
			CmpSSD1306DrawPixel(loop_x, (SCREEN_HEIGHT / 2U) + loop_y, COLOR_BLACK);
    34d4:	40 e0       	ldi	r20, 0x00	; 0
    34d6:	50 e0       	ldi	r21, 0x00	; 0
    34d8:	be 01       	movw	r22, r28
    34da:	c8 01       	movw	r24, r16
    34dc:	0e 94 75 02 	call	0x4ea	; 0x4ea <CmpSSD1306DrawPixel>
    34e0:	21 96       	adiw	r28, 0x01	; 1
	(SCREEN_HEIGHT / 2U) + WAITBAR_HEIGHT,
	COLOR_BLACK );
	//show value
	for( uint8_t loop_x = 0U ; loop_x < SCREEN_WIDTH ; loop_x++ )
	{
		for( uint8_t loop_y = 0U ; loop_y < WAITBAR_HEIGHT ; loop_y++ )
    34e2:	c5 31       	cpi	r28, 0x15	; 21
    34e4:	d1 05       	cpc	r29, r1
    34e6:	b1 f7       	brne	.-20     	; 0x34d4 <SrvDisplayScreenHideProgressBar+0x22>
    34e8:	0f 5f       	subi	r16, 0xFF	; 255
    34ea:	1f 4f       	sbci	r17, 0xFF	; 255
	(SCREEN_HEIGHT / 2U) - WAITBAR_HEIGHT + 4U,
	SCREEN_WIDTH- 1U,
	(SCREEN_HEIGHT / 2U) + WAITBAR_HEIGHT,
	COLOR_BLACK );
	//show value
	for( uint8_t loop_x = 0U ; loop_x < SCREEN_WIDTH ; loop_x++ )
    34ec:	00 38       	cpi	r16, 0x80	; 128
    34ee:	11 05       	cpc	r17, r1
    34f0:	19 f0       	breq	.+6      	; 0x34f8 <SrvDisplayScreenHideProgressBar+0x46>
	}
	return TRUE;
}
//display line on screen
Boolean SrvDisplayScreenHideProgressBar ( void )
{
    34f2:	c0 e1       	ldi	r28, 0x10	; 16
    34f4:	d0 e0       	ldi	r29, 0x00	; 0
    34f6:	ee cf       	rjmp	.-36     	; 0x34d4 <SrvDisplayScreenHideProgressBar+0x22>
		{
			CmpSSD1306DrawPixel(loop_x, (SCREEN_HEIGHT / 2U) + loop_y, COLOR_BLACK);
		}
	}
	return TRUE;
}
    34f8:	81 e0       	ldi	r24, 0x01	; 1
    34fa:	df 91       	pop	r29
    34fc:	cf 91       	pop	r28
    34fe:	1f 91       	pop	r17
    3500:	0f 91       	pop	r16
    3502:	08 95       	ret

00003504 <SrvDisplayScreenShowProgressBar>:

//display line on screen
Boolean SrvDisplayScreenShowProgressBar ( uint8_t percentage )
{
    3504:	0f 93       	push	r16
    3506:	1f 93       	push	r17
    3508:	cf 93       	push	r28
    350a:	df 93       	push	r29
    350c:	c8 2f       	mov	r28, r24
	#define WAITBAR_HEIGHT	5U
	
	//every 10ms progress bar value increment
	if ((DrvTickGetTimeMs() - prevMillisDisplay) > 10U)
    350e:	0e 94 71 10 	call	0x20e2	; 0x20e2 <DrvTickGetTimeMs>
    3512:	00 91 14 0b 	lds	r16, 0x0B14	; 0x800b14 <prevMillisDisplay>
    3516:	10 91 15 0b 	lds	r17, 0x0B15	; 0x800b15 <prevMillisDisplay+0x1>
    351a:	20 91 16 0b 	lds	r18, 0x0B16	; 0x800b16 <prevMillisDisplay+0x2>
    351e:	30 91 17 0b 	lds	r19, 0x0B17	; 0x800b17 <prevMillisDisplay+0x3>
    3522:	dc 01       	movw	r26, r24
    3524:	cb 01       	movw	r24, r22
    3526:	80 1b       	sub	r24, r16
    3528:	91 0b       	sbc	r25, r17
    352a:	a2 0b       	sbc	r26, r18
    352c:	b3 0b       	sbc	r27, r19
    352e:	0b 97       	sbiw	r24, 0x0b	; 11
    3530:	a1 05       	cpc	r26, r1
    3532:	b1 05       	cpc	r27, r1
    3534:	d8 f1       	brcs	.+118    	; 0x35ac <SrvDisplayScreenShowProgressBar+0xa8>
	{
		prevMillisDisplay = DrvTickGetTimeMs();
    3536:	0e 94 71 10 	call	0x20e2	; 0x20e2 <DrvTickGetTimeMs>
    353a:	60 93 14 0b 	sts	0x0B14, r22	; 0x800b14 <prevMillisDisplay>
    353e:	70 93 15 0b 	sts	0x0B15, r23	; 0x800b15 <prevMillisDisplay+0x1>
    3542:	80 93 16 0b 	sts	0x0B16, r24	; 0x800b16 <prevMillisDisplay+0x2>
    3546:	90 93 17 0b 	sts	0x0B17, r25	; 0x800b17 <prevMillisDisplay+0x3>
		//stop at percentage
		if( tempPercentage > ((percentage * SCREEN_WIDTH)/100) )
    354a:	40 91 13 0b 	lds	r20, 0x0B13	; 0x800b13 <tempPercentage>
    354e:	50 e0       	ldi	r21, 0x00	; 0
    3550:	80 e2       	ldi	r24, 0x20	; 32
    3552:	c8 9f       	mul	r28, r24
    3554:	90 01       	movw	r18, r0
    3556:	11 24       	eor	r1, r1
    3558:	ab e7       	ldi	r26, 0x7B	; 123
    355a:	b4 e1       	ldi	r27, 0x14	; 20
    355c:	0e 94 73 23 	call	0x46e6	; 0x46e6 <__umulhisi3>
    3560:	96 95       	lsr	r25
    3562:	87 95       	ror	r24
    3564:	84 17       	cp	r24, r20
    3566:	95 07       	cpc	r25, r21
    3568:	18 f1       	brcs	.+70     	; 0x35b0 <SrvDisplayScreenShowProgressBar+0xac>
			return TRUE;
		}
		else
		{
			//rectangle of the contour of progress bar
			CmpSSD1306DrawRectangle(
    356a:	01 e0       	ldi	r16, 0x01	; 1
    356c:	10 e0       	ldi	r17, 0x00	; 0
    356e:	25 e1       	ldi	r18, 0x15	; 21
    3570:	30 e0       	ldi	r19, 0x00	; 0
    3572:	4f e7       	ldi	r20, 0x7F	; 127
    3574:	50 e0       	ldi	r21, 0x00	; 0
    3576:	6f e0       	ldi	r22, 0x0F	; 15
    3578:	70 e0       	ldi	r23, 0x00	; 0
    357a:	80 e0       	ldi	r24, 0x00	; 0
    357c:	90 e0       	ldi	r25, 0x00	; 0
    357e:	0e 94 89 03 	call	0x712	; 0x712 <CmpSSD1306DrawRectangle>
    3582:	c0 e1       	ldi	r28, 0x10	; 16
    3584:	d0 e0       	ldi	r29, 0x00	; 0
			(SCREEN_HEIGHT / 2U) + WAITBAR_HEIGHT,
			COLOR_WHITE );
			//show value
			for( uint8_t loop_y = 0U ; loop_y < WAITBAR_HEIGHT ; loop_y++ )
			{
				CmpSSD1306DrawPixel(tempPercentage, (SCREEN_HEIGHT / 2U) + loop_y, COLOR_WHITE);
    3586:	80 91 13 0b 	lds	r24, 0x0B13	; 0x800b13 <tempPercentage>
    358a:	41 e0       	ldi	r20, 0x01	; 1
    358c:	50 e0       	ldi	r21, 0x00	; 0
    358e:	be 01       	movw	r22, r28
    3590:	90 e0       	ldi	r25, 0x00	; 0
    3592:	0e 94 75 02 	call	0x4ea	; 0x4ea <CmpSSD1306DrawPixel>
    3596:	21 96       	adiw	r28, 0x01	; 1
			(SCREEN_HEIGHT / 2U) - WAITBAR_HEIGHT + 4U,
			SCREEN_WIDTH - 1U,
			(SCREEN_HEIGHT / 2U) + WAITBAR_HEIGHT,
			COLOR_WHITE );
			//show value
			for( uint8_t loop_y = 0U ; loop_y < WAITBAR_HEIGHT ; loop_y++ )
    3598:	c5 31       	cpi	r28, 0x15	; 21
    359a:	d1 05       	cpc	r29, r1
    359c:	a1 f7       	brne	.-24     	; 0x3586 <SrvDisplayScreenShowProgressBar+0x82>
			{
				CmpSSD1306DrawPixel(tempPercentage, (SCREEN_HEIGHT / 2U) + loop_y, COLOR_WHITE);
			}
			tempPercentage++;
    359e:	80 91 13 0b 	lds	r24, 0x0B13	; 0x800b13 <tempPercentage>
    35a2:	8f 5f       	subi	r24, 0xFF	; 255
    35a4:	80 93 13 0b 	sts	0x0B13, r24	; 0x800b13 <tempPercentage>
		}
	}
	return FALSE;
    35a8:	80 e0       	ldi	r24, 0x00	; 0
    35aa:	03 c0       	rjmp	.+6      	; 0x35b2 <SrvDisplayScreenShowProgressBar+0xae>
    35ac:	80 e0       	ldi	r24, 0x00	; 0
    35ae:	01 c0       	rjmp	.+2      	; 0x35b2 <SrvDisplayScreenShowProgressBar+0xae>
	{
		prevMillisDisplay = DrvTickGetTimeMs();
		//stop at percentage
		if( tempPercentage > ((percentage * SCREEN_WIDTH)/100) )
		{
			return TRUE;
    35b0:	81 e0       	ldi	r24, 0x01	; 1
			}
			tempPercentage++;
		}
	}
	return FALSE;
    35b2:	df 91       	pop	r29
    35b4:	cf 91       	pop	r28
    35b6:	1f 91       	pop	r17
    35b8:	0f 91       	pop	r16
    35ba:	08 95       	ret

000035bc <SrvDisplayUpdate>:
	return CmpSSD1306Init(SSD1306_ADDRESS);
}

//Fonction de dispatching d'evenements
void SrvDisplayUpdate (void)
{
    35bc:	0f 93       	push	r16
    35be:	1f 93       	push	r17
	if( initStepDisplay == 0U )
    35c0:	80 91 11 0b 	lds	r24, 0x0B11	; 0x800b11 <initStepDisplay>
    35c4:	81 11       	cpse	r24, r1
    35c6:	0f c0       	rjmp	.+30     	; 0x35e6 <SrvDisplayUpdate+0x2a>
	{
		//up to 100
		if(SrvDisplayScreenShowProgressBar(100))
    35c8:	84 e6       	ldi	r24, 0x64	; 100
    35ca:	9c df       	rcall	.-200    	; 0x3504 <SrvDisplayScreenShowProgressBar>
    35cc:	88 23       	and	r24, r24
    35ce:	09 f4       	brne	.+2      	; 0x35d2 <SrvDisplayUpdate+0x16>
    35d0:	52 c0       	rjmp	.+164    	; 0x3676 <SrvDisplayUpdate+0xba>
		{
			//go to next step 
			initStepDisplay = 1U;
    35d2:	81 e0       	ldi	r24, 0x01	; 1
    35d4:	80 93 11 0b 	sts	0x0B11, r24	; 0x800b11 <initStepDisplay>
			//hide progress bar
			SrvDisplayScreenHideProgressBar();
    35d8:	6c df       	rcall	.-296    	; 0x34b2 <SrvDisplayScreenHideProgressBar>
			//show string
			SrvDisplayScreenShowString(5U,10U,"Init done !");
    35da:	4e e0       	ldi	r20, 0x0E	; 14
    35dc:	55 e0       	ldi	r21, 0x05	; 5
    35de:	6a e0       	ldi	r22, 0x0A	; 10
    35e0:	85 e0       	ldi	r24, 0x05	; 5
    35e2:	77 de       	rcall	.-786    	; 0x32d2 <SrvDisplayScreenShowString>
    35e4:	48 c0       	rjmp	.+144    	; 0x3676 <SrvDisplayUpdate+0xba>
		}
		
	}
	else if( initStepDisplay == 1U )
    35e6:	81 30       	cpi	r24, 0x01	; 1
    35e8:	91 f5       	brne	.+100    	; 0x364e <SrvDisplayUpdate+0x92>
	{
		//next step in 1s
		if ((DrvTickGetTimeMs() - prevMillisDisplay) > 1000U)
    35ea:	0e 94 71 10 	call	0x20e2	; 0x20e2 <DrvTickGetTimeMs>
    35ee:	00 91 14 0b 	lds	r16, 0x0B14	; 0x800b14 <prevMillisDisplay>
    35f2:	10 91 15 0b 	lds	r17, 0x0B15	; 0x800b15 <prevMillisDisplay+0x1>
    35f6:	20 91 16 0b 	lds	r18, 0x0B16	; 0x800b16 <prevMillisDisplay+0x2>
    35fa:	30 91 17 0b 	lds	r19, 0x0B17	; 0x800b17 <prevMillisDisplay+0x3>
    35fe:	dc 01       	movw	r26, r24
    3600:	cb 01       	movw	r24, r22
    3602:	80 1b       	sub	r24, r16
    3604:	91 0b       	sbc	r25, r17
    3606:	a2 0b       	sbc	r26, r18
    3608:	b3 0b       	sbc	r27, r19
    360a:	89 3e       	cpi	r24, 0xE9	; 233
    360c:	93 40       	sbci	r25, 0x03	; 3
    360e:	a1 05       	cpc	r26, r1
    3610:	b1 05       	cpc	r27, r1
    3612:	88 f1       	brcs	.+98     	; 0x3676 <SrvDisplayUpdate+0xba>
		{
			prevMillisDisplay = DrvTickGetTimeMs();
    3614:	0e 94 71 10 	call	0x20e2	; 0x20e2 <DrvTickGetTimeMs>
    3618:	60 93 14 0b 	sts	0x0B14, r22	; 0x800b14 <prevMillisDisplay>
    361c:	70 93 15 0b 	sts	0x0B15, r23	; 0x800b15 <prevMillisDisplay+0x1>
    3620:	80 93 16 0b 	sts	0x0B16, r24	; 0x800b16 <prevMillisDisplay+0x2>
    3624:	90 93 17 0b 	sts	0x0B17, r25	; 0x800b17 <prevMillisDisplay+0x3>
			//clear buffer
			CmpSSD1306ClearBuffer();
    3628:	0e 94 69 02 	call	0x4d2	; 0x4d2 <CmpSSD1306ClearBuffer>
				
			CmpSSD1306DrawLine(0U,9U,SCREEN_WIDTH,9U,COLOR_WHITE);
    362c:	01 e0       	ldi	r16, 0x01	; 1
    362e:	10 e0       	ldi	r17, 0x00	; 0
    3630:	29 e0       	ldi	r18, 0x09	; 9
    3632:	30 e0       	ldi	r19, 0x00	; 0
    3634:	40 e8       	ldi	r20, 0x80	; 128
    3636:	50 e0       	ldi	r21, 0x00	; 0
    3638:	69 e0       	ldi	r22, 0x09	; 9
    363a:	70 e0       	ldi	r23, 0x00	; 0
    363c:	80 e0       	ldi	r24, 0x00	; 0
    363e:	90 e0       	ldi	r25, 0x00	; 0
    3640:	0e 94 27 03 	call	0x64e	; 0x64e <CmpSSD1306DrawLine>
			SrvDisplayScreenShowCommunication();
    3644:	e4 dd       	rcall	.-1080   	; 0x320e <SrvDisplayScreenShowCommunication>
			//go to next step 
			initStepDisplay = 2U;	
    3646:	82 e0       	ldi	r24, 0x02	; 2
    3648:	80 93 11 0b 	sts	0x0B11, r24	; 0x800b11 <initStepDisplay>
		}
	}
	else if( initStepDisplay == 2U )
    364c:	14 c0       	rjmp	.+40     	; 0x3676 <SrvDisplayUpdate+0xba>
    364e:	82 30       	cpi	r24, 0x02	; 2
	{
		SrvDisplayScreenBatteryManagement();
    3650:	29 f4       	brne	.+10     	; 0x365c <SrvDisplayUpdate+0xa0>
    3652:	cf de       	rcall	.-610    	; 0x33f2 <SrvDisplayScreenBatteryManagement>
		//go to next step
		initStepDisplay = 3U;
    3654:	83 e0       	ldi	r24, 0x03	; 3
    3656:	80 93 11 0b 	sts	0x0B11, r24	; 0x800b11 <initStepDisplay>
	}
	else if( initStepDisplay == 3U )
    365a:	0d c0       	rjmp	.+26     	; 0x3676 <SrvDisplayUpdate+0xba>
    365c:	83 30       	cpi	r24, 0x03	; 3
	{
		SrvDisplayScreenShowUltrason();
    365e:	29 f4       	brne	.+10     	; 0x366a <SrvDisplayUpdate+0xae>
    3660:	62 de       	rcall	.-828    	; 0x3326 <SrvDisplayScreenShowUltrason>
		//go to next step
		initStepDisplay = 4U;
    3662:	84 e0       	ldi	r24, 0x04	; 4
    3664:	80 93 11 0b 	sts	0x0B11, r24	; 0x800b11 <initStepDisplay>
	}
	else if( initStepDisplay == 4U )
    3668:	06 c0       	rjmp	.+12     	; 0x3676 <SrvDisplayUpdate+0xba>
    366a:	84 30       	cpi	r24, 0x04	; 4
	{
		SrvDisplayScreenShowArrow();
    366c:	21 f4       	brne	.+8      	; 0x3676 <SrvDisplayUpdate+0xba>
    366e:	f0 dd       	rcall	.-1056   	; 0x3250 <SrvDisplayScreenShowArrow>
		//go to next step
		initStepDisplay = 2U;
    3670:	82 e0       	ldi	r24, 0x02	; 2
    3672:	80 93 11 0b 	sts	0x0B11, r24	; 0x800b11 <initStepDisplay>
	}
	
	
	//update every 20ms
	if ((DrvTickGetTimeMs() - prevMillisUpdateDisplay) > 20U)
    3676:	0e 94 71 10 	call	0x20e2	; 0x20e2 <DrvTickGetTimeMs>
    367a:	00 91 18 0b 	lds	r16, 0x0B18	; 0x800b18 <prevMillisUpdateDisplay>
    367e:	10 91 19 0b 	lds	r17, 0x0B19	; 0x800b19 <prevMillisUpdateDisplay+0x1>
    3682:	20 91 1a 0b 	lds	r18, 0x0B1A	; 0x800b1a <prevMillisUpdateDisplay+0x2>
    3686:	30 91 1b 0b 	lds	r19, 0x0B1B	; 0x800b1b <prevMillisUpdateDisplay+0x3>
    368a:	dc 01       	movw	r26, r24
    368c:	cb 01       	movw	r24, r22
    368e:	80 1b       	sub	r24, r16
    3690:	91 0b       	sbc	r25, r17
    3692:	a2 0b       	sbc	r26, r18
    3694:	b3 0b       	sbc	r27, r19
    3696:	45 97       	sbiw	r24, 0x15	; 21
    3698:	a1 05       	cpc	r26, r1
    369a:	b1 05       	cpc	r27, r1
    369c:	60 f0       	brcs	.+24     	; 0x36b6 <SrvDisplayUpdate+0xfa>
	{
		prevMillisUpdateDisplay = DrvTickGetTimeMs();
    369e:	0e 94 71 10 	call	0x20e2	; 0x20e2 <DrvTickGetTimeMs>
    36a2:	60 93 18 0b 	sts	0x0B18, r22	; 0x800b18 <prevMillisUpdateDisplay>
    36a6:	70 93 19 0b 	sts	0x0B19, r23	; 0x800b19 <prevMillisUpdateDisplay+0x1>
    36aa:	80 93 1a 0b 	sts	0x0B1A, r24	; 0x800b1a <prevMillisUpdateDisplay+0x2>
    36ae:	90 93 1b 0b 	sts	0x0B1B, r25	; 0x800b1b <prevMillisUpdateDisplay+0x3>
		CmpSSD1306Update();
    36b2:	0e 94 23 05 	call	0xa46	; 0xa46 <CmpSSD1306Update>
	}
}
    36b6:	1f 91       	pop	r17
    36b8:	0f 91       	pop	r16
    36ba:	08 95       	ret

000036bc <SrvFeelingInit>:
////////////////////////////////////////PUBILC FUNCTIONS//////////////////////////////////////////

//Fonction d'initialisation
Boolean SrvFeelingInit ( void ) 
{
	feelingSet = FALSE;
    36bc:	10 92 1c 0b 	sts	0x0B1C, r1	; 0x800b1c <feelingSet>
	feel = FEELING_CALM;
    36c0:	10 92 9b 0d 	sts	0x0D9B, r1	; 0x800d9b <feel>
	return TRUE;
}
    36c4:	81 e0       	ldi	r24, 0x01	; 1
    36c6:	08 95       	ret

000036c8 <SrvFeelingUpdate>:
//Fonction de dispatching d'evenements
void SrvFeelingUpdate (void)
{
    36c8:	cf 92       	push	r12
    36ca:	df 92       	push	r13
    36cc:	ef 92       	push	r14
    36ce:	ff 92       	push	r15
    36d0:	cf 93       	push	r28
    36d2:	df 93       	push	r29
    36d4:	00 d0       	rcall	.+0      	; 0x36d6 <SrvFeelingUpdate+0xe>
    36d6:	00 d0       	rcall	.+0      	; 0x36d8 <SrvFeelingUpdate+0x10>
    36d8:	cd b7       	in	r28, 0x3d	; 61
    36da:	de b7       	in	r29, 0x3e	; 62
	if( feel == FEELING_STRESS )
    36dc:	80 91 9b 0d 	lds	r24, 0x0D9B	; 0x800d9b <feel>
    36e0:	81 30       	cpi	r24, 0x01	; 1
    36e2:	99 f5       	brne	.+102    	; 0x374a <SrvFeelingUpdate+0x82>
	{
		if(feelingSet == FALSE)
    36e4:	80 91 1c 0b 	lds	r24, 0x0B1C	; 0x800b1c <feelingSet>
    36e8:	81 11       	cpse	r24, r1
    36ea:	04 c0       	rjmp	.+8      	; 0x36f4 <SrvFeelingUpdate+0x2c>
		{
			feelingSet = TRUE;
    36ec:	81 e0       	ldi	r24, 0x01	; 1
    36ee:	80 93 1c 0b 	sts	0x0B1C, r24	; 0x800b1c <feelingSet>
    36f2:	2b c0       	rjmp	.+86     	; 0x374a <SrvFeelingUpdate+0x82>
		}
		else
		{
			if(DrvTickGetTimeMs() >= prevMillisFeeling)
    36f4:	0e 94 71 10 	call	0x20e2	; 0x20e2 <DrvTickGetTimeMs>
    36f8:	c0 90 1d 0b 	lds	r12, 0x0B1D	; 0x800b1d <prevMillisFeeling>
    36fc:	d0 90 1e 0b 	lds	r13, 0x0B1E	; 0x800b1e <prevMillisFeeling+0x1>
    3700:	e0 90 1f 0b 	lds	r14, 0x0B1F	; 0x800b1f <prevMillisFeeling+0x2>
    3704:	f0 90 20 0b 	lds	r15, 0x0B20	; 0x800b20 <prevMillisFeeling+0x3>
    3708:	6c 15       	cp	r22, r12
    370a:	7d 05       	cpc	r23, r13
    370c:	8e 05       	cpc	r24, r14
    370e:	9f 05       	cpc	r25, r15
    3710:	30 f0       	brcs	.+12     	; 0x371e <SrvFeelingUpdate+0x56>
			{
				feelingSet = FALSE;
    3712:	10 92 1c 0b 	sts	0x0B1C, r1	; 0x800b1c <feelingSet>
				feel = FEELING_CALM;
    3716:	10 92 9b 0d 	sts	0x0D9B, r1	; 0x800d9b <feel>
				SrvHeartbeatCalm();
    371a:	a9 d0       	rcall	.+338    	; 0x386e <SrvHeartbeatCalm>
    371c:	16 c0       	rjmp	.+44     	; 0x374a <SrvFeelingUpdate+0x82>
			}
			else
			{
				volatile uint32_t delay = prevMillisFeeling - DrvTickGetTimeMs();
    371e:	0e 94 71 10 	call	0x20e2	; 0x20e2 <DrvTickGetTimeMs>
    3722:	c6 1a       	sub	r12, r22
    3724:	d7 0a       	sbc	r13, r23
    3726:	e8 0a       	sbc	r14, r24
    3728:	f9 0a       	sbc	r15, r25
    372a:	c9 82       	std	Y+1, r12	; 0x01
    372c:	da 82       	std	Y+2, r13	; 0x02
    372e:	eb 82       	std	Y+3, r14	; 0x03
    3730:	fc 82       	std	Y+4, r15	; 0x04
				SrvHeartbeatSetPeriod((uint8_t)(100 - (delay / 100)));
    3732:	69 81       	ldd	r22, Y+1	; 0x01
    3734:	7a 81       	ldd	r23, Y+2	; 0x02
    3736:	8b 81       	ldd	r24, Y+3	; 0x03
    3738:	9c 81       	ldd	r25, Y+4	; 0x04
    373a:	24 e6       	ldi	r18, 0x64	; 100
    373c:	30 e0       	ldi	r19, 0x00	; 0
    373e:	40 e0       	ldi	r20, 0x00	; 0
    3740:	50 e0       	ldi	r21, 0x00	; 0
    3742:	af d7       	rcall	.+3934   	; 0x46a2 <__udivmodsi4>
    3744:	84 e6       	ldi	r24, 0x64	; 100
    3746:	82 1b       	sub	r24, r18
    3748:	6e d0       	rcall	.+220    	; 0x3826 <SrvHeartbeatSetPeriod>
			}
		}
	}
}
    374a:	0f 90       	pop	r0
    374c:	0f 90       	pop	r0
    374e:	0f 90       	pop	r0
    3750:	0f 90       	pop	r0
    3752:	df 91       	pop	r29
    3754:	cf 91       	pop	r28
    3756:	ff 90       	pop	r15
    3758:	ef 90       	pop	r14
    375a:	df 90       	pop	r13
    375c:	cf 90       	pop	r12
    375e:	08 95       	ret

00003760 <SrvFeelingSetFeeling>:

void SrvFeelingSetFeeling (EFeelingLevel _feel)
{
	//only if stressed
	if( _feel == FEELING_STRESS )
    3760:	81 30       	cpi	r24, 0x01	; 1
    3762:	91 f4       	brne	.+36     	; 0x3788 <SrvFeelingSetFeeling+0x28>
	{
		feel = _feel;
    3764:	80 93 9b 0d 	sts	0x0D9B, r24	; 0x800d9b <feel>
		prevMillisFeeling = DrvTickGetTimeMs() + 10000U;
    3768:	0e 94 71 10 	call	0x20e2	; 0x20e2 <DrvTickGetTimeMs>
    376c:	dc 01       	movw	r26, r24
    376e:	cb 01       	movw	r24, r22
    3770:	80 5f       	subi	r24, 0xF0	; 240
    3772:	98 4d       	sbci	r25, 0xD8	; 216
    3774:	af 4f       	sbci	r26, 0xFF	; 255
    3776:	bf 4f       	sbci	r27, 0xFF	; 255
    3778:	80 93 1d 0b 	sts	0x0B1D, r24	; 0x800b1d <prevMillisFeeling>
    377c:	90 93 1e 0b 	sts	0x0B1E, r25	; 0x800b1e <prevMillisFeeling+0x1>
    3780:	a0 93 1f 0b 	sts	0x0B1F, r26	; 0x800b1f <prevMillisFeeling+0x2>
    3784:	b0 93 20 0b 	sts	0x0B20, r27	; 0x800b20 <prevMillisFeeling+0x3>
    3788:	08 95       	ret

0000378a <SrvHeartbeatInit>:
void SrvHeartbeatStress ( void )
{
	heartBeatArray[2U] = 15U;
	heartBeatArray[1U] = 100U;
	heartBeatArray[2U] = 15U;
	heartBeatArray[3U] = 200U;
    378a:	0e 94 21 08 	call	0x1042	; 0x1042 <DrvLedInit>
    378e:	80 e0       	ldi	r24, 0x00	; 0
    3790:	0e 94 2b 08 	call	0x1056	; 0x1056 <DrvLedSetPinLed>
    3794:	80 e0       	ldi	r24, 0x00	; 0
    3796:	0e 94 4b 08 	call	0x1096	; 0x1096 <DrvLedSetToggle>
    379a:	81 e0       	ldi	r24, 0x01	; 1
    379c:	08 95       	ret

0000379e <SrvHeartbeatUpdate>:
    379e:	cf 92       	push	r12
    37a0:	df 92       	push	r13
    37a2:	ef 92       	push	r14
    37a4:	ff 92       	push	r15
    37a6:	0f 93       	push	r16
    37a8:	1f 93       	push	r17
    37aa:	0e 94 71 10 	call	0x20e2	; 0x20e2 <DrvTickGetTimeMs>
    37ae:	a0 91 25 0b 	lds	r26, 0x0B25	; 0x800b25 <heartbeatIndex>
    37b2:	00 91 21 0b 	lds	r16, 0x0B21	; 0x800b21 <prevMillisHeartBeat>
    37b6:	10 91 22 0b 	lds	r17, 0x0B22	; 0x800b22 <prevMillisHeartBeat+0x1>
    37ba:	20 91 23 0b 	lds	r18, 0x0B23	; 0x800b23 <prevMillisHeartBeat+0x2>
    37be:	30 91 24 0b 	lds	r19, 0x0B24	; 0x800b24 <prevMillisHeartBeat+0x3>
    37c2:	6b 01       	movw	r12, r22
    37c4:	7c 01       	movw	r14, r24
    37c6:	c0 1a       	sub	r12, r16
    37c8:	d1 0a       	sbc	r13, r17
    37ca:	e2 0a       	sbc	r14, r18
    37cc:	f3 0a       	sbc	r15, r19
    37ce:	ea 2f       	mov	r30, r26
    37d0:	f0 e0       	ldi	r31, 0x00	; 0
    37d2:	ee 0f       	add	r30, r30
    37d4:	ff 1f       	adc	r31, r31
    37d6:	e8 5d       	subi	r30, 0xD8	; 216
    37d8:	fd 4f       	sbci	r31, 0xFD	; 253
    37da:	40 81       	ld	r20, Z
    37dc:	51 81       	ldd	r21, Z+1	; 0x01
    37de:	60 e0       	ldi	r22, 0x00	; 0
    37e0:	70 e0       	ldi	r23, 0x00	; 0
    37e2:	4c 15       	cp	r20, r12
    37e4:	5d 05       	cpc	r21, r13
    37e6:	6e 05       	cpc	r22, r14
    37e8:	7f 05       	cpc	r23, r15
    37ea:	b0 f4       	brcc	.+44     	; 0x3818 <SrvHeartbeatUpdate+0x7a>
    37ec:	81 e0       	ldi	r24, 0x01	; 1
    37ee:	8a 0f       	add	r24, r26
    37f0:	84 30       	cpi	r24, 0x04	; 4
    37f2:	18 f4       	brcc	.+6      	; 0x37fa <SrvHeartbeatUpdate+0x5c>
    37f4:	80 93 25 0b 	sts	0x0B25, r24	; 0x800b25 <heartbeatIndex>
    37f8:	02 c0       	rjmp	.+4      	; 0x37fe <SrvHeartbeatUpdate+0x60>
    37fa:	10 92 25 0b 	sts	0x0B25, r1	; 0x800b25 <heartbeatIndex>
    37fe:	80 e0       	ldi	r24, 0x00	; 0
    3800:	0e 94 4b 08 	call	0x1096	; 0x1096 <DrvLedSetToggle>
    3804:	0e 94 71 10 	call	0x20e2	; 0x20e2 <DrvTickGetTimeMs>
    3808:	60 93 21 0b 	sts	0x0B21, r22	; 0x800b21 <prevMillisHeartBeat>
    380c:	70 93 22 0b 	sts	0x0B22, r23	; 0x800b22 <prevMillisHeartBeat+0x1>
    3810:	80 93 23 0b 	sts	0x0B23, r24	; 0x800b23 <prevMillisHeartBeat+0x2>
    3814:	90 93 24 0b 	sts	0x0B24, r25	; 0x800b24 <prevMillisHeartBeat+0x3>
    3818:	1f 91       	pop	r17
    381a:	0f 91       	pop	r16
    381c:	ff 90       	pop	r15
    381e:	ef 90       	pop	r14
    3820:	df 90       	pop	r13
    3822:	cf 90       	pop	r12
    3824:	08 95       	ret

00003826 <SrvHeartbeatSetPeriod>:
    3826:	e8 e2       	ldi	r30, 0x28	; 40
    3828:	f2 e0       	ldi	r31, 0x02	; 2
    382a:	2d ec       	ldi	r18, 0xCD	; 205
    382c:	82 9f       	mul	r24, r18
    382e:	21 2d       	mov	r18, r1
    3830:	11 24       	eor	r1, r1
    3832:	26 95       	lsr	r18
    3834:	26 95       	lsr	r18
    3836:	26 95       	lsr	r18
    3838:	30 e0       	ldi	r19, 0x00	; 0
    383a:	21 5f       	subi	r18, 0xF1	; 241
    383c:	3f 4f       	sbci	r19, 0xFF	; 255
    383e:	35 83       	std	Z+5, r19	; 0x05
    3840:	24 83       	std	Z+4, r18	; 0x04
    3842:	90 e0       	ldi	r25, 0x00	; 0
    3844:	9c 01       	movw	r18, r24
    3846:	2c 59       	subi	r18, 0x9C	; 156
    3848:	3f 4f       	sbci	r19, 0xFF	; 255
    384a:	33 83       	std	Z+3, r19	; 0x03
    384c:	22 83       	std	Z+2, r18	; 0x02
    384e:	9c 01       	movw	r18, r24
    3850:	22 0f       	add	r18, r18
    3852:	33 1f       	adc	r19, r19
    3854:	88 0f       	add	r24, r24
    3856:	99 1f       	adc	r25, r25
    3858:	88 0f       	add	r24, r24
    385a:	99 1f       	adc	r25, r25
    385c:	88 0f       	add	r24, r24
    385e:	99 1f       	adc	r25, r25
    3860:	82 0f       	add	r24, r18
    3862:	93 1f       	adc	r25, r19
    3864:	88 53       	subi	r24, 0x38	; 56
    3866:	9f 4f       	sbci	r25, 0xFF	; 255
    3868:	97 83       	std	Z+7, r25	; 0x07
    386a:	86 83       	std	Z+6, r24	; 0x06
    386c:	08 95       	ret

0000386e <SrvHeartbeatCalm>:
}
void SrvHeartbeatCalm ( void )
{
	heartBeatArray[2U] = 25U;
    386e:	e8 e2       	ldi	r30, 0x28	; 40
    3870:	f2 e0       	ldi	r31, 0x02	; 2
    3872:	89 e1       	ldi	r24, 0x19	; 25
    3874:	90 e0       	ldi	r25, 0x00	; 0
    3876:	95 83       	std	Z+5, r25	; 0x05
    3878:	84 83       	std	Z+4, r24	; 0x04
	heartBeatArray[1U] = 200U;
    387a:	88 ec       	ldi	r24, 0xC8	; 200
    387c:	90 e0       	ldi	r25, 0x00	; 0
    387e:	93 83       	std	Z+3, r25	; 0x03
    3880:	82 83       	std	Z+2, r24	; 0x02
	heartBeatArray[2U] = 25U;
	heartBeatArray[3U] = 1400U;
    3882:	88 e7       	ldi	r24, 0x78	; 120
    3884:	95 e0       	ldi	r25, 0x05	; 5
    3886:	97 83       	std	Z+7, r25	; 0x07
    3888:	86 83       	std	Z+6, r24	; 0x06
    388a:	08 95       	ret

0000388c <SrvIhmUpdate>:

//Fonction de dispatching d'evenements
void SrvIhmUpdate ( void )
{
	//test the button status
	if(DrvButtonPushed(E_BUTTON_SETUP) == TRUE)
    388c:	80 e0       	ldi	r24, 0x00	; 0
    388e:	0c 94 87 06 	jmp	0xd0e	; 0xd0e <DrvButtonPushed>
    3892:	08 95       	ret

00003894 <SrvIhmPlatformInitDone>:
}

//platform init done
void SrvIhmPlatformInitDone ( void )
{
	DrvLedSetState(E_LED_1, E_LED_STATE_OFF);
    3894:	61 e0       	ldi	r22, 0x01	; 1
    3896:	81 e0       	ldi	r24, 0x01	; 1
    3898:	0e 94 80 08 	call	0x1100	; 0x1100 <DrvLedSetState>
	DrvLedSetState(E_LED_2, E_LED_STATE_OFF);
    389c:	61 e0       	ldi	r22, 0x01	; 1
    389e:	82 e0       	ldi	r24, 0x02	; 2
    38a0:	0e 94 80 08 	call	0x1100	; 0x1100 <DrvLedSetState>
	DrvLedSetState(E_LED_3, E_LED_STATE_OFF);
    38a4:	61 e0       	ldi	r22, 0x01	; 1
    38a6:	83 e0       	ldi	r24, 0x03	; 3
    38a8:	0c 94 80 08 	jmp	0x1100	; 0x1100 <DrvLedSetState>
    38ac:	08 95       	ret

000038ae <SrvIhmInit>:
Boolean SrvIhmInit ( void )
{
    Boolean oSuccess = TRUE;

	//init buttons & leds
	DrvButtonInit();
    38ae:	0e 94 6c 06 	call	0xcd8	; 0xcd8 <DrvButtonInit>
	DrvLedInit();
    38b2:	0e 94 21 08 	call	0x1042	; 0x1042 <DrvLedInit>

	//create button
	DrvButtonAddButton(E_BUTTON_SETUP);
    38b6:	80 e0       	ldi	r24, 0x00	; 0
    38b8:	0e 94 76 06 	call	0xcec	; 0xcec <DrvButtonAddButton>
	//create the LEDs
	DrvLedSetPinLed(E_LED_1);
    38bc:	81 e0       	ldi	r24, 0x01	; 1
    38be:	0e 94 2b 08 	call	0x1056	; 0x1056 <DrvLedSetPinLed>
	DrvLedSetPinLed(E_LED_2);
    38c2:	82 e0       	ldi	r24, 0x02	; 2
    38c4:	0e 94 2b 08 	call	0x1056	; 0x1056 <DrvLedSetPinLed>
	DrvLedSetPinLed(E_LED_3);
    38c8:	83 e0       	ldi	r24, 0x03	; 3
    38ca:	0e 94 2b 08 	call	0x1056	; 0x1056 <DrvLedSetPinLed>
	
	//init done
	SrvIhmPlatformInitDone();
    38ce:	e2 df       	rcall	.-60     	; 0x3894 <SrvIhmPlatformInitDone>
    return oSuccess;
}
    38d0:	81 e0       	ldi	r24, 0x01	; 1
    38d2:	08 95       	ret

000038d4 <SrvIhmPlatformLedLeft>:
}

//platform Arm
void SrvIhmPlatformLedLeft ( ELedState state )
{
	DrvLedSetState(E_LED_2, state);
    38d4:	68 2f       	mov	r22, r24
    38d6:	82 e0       	ldi	r24, 0x02	; 2
    38d8:	0c 94 80 08 	jmp	0x1100	; 0x1100 <DrvLedSetState>
    38dc:	08 95       	ret

000038de <SrvIhmPlatformLedRight>:
}
//platform Disarm
void SrvIhmPlatformLedRight ( ELedState state )
{
	DrvLedSetState(E_LED_3, state);
    38de:	68 2f       	mov	r22, r24
    38e0:	83 e0       	ldi	r24, 0x03	; 3
    38e2:	0c 94 80 08 	jmp	0x1100	; 0x1100 <DrvLedSetState>
    38e6:	08 95       	ret

000038e8 <SrvUltrasonInit>:
////////////////////////////////////////PUBILC FUNCTIONS//////////////////////////////////////////

//Fonction d'initialisation
Boolean SrvUltrasonInit ( void ) 
{
	usToggle = FALSE;
    38e8:	10 92 26 0b 	sts	0x0B26, r1	; 0x800b26 <usToggle>
	return CmpSRF04Init();
    38ec:	0c 94 1d 01 	jmp	0x23a	; 0x23a <CmpSRF04Init>
}
    38f0:	08 95       	ret

000038f2 <SrvUltrasonUpdate>:
//Fonction de dispatching d'evenements
void SrvUltrasonUpdate (void) 
{
    38f2:	0f 93       	push	r16
    38f4:	1f 93       	push	r17
	//update every 20ms
	if ((DrvTickGetTimeMs() - prevMillisUpdateUltrason) > 50U)
    38f6:	0e 94 71 10 	call	0x20e2	; 0x20e2 <DrvTickGetTimeMs>
    38fa:	00 91 27 0b 	lds	r16, 0x0B27	; 0x800b27 <prevMillisUpdateUltrason>
    38fe:	10 91 28 0b 	lds	r17, 0x0B28	; 0x800b28 <prevMillisUpdateUltrason+0x1>
    3902:	20 91 29 0b 	lds	r18, 0x0B29	; 0x800b29 <prevMillisUpdateUltrason+0x2>
    3906:	30 91 2a 0b 	lds	r19, 0x0B2A	; 0x800b2a <prevMillisUpdateUltrason+0x3>
    390a:	dc 01       	movw	r26, r24
    390c:	cb 01       	movw	r24, r22
    390e:	80 1b       	sub	r24, r16
    3910:	91 0b       	sbc	r25, r17
    3912:	a2 0b       	sbc	r26, r18
    3914:	b3 0b       	sbc	r27, r19
    3916:	c3 97       	sbiw	r24, 0x33	; 51
    3918:	a1 05       	cpc	r26, r1
    391a:	b1 05       	cpc	r27, r1
    391c:	b0 f1       	brcs	.+108    	; 0x398a <SrvUltrasonUpdate+0x98>
	{
		if(usToggle)
    391e:	80 91 26 0b 	lds	r24, 0x0B26	; 0x800b26 <usToggle>
    3922:	88 23       	and	r24, r24
    3924:	31 f0       	breq	.+12     	; 0x3932 <SrvUltrasonUpdate+0x40>
		{
			usToggle = FALSE;
    3926:	10 92 26 0b 	sts	0x0B26, r1	; 0x800b26 <usToggle>
			CmpSRF04SendPulse(E_US_1);
    392a:	81 e0       	ldi	r24, 0x01	; 1
    392c:	0e 94 64 01 	call	0x2c8	; 0x2c8 <CmpSRF04SendPulse>
    3930:	06 c0       	rjmp	.+12     	; 0x393e <SrvUltrasonUpdate+0x4c>
		}
		else 
		{
			usToggle = TRUE;
    3932:	81 e0       	ldi	r24, 0x01	; 1
    3934:	80 93 26 0b 	sts	0x0B26, r24	; 0x800b26 <usToggle>
			CmpSRF04SendPulse(E_US_0);
    3938:	80 e0       	ldi	r24, 0x00	; 0
    393a:	0e 94 64 01 	call	0x2c8	; 0x2c8 <CmpSRF04SendPulse>
		}
		prevMillisUpdateUltrason = DrvTickGetTimeMs();
    393e:	0e 94 71 10 	call	0x20e2	; 0x20e2 <DrvTickGetTimeMs>
    3942:	60 93 27 0b 	sts	0x0B27, r22	; 0x800b27 <prevMillisUpdateUltrason>
    3946:	70 93 28 0b 	sts	0x0B28, r23	; 0x800b28 <prevMillisUpdateUltrason+0x1>
    394a:	80 93 29 0b 	sts	0x0B29, r24	; 0x800b29 <prevMillisUpdateUltrason+0x2>
    394e:	90 93 2a 0b 	sts	0x0B2A, r25	; 0x800b2a <prevMillisUpdateUltrason+0x3>
}


static void SrvUltrasonShowLeds (void) 
{
	if(CmpSRF04GetDistance(E_US_0) <= US_THRESHOLD_DISTANCE)
    3952:	80 e0       	ldi	r24, 0x00	; 0
    3954:	0e 94 a9 01 	call	0x352	; 0x352 <CmpSRF04GetDistance>
    3958:	40 97       	sbiw	r24, 0x10	; 16
    395a:	28 f4       	brcc	.+10     	; 0x3966 <SrvUltrasonUpdate+0x74>
	{
		SrvIhmPlatformLedLeft(E_LED_STATE_ON);
    395c:	80 e0       	ldi	r24, 0x00	; 0
    395e:	ba df       	rcall	.-140    	; 0x38d4 <SrvIhmPlatformLedLeft>
		SrvFeelingSetFeeling(FEELING_STRESS);
    3960:	81 e0       	ldi	r24, 0x01	; 1
    3962:	fe de       	rcall	.-516    	; 0x3760 <SrvFeelingSetFeeling>
    3964:	04 c0       	rjmp	.+8      	; 0x396e <SrvUltrasonUpdate+0x7c>
	}
	else
	{
		SrvIhmPlatformLedLeft(E_LED_STATE_OFF);
    3966:	81 e0       	ldi	r24, 0x01	; 1
    3968:	b5 df       	rcall	.-150    	; 0x38d4 <SrvIhmPlatformLedLeft>
		SrvFeelingSetFeeling(FEELING_CALM);
    396a:	80 e0       	ldi	r24, 0x00	; 0
    396c:	f9 de       	rcall	.-526    	; 0x3760 <SrvFeelingSetFeeling>
    396e:	81 e0       	ldi	r24, 0x01	; 1
	}
		
	if(CmpSRF04GetDistance(E_US_1) <= US_THRESHOLD_DISTANCE)
    3970:	0e 94 a9 01 	call	0x352	; 0x352 <CmpSRF04GetDistance>
    3974:	40 97       	sbiw	r24, 0x10	; 16
    3976:	28 f4       	brcc	.+10     	; 0x3982 <SrvUltrasonUpdate+0x90>
	{
		SrvIhmPlatformLedRight(E_LED_STATE_ON);
    3978:	80 e0       	ldi	r24, 0x00	; 0
    397a:	b1 df       	rcall	.-158    	; 0x38de <SrvIhmPlatformLedRight>
		SrvFeelingSetFeeling(FEELING_STRESS);
    397c:	81 e0       	ldi	r24, 0x01	; 1
    397e:	f0 de       	rcall	.-544    	; 0x3760 <SrvFeelingSetFeeling>
    3980:	04 c0       	rjmp	.+8      	; 0x398a <SrvUltrasonUpdate+0x98>
	}
	else
	{
		SrvIhmPlatformLedRight(E_LED_STATE_OFF);
    3982:	81 e0       	ldi	r24, 0x01	; 1
    3984:	ac df       	rcall	.-168    	; 0x38de <SrvIhmPlatformLedRight>
    3986:	80 e0       	ldi	r24, 0x00	; 0
		SrvFeelingSetFeeling(FEELING_CALM);
    3988:	eb de       	rcall	.-554    	; 0x3760 <SrvFeelingSetFeeling>
    398a:	1f 91       	pop	r17
    398c:	0f 91       	pop	r16
		prevMillisUpdateUltrason = DrvTickGetTimeMs();
		
		//show led if threshold is reach
		SrvUltrasonShowLeds();
	}
}
    398e:	08 95       	ret

00003990 <SrvUltrasonGetDistance>:
    3990:	0c 94 a9 01 	jmp	0x352	; 0x352 <CmpSRF04GetDistance>

uint16_t SrvUltrasonGetDistance (E_US us)
{
	return CmpSRF04GetDistance(us);
}
    3994:	08 95       	ret

00003996 <SrvWalkLegsStep>:


////////////////////////////////////////PRIVATE FUNCTIONS/////////////////////////////////////////

static void SrvWalkLegsStep( E_LEG movingLeg1, E_LEG movingLeg2, E_LEG movingLeg3,Int16U speed)
{
    3996:	7f 92       	push	r7
    3998:	8f 92       	push	r8
    399a:	9f 92       	push	r9
    399c:	af 92       	push	r10
    399e:	bf 92       	push	r11
    39a0:	cf 92       	push	r12
    39a2:	df 92       	push	r13
    39a4:	ef 92       	push	r14
    39a6:	ff 92       	push	r15
    39a8:	0f 93       	push	r16
    39aa:	1f 93       	push	r17
    39ac:	cf 93       	push	r28
    39ae:	df 93       	push	r29
    39b0:	f8 2e       	mov	r15, r24
    39b2:	e6 2e       	mov	r14, r22
    39b4:	74 2e       	mov	r7, r20
    39b6:	e9 01       	movw	r28, r18
	//decrease delay per 2 for the first movement
	if(stepLeg[movingLeg1].step == 0)speed = (speed * 2U) / 3U;
    39b8:	c8 2e       	mov	r12, r24
    39ba:	d1 2c       	mov	r13, r1
    39bc:	f6 01       	movw	r30, r12
    39be:	ee 0f       	add	r30, r30
    39c0:	ff 1f       	adc	r31, r31
    39c2:	ec 0d       	add	r30, r12
    39c4:	fd 1d       	adc	r31, r13
    39c6:	e0 56       	subi	r30, 0x60	; 96
    39c8:	f2 4f       	sbci	r31, 0xF2	; 242
    39ca:	40 81       	ld	r20, Z
    39cc:	41 11       	cpse	r20, r1
    39ce:	09 c0       	rjmp	.+18     	; 0x39e2 <SrvWalkLegsStep+0x4c>
    39d0:	22 0f       	add	r18, r18
    39d2:	33 1f       	adc	r19, r19
    39d4:	ab ea       	ldi	r26, 0xAB	; 171
    39d6:	ba ea       	ldi	r27, 0xAA	; 170
    39d8:	86 d6       	rcall	.+3340   	; 0x46e6 <__umulhisi3>
    39da:	ec 01       	movw	r28, r24
    39dc:	d6 95       	lsr	r29
    39de:	c7 95       	ror	r28
    39e0:	04 c0       	rjmp	.+8      	; 0x39ea <SrvWalkLegsStep+0x54>
	//increase delay times 2 for the third movement
	if(stepLeg[movingLeg1].step == 2)speed = speed * 2U;
    39e2:	42 30       	cpi	r20, 0x02	; 2
    39e4:	11 f4       	brne	.+4      	; 0x39ea <SrvWalkLegsStep+0x54>
    39e6:	cc 0f       	add	r28, r28
    39e8:	dd 1f       	adc	r29, r29
	
	DrvLegSetXYZ(movingLeg1,
    39ea:	84 2f       	mov	r24, r20
    39ec:	90 e0       	ldi	r25, 0x00	; 0
    39ee:	88 0f       	add	r24, r24
    39f0:	99 1f       	adc	r25, r25
    39f2:	fc 01       	movw	r30, r24
    39f4:	e0 5d       	subi	r30, 0xD0	; 208
    39f6:	fd 4f       	sbci	r31, 0xFD	; 253
    39f8:	20 81       	ld	r18, Z
    39fa:	31 81       	ldd	r19, Z+1	; 0x01
    39fc:	fc 01       	movw	r30, r24
    39fe:	ea 5c       	subi	r30, 0xCA	; 202
    3a00:	fd 4f       	sbci	r31, 0xFD	; 253
    3a02:	40 81       	ld	r20, Z
    3a04:	51 81       	ldd	r21, Z+1	; 0x01
    3a06:	fc 01       	movw	r30, r24
    3a08:	e4 5c       	subi	r30, 0xC4	; 196
    3a0a:	fd 4f       	sbci	r31, 0xFD	; 253
    3a0c:	60 81       	ld	r22, Z
    3a0e:	71 81       	ldd	r23, Z+1	; 0x01
    3a10:	8e 01       	movw	r16, r28
    3a12:	8f 2d       	mov	r24, r15
    3a14:	0e 94 29 0b 	call	0x1652	; 0x1652 <DrvLegSetXYZ>
				legsZTab[stepLeg[movingLeg1].step],
				speed);
	DrvLegSetXYZ(movingLeg2,
				legsXTab[stepLeg[movingLeg2].step],
				legsYTab[stepLeg[movingLeg2].step],
				legsZTab[stepLeg[movingLeg2].step],
    3a18:	8e 2c       	mov	r8, r14
    3a1a:	91 2c       	mov	r9, r1
    3a1c:	f4 01       	movw	r30, r8
    3a1e:	ee 0f       	add	r30, r30
    3a20:	ff 1f       	adc	r31, r31
    3a22:	e8 0d       	add	r30, r8
    3a24:	f9 1d       	adc	r31, r9
    3a26:	e0 56       	subi	r30, 0x60	; 96
    3a28:	f2 4f       	sbci	r31, 0xF2	; 242
	DrvLegSetXYZ(movingLeg1,
				legsXTab[stepLeg[movingLeg1].step],
				legsYTab[stepLeg[movingLeg1].step],
				legsZTab[stepLeg[movingLeg1].step],
				speed);
	DrvLegSetXYZ(movingLeg2,
    3a2a:	80 81       	ld	r24, Z
    3a2c:	90 e0       	ldi	r25, 0x00	; 0
    3a2e:	88 0f       	add	r24, r24
    3a30:	99 1f       	adc	r25, r25
    3a32:	fc 01       	movw	r30, r24
    3a34:	e0 5d       	subi	r30, 0xD0	; 208
    3a36:	fd 4f       	sbci	r31, 0xFD	; 253
    3a38:	20 81       	ld	r18, Z
    3a3a:	31 81       	ldd	r19, Z+1	; 0x01
    3a3c:	fc 01       	movw	r30, r24
    3a3e:	ea 5c       	subi	r30, 0xCA	; 202
    3a40:	fd 4f       	sbci	r31, 0xFD	; 253
    3a42:	40 81       	ld	r20, Z
    3a44:	51 81       	ldd	r21, Z+1	; 0x01
    3a46:	fc 01       	movw	r30, r24
    3a48:	e4 5c       	subi	r30, 0xC4	; 196
    3a4a:	fd 4f       	sbci	r31, 0xFD	; 253
    3a4c:	60 81       	ld	r22, Z
    3a4e:	71 81       	ldd	r23, Z+1	; 0x01
    3a50:	8e 2d       	mov	r24, r14
    3a52:	0e 94 29 0b 	call	0x1652	; 0x1652 <DrvLegSetXYZ>
				legsZTab[stepLeg[movingLeg2].step],
				speed);
	DrvLegSetXYZ(movingLeg3,
				legsXTab[stepLeg[movingLeg3].step],
				legsYTab[stepLeg[movingLeg3].step],
				legsZTab[stepLeg[movingLeg3].step],
    3a56:	a7 2c       	mov	r10, r7
    3a58:	b1 2c       	mov	r11, r1
    3a5a:	f5 01       	movw	r30, r10
    3a5c:	ee 0f       	add	r30, r30
    3a5e:	ff 1f       	adc	r31, r31
    3a60:	ea 0d       	add	r30, r10
    3a62:	fb 1d       	adc	r31, r11
    3a64:	e0 56       	subi	r30, 0x60	; 96
    3a66:	f2 4f       	sbci	r31, 0xF2	; 242
	DrvLegSetXYZ(movingLeg2,
				legsXTab[stepLeg[movingLeg2].step],
				legsYTab[stepLeg[movingLeg2].step],
				legsZTab[stepLeg[movingLeg2].step],
				speed);
	DrvLegSetXYZ(movingLeg3,
    3a68:	80 81       	ld	r24, Z
    3a6a:	90 e0       	ldi	r25, 0x00	; 0
    3a6c:	88 0f       	add	r24, r24
    3a6e:	99 1f       	adc	r25, r25
    3a70:	fc 01       	movw	r30, r24
    3a72:	e0 5d       	subi	r30, 0xD0	; 208
    3a74:	fd 4f       	sbci	r31, 0xFD	; 253
    3a76:	20 81       	ld	r18, Z
    3a78:	31 81       	ldd	r19, Z+1	; 0x01
    3a7a:	fc 01       	movw	r30, r24
    3a7c:	ea 5c       	subi	r30, 0xCA	; 202
    3a7e:	fd 4f       	sbci	r31, 0xFD	; 253
    3a80:	40 81       	ld	r20, Z
    3a82:	51 81       	ldd	r21, Z+1	; 0x01
    3a84:	fc 01       	movw	r30, r24
    3a86:	e4 5c       	subi	r30, 0xC4	; 196
    3a88:	fd 4f       	sbci	r31, 0xFD	; 253
    3a8a:	60 81       	ld	r22, Z
    3a8c:	71 81       	ldd	r23, Z+1	; 0x01
    3a8e:	87 2d       	mov	r24, r7
    3a90:	0e 94 29 0b 	call	0x1652	; 0x1652 <DrvLegSetXYZ>
				legsXTab[stepLeg[movingLeg3].step],
				legsYTab[stepLeg[movingLeg3].step],
				legsZTab[stepLeg[movingLeg3].step],
				speed);
	if(DrvLegCheckTarget(movingLeg1) && DrvLegCheckTarget(movingLeg2) && DrvLegCheckTarget(movingLeg3))
    3a94:	8f 2d       	mov	r24, r15
    3a96:	0e 94 10 0b 	call	0x1620	; 0x1620 <DrvLegCheckTarget>
    3a9a:	88 23       	and	r24, r24
    3a9c:	09 f4       	brne	.+2      	; 0x3aa0 <SrvWalkLegsStep+0x10a>
    3a9e:	59 c0       	rjmp	.+178    	; 0x3b52 <SrvWalkLegsStep+0x1bc>
    3aa0:	8e 2d       	mov	r24, r14
    3aa2:	0e 94 10 0b 	call	0x1620	; 0x1620 <DrvLegCheckTarget>
    3aa6:	88 23       	and	r24, r24
    3aa8:	09 f4       	brne	.+2      	; 0x3aac <SrvWalkLegsStep+0x116>
    3aaa:	53 c0       	rjmp	.+166    	; 0x3b52 <SrvWalkLegsStep+0x1bc>
    3aac:	87 2d       	mov	r24, r7
    3aae:	0e 94 10 0b 	call	0x1620	; 0x1620 <DrvLegCheckTarget>
    3ab2:	88 23       	and	r24, r24
    3ab4:	09 f4       	brne	.+2      	; 0x3ab8 <SrvWalkLegsStep+0x122>
    3ab6:	4d c0       	rjmp	.+154    	; 0x3b52 <SrvWalkLegsStep+0x1bc>
	{
		stepLeg[movingLeg1].step++;
    3ab8:	f6 01       	movw	r30, r12
    3aba:	ee 0f       	add	r30, r30
    3abc:	ff 1f       	adc	r31, r31
    3abe:	ec 0d       	add	r30, r12
    3ac0:	fd 1d       	adc	r31, r13
    3ac2:	e0 56       	subi	r30, 0x60	; 96
    3ac4:	f2 4f       	sbci	r31, 0xF2	; 242
    3ac6:	80 81       	ld	r24, Z
    3ac8:	8f 5f       	subi	r24, 0xFF	; 255
    3aca:	80 83       	st	Z, r24
		stepLeg[movingLeg2].step++;
    3acc:	d4 01       	movw	r26, r8
    3ace:	aa 0f       	add	r26, r26
    3ad0:	bb 1f       	adc	r27, r27
    3ad2:	a8 0d       	add	r26, r8
    3ad4:	b9 1d       	adc	r27, r9
    3ad6:	a0 56       	subi	r26, 0x60	; 96
    3ad8:	b2 4f       	sbci	r27, 0xF2	; 242
    3ada:	8c 91       	ld	r24, X
    3adc:	8f 5f       	subi	r24, 0xFF	; 255
    3ade:	8c 93       	st	X, r24
		stepLeg[movingLeg3].step++;
    3ae0:	d5 01       	movw	r26, r10
    3ae2:	aa 0f       	add	r26, r26
    3ae4:	bb 1f       	adc	r27, r27
    3ae6:	aa 0d       	add	r26, r10
    3ae8:	bb 1d       	adc	r27, r11
    3aea:	a0 56       	subi	r26, 0x60	; 96
    3aec:	b2 4f       	sbci	r27, 0xF2	; 242
    3aee:	8c 91       	ld	r24, X
    3af0:	8f 5f       	subi	r24, 0xFF	; 255
    3af2:	8c 93       	st	X, r24
		if((stepLeg[movingLeg1].step) == 3)stepLeg[movingLeg1].step = 0;
    3af4:	80 81       	ld	r24, Z
    3af6:	83 30       	cpi	r24, 0x03	; 3
    3af8:	41 f4       	brne	.+16     	; 0x3b0a <SrvWalkLegsStep+0x174>
    3afa:	f6 01       	movw	r30, r12
    3afc:	ee 0f       	add	r30, r30
    3afe:	ff 1f       	adc	r31, r31
    3b00:	ec 0d       	add	r30, r12
    3b02:	fd 1d       	adc	r31, r13
    3b04:	e0 56       	subi	r30, 0x60	; 96
    3b06:	f2 4f       	sbci	r31, 0xF2	; 242
    3b08:	10 82       	st	Z, r1
		if((stepLeg[movingLeg2].step) == 3)stepLeg[movingLeg2].step = 0;
    3b0a:	f4 01       	movw	r30, r8
    3b0c:	ee 0f       	add	r30, r30
    3b0e:	ff 1f       	adc	r31, r31
    3b10:	e8 0d       	add	r30, r8
    3b12:	f9 1d       	adc	r31, r9
    3b14:	e0 56       	subi	r30, 0x60	; 96
    3b16:	f2 4f       	sbci	r31, 0xF2	; 242
    3b18:	80 81       	ld	r24, Z
    3b1a:	83 30       	cpi	r24, 0x03	; 3
    3b1c:	41 f4       	brne	.+16     	; 0x3b2e <SrvWalkLegsStep+0x198>
    3b1e:	f4 01       	movw	r30, r8
    3b20:	ee 0f       	add	r30, r30
    3b22:	ff 1f       	adc	r31, r31
    3b24:	e8 0d       	add	r30, r8
    3b26:	f9 1d       	adc	r31, r9
    3b28:	e0 56       	subi	r30, 0x60	; 96
    3b2a:	f2 4f       	sbci	r31, 0xF2	; 242
    3b2c:	10 82       	st	Z, r1
		if((stepLeg[movingLeg3].step) == 3)stepLeg[movingLeg3].step = 0;
    3b2e:	f5 01       	movw	r30, r10
    3b30:	ee 0f       	add	r30, r30
    3b32:	ff 1f       	adc	r31, r31
    3b34:	ea 0d       	add	r30, r10
    3b36:	fb 1d       	adc	r31, r11
    3b38:	e0 56       	subi	r30, 0x60	; 96
    3b3a:	f2 4f       	sbci	r31, 0xF2	; 242
    3b3c:	80 81       	ld	r24, Z
    3b3e:	83 30       	cpi	r24, 0x03	; 3
    3b40:	41 f4       	brne	.+16     	; 0x3b52 <SrvWalkLegsStep+0x1bc>
    3b42:	f5 01       	movw	r30, r10
    3b44:	ee 0f       	add	r30, r30
    3b46:	ff 1f       	adc	r31, r31
    3b48:	ea 0d       	add	r30, r10
    3b4a:	fb 1d       	adc	r31, r11
    3b4c:	e0 56       	subi	r30, 0x60	; 96
    3b4e:	f2 4f       	sbci	r31, 0xF2	; 242
    3b50:	10 82       	st	Z, r1
	}
}
    3b52:	df 91       	pop	r29
    3b54:	cf 91       	pop	r28
    3b56:	1f 91       	pop	r17
    3b58:	0f 91       	pop	r16
    3b5a:	ff 90       	pop	r15
    3b5c:	ef 90       	pop	r14
    3b5e:	df 90       	pop	r13
    3b60:	cf 90       	pop	r12
    3b62:	bf 90       	pop	r11
    3b64:	af 90       	pop	r10
    3b66:	9f 90       	pop	r9
    3b68:	8f 90       	pop	r8
    3b6a:	7f 90       	pop	r7
    3b6c:	08 95       	ret

00003b6e <SrvWalkUpdate>:
    return oSuccess;
}

//Fonction de dispatching d'evenements
void SrvWalkUpdate ( void )
{
    3b6e:	0f 93       	push	r16
    3b70:	1f 93       	push	r17
    3b72:	cf 93       	push	r28
    3b74:	df 93       	push	r29
    3b76:	00 d0       	rcall	.+0      	; 0x3b78 <SrvWalkUpdate+0xa>
    3b78:	00 d0       	rcall	.+0      	; 0x3b7a <SrvWalkUpdate+0xc>
    3b7a:	00 d0       	rcall	.+0      	; 0x3b7c <SrvWalkUpdate+0xe>
    3b7c:	cd b7       	in	r28, 0x3d	; 61
    3b7e:	de b7       	in	r29, 0x3e	; 62
	//update servos every 15 ms
	//if ((DrvTickGetTimeMs() - prevMillisWalkUpdate) > 10U)
	if( walking !=  E_WALK_STOP )
    3b80:	80 91 9c 0d 	lds	r24, 0x0D9C	; 0x800d9c <walking>
    3b84:	88 23       	and	r24, r24
    3b86:	09 f4       	brne	.+2      	; 0x3b8a <SrvWalkUpdate+0x1c>
    3b88:	3b c1       	rjmp	.+630    	; 0x3e00 <SrvWalkUpdate+0x292>
	{
		if( gaiting == E_GAITS_TRIPOD )
    3b8a:	80 91 9f 0d 	lds	r24, 0x0D9F	; 0x800d9f <gaiting>
    3b8e:	81 11       	cpse	r24, r1
    3b90:	21 c0       	rjmp	.+66     	; 0x3bd4 <SrvWalkUpdate+0x66>
	}
}

static void SrvWalkTripod ( void )
{	
	if(!initStepGaits)
    3b92:	80 91 2d 0b 	lds	r24, 0x0B2D	; 0x800b2d <initStepGaits>
    3b96:	81 11       	cpse	r24, r1
    3b98:	0c c0       	rjmp	.+24     	; 0x3bb2 <SrvWalkUpdate+0x44>
	{
		initStepGaits = TRUE;
    3b9a:	81 e0       	ldi	r24, 0x01	; 1
    3b9c:	80 93 2d 0b 	sts	0x0B2D, r24	; 0x800b2d <initStepGaits>
		stepLeg[E_LEG_U_L].step = 0;
    3ba0:	e0 ea       	ldi	r30, 0xA0	; 160
    3ba2:	fd e0       	ldi	r31, 0x0D	; 13
    3ba4:	10 82       	st	Z, r1
		stepLeg[E_LEG_M_L].step = 2;
    3ba6:	82 e0       	ldi	r24, 0x02	; 2
    3ba8:	83 83       	std	Z+3, r24	; 0x03
		stepLeg[E_LEG_B_L].step = 0;
    3baa:	16 82       	std	Z+6, r1	; 0x06
		stepLeg[E_LEG_U_R].step = 2;
    3bac:	81 87       	std	Z+9, r24	; 0x09
		stepLeg[E_LEG_M_R].step = 0;
    3bae:	14 86       	std	Z+12, r1	; 0x0c
		stepLeg[E_LEG_B_R].step = 2;
    3bb0:	87 87       	std	Z+15, r24	; 0x0f
	}
	
	SrvWalkLegsStep(E_LEG_U_L,E_LEG_M_R,E_LEG_B_L, walkingDelay);
    3bb2:	20 91 9d 0d 	lds	r18, 0x0D9D	; 0x800d9d <walkingDelay>
    3bb6:	30 91 9e 0d 	lds	r19, 0x0D9E	; 0x800d9e <walkingDelay+0x1>
    3bba:	42 e0       	ldi	r20, 0x02	; 2
    3bbc:	64 e0       	ldi	r22, 0x04	; 4
    3bbe:	80 e0       	ldi	r24, 0x00	; 0
    3bc0:	ea de       	rcall	.-556    	; 0x3996 <SrvWalkLegsStep>
	SrvWalkLegsStep(E_LEG_U_R,E_LEG_M_L,E_LEG_B_R, walkingDelay);
    3bc2:	20 91 9d 0d 	lds	r18, 0x0D9D	; 0x800d9d <walkingDelay>
    3bc6:	30 91 9e 0d 	lds	r19, 0x0D9E	; 0x800d9e <walkingDelay+0x1>
    3bca:	45 e0       	ldi	r20, 0x05	; 5
    3bcc:	61 e0       	ldi	r22, 0x01	; 1
    3bce:	83 e0       	ldi	r24, 0x03	; 3
    3bd0:	e2 de       	rcall	.-572    	; 0x3996 <SrvWalkLegsStep>
    3bd2:	70 c1       	rjmp	.+736    	; 0x3eb4 <SrvWalkUpdate+0x346>
	{
		if( gaiting == E_GAITS_TRIPOD )
		{
			SrvWalkTripod();
		}
		else if( gaiting == E_GAITS_WAVE )
    3bd4:	81 30       	cpi	r24, 0x01	; 1
    3bd6:	09 f0       	breq	.+2      	; 0x3bda <SrvWalkUpdate+0x6c>
    3bd8:	71 c0       	rjmp	.+226    	; 0x3cbc <SrvWalkUpdate+0x14e>
								 //0,0,0,0,1,0,
								 //0,0,0,1,0,0,
								 //0,0,1,0,0,0,
								 //0,1,0,0,0,0,
								 //1,0,0,0,0,0};				
	if(updateLeg == 0U)
    3bda:	80 91 2e 0b 	lds	r24, 0x0B2E	; 0x800b2e <updateLeg>
    3bde:	81 11       	cpse	r24, r1
    3be0:	11 c0       	rjmp	.+34     	; 0x3c04 <SrvWalkUpdate+0x96>
	{
		DrvLegSetXYZ(movingLeg,-15,30,-30,walkingDelay/2);
    3be2:	00 91 9d 0d 	lds	r16, 0x0D9D	; 0x800d9d <walkingDelay>
    3be6:	10 91 9e 0d 	lds	r17, 0x0D9E	; 0x800d9e <walkingDelay+0x1>
    3bea:	16 95       	lsr	r17
    3bec:	07 95       	ror	r16
    3bee:	22 ee       	ldi	r18, 0xE2	; 226
    3bf0:	3f ef       	ldi	r19, 0xFF	; 255
    3bf2:	4e e1       	ldi	r20, 0x1E	; 30
    3bf4:	50 e0       	ldi	r21, 0x00	; 0
    3bf6:	61 ef       	ldi	r22, 0xF1	; 241
    3bf8:	7f ef       	ldi	r23, 0xFF	; 255
    3bfa:	80 91 2b 0b 	lds	r24, 0x0B2B	; 0x800b2b <movingLeg.2655>
    3bfe:	0e 94 29 0b 	call	0x1652	; 0x1652 <DrvLegSetXYZ>
    3c02:	23 c0       	rjmp	.+70     	; 0x3c4a <SrvWalkUpdate+0xdc>
	}
	else if(updateLeg == 1U)
    3c04:	81 30       	cpi	r24, 0x01	; 1
    3c06:	79 f4       	brne	.+30     	; 0x3c26 <SrvWalkUpdate+0xb8>
	{
		DrvLegSetXYZ(movingLeg,-45,0,0,walkingDelay);
    3c08:	00 91 9d 0d 	lds	r16, 0x0D9D	; 0x800d9d <walkingDelay>
    3c0c:	10 91 9e 0d 	lds	r17, 0x0D9E	; 0x800d9e <walkingDelay+0x1>
    3c10:	20 e0       	ldi	r18, 0x00	; 0
    3c12:	30 e0       	ldi	r19, 0x00	; 0
    3c14:	40 e0       	ldi	r20, 0x00	; 0
    3c16:	50 e0       	ldi	r21, 0x00	; 0
    3c18:	63 ed       	ldi	r22, 0xD3	; 211
    3c1a:	7f ef       	ldi	r23, 0xFF	; 255
    3c1c:	80 91 2b 0b 	lds	r24, 0x0B2B	; 0x800b2b <movingLeg.2655>
    3c20:	0e 94 29 0b 	call	0x1652	; 0x1652 <DrvLegSetXYZ>
    3c24:	12 c0       	rjmp	.+36     	; 0x3c4a <SrvWalkUpdate+0xdc>
	}
	else if(updateLeg == 2U)
    3c26:	82 30       	cpi	r24, 0x02	; 2
    3c28:	81 f4       	brne	.+32     	; 0x3c4a <SrvWalkUpdate+0xdc>
	{
		DrvLegSetXYZ(movingLeg,30,0,0,walkingDelay*2);
    3c2a:	00 91 9d 0d 	lds	r16, 0x0D9D	; 0x800d9d <walkingDelay>
    3c2e:	10 91 9e 0d 	lds	r17, 0x0D9E	; 0x800d9e <walkingDelay+0x1>
    3c32:	00 0f       	add	r16, r16
    3c34:	11 1f       	adc	r17, r17
    3c36:	20 e0       	ldi	r18, 0x00	; 0
    3c38:	30 e0       	ldi	r19, 0x00	; 0
    3c3a:	40 e0       	ldi	r20, 0x00	; 0
    3c3c:	50 e0       	ldi	r21, 0x00	; 0
    3c3e:	6e e1       	ldi	r22, 0x1E	; 30
    3c40:	70 e0       	ldi	r23, 0x00	; 0
    3c42:	80 91 2b 0b 	lds	r24, 0x0B2B	; 0x800b2b <movingLeg.2655>
    3c46:	0e 94 29 0b 	call	0x1652	; 0x1652 <DrvLegSetXYZ>
	}
	
	if(
		DrvLegCheckTarget(E_LEG_U_L) &&
    3c4a:	80 e0       	ldi	r24, 0x00	; 0
    3c4c:	0e 94 10 0b 	call	0x1620	; 0x1620 <DrvLegCheckTarget>
	else if(updateLeg == 2U)
	{
		DrvLegSetXYZ(movingLeg,30,0,0,walkingDelay*2);
	}
	
	if(
    3c50:	88 23       	and	r24, r24
    3c52:	09 f4       	brne	.+2      	; 0x3c56 <SrvWalkUpdate+0xe8>
    3c54:	2f c1       	rjmp	.+606    	; 0x3eb4 <SrvWalkUpdate+0x346>
		DrvLegCheckTarget(E_LEG_U_L) &&
		DrvLegCheckTarget(E_LEG_M_L) &&
    3c56:	81 e0       	ldi	r24, 0x01	; 1
    3c58:	0e 94 10 0b 	call	0x1620	; 0x1620 <DrvLegCheckTarget>
	{
		DrvLegSetXYZ(movingLeg,30,0,0,walkingDelay*2);
	}
	
	if(
		DrvLegCheckTarget(E_LEG_U_L) &&
    3c5c:	88 23       	and	r24, r24
    3c5e:	09 f4       	brne	.+2      	; 0x3c62 <SrvWalkUpdate+0xf4>
    3c60:	29 c1       	rjmp	.+594    	; 0x3eb4 <SrvWalkUpdate+0x346>
		DrvLegCheckTarget(E_LEG_M_L) &&
		DrvLegCheckTarget(E_LEG_B_L) &&
    3c62:	82 e0       	ldi	r24, 0x02	; 2
    3c64:	0e 94 10 0b 	call	0x1620	; 0x1620 <DrvLegCheckTarget>
		DrvLegSetXYZ(movingLeg,30,0,0,walkingDelay*2);
	}
	
	if(
		DrvLegCheckTarget(E_LEG_U_L) &&
		DrvLegCheckTarget(E_LEG_M_L) &&
    3c68:	88 23       	and	r24, r24
    3c6a:	09 f4       	brne	.+2      	; 0x3c6e <SrvWalkUpdate+0x100>
    3c6c:	23 c1       	rjmp	.+582    	; 0x3eb4 <SrvWalkUpdate+0x346>
		DrvLegCheckTarget(E_LEG_B_L) &&
		DrvLegCheckTarget(E_LEG_U_R) &&
    3c6e:	83 e0       	ldi	r24, 0x03	; 3
    3c70:	0e 94 10 0b 	call	0x1620	; 0x1620 <DrvLegCheckTarget>
	}
	
	if(
		DrvLegCheckTarget(E_LEG_U_L) &&
		DrvLegCheckTarget(E_LEG_M_L) &&
		DrvLegCheckTarget(E_LEG_B_L) &&
    3c74:	88 23       	and	r24, r24
    3c76:	09 f4       	brne	.+2      	; 0x3c7a <SrvWalkUpdate+0x10c>
    3c78:	1d c1       	rjmp	.+570    	; 0x3eb4 <SrvWalkUpdate+0x346>
		DrvLegCheckTarget(E_LEG_U_R) &&
		DrvLegCheckTarget(E_LEG_M_R) &&
    3c7a:	84 e0       	ldi	r24, 0x04	; 4
    3c7c:	0e 94 10 0b 	call	0x1620	; 0x1620 <DrvLegCheckTarget>
	
	if(
		DrvLegCheckTarget(E_LEG_U_L) &&
		DrvLegCheckTarget(E_LEG_M_L) &&
		DrvLegCheckTarget(E_LEG_B_L) &&
		DrvLegCheckTarget(E_LEG_U_R) &&
    3c80:	88 23       	and	r24, r24
    3c82:	09 f4       	brne	.+2      	; 0x3c86 <SrvWalkUpdate+0x118>
    3c84:	17 c1       	rjmp	.+558    	; 0x3eb4 <SrvWalkUpdate+0x346>
		DrvLegCheckTarget(E_LEG_M_R) &&
		DrvLegCheckTarget(E_LEG_B_R)
    3c86:	85 e0       	ldi	r24, 0x05	; 5
    3c88:	0e 94 10 0b 	call	0x1620	; 0x1620 <DrvLegCheckTarget>
	if(
		DrvLegCheckTarget(E_LEG_U_L) &&
		DrvLegCheckTarget(E_LEG_M_L) &&
		DrvLegCheckTarget(E_LEG_B_L) &&
		DrvLegCheckTarget(E_LEG_U_R) &&
		DrvLegCheckTarget(E_LEG_M_R) &&
    3c8c:	88 23       	and	r24, r24
    3c8e:	09 f4       	brne	.+2      	; 0x3c92 <SrvWalkUpdate+0x124>
    3c90:	11 c1       	rjmp	.+546    	; 0x3eb4 <SrvWalkUpdate+0x346>
		DrvLegCheckTarget(E_LEG_B_R)
	)
	{
		updateLeg++;
    3c92:	80 91 2e 0b 	lds	r24, 0x0B2E	; 0x800b2e <updateLeg>
    3c96:	8f 5f       	subi	r24, 0xFF	; 255
		if(updateLeg == 3)
    3c98:	83 30       	cpi	r24, 0x03	; 3
    3c9a:	19 f0       	breq	.+6      	; 0x3ca2 <SrvWalkUpdate+0x134>
		DrvLegCheckTarget(E_LEG_U_R) &&
		DrvLegCheckTarget(E_LEG_M_R) &&
		DrvLegCheckTarget(E_LEG_B_R)
	)
	{
		updateLeg++;
    3c9c:	80 93 2e 0b 	sts	0x0B2E, r24	; 0x800b2e <updateLeg>
    3ca0:	09 c1       	rjmp	.+530    	; 0x3eb4 <SrvWalkUpdate+0x346>
		if(updateLeg == 3)
		{
			updateLeg = 0;
    3ca2:	10 92 2e 0b 	sts	0x0B2E, r1	; 0x800b2e <updateLeg>
			movingLeg++;
    3ca6:	80 91 2b 0b 	lds	r24, 0x0B2B	; 0x800b2b <movingLeg.2655>
    3caa:	8f 5f       	subi	r24, 0xFF	; 255
    3cac:	80 93 2b 0b 	sts	0x0B2B, r24	; 0x800b2b <movingLeg.2655>
			if(movingLeg == E_NB_LEGS)
    3cb0:	86 30       	cpi	r24, 0x06	; 6
    3cb2:	09 f0       	breq	.+2      	; 0x3cb6 <SrvWalkUpdate+0x148>
    3cb4:	ff c0       	rjmp	.+510    	; 0x3eb4 <SrvWalkUpdate+0x346>
			{
				movingLeg = 0;
    3cb6:	10 92 2b 0b 	sts	0x0B2B, r1	; 0x800b2b <movingLeg.2655>
    3cba:	fc c0       	rjmp	.+504    	; 0x3eb4 <SrvWalkUpdate+0x346>
		}
		else if( gaiting == E_GAITS_WAVE )
		{
			SrvWalkWave();
		}
		else if( gaiting == E_GAITS_RIPPLE )
    3cbc:	82 30       	cpi	r24, 0x02	; 2
    3cbe:	09 f0       	breq	.+2      	; 0x3cc2 <SrvWalkUpdate+0x154>
    3cc0:	f9 c0       	rjmp	.+498    	; 0x3eb4 <SrvWalkUpdate+0x346>
}
	
Int8U movingLegIndex = 0;
static void SrvWalkRipple ( void )
{
	E_LEG moveLegs[] = {
    3cc2:	86 e0       	ldi	r24, 0x06	; 6
    3cc4:	e2 e4       	ldi	r30, 0x42	; 66
    3cc6:	f2 e0       	ldi	r31, 0x02	; 2
    3cc8:	de 01       	movw	r26, r28
    3cca:	11 96       	adiw	r26, 0x01	; 1
    3ccc:	01 90       	ld	r0, Z+
    3cce:	0d 92       	st	X+, r0
    3cd0:	8a 95       	dec	r24
    3cd2:	e1 f7       	brne	.-8      	; 0x3ccc <SrvWalkUpdate+0x15e>
									

	DrvLegSetXYZ(moveLegs[movingLegIndex],
				legsXTab[stepLeg[moveLegs[movingLegIndex]].step],
				legsYTab[stepLeg[moveLegs[movingLegIndex]].step],
				legsZTab[stepLeg[moveLegs[movingLegIndex]].step],
    3cd4:	80 91 2c 0b 	lds	r24, 0x0B2C	; 0x800b2c <movingLegIndex>
    3cd8:	e1 e0       	ldi	r30, 0x01	; 1
    3cda:	f0 e0       	ldi	r31, 0x00	; 0
    3cdc:	ec 0f       	add	r30, r28
    3cde:	fd 1f       	adc	r31, r29
    3ce0:	e8 0f       	add	r30, r24
    3ce2:	f1 1d       	adc	r31, r1
    3ce4:	80 81       	ld	r24, Z
    3ce6:	28 2f       	mov	r18, r24
    3ce8:	30 e0       	ldi	r19, 0x00	; 0
    3cea:	f9 01       	movw	r30, r18
    3cec:	ee 0f       	add	r30, r30
    3cee:	ff 1f       	adc	r31, r31
    3cf0:	2e 0f       	add	r18, r30
    3cf2:	3f 1f       	adc	r19, r31
    3cf4:	f9 01       	movw	r30, r18
    3cf6:	e0 56       	subi	r30, 0x60	; 96
    3cf8:	f2 4f       	sbci	r31, 0xF2	; 242
									//0,0,0,1,1,0,
									//0,1,1,0,0,0,
									//1,0,0,0,0,1};
									

	DrvLegSetXYZ(moveLegs[movingLegIndex],
    3cfa:	60 81       	ld	r22, Z
    3cfc:	70 e0       	ldi	r23, 0x00	; 0
    3cfe:	00 91 9d 0d 	lds	r16, 0x0D9D	; 0x800d9d <walkingDelay>
    3d02:	10 91 9e 0d 	lds	r17, 0x0D9E	; 0x800d9e <walkingDelay+0x1>
    3d06:	66 0f       	add	r22, r22
    3d08:	77 1f       	adc	r23, r23
    3d0a:	fb 01       	movw	r30, r22
    3d0c:	e0 5d       	subi	r30, 0xD0	; 208
    3d0e:	fd 4f       	sbci	r31, 0xFD	; 253
    3d10:	20 81       	ld	r18, Z
    3d12:	31 81       	ldd	r19, Z+1	; 0x01
    3d14:	fb 01       	movw	r30, r22
    3d16:	ea 5c       	subi	r30, 0xCA	; 202
    3d18:	fd 4f       	sbci	r31, 0xFD	; 253
    3d1a:	40 81       	ld	r20, Z
    3d1c:	51 81       	ldd	r21, Z+1	; 0x01
    3d1e:	fb 01       	movw	r30, r22
    3d20:	e4 5c       	subi	r30, 0xC4	; 196
    3d22:	fd 4f       	sbci	r31, 0xFD	; 253
    3d24:	60 81       	ld	r22, Z
    3d26:	71 81       	ldd	r23, Z+1	; 0x01
    3d28:	0e 94 29 0b 	call	0x1652	; 0x1652 <DrvLegSetXYZ>
				legsXTab[stepLeg[moveLegs[movingLegIndex]].step],
				legsYTab[stepLeg[moveLegs[movingLegIndex]].step],
				legsZTab[stepLeg[moveLegs[movingLegIndex]].step],
				walkingDelay);
	if(DrvLegCheckTarget(moveLegs[movingLegIndex]))
    3d2c:	80 91 2c 0b 	lds	r24, 0x0B2C	; 0x800b2c <movingLegIndex>
    3d30:	e1 e0       	ldi	r30, 0x01	; 1
    3d32:	f0 e0       	ldi	r31, 0x00	; 0
    3d34:	ec 0f       	add	r30, r28
    3d36:	fd 1f       	adc	r31, r29
    3d38:	e8 0f       	add	r30, r24
    3d3a:	f1 1d       	adc	r31, r1
    3d3c:	80 81       	ld	r24, Z
    3d3e:	0e 94 10 0b 	call	0x1620	; 0x1620 <DrvLegCheckTarget>
    3d42:	88 23       	and	r24, r24
    3d44:	21 f1       	breq	.+72     	; 0x3d8e <SrvWalkUpdate+0x220>
	{
		stepLeg[moveLegs[movingLegIndex]].step++;
    3d46:	20 91 2c 0b 	lds	r18, 0x0B2C	; 0x800b2c <movingLegIndex>
    3d4a:	fe 01       	movw	r30, r28
    3d4c:	e2 0f       	add	r30, r18
    3d4e:	f1 1d       	adc	r31, r1
    3d50:	81 81       	ldd	r24, Z+1	; 0x01
    3d52:	90 e0       	ldi	r25, 0x00	; 0
    3d54:	fc 01       	movw	r30, r24
    3d56:	ee 0f       	add	r30, r30
    3d58:	ff 1f       	adc	r31, r31
    3d5a:	e8 0f       	add	r30, r24
    3d5c:	f9 1f       	adc	r31, r25
    3d5e:	e0 56       	subi	r30, 0x60	; 96
    3d60:	f2 4f       	sbci	r31, 0xF2	; 242
    3d62:	80 81       	ld	r24, Z
    3d64:	8f 5f       	subi	r24, 0xFF	; 255
    3d66:	80 83       	st	Z, r24
		if((stepLeg[moveLegs[movingLegIndex]].step) == 3)
    3d68:	83 30       	cpi	r24, 0x03	; 3
    3d6a:	89 f4       	brne	.+34     	; 0x3d8e <SrvWalkUpdate+0x220>
		{
			movingLegIndex++;
    3d6c:	2f 5f       	subi	r18, 0xFF	; 255
    3d6e:	20 93 2c 0b 	sts	0x0B2C, r18	; 0x800b2c <movingLegIndex>
			stepLeg[moveLegs[movingLegIndex]].step = 0;
    3d72:	fe 01       	movw	r30, r28
    3d74:	e2 0f       	add	r30, r18
    3d76:	f1 1d       	adc	r31, r1
    3d78:	81 81       	ldd	r24, Z+1	; 0x01
    3d7a:	90 e0       	ldi	r25, 0x00	; 0
    3d7c:	fc 01       	movw	r30, r24
    3d7e:	ee 0f       	add	r30, r30
    3d80:	ff 1f       	adc	r31, r31
    3d82:	8e 0f       	add	r24, r30
    3d84:	9f 1f       	adc	r25, r31
    3d86:	fc 01       	movw	r30, r24
    3d88:	e0 56       	subi	r30, 0x60	; 96
    3d8a:	f2 4f       	sbci	r31, 0xF2	; 242
    3d8c:	10 82       	st	Z, r1
		}
	}
	
	if(
		DrvLegCheckTarget(E_LEG_U_L) &&
    3d8e:	80 e0       	ldi	r24, 0x00	; 0
    3d90:	0e 94 10 0b 	call	0x1620	; 0x1620 <DrvLegCheckTarget>
			movingLegIndex++;
			stepLeg[moveLegs[movingLegIndex]].step = 0;
		}
	}
	
	if(
    3d94:	88 23       	and	r24, r24
    3d96:	09 f4       	brne	.+2      	; 0x3d9a <SrvWalkUpdate+0x22c>
    3d98:	8d c0       	rjmp	.+282    	; 0x3eb4 <SrvWalkUpdate+0x346>
		DrvLegCheckTarget(E_LEG_U_L) &&
		DrvLegCheckTarget(E_LEG_M_L) &&
    3d9a:	81 e0       	ldi	r24, 0x01	; 1
    3d9c:	0e 94 10 0b 	call	0x1620	; 0x1620 <DrvLegCheckTarget>
			stepLeg[moveLegs[movingLegIndex]].step = 0;
		}
	}
	
	if(
		DrvLegCheckTarget(E_LEG_U_L) &&
    3da0:	88 23       	and	r24, r24
    3da2:	09 f4       	brne	.+2      	; 0x3da6 <SrvWalkUpdate+0x238>
    3da4:	87 c0       	rjmp	.+270    	; 0x3eb4 <SrvWalkUpdate+0x346>
		DrvLegCheckTarget(E_LEG_M_L) &&
		DrvLegCheckTarget(E_LEG_B_L) &&
    3da6:	82 e0       	ldi	r24, 0x02	; 2
    3da8:	0e 94 10 0b 	call	0x1620	; 0x1620 <DrvLegCheckTarget>
		}
	}
	
	if(
		DrvLegCheckTarget(E_LEG_U_L) &&
		DrvLegCheckTarget(E_LEG_M_L) &&
    3dac:	88 23       	and	r24, r24
    3dae:	09 f4       	brne	.+2      	; 0x3db2 <SrvWalkUpdate+0x244>
    3db0:	81 c0       	rjmp	.+258    	; 0x3eb4 <SrvWalkUpdate+0x346>
		DrvLegCheckTarget(E_LEG_B_L) &&
		DrvLegCheckTarget(E_LEG_U_R) &&
    3db2:	83 e0       	ldi	r24, 0x03	; 3
    3db4:	0e 94 10 0b 	call	0x1620	; 0x1620 <DrvLegCheckTarget>
	}
	
	if(
		DrvLegCheckTarget(E_LEG_U_L) &&
		DrvLegCheckTarget(E_LEG_M_L) &&
		DrvLegCheckTarget(E_LEG_B_L) &&
    3db8:	88 23       	and	r24, r24
    3dba:	09 f4       	brne	.+2      	; 0x3dbe <SrvWalkUpdate+0x250>
    3dbc:	7b c0       	rjmp	.+246    	; 0x3eb4 <SrvWalkUpdate+0x346>
		DrvLegCheckTarget(E_LEG_U_R) &&
		DrvLegCheckTarget(E_LEG_M_R) &&
    3dbe:	84 e0       	ldi	r24, 0x04	; 4
    3dc0:	0e 94 10 0b 	call	0x1620	; 0x1620 <DrvLegCheckTarget>
	
	if(
		DrvLegCheckTarget(E_LEG_U_L) &&
		DrvLegCheckTarget(E_LEG_M_L) &&
		DrvLegCheckTarget(E_LEG_B_L) &&
		DrvLegCheckTarget(E_LEG_U_R) &&
    3dc4:	88 23       	and	r24, r24
    3dc6:	09 f4       	brne	.+2      	; 0x3dca <SrvWalkUpdate+0x25c>
    3dc8:	75 c0       	rjmp	.+234    	; 0x3eb4 <SrvWalkUpdate+0x346>
		DrvLegCheckTarget(E_LEG_M_R) &&
		DrvLegCheckTarget(E_LEG_B_R)
    3dca:	85 e0       	ldi	r24, 0x05	; 5
    3dcc:	0e 94 10 0b 	call	0x1620	; 0x1620 <DrvLegCheckTarget>
	if(
		DrvLegCheckTarget(E_LEG_U_L) &&
		DrvLegCheckTarget(E_LEG_M_L) &&
		DrvLegCheckTarget(E_LEG_B_L) &&
		DrvLegCheckTarget(E_LEG_U_R) &&
		DrvLegCheckTarget(E_LEG_M_R) &&
    3dd0:	88 23       	and	r24, r24
    3dd2:	09 f4       	brne	.+2      	; 0x3dd6 <SrvWalkUpdate+0x268>
    3dd4:	6f c0       	rjmp	.+222    	; 0x3eb4 <SrvWalkUpdate+0x346>
		DrvLegCheckTarget(E_LEG_B_R)
	)
	{
		updateLeg++;
    3dd6:	80 91 2e 0b 	lds	r24, 0x0B2E	; 0x800b2e <updateLeg>
    3dda:	8f 5f       	subi	r24, 0xFF	; 255
		if(updateLeg == 3)
    3ddc:	83 30       	cpi	r24, 0x03	; 3
    3dde:	19 f0       	breq	.+6      	; 0x3de6 <SrvWalkUpdate+0x278>
		DrvLegCheckTarget(E_LEG_U_R) &&
		DrvLegCheckTarget(E_LEG_M_R) &&
		DrvLegCheckTarget(E_LEG_B_R)
	)
	{
		updateLeg++;
    3de0:	80 93 2e 0b 	sts	0x0B2E, r24	; 0x800b2e <updateLeg>
    3de4:	67 c0       	rjmp	.+206    	; 0x3eb4 <SrvWalkUpdate+0x346>
		if(updateLeg == 3)
		{
			updateLeg = 0;
    3de6:	10 92 2e 0b 	sts	0x0B2E, r1	; 0x800b2e <updateLeg>
			movingLegIndex++;
    3dea:	80 91 2c 0b 	lds	r24, 0x0B2C	; 0x800b2c <movingLegIndex>
    3dee:	8f 5f       	subi	r24, 0xFF	; 255
    3df0:	80 93 2c 0b 	sts	0x0B2C, r24	; 0x800b2c <movingLegIndex>
			if(movingLegIndex == E_NB_LEGS)
    3df4:	86 30       	cpi	r24, 0x06	; 6
    3df6:	09 f0       	breq	.+2      	; 0x3dfa <SrvWalkUpdate+0x28c>
    3df8:	5d c0       	rjmp	.+186    	; 0x3eb4 <SrvWalkUpdate+0x346>
			{
				movingLegIndex = 0;
    3dfa:	10 92 2c 0b 	sts	0x0B2C, r1	; 0x800b2c <movingLegIndex>
    3dfe:	5a c0       	rjmp	.+180    	; 0x3eb4 <SrvWalkUpdate+0x346>
	}
}
//Stop
static void SrvWalkStop ( void )
{
	if(DrvLegCheckTarget(E_LEG_U_L) && DrvLegCheckTarget(E_LEG_M_L) && DrvLegCheckTarget(E_LEG_B_L) && 
    3e00:	80 e0       	ldi	r24, 0x00	; 0
    3e02:	0e 94 10 0b 	call	0x1620	; 0x1620 <DrvLegCheckTarget>
    3e06:	88 23       	and	r24, r24
    3e08:	09 f4       	brne	.+2      	; 0x3e0c <SrvWalkUpdate+0x29e>
    3e0a:	54 c0       	rjmp	.+168    	; 0x3eb4 <SrvWalkUpdate+0x346>
    3e0c:	81 e0       	ldi	r24, 0x01	; 1
    3e0e:	0e 94 10 0b 	call	0x1620	; 0x1620 <DrvLegCheckTarget>
    3e12:	88 23       	and	r24, r24
    3e14:	09 f4       	brne	.+2      	; 0x3e18 <SrvWalkUpdate+0x2aa>
    3e16:	4e c0       	rjmp	.+156    	; 0x3eb4 <SrvWalkUpdate+0x346>
    3e18:	82 e0       	ldi	r24, 0x02	; 2
    3e1a:	0e 94 10 0b 	call	0x1620	; 0x1620 <DrvLegCheckTarget>
    3e1e:	88 23       	and	r24, r24
    3e20:	09 f4       	brne	.+2      	; 0x3e24 <SrvWalkUpdate+0x2b6>
    3e22:	48 c0       	rjmp	.+144    	; 0x3eb4 <SrvWalkUpdate+0x346>
	   DrvLegCheckTarget(E_LEG_U_R) && DrvLegCheckTarget(E_LEG_M_R) && DrvLegCheckTarget(E_LEG_B_R)
    3e24:	83 e0       	ldi	r24, 0x03	; 3
    3e26:	0e 94 10 0b 	call	0x1620	; 0x1620 <DrvLegCheckTarget>
	}
}
//Stop
static void SrvWalkStop ( void )
{
	if(DrvLegCheckTarget(E_LEG_U_L) && DrvLegCheckTarget(E_LEG_M_L) && DrvLegCheckTarget(E_LEG_B_L) && 
    3e2a:	88 23       	and	r24, r24
    3e2c:	09 f4       	brne	.+2      	; 0x3e30 <SrvWalkUpdate+0x2c2>
    3e2e:	42 c0       	rjmp	.+132    	; 0x3eb4 <SrvWalkUpdate+0x346>
	   DrvLegCheckTarget(E_LEG_U_R) && DrvLegCheckTarget(E_LEG_M_R) && DrvLegCheckTarget(E_LEG_B_R)
    3e30:	84 e0       	ldi	r24, 0x04	; 4
    3e32:	0e 94 10 0b 	call	0x1620	; 0x1620 <DrvLegCheckTarget>
    3e36:	88 23       	and	r24, r24
    3e38:	e9 f1       	breq	.+122    	; 0x3eb4 <SrvWalkUpdate+0x346>
    3e3a:	85 e0       	ldi	r24, 0x05	; 5
    3e3c:	0e 94 10 0b 	call	0x1620	; 0x1620 <DrvLegCheckTarget>
    3e40:	88 23       	and	r24, r24
    3e42:	c1 f1       	breq	.+112    	; 0x3eb4 <SrvWalkUpdate+0x346>
	)
	{
		DrvLegSetPosition(E_LEG_U_L, LEG_COXA_U_L_MID, LEG_FEMUR_U_L_MAX, LEG_TIBIA_U_L_MAX, 0);
    3e44:	00 e0       	ldi	r16, 0x00	; 0
    3e46:	10 e0       	ldi	r17, 0x00	; 0
    3e48:	2c e3       	ldi	r18, 0x3C	; 60
    3e4a:	30 e0       	ldi	r19, 0x00	; 0
    3e4c:	40 e5       	ldi	r20, 0x50	; 80
    3e4e:	50 e0       	ldi	r21, 0x00	; 0
    3e50:	6b ef       	ldi	r22, 0xFB	; 251
    3e52:	7f ef       	ldi	r23, 0xFF	; 255
    3e54:	80 e0       	ldi	r24, 0x00	; 0
    3e56:	0e 94 dc 0d 	call	0x1bb8	; 0x1bb8 <DrvLegSetPosition>
		DrvLegSetPosition(E_LEG_M_L, LEG_COXA_M_L_MID, LEG_FEMUR_M_L_MAX, LEG_TIBIA_M_L_MAX, 0);
    3e5a:	2c e3       	ldi	r18, 0x3C	; 60
    3e5c:	30 e0       	ldi	r19, 0x00	; 0
    3e5e:	43 e5       	ldi	r20, 0x53	; 83
    3e60:	50 e0       	ldi	r21, 0x00	; 0
    3e62:	66 ef       	ldi	r22, 0xF6	; 246
    3e64:	7f ef       	ldi	r23, 0xFF	; 255
    3e66:	81 e0       	ldi	r24, 0x01	; 1
    3e68:	0e 94 dc 0d 	call	0x1bb8	; 0x1bb8 <DrvLegSetPosition>
		DrvLegSetPosition(E_LEG_B_L, LEG_COXA_B_L_MID, LEG_FEMUR_B_L_MAX, LEG_TIBIA_B_L_MAX, 0);
    3e6c:	2d e3       	ldi	r18, 0x3D	; 61
    3e6e:	30 e0       	ldi	r19, 0x00	; 0
    3e70:	4b e4       	ldi	r20, 0x4B	; 75
    3e72:	50 e0       	ldi	r21, 0x00	; 0
    3e74:	6a e0       	ldi	r22, 0x0A	; 10
    3e76:	70 e0       	ldi	r23, 0x00	; 0
    3e78:	82 e0       	ldi	r24, 0x02	; 2
    3e7a:	0e 94 dc 0d 	call	0x1bb8	; 0x1bb8 <DrvLegSetPosition>
		DrvLegSetPosition(E_LEG_U_R, LEG_COXA_U_R_MID, LEG_FEMUR_U_R_MIN, LEG_TIBIA_U_R_MIN, 0);
    3e7e:	2e ec       	ldi	r18, 0xCE	; 206
    3e80:	3f ef       	ldi	r19, 0xFF	; 255
    3e82:	4f ea       	ldi	r20, 0xAF	; 175
    3e84:	5f ef       	ldi	r21, 0xFF	; 255
    3e86:	62 e3       	ldi	r22, 0x32	; 50
    3e88:	70 e0       	ldi	r23, 0x00	; 0
    3e8a:	83 e0       	ldi	r24, 0x03	; 3
    3e8c:	0e 94 dc 0d 	call	0x1bb8	; 0x1bb8 <DrvLegSetPosition>
		DrvLegSetPosition(E_LEG_M_R, LEG_COXA_M_R_MID, LEG_FEMUR_M_R_MIN, LEG_TIBIA_M_R_MIN, 0);
    3e90:	28 ec       	ldi	r18, 0xC8	; 200
    3e92:	3f ef       	ldi	r19, 0xFF	; 255
    3e94:	4c eb       	ldi	r20, 0xBC	; 188
    3e96:	5f ef       	ldi	r21, 0xFF	; 255
    3e98:	67 e2       	ldi	r22, 0x27	; 39
    3e9a:	70 e0       	ldi	r23, 0x00	; 0
    3e9c:	84 e0       	ldi	r24, 0x04	; 4
    3e9e:	0e 94 dc 0d 	call	0x1bb8	; 0x1bb8 <DrvLegSetPosition>
		DrvLegSetPosition(E_LEG_B_R, LEG_COXA_B_R_MID, LEG_FEMUR_B_R_MIN, LEG_TIBIA_B_R_MIN, 0);
    3ea2:	24 ec       	ldi	r18, 0xC4	; 196
    3ea4:	3f ef       	ldi	r19, 0xFF	; 255
    3ea6:	42 eb       	ldi	r20, 0xB2	; 178
    3ea8:	5f ef       	ldi	r21, 0xFF	; 255
    3eaa:	6b ef       	ldi	r22, 0xFB	; 251
    3eac:	7f ef       	ldi	r23, 0xFF	; 255
    3eae:	85 e0       	ldi	r24, 0x05	; 5
    3eb0:	0e 94 dc 0d 	call	0x1bb8	; 0x1bb8 <DrvLegSetPosition>
		SrvWalkStop();
	}

//prevMillisWalkUpdate = DrvTickGetTimeMs();
	//update legs
	DrvLegUpdate();
    3eb4:	0e 94 02 0e 	call	0x1c04	; 0x1c04 <DrvLegUpdate>
}
    3eb8:	26 96       	adiw	r28, 0x06	; 6
    3eba:	0f b6       	in	r0, 0x3f	; 63
    3ebc:	f8 94       	cli
    3ebe:	de bf       	out	0x3e, r29	; 62
    3ec0:	0f be       	out	0x3f, r0	; 63
    3ec2:	cd bf       	out	0x3d, r28	; 61
    3ec4:	df 91       	pop	r29
    3ec6:	cf 91       	pop	r28
    3ec8:	1f 91       	pop	r17
    3eca:	0f 91       	pop	r16
    3ecc:	08 95       	ret

00003ece <SrvWalkSetWalk>:

Boolean SrvWalkSetWalk( E_WALK walk, uint16_t delay )
{
    Boolean oSuccess = FALSE;
	
	if(walking != walk)
    3ece:	90 91 9c 0d 	lds	r25, 0x0D9C	; 0x800d9c <walking>
    3ed2:	98 17       	cp	r25, r24
    3ed4:	39 f0       	breq	.+14     	; 0x3ee4 <SrvWalkSetWalk+0x16>
	{
		walking = walk;
    3ed6:	80 93 9c 0d 	sts	0x0D9C, r24	; 0x800d9c <walking>
		walkingDelay = delay;
    3eda:	70 93 9e 0d 	sts	0x0D9E, r23	; 0x800d9e <walkingDelay+0x1>
    3ede:	60 93 9d 0d 	sts	0x0D9D, r22	; 0x800d9d <walkingDelay>
    3ee2:	04 c0       	rjmp	.+8      	; 0x3eec <SrvWalkSetWalk+0x1e>
		oSuccess = TRUE;
	}
	else
	{
		walkingDelay = delay;
    3ee4:	70 93 9e 0d 	sts	0x0D9E, r23	; 0x800d9e <walkingDelay+0x1>
    3ee8:	60 93 9d 0d 	sts	0x0D9D, r22	; 0x800d9d <walkingDelay>
		oSuccess = TRUE;
	}
    return oSuccess;
}
    3eec:	81 e0       	ldi	r24, 0x01	; 1
    3eee:	08 95       	ret

00003ef0 <SrvWalkSetGait>:

Boolean SrvWalkSetGait( E_GAIT gait, uint16_t delay )
{
	Boolean oSuccess = FALSE;
	
	if(gaiting != gait)
    3ef0:	90 91 9f 0d 	lds	r25, 0x0D9F	; 0x800d9f <gaiting>
    3ef4:	98 17       	cp	r25, r24
    3ef6:	39 f0       	breq	.+14     	; 0x3f06 <SrvWalkSetGait+0x16>
	{
		gaiting = gait;
    3ef8:	80 93 9f 0d 	sts	0x0D9F, r24	; 0x800d9f <gaiting>
		walkingDelay = delay;
    3efc:	70 93 9e 0d 	sts	0x0D9E, r23	; 0x800d9e <walkingDelay+0x1>
    3f00:	60 93 9d 0d 	sts	0x0D9D, r22	; 0x800d9d <walkingDelay>
    3f04:	04 c0       	rjmp	.+8      	; 0x3f0e <SrvWalkSetGait+0x1e>
		oSuccess = TRUE;
	}
	else
	{
		walkingDelay = delay;
    3f06:	70 93 9e 0d 	sts	0x0D9E, r23	; 0x800d9e <walkingDelay+0x1>
    3f0a:	60 93 9d 0d 	sts	0x0D9D, r22	; 0x800d9d <walkingDelay>
		oSuccess = TRUE;
	}
	return oSuccess;
}
    3f0e:	81 e0       	ldi	r24, 0x01	; 1
    3f10:	08 95       	ret

00003f12 <SrvWalkInit>:
//Fonction d'initialisation
//return : TRUE si ok
Boolean SrvWalkInit ( void )
{
    Boolean oSuccess = TRUE;
	SrvWalkSetWalk(E_WALK_STOP, 0U);
    3f12:	60 e0       	ldi	r22, 0x00	; 0
    3f14:	70 e0       	ldi	r23, 0x00	; 0
    3f16:	80 e0       	ldi	r24, 0x00	; 0
    3f18:	da df       	rcall	.-76     	; 0x3ece <SrvWalkSetWalk>
	SrvWalkSetGait(E_GAITS_TRIPOD, 0U);
    3f1a:	60 e0       	ldi	r22, 0x00	; 0
    3f1c:	70 e0       	ldi	r23, 0x00	; 0
    3f1e:	80 e0       	ldi	r24, 0x00	; 0
    3f20:	e7 df       	rcall	.-50     	; 0x3ef0 <SrvWalkSetGait>
    return oSuccess;
}
    3f22:	81 e0       	ldi	r24, 0x01	; 1
    3f24:	08 95       	ret

00003f26 <acos>:
    3f26:	9f 93       	push	r25
    3f28:	9f 77       	andi	r25, 0x7F	; 127
    3f2a:	88 d1       	rcall	.+784    	; 0x423c <__fp_arccos>
    3f2c:	0f 90       	pop	r0
    3f2e:	00 20       	and	r0, r0
    3f30:	3a f4       	brpl	.+14     	; 0x3f40 <acos+0x1a>
    3f32:	90 58       	subi	r25, 0x80	; 128
    3f34:	a2 ea       	ldi	r26, 0xA2	; 162
    3f36:	2a ed       	ldi	r18, 0xDA	; 218
    3f38:	3f e0       	ldi	r19, 0x0F	; 15
    3f3a:	49 e4       	ldi	r20, 0x49	; 73
    3f3c:	50 e4       	ldi	r21, 0x40	; 64
    3f3e:	13 d0       	rcall	.+38     	; 0x3f66 <__addsf3x>
    3f40:	49 c2       	rjmp	.+1170   	; 0x43d4 <__fp_round>

00003f42 <__subsf3>:
    3f42:	50 58       	subi	r21, 0x80	; 128

00003f44 <__addsf3>:
    3f44:	bb 27       	eor	r27, r27
    3f46:	aa 27       	eor	r26, r26
    3f48:	0e d0       	rcall	.+28     	; 0x3f66 <__addsf3x>
    3f4a:	44 c2       	rjmp	.+1160   	; 0x43d4 <__fp_round>
    3f4c:	0d d2       	rcall	.+1050   	; 0x4368 <__fp_pscA>
    3f4e:	30 f0       	brcs	.+12     	; 0x3f5c <__addsf3+0x18>
    3f50:	12 d2       	rcall	.+1060   	; 0x4376 <__fp_pscB>
    3f52:	20 f0       	brcs	.+8      	; 0x3f5c <__addsf3+0x18>
    3f54:	31 f4       	brne	.+12     	; 0x3f62 <__addsf3+0x1e>
    3f56:	9f 3f       	cpi	r25, 0xFF	; 255
    3f58:	11 f4       	brne	.+4      	; 0x3f5e <__addsf3+0x1a>
    3f5a:	1e f4       	brtc	.+6      	; 0x3f62 <__addsf3+0x1e>
    3f5c:	dd c1       	rjmp	.+954    	; 0x4318 <__fp_nan>
    3f5e:	0e f4       	brtc	.+2      	; 0x3f62 <__addsf3+0x1e>
    3f60:	e0 95       	com	r30
    3f62:	e7 fb       	bst	r30, 7
    3f64:	aa c1       	rjmp	.+852    	; 0x42ba <__fp_inf>

00003f66 <__addsf3x>:
    3f66:	e9 2f       	mov	r30, r25
    3f68:	57 d2       	rcall	.+1198   	; 0x4418 <__fp_split3>
    3f6a:	80 f3       	brcs	.-32     	; 0x3f4c <__addsf3+0x8>
    3f6c:	ba 17       	cp	r27, r26
    3f6e:	62 07       	cpc	r22, r18
    3f70:	73 07       	cpc	r23, r19
    3f72:	84 07       	cpc	r24, r20
    3f74:	95 07       	cpc	r25, r21
    3f76:	18 f0       	brcs	.+6      	; 0x3f7e <__addsf3x+0x18>
    3f78:	71 f4       	brne	.+28     	; 0x3f96 <__addsf3x+0x30>
    3f7a:	9e f5       	brtc	.+102    	; 0x3fe2 <__addsf3x+0x7c>
    3f7c:	86 c2       	rjmp	.+1292   	; 0x448a <__fp_zero>
    3f7e:	0e f4       	brtc	.+2      	; 0x3f82 <__addsf3x+0x1c>
    3f80:	e0 95       	com	r30
    3f82:	0b 2e       	mov	r0, r27
    3f84:	ba 2f       	mov	r27, r26
    3f86:	a0 2d       	mov	r26, r0
    3f88:	0b 01       	movw	r0, r22
    3f8a:	b9 01       	movw	r22, r18
    3f8c:	90 01       	movw	r18, r0
    3f8e:	0c 01       	movw	r0, r24
    3f90:	ca 01       	movw	r24, r20
    3f92:	a0 01       	movw	r20, r0
    3f94:	11 24       	eor	r1, r1
    3f96:	ff 27       	eor	r31, r31
    3f98:	59 1b       	sub	r21, r25
    3f9a:	99 f0       	breq	.+38     	; 0x3fc2 <__addsf3x+0x5c>
    3f9c:	59 3f       	cpi	r21, 0xF9	; 249
    3f9e:	50 f4       	brcc	.+20     	; 0x3fb4 <__addsf3x+0x4e>
    3fa0:	50 3e       	cpi	r21, 0xE0	; 224
    3fa2:	68 f1       	brcs	.+90     	; 0x3ffe <__addsf3x+0x98>
    3fa4:	1a 16       	cp	r1, r26
    3fa6:	f0 40       	sbci	r31, 0x00	; 0
    3fa8:	a2 2f       	mov	r26, r18
    3faa:	23 2f       	mov	r18, r19
    3fac:	34 2f       	mov	r19, r20
    3fae:	44 27       	eor	r20, r20
    3fb0:	58 5f       	subi	r21, 0xF8	; 248
    3fb2:	f3 cf       	rjmp	.-26     	; 0x3f9a <__addsf3x+0x34>
    3fb4:	46 95       	lsr	r20
    3fb6:	37 95       	ror	r19
    3fb8:	27 95       	ror	r18
    3fba:	a7 95       	ror	r26
    3fbc:	f0 40       	sbci	r31, 0x00	; 0
    3fbe:	53 95       	inc	r21
    3fc0:	c9 f7       	brne	.-14     	; 0x3fb4 <__addsf3x+0x4e>
    3fc2:	7e f4       	brtc	.+30     	; 0x3fe2 <__addsf3x+0x7c>
    3fc4:	1f 16       	cp	r1, r31
    3fc6:	ba 0b       	sbc	r27, r26
    3fc8:	62 0b       	sbc	r22, r18
    3fca:	73 0b       	sbc	r23, r19
    3fcc:	84 0b       	sbc	r24, r20
    3fce:	ba f0       	brmi	.+46     	; 0x3ffe <__addsf3x+0x98>
    3fd0:	91 50       	subi	r25, 0x01	; 1
    3fd2:	a1 f0       	breq	.+40     	; 0x3ffc <__addsf3x+0x96>
    3fd4:	ff 0f       	add	r31, r31
    3fd6:	bb 1f       	adc	r27, r27
    3fd8:	66 1f       	adc	r22, r22
    3fda:	77 1f       	adc	r23, r23
    3fdc:	88 1f       	adc	r24, r24
    3fde:	c2 f7       	brpl	.-16     	; 0x3fd0 <__addsf3x+0x6a>
    3fe0:	0e c0       	rjmp	.+28     	; 0x3ffe <__addsf3x+0x98>
    3fe2:	ba 0f       	add	r27, r26
    3fe4:	62 1f       	adc	r22, r18
    3fe6:	73 1f       	adc	r23, r19
    3fe8:	84 1f       	adc	r24, r20
    3fea:	48 f4       	brcc	.+18     	; 0x3ffe <__addsf3x+0x98>
    3fec:	87 95       	ror	r24
    3fee:	77 95       	ror	r23
    3ff0:	67 95       	ror	r22
    3ff2:	b7 95       	ror	r27
    3ff4:	f7 95       	ror	r31
    3ff6:	9e 3f       	cpi	r25, 0xFE	; 254
    3ff8:	08 f0       	brcs	.+2      	; 0x3ffc <__addsf3x+0x96>
    3ffa:	b3 cf       	rjmp	.-154    	; 0x3f62 <__addsf3+0x1e>
    3ffc:	93 95       	inc	r25
    3ffe:	88 0f       	add	r24, r24
    4000:	08 f0       	brcs	.+2      	; 0x4004 <__addsf3x+0x9e>
    4002:	99 27       	eor	r25, r25
    4004:	ee 0f       	add	r30, r30
    4006:	97 95       	ror	r25
    4008:	87 95       	ror	r24
    400a:	08 95       	ret

0000400c <atan>:
    400c:	df 93       	push	r29
    400e:	dd 27       	eor	r29, r29
    4010:	b9 2f       	mov	r27, r25
    4012:	bf 77       	andi	r27, 0x7F	; 127
    4014:	40 e8       	ldi	r20, 0x80	; 128
    4016:	5f e3       	ldi	r21, 0x3F	; 63
    4018:	16 16       	cp	r1, r22
    401a:	17 06       	cpc	r1, r23
    401c:	48 07       	cpc	r20, r24
    401e:	5b 07       	cpc	r21, r27
    4020:	10 f4       	brcc	.+4      	; 0x4026 <atan+0x1a>
    4022:	d9 2f       	mov	r29, r25
    4024:	3d d2       	rcall	.+1146   	; 0x44a0 <inverse>
    4026:	9f 93       	push	r25
    4028:	8f 93       	push	r24
    402a:	7f 93       	push	r23
    402c:	6f 93       	push	r22
    402e:	0a d3       	rcall	.+1556   	; 0x4644 <square>
    4030:	ec e8       	ldi	r30, 0x8C	; 140
    4032:	f0 e0       	ldi	r31, 0x00	; 0
    4034:	74 d1       	rcall	.+744    	; 0x431e <__fp_powser>
    4036:	ce d1       	rcall	.+924    	; 0x43d4 <__fp_round>
    4038:	2f 91       	pop	r18
    403a:	3f 91       	pop	r19
    403c:	4f 91       	pop	r20
    403e:	5f 91       	pop	r21
    4040:	42 d2       	rcall	.+1156   	; 0x44c6 <__mulsf3x>
    4042:	dd 23       	and	r29, r29
    4044:	49 f0       	breq	.+18     	; 0x4058 <atan+0x4c>
    4046:	90 58       	subi	r25, 0x80	; 128
    4048:	a2 ea       	ldi	r26, 0xA2	; 162
    404a:	2a ed       	ldi	r18, 0xDA	; 218
    404c:	3f e0       	ldi	r19, 0x0F	; 15
    404e:	49 ec       	ldi	r20, 0xC9	; 201
    4050:	5f e3       	ldi	r21, 0x3F	; 63
    4052:	d0 78       	andi	r29, 0x80	; 128
    4054:	5d 27       	eor	r21, r29
    4056:	87 df       	rcall	.-242    	; 0x3f66 <__addsf3x>
    4058:	df 91       	pop	r29
    405a:	bc c1       	rjmp	.+888    	; 0x43d4 <__fp_round>

0000405c <__cmpsf2>:
    405c:	0a d1       	rcall	.+532    	; 0x4272 <__fp_cmp>
    405e:	08 f4       	brcc	.+2      	; 0x4062 <__cmpsf2+0x6>
    4060:	81 e0       	ldi	r24, 0x01	; 1
    4062:	08 95       	ret

00004064 <cos>:
    4064:	90 d1       	rcall	.+800    	; 0x4386 <__fp_rempio2>
    4066:	e3 95       	inc	r30
    4068:	c6 c1       	rjmp	.+908    	; 0x43f6 <__fp_sinus>

0000406a <__divsf3>:
    406a:	0c d0       	rcall	.+24     	; 0x4084 <__divsf3x>
    406c:	b3 c1       	rjmp	.+870    	; 0x43d4 <__fp_round>
    406e:	83 d1       	rcall	.+774    	; 0x4376 <__fp_pscB>
    4070:	40 f0       	brcs	.+16     	; 0x4082 <__divsf3+0x18>
    4072:	7a d1       	rcall	.+756    	; 0x4368 <__fp_pscA>
    4074:	30 f0       	brcs	.+12     	; 0x4082 <__divsf3+0x18>
    4076:	21 f4       	brne	.+8      	; 0x4080 <__divsf3+0x16>
    4078:	5f 3f       	cpi	r21, 0xFF	; 255
    407a:	19 f0       	breq	.+6      	; 0x4082 <__divsf3+0x18>
    407c:	1e c1       	rjmp	.+572    	; 0x42ba <__fp_inf>
    407e:	51 11       	cpse	r21, r1
    4080:	05 c2       	rjmp	.+1034   	; 0x448c <__fp_szero>
    4082:	4a c1       	rjmp	.+660    	; 0x4318 <__fp_nan>

00004084 <__divsf3x>:
    4084:	c9 d1       	rcall	.+914    	; 0x4418 <__fp_split3>
    4086:	98 f3       	brcs	.-26     	; 0x406e <__divsf3+0x4>

00004088 <__divsf3_pse>:
    4088:	99 23       	and	r25, r25
    408a:	c9 f3       	breq	.-14     	; 0x407e <__divsf3+0x14>
    408c:	55 23       	and	r21, r21
    408e:	b1 f3       	breq	.-20     	; 0x407c <__divsf3+0x12>
    4090:	95 1b       	sub	r25, r21
    4092:	55 0b       	sbc	r21, r21
    4094:	bb 27       	eor	r27, r27
    4096:	aa 27       	eor	r26, r26
    4098:	62 17       	cp	r22, r18
    409a:	73 07       	cpc	r23, r19
    409c:	84 07       	cpc	r24, r20
    409e:	38 f0       	brcs	.+14     	; 0x40ae <__divsf3_pse+0x26>
    40a0:	9f 5f       	subi	r25, 0xFF	; 255
    40a2:	5f 4f       	sbci	r21, 0xFF	; 255
    40a4:	22 0f       	add	r18, r18
    40a6:	33 1f       	adc	r19, r19
    40a8:	44 1f       	adc	r20, r20
    40aa:	aa 1f       	adc	r26, r26
    40ac:	a9 f3       	breq	.-22     	; 0x4098 <__divsf3_pse+0x10>
    40ae:	33 d0       	rcall	.+102    	; 0x4116 <__stack+0x17>
    40b0:	0e 2e       	mov	r0, r30
    40b2:	3a f0       	brmi	.+14     	; 0x40c2 <__divsf3_pse+0x3a>
    40b4:	e0 e8       	ldi	r30, 0x80	; 128
    40b6:	30 d0       	rcall	.+96     	; 0x4118 <__stack+0x19>
    40b8:	91 50       	subi	r25, 0x01	; 1
    40ba:	50 40       	sbci	r21, 0x00	; 0
    40bc:	e6 95       	lsr	r30
    40be:	00 1c       	adc	r0, r0
    40c0:	ca f7       	brpl	.-14     	; 0x40b4 <__divsf3_pse+0x2c>
    40c2:	29 d0       	rcall	.+82     	; 0x4116 <__stack+0x17>
    40c4:	fe 2f       	mov	r31, r30
    40c6:	27 d0       	rcall	.+78     	; 0x4116 <__stack+0x17>
    40c8:	66 0f       	add	r22, r22
    40ca:	77 1f       	adc	r23, r23
    40cc:	88 1f       	adc	r24, r24
    40ce:	bb 1f       	adc	r27, r27
    40d0:	26 17       	cp	r18, r22
    40d2:	37 07       	cpc	r19, r23
    40d4:	48 07       	cpc	r20, r24
    40d6:	ab 07       	cpc	r26, r27
    40d8:	b0 e8       	ldi	r27, 0x80	; 128
    40da:	09 f0       	breq	.+2      	; 0x40de <__divsf3_pse+0x56>
    40dc:	bb 0b       	sbc	r27, r27
    40de:	80 2d       	mov	r24, r0
    40e0:	bf 01       	movw	r22, r30
    40e2:	ff 27       	eor	r31, r31
    40e4:	93 58       	subi	r25, 0x83	; 131
    40e6:	5f 4f       	sbci	r21, 0xFF	; 255
    40e8:	2a f0       	brmi	.+10     	; 0x40f4 <__divsf3_pse+0x6c>
    40ea:	9e 3f       	cpi	r25, 0xFE	; 254
    40ec:	51 05       	cpc	r21, r1
    40ee:	68 f0       	brcs	.+26     	; 0x410a <__stack+0xb>
    40f0:	e4 c0       	rjmp	.+456    	; 0x42ba <__fp_inf>
    40f2:	cc c1       	rjmp	.+920    	; 0x448c <__fp_szero>
    40f4:	5f 3f       	cpi	r21, 0xFF	; 255
    40f6:	ec f3       	brlt	.-6      	; 0x40f2 <__divsf3_pse+0x6a>
    40f8:	98 3e       	cpi	r25, 0xE8	; 232
    40fa:	dc f3       	brlt	.-10     	; 0x40f2 <__divsf3_pse+0x6a>
    40fc:	86 95       	lsr	r24
    40fe:	77 95       	ror	r23
    4100:	67 95       	ror	r22
    4102:	b7 95       	ror	r27
    4104:	f7 95       	ror	r31
    4106:	9f 5f       	subi	r25, 0xFF	; 255
    4108:	c9 f7       	brne	.-14     	; 0x40fc <__divsf3_pse+0x74>
    410a:	88 0f       	add	r24, r24
    410c:	91 1d       	adc	r25, r1
    410e:	96 95       	lsr	r25
    4110:	87 95       	ror	r24
    4112:	97 f9       	bld	r25, 7
    4114:	08 95       	ret
    4116:	e1 e0       	ldi	r30, 0x01	; 1
    4118:	66 0f       	add	r22, r22
    411a:	77 1f       	adc	r23, r23
    411c:	88 1f       	adc	r24, r24
    411e:	bb 1f       	adc	r27, r27
    4120:	62 17       	cp	r22, r18
    4122:	73 07       	cpc	r23, r19
    4124:	84 07       	cpc	r24, r20
    4126:	ba 07       	cpc	r27, r26
    4128:	20 f0       	brcs	.+8      	; 0x4132 <__stack+0x33>
    412a:	62 1b       	sub	r22, r18
    412c:	73 0b       	sbc	r23, r19
    412e:	84 0b       	sbc	r24, r20
    4130:	ba 0b       	sbc	r27, r26
    4132:	ee 1f       	adc	r30, r30
    4134:	88 f7       	brcc	.-30     	; 0x4118 <__stack+0x19>
    4136:	e0 95       	com	r30
    4138:	08 95       	ret

0000413a <__fixsfsi>:
    413a:	04 d0       	rcall	.+8      	; 0x4144 <__fixunssfsi>
    413c:	68 94       	set
    413e:	b1 11       	cpse	r27, r1
    4140:	a5 c1       	rjmp	.+842    	; 0x448c <__fp_szero>
    4142:	08 95       	ret

00004144 <__fixunssfsi>:
    4144:	71 d1       	rcall	.+738    	; 0x4428 <__fp_splitA>
    4146:	88 f0       	brcs	.+34     	; 0x416a <__fixunssfsi+0x26>
    4148:	9f 57       	subi	r25, 0x7F	; 127
    414a:	90 f0       	brcs	.+36     	; 0x4170 <__fixunssfsi+0x2c>
    414c:	b9 2f       	mov	r27, r25
    414e:	99 27       	eor	r25, r25
    4150:	b7 51       	subi	r27, 0x17	; 23
    4152:	a0 f0       	brcs	.+40     	; 0x417c <__fixunssfsi+0x38>
    4154:	d1 f0       	breq	.+52     	; 0x418a <__fixunssfsi+0x46>
    4156:	66 0f       	add	r22, r22
    4158:	77 1f       	adc	r23, r23
    415a:	88 1f       	adc	r24, r24
    415c:	99 1f       	adc	r25, r25
    415e:	1a f0       	brmi	.+6      	; 0x4166 <__fixunssfsi+0x22>
    4160:	ba 95       	dec	r27
    4162:	c9 f7       	brne	.-14     	; 0x4156 <__fixunssfsi+0x12>
    4164:	12 c0       	rjmp	.+36     	; 0x418a <__fixunssfsi+0x46>
    4166:	b1 30       	cpi	r27, 0x01	; 1
    4168:	81 f0       	breq	.+32     	; 0x418a <__fixunssfsi+0x46>
    416a:	8f d1       	rcall	.+798    	; 0x448a <__fp_zero>
    416c:	b1 e0       	ldi	r27, 0x01	; 1
    416e:	08 95       	ret
    4170:	8c c1       	rjmp	.+792    	; 0x448a <__fp_zero>
    4172:	67 2f       	mov	r22, r23
    4174:	78 2f       	mov	r23, r24
    4176:	88 27       	eor	r24, r24
    4178:	b8 5f       	subi	r27, 0xF8	; 248
    417a:	39 f0       	breq	.+14     	; 0x418a <__fixunssfsi+0x46>
    417c:	b9 3f       	cpi	r27, 0xF9	; 249
    417e:	cc f3       	brlt	.-14     	; 0x4172 <__fixunssfsi+0x2e>
    4180:	86 95       	lsr	r24
    4182:	77 95       	ror	r23
    4184:	67 95       	ror	r22
    4186:	b3 95       	inc	r27
    4188:	d9 f7       	brne	.-10     	; 0x4180 <__fixunssfsi+0x3c>
    418a:	3e f4       	brtc	.+14     	; 0x419a <__fixunssfsi+0x56>
    418c:	90 95       	com	r25
    418e:	80 95       	com	r24
    4190:	70 95       	com	r23
    4192:	61 95       	neg	r22
    4194:	7f 4f       	sbci	r23, 0xFF	; 255
    4196:	8f 4f       	sbci	r24, 0xFF	; 255
    4198:	9f 4f       	sbci	r25, 0xFF	; 255
    419a:	08 95       	ret

0000419c <__floatunsisf>:
    419c:	e8 94       	clt
    419e:	09 c0       	rjmp	.+18     	; 0x41b2 <__floatsisf+0x12>

000041a0 <__floatsisf>:
    41a0:	97 fb       	bst	r25, 7
    41a2:	3e f4       	brtc	.+14     	; 0x41b2 <__floatsisf+0x12>
    41a4:	90 95       	com	r25
    41a6:	80 95       	com	r24
    41a8:	70 95       	com	r23
    41aa:	61 95       	neg	r22
    41ac:	7f 4f       	sbci	r23, 0xFF	; 255
    41ae:	8f 4f       	sbci	r24, 0xFF	; 255
    41b0:	9f 4f       	sbci	r25, 0xFF	; 255
    41b2:	99 23       	and	r25, r25
    41b4:	a9 f0       	breq	.+42     	; 0x41e0 <__floatsisf+0x40>
    41b6:	f9 2f       	mov	r31, r25
    41b8:	96 e9       	ldi	r25, 0x96	; 150
    41ba:	bb 27       	eor	r27, r27
    41bc:	93 95       	inc	r25
    41be:	f6 95       	lsr	r31
    41c0:	87 95       	ror	r24
    41c2:	77 95       	ror	r23
    41c4:	67 95       	ror	r22
    41c6:	b7 95       	ror	r27
    41c8:	f1 11       	cpse	r31, r1
    41ca:	f8 cf       	rjmp	.-16     	; 0x41bc <__floatsisf+0x1c>
    41cc:	fa f4       	brpl	.+62     	; 0x420c <__floatsisf+0x6c>
    41ce:	bb 0f       	add	r27, r27
    41d0:	11 f4       	brne	.+4      	; 0x41d6 <__floatsisf+0x36>
    41d2:	60 ff       	sbrs	r22, 0
    41d4:	1b c0       	rjmp	.+54     	; 0x420c <__floatsisf+0x6c>
    41d6:	6f 5f       	subi	r22, 0xFF	; 255
    41d8:	7f 4f       	sbci	r23, 0xFF	; 255
    41da:	8f 4f       	sbci	r24, 0xFF	; 255
    41dc:	9f 4f       	sbci	r25, 0xFF	; 255
    41de:	16 c0       	rjmp	.+44     	; 0x420c <__floatsisf+0x6c>
    41e0:	88 23       	and	r24, r24
    41e2:	11 f0       	breq	.+4      	; 0x41e8 <__floatsisf+0x48>
    41e4:	96 e9       	ldi	r25, 0x96	; 150
    41e6:	11 c0       	rjmp	.+34     	; 0x420a <__floatsisf+0x6a>
    41e8:	77 23       	and	r23, r23
    41ea:	21 f0       	breq	.+8      	; 0x41f4 <__floatsisf+0x54>
    41ec:	9e e8       	ldi	r25, 0x8E	; 142
    41ee:	87 2f       	mov	r24, r23
    41f0:	76 2f       	mov	r23, r22
    41f2:	05 c0       	rjmp	.+10     	; 0x41fe <__floatsisf+0x5e>
    41f4:	66 23       	and	r22, r22
    41f6:	71 f0       	breq	.+28     	; 0x4214 <__floatsisf+0x74>
    41f8:	96 e8       	ldi	r25, 0x86	; 134
    41fa:	86 2f       	mov	r24, r22
    41fc:	70 e0       	ldi	r23, 0x00	; 0
    41fe:	60 e0       	ldi	r22, 0x00	; 0
    4200:	2a f0       	brmi	.+10     	; 0x420c <__floatsisf+0x6c>
    4202:	9a 95       	dec	r25
    4204:	66 0f       	add	r22, r22
    4206:	77 1f       	adc	r23, r23
    4208:	88 1f       	adc	r24, r24
    420a:	da f7       	brpl	.-10     	; 0x4202 <__floatsisf+0x62>
    420c:	88 0f       	add	r24, r24
    420e:	96 95       	lsr	r25
    4210:	87 95       	ror	r24
    4212:	97 f9       	bld	r25, 7
    4214:	08 95       	ret

00004216 <floor>:
    4216:	22 d1       	rcall	.+580    	; 0x445c <__fp_trunc>
    4218:	80 f0       	brcs	.+32     	; 0x423a <floor+0x24>
    421a:	9f 37       	cpi	r25, 0x7F	; 127
    421c:	40 f4       	brcc	.+16     	; 0x422e <floor+0x18>
    421e:	91 11       	cpse	r25, r1
    4220:	0e f0       	brts	.+2      	; 0x4224 <floor+0xe>
    4222:	34 c1       	rjmp	.+616    	; 0x448c <__fp_szero>
    4224:	60 e0       	ldi	r22, 0x00	; 0
    4226:	70 e0       	ldi	r23, 0x00	; 0
    4228:	80 e8       	ldi	r24, 0x80	; 128
    422a:	9f eb       	ldi	r25, 0xBF	; 191
    422c:	08 95       	ret
    422e:	26 f4       	brtc	.+8      	; 0x4238 <floor+0x22>
    4230:	1b 16       	cp	r1, r27
    4232:	61 1d       	adc	r22, r1
    4234:	71 1d       	adc	r23, r1
    4236:	81 1d       	adc	r24, r1
    4238:	46 c0       	rjmp	.+140    	; 0x42c6 <__fp_mintl>
    423a:	60 c0       	rjmp	.+192    	; 0x42fc <__fp_mpack>

0000423c <__fp_arccos>:
    423c:	df 93       	push	r29
    423e:	cf 93       	push	r28
    4240:	1f 93       	push	r17
    4242:	0f 93       	push	r16
    4244:	8b 01       	movw	r16, r22
    4246:	ec 01       	movw	r28, r24
    4248:	e9 eb       	ldi	r30, 0xB9	; 185
    424a:	f0 e0       	ldi	r31, 0x00	; 0
    424c:	68 d0       	rcall	.+208    	; 0x431e <__fp_powser>
    424e:	c2 d0       	rcall	.+388    	; 0x43d4 <__fp_round>
    4250:	98 01       	movw	r18, r16
    4252:	ae 01       	movw	r20, r28
    4254:	8b 01       	movw	r16, r22
    4256:	ec 01       	movw	r28, r24
    4258:	60 e0       	ldi	r22, 0x00	; 0
    425a:	70 e0       	ldi	r23, 0x00	; 0
    425c:	80 e8       	ldi	r24, 0x80	; 128
    425e:	9f e3       	ldi	r25, 0x3F	; 63
    4260:	70 de       	rcall	.-800    	; 0x3f42 <__subsf3>
    4262:	b2 d1       	rcall	.+868    	; 0x45c8 <sqrt>
    4264:	98 01       	movw	r18, r16
    4266:	ae 01       	movw	r20, r28
    4268:	0f 91       	pop	r16
    426a:	1f 91       	pop	r17
    426c:	cf 91       	pop	r28
    426e:	df 91       	pop	r29
    4270:	2a c1       	rjmp	.+596    	; 0x44c6 <__mulsf3x>

00004272 <__fp_cmp>:
    4272:	99 0f       	add	r25, r25
    4274:	00 08       	sbc	r0, r0
    4276:	55 0f       	add	r21, r21
    4278:	aa 0b       	sbc	r26, r26
    427a:	e0 e8       	ldi	r30, 0x80	; 128
    427c:	fe ef       	ldi	r31, 0xFE	; 254
    427e:	16 16       	cp	r1, r22
    4280:	17 06       	cpc	r1, r23
    4282:	e8 07       	cpc	r30, r24
    4284:	f9 07       	cpc	r31, r25
    4286:	c0 f0       	brcs	.+48     	; 0x42b8 <__fp_cmp+0x46>
    4288:	12 16       	cp	r1, r18
    428a:	13 06       	cpc	r1, r19
    428c:	e4 07       	cpc	r30, r20
    428e:	f5 07       	cpc	r31, r21
    4290:	98 f0       	brcs	.+38     	; 0x42b8 <__fp_cmp+0x46>
    4292:	62 1b       	sub	r22, r18
    4294:	73 0b       	sbc	r23, r19
    4296:	84 0b       	sbc	r24, r20
    4298:	95 0b       	sbc	r25, r21
    429a:	39 f4       	brne	.+14     	; 0x42aa <__fp_cmp+0x38>
    429c:	0a 26       	eor	r0, r26
    429e:	61 f0       	breq	.+24     	; 0x42b8 <__fp_cmp+0x46>
    42a0:	23 2b       	or	r18, r19
    42a2:	24 2b       	or	r18, r20
    42a4:	25 2b       	or	r18, r21
    42a6:	21 f4       	brne	.+8      	; 0x42b0 <__fp_cmp+0x3e>
    42a8:	08 95       	ret
    42aa:	0a 26       	eor	r0, r26
    42ac:	09 f4       	brne	.+2      	; 0x42b0 <__fp_cmp+0x3e>
    42ae:	a1 40       	sbci	r26, 0x01	; 1
    42b0:	a6 95       	lsr	r26
    42b2:	8f ef       	ldi	r24, 0xFF	; 255
    42b4:	81 1d       	adc	r24, r1
    42b6:	81 1d       	adc	r24, r1
    42b8:	08 95       	ret

000042ba <__fp_inf>:
    42ba:	97 f9       	bld	r25, 7
    42bc:	9f 67       	ori	r25, 0x7F	; 127
    42be:	80 e8       	ldi	r24, 0x80	; 128
    42c0:	70 e0       	ldi	r23, 0x00	; 0
    42c2:	60 e0       	ldi	r22, 0x00	; 0
    42c4:	08 95       	ret

000042c6 <__fp_mintl>:
    42c6:	88 23       	and	r24, r24
    42c8:	71 f4       	brne	.+28     	; 0x42e6 <__fp_mintl+0x20>
    42ca:	77 23       	and	r23, r23
    42cc:	21 f0       	breq	.+8      	; 0x42d6 <__fp_mintl+0x10>
    42ce:	98 50       	subi	r25, 0x08	; 8
    42d0:	87 2b       	or	r24, r23
    42d2:	76 2f       	mov	r23, r22
    42d4:	07 c0       	rjmp	.+14     	; 0x42e4 <__fp_mintl+0x1e>
    42d6:	66 23       	and	r22, r22
    42d8:	11 f4       	brne	.+4      	; 0x42de <__fp_mintl+0x18>
    42da:	99 27       	eor	r25, r25
    42dc:	0d c0       	rjmp	.+26     	; 0x42f8 <__fp_mintl+0x32>
    42de:	90 51       	subi	r25, 0x10	; 16
    42e0:	86 2b       	or	r24, r22
    42e2:	70 e0       	ldi	r23, 0x00	; 0
    42e4:	60 e0       	ldi	r22, 0x00	; 0
    42e6:	2a f0       	brmi	.+10     	; 0x42f2 <__fp_mintl+0x2c>
    42e8:	9a 95       	dec	r25
    42ea:	66 0f       	add	r22, r22
    42ec:	77 1f       	adc	r23, r23
    42ee:	88 1f       	adc	r24, r24
    42f0:	da f7       	brpl	.-10     	; 0x42e8 <__fp_mintl+0x22>
    42f2:	88 0f       	add	r24, r24
    42f4:	96 95       	lsr	r25
    42f6:	87 95       	ror	r24
    42f8:	97 f9       	bld	r25, 7
    42fa:	08 95       	ret

000042fc <__fp_mpack>:
    42fc:	9f 3f       	cpi	r25, 0xFF	; 255
    42fe:	31 f0       	breq	.+12     	; 0x430c <__fp_mpack_finite+0xc>

00004300 <__fp_mpack_finite>:
    4300:	91 50       	subi	r25, 0x01	; 1
    4302:	20 f4       	brcc	.+8      	; 0x430c <__fp_mpack_finite+0xc>
    4304:	87 95       	ror	r24
    4306:	77 95       	ror	r23
    4308:	67 95       	ror	r22
    430a:	b7 95       	ror	r27
    430c:	88 0f       	add	r24, r24
    430e:	91 1d       	adc	r25, r1
    4310:	96 95       	lsr	r25
    4312:	87 95       	ror	r24
    4314:	97 f9       	bld	r25, 7
    4316:	08 95       	ret

00004318 <__fp_nan>:
    4318:	9f ef       	ldi	r25, 0xFF	; 255
    431a:	80 ec       	ldi	r24, 0xC0	; 192
    431c:	08 95       	ret

0000431e <__fp_powser>:
    431e:	df 93       	push	r29
    4320:	cf 93       	push	r28
    4322:	1f 93       	push	r17
    4324:	0f 93       	push	r16
    4326:	ff 92       	push	r15
    4328:	ef 92       	push	r14
    432a:	df 92       	push	r13
    432c:	7b 01       	movw	r14, r22
    432e:	8c 01       	movw	r16, r24
    4330:	68 94       	set
    4332:	05 c0       	rjmp	.+10     	; 0x433e <__fp_powser+0x20>
    4334:	da 2e       	mov	r13, r26
    4336:	ef 01       	movw	r28, r30
    4338:	c6 d0       	rcall	.+396    	; 0x44c6 <__mulsf3x>
    433a:	fe 01       	movw	r30, r28
    433c:	e8 94       	clt
    433e:	a5 91       	lpm	r26, Z+
    4340:	25 91       	lpm	r18, Z+
    4342:	35 91       	lpm	r19, Z+
    4344:	45 91       	lpm	r20, Z+
    4346:	55 91       	lpm	r21, Z+
    4348:	ae f3       	brts	.-22     	; 0x4334 <__fp_powser+0x16>
    434a:	ef 01       	movw	r28, r30
    434c:	0c de       	rcall	.-1000   	; 0x3f66 <__addsf3x>
    434e:	fe 01       	movw	r30, r28
    4350:	97 01       	movw	r18, r14
    4352:	a8 01       	movw	r20, r16
    4354:	da 94       	dec	r13
    4356:	79 f7       	brne	.-34     	; 0x4336 <__fp_powser+0x18>
    4358:	df 90       	pop	r13
    435a:	ef 90       	pop	r14
    435c:	ff 90       	pop	r15
    435e:	0f 91       	pop	r16
    4360:	1f 91       	pop	r17
    4362:	cf 91       	pop	r28
    4364:	df 91       	pop	r29
    4366:	08 95       	ret

00004368 <__fp_pscA>:
    4368:	00 24       	eor	r0, r0
    436a:	0a 94       	dec	r0
    436c:	16 16       	cp	r1, r22
    436e:	17 06       	cpc	r1, r23
    4370:	18 06       	cpc	r1, r24
    4372:	09 06       	cpc	r0, r25
    4374:	08 95       	ret

00004376 <__fp_pscB>:
    4376:	00 24       	eor	r0, r0
    4378:	0a 94       	dec	r0
    437a:	12 16       	cp	r1, r18
    437c:	13 06       	cpc	r1, r19
    437e:	14 06       	cpc	r1, r20
    4380:	05 06       	cpc	r0, r21
    4382:	08 95       	ret
    4384:	c9 cf       	rjmp	.-110    	; 0x4318 <__fp_nan>

00004386 <__fp_rempio2>:
    4386:	50 d0       	rcall	.+160    	; 0x4428 <__fp_splitA>
    4388:	e8 f3       	brcs	.-6      	; 0x4384 <__fp_pscB+0xe>
    438a:	e8 94       	clt
    438c:	e0 e0       	ldi	r30, 0x00	; 0
    438e:	bb 27       	eor	r27, r27
    4390:	9f 57       	subi	r25, 0x7F	; 127
    4392:	f0 f0       	brcs	.+60     	; 0x43d0 <__fp_rempio2+0x4a>
    4394:	2a ed       	ldi	r18, 0xDA	; 218
    4396:	3f e0       	ldi	r19, 0x0F	; 15
    4398:	49 ec       	ldi	r20, 0xC9	; 201
    439a:	06 c0       	rjmp	.+12     	; 0x43a8 <__fp_rempio2+0x22>
    439c:	ee 0f       	add	r30, r30
    439e:	bb 0f       	add	r27, r27
    43a0:	66 1f       	adc	r22, r22
    43a2:	77 1f       	adc	r23, r23
    43a4:	88 1f       	adc	r24, r24
    43a6:	28 f0       	brcs	.+10     	; 0x43b2 <__fp_rempio2+0x2c>
    43a8:	b2 3a       	cpi	r27, 0xA2	; 162
    43aa:	62 07       	cpc	r22, r18
    43ac:	73 07       	cpc	r23, r19
    43ae:	84 07       	cpc	r24, r20
    43b0:	28 f0       	brcs	.+10     	; 0x43bc <__fp_rempio2+0x36>
    43b2:	b2 5a       	subi	r27, 0xA2	; 162
    43b4:	62 0b       	sbc	r22, r18
    43b6:	73 0b       	sbc	r23, r19
    43b8:	84 0b       	sbc	r24, r20
    43ba:	e3 95       	inc	r30
    43bc:	9a 95       	dec	r25
    43be:	72 f7       	brpl	.-36     	; 0x439c <__fp_rempio2+0x16>
    43c0:	80 38       	cpi	r24, 0x80	; 128
    43c2:	30 f4       	brcc	.+12     	; 0x43d0 <__fp_rempio2+0x4a>
    43c4:	9a 95       	dec	r25
    43c6:	bb 0f       	add	r27, r27
    43c8:	66 1f       	adc	r22, r22
    43ca:	77 1f       	adc	r23, r23
    43cc:	88 1f       	adc	r24, r24
    43ce:	d2 f7       	brpl	.-12     	; 0x43c4 <__fp_rempio2+0x3e>
    43d0:	90 48       	sbci	r25, 0x80	; 128
    43d2:	96 cf       	rjmp	.-212    	; 0x4300 <__fp_mpack_finite>

000043d4 <__fp_round>:
    43d4:	09 2e       	mov	r0, r25
    43d6:	03 94       	inc	r0
    43d8:	00 0c       	add	r0, r0
    43da:	11 f4       	brne	.+4      	; 0x43e0 <__fp_round+0xc>
    43dc:	88 23       	and	r24, r24
    43de:	52 f0       	brmi	.+20     	; 0x43f4 <__fp_round+0x20>
    43e0:	bb 0f       	add	r27, r27
    43e2:	40 f4       	brcc	.+16     	; 0x43f4 <__fp_round+0x20>
    43e4:	bf 2b       	or	r27, r31
    43e6:	11 f4       	brne	.+4      	; 0x43ec <__fp_round+0x18>
    43e8:	60 ff       	sbrs	r22, 0
    43ea:	04 c0       	rjmp	.+8      	; 0x43f4 <__fp_round+0x20>
    43ec:	6f 5f       	subi	r22, 0xFF	; 255
    43ee:	7f 4f       	sbci	r23, 0xFF	; 255
    43f0:	8f 4f       	sbci	r24, 0xFF	; 255
    43f2:	9f 4f       	sbci	r25, 0xFF	; 255
    43f4:	08 95       	ret

000043f6 <__fp_sinus>:
    43f6:	ef 93       	push	r30
    43f8:	e0 ff       	sbrs	r30, 0
    43fa:	06 c0       	rjmp	.+12     	; 0x4408 <__fp_sinus+0x12>
    43fc:	a2 ea       	ldi	r26, 0xA2	; 162
    43fe:	2a ed       	ldi	r18, 0xDA	; 218
    4400:	3f e0       	ldi	r19, 0x0F	; 15
    4402:	49 ec       	ldi	r20, 0xC9	; 201
    4404:	5f eb       	ldi	r21, 0xBF	; 191
    4406:	af dd       	rcall	.-1186   	; 0x3f66 <__addsf3x>
    4408:	e5 df       	rcall	.-54     	; 0x43d4 <__fp_round>
    440a:	0f 90       	pop	r0
    440c:	03 94       	inc	r0
    440e:	01 fc       	sbrc	r0, 1
    4410:	90 58       	subi	r25, 0x80	; 128
    4412:	e1 ee       	ldi	r30, 0xE1	; 225
    4414:	f0 e0       	ldi	r31, 0x00	; 0
    4416:	20 c1       	rjmp	.+576    	; 0x4658 <__fp_powsodd>

00004418 <__fp_split3>:
    4418:	57 fd       	sbrc	r21, 7
    441a:	90 58       	subi	r25, 0x80	; 128
    441c:	44 0f       	add	r20, r20
    441e:	55 1f       	adc	r21, r21
    4420:	59 f0       	breq	.+22     	; 0x4438 <__fp_splitA+0x10>
    4422:	5f 3f       	cpi	r21, 0xFF	; 255
    4424:	71 f0       	breq	.+28     	; 0x4442 <__fp_splitA+0x1a>
    4426:	47 95       	ror	r20

00004428 <__fp_splitA>:
    4428:	88 0f       	add	r24, r24
    442a:	97 fb       	bst	r25, 7
    442c:	99 1f       	adc	r25, r25
    442e:	61 f0       	breq	.+24     	; 0x4448 <__fp_splitA+0x20>
    4430:	9f 3f       	cpi	r25, 0xFF	; 255
    4432:	79 f0       	breq	.+30     	; 0x4452 <__fp_splitA+0x2a>
    4434:	87 95       	ror	r24
    4436:	08 95       	ret
    4438:	12 16       	cp	r1, r18
    443a:	13 06       	cpc	r1, r19
    443c:	14 06       	cpc	r1, r20
    443e:	55 1f       	adc	r21, r21
    4440:	f2 cf       	rjmp	.-28     	; 0x4426 <__fp_split3+0xe>
    4442:	46 95       	lsr	r20
    4444:	f1 df       	rcall	.-30     	; 0x4428 <__fp_splitA>
    4446:	08 c0       	rjmp	.+16     	; 0x4458 <__fp_splitA+0x30>
    4448:	16 16       	cp	r1, r22
    444a:	17 06       	cpc	r1, r23
    444c:	18 06       	cpc	r1, r24
    444e:	99 1f       	adc	r25, r25
    4450:	f1 cf       	rjmp	.-30     	; 0x4434 <__fp_splitA+0xc>
    4452:	86 95       	lsr	r24
    4454:	71 05       	cpc	r23, r1
    4456:	61 05       	cpc	r22, r1
    4458:	08 94       	sec
    445a:	08 95       	ret

0000445c <__fp_trunc>:
    445c:	e5 df       	rcall	.-54     	; 0x4428 <__fp_splitA>
    445e:	a0 f0       	brcs	.+40     	; 0x4488 <__fp_trunc+0x2c>
    4460:	be e7       	ldi	r27, 0x7E	; 126
    4462:	b9 17       	cp	r27, r25
    4464:	88 f4       	brcc	.+34     	; 0x4488 <__fp_trunc+0x2c>
    4466:	bb 27       	eor	r27, r27
    4468:	9f 38       	cpi	r25, 0x8F	; 143
    446a:	60 f4       	brcc	.+24     	; 0x4484 <__fp_trunc+0x28>
    446c:	16 16       	cp	r1, r22
    446e:	b1 1d       	adc	r27, r1
    4470:	67 2f       	mov	r22, r23
    4472:	78 2f       	mov	r23, r24
    4474:	88 27       	eor	r24, r24
    4476:	98 5f       	subi	r25, 0xF8	; 248
    4478:	f7 cf       	rjmp	.-18     	; 0x4468 <__fp_trunc+0xc>
    447a:	86 95       	lsr	r24
    447c:	77 95       	ror	r23
    447e:	67 95       	ror	r22
    4480:	b1 1d       	adc	r27, r1
    4482:	93 95       	inc	r25
    4484:	96 39       	cpi	r25, 0x96	; 150
    4486:	c8 f3       	brcs	.-14     	; 0x447a <__fp_trunc+0x1e>
    4488:	08 95       	ret

0000448a <__fp_zero>:
    448a:	e8 94       	clt

0000448c <__fp_szero>:
    448c:	bb 27       	eor	r27, r27
    448e:	66 27       	eor	r22, r22
    4490:	77 27       	eor	r23, r23
    4492:	cb 01       	movw	r24, r22
    4494:	97 f9       	bld	r25, 7
    4496:	08 95       	ret

00004498 <__gesf2>:
    4498:	ec de       	rcall	.-552    	; 0x4272 <__fp_cmp>
    449a:	08 f4       	brcc	.+2      	; 0x449e <__gesf2+0x6>
    449c:	8f ef       	ldi	r24, 0xFF	; 255
    449e:	08 95       	ret

000044a0 <inverse>:
    44a0:	9b 01       	movw	r18, r22
    44a2:	ac 01       	movw	r20, r24
    44a4:	60 e0       	ldi	r22, 0x00	; 0
    44a6:	70 e0       	ldi	r23, 0x00	; 0
    44a8:	80 e8       	ldi	r24, 0x80	; 128
    44aa:	9f e3       	ldi	r25, 0x3F	; 63
    44ac:	de cd       	rjmp	.-1092   	; 0x406a <__divsf3>

000044ae <__mulsf3>:
    44ae:	0b d0       	rcall	.+22     	; 0x44c6 <__mulsf3x>
    44b0:	91 cf       	rjmp	.-222    	; 0x43d4 <__fp_round>
    44b2:	5a df       	rcall	.-332    	; 0x4368 <__fp_pscA>
    44b4:	28 f0       	brcs	.+10     	; 0x44c0 <__mulsf3+0x12>
    44b6:	5f df       	rcall	.-322    	; 0x4376 <__fp_pscB>
    44b8:	18 f0       	brcs	.+6      	; 0x44c0 <__mulsf3+0x12>
    44ba:	95 23       	and	r25, r21
    44bc:	09 f0       	breq	.+2      	; 0x44c0 <__mulsf3+0x12>
    44be:	fd ce       	rjmp	.-518    	; 0x42ba <__fp_inf>
    44c0:	2b cf       	rjmp	.-426    	; 0x4318 <__fp_nan>
    44c2:	11 24       	eor	r1, r1
    44c4:	e3 cf       	rjmp	.-58     	; 0x448c <__fp_szero>

000044c6 <__mulsf3x>:
    44c6:	a8 df       	rcall	.-176    	; 0x4418 <__fp_split3>
    44c8:	a0 f3       	brcs	.-24     	; 0x44b2 <__mulsf3+0x4>

000044ca <__mulsf3_pse>:
    44ca:	95 9f       	mul	r25, r21
    44cc:	d1 f3       	breq	.-12     	; 0x44c2 <__mulsf3+0x14>
    44ce:	95 0f       	add	r25, r21
    44d0:	50 e0       	ldi	r21, 0x00	; 0
    44d2:	55 1f       	adc	r21, r21
    44d4:	62 9f       	mul	r22, r18
    44d6:	f0 01       	movw	r30, r0
    44d8:	72 9f       	mul	r23, r18
    44da:	bb 27       	eor	r27, r27
    44dc:	f0 0d       	add	r31, r0
    44de:	b1 1d       	adc	r27, r1
    44e0:	63 9f       	mul	r22, r19
    44e2:	aa 27       	eor	r26, r26
    44e4:	f0 0d       	add	r31, r0
    44e6:	b1 1d       	adc	r27, r1
    44e8:	aa 1f       	adc	r26, r26
    44ea:	64 9f       	mul	r22, r20
    44ec:	66 27       	eor	r22, r22
    44ee:	b0 0d       	add	r27, r0
    44f0:	a1 1d       	adc	r26, r1
    44f2:	66 1f       	adc	r22, r22
    44f4:	82 9f       	mul	r24, r18
    44f6:	22 27       	eor	r18, r18
    44f8:	b0 0d       	add	r27, r0
    44fa:	a1 1d       	adc	r26, r1
    44fc:	62 1f       	adc	r22, r18
    44fe:	73 9f       	mul	r23, r19
    4500:	b0 0d       	add	r27, r0
    4502:	a1 1d       	adc	r26, r1
    4504:	62 1f       	adc	r22, r18
    4506:	83 9f       	mul	r24, r19
    4508:	a0 0d       	add	r26, r0
    450a:	61 1d       	adc	r22, r1
    450c:	22 1f       	adc	r18, r18
    450e:	74 9f       	mul	r23, r20
    4510:	33 27       	eor	r19, r19
    4512:	a0 0d       	add	r26, r0
    4514:	61 1d       	adc	r22, r1
    4516:	23 1f       	adc	r18, r19
    4518:	84 9f       	mul	r24, r20
    451a:	60 0d       	add	r22, r0
    451c:	21 1d       	adc	r18, r1
    451e:	82 2f       	mov	r24, r18
    4520:	76 2f       	mov	r23, r22
    4522:	6a 2f       	mov	r22, r26
    4524:	11 24       	eor	r1, r1
    4526:	9f 57       	subi	r25, 0x7F	; 127
    4528:	50 40       	sbci	r21, 0x00	; 0
    452a:	8a f0       	brmi	.+34     	; 0x454e <__mulsf3_pse+0x84>
    452c:	e1 f0       	breq	.+56     	; 0x4566 <__mulsf3_pse+0x9c>
    452e:	88 23       	and	r24, r24
    4530:	4a f0       	brmi	.+18     	; 0x4544 <__mulsf3_pse+0x7a>
    4532:	ee 0f       	add	r30, r30
    4534:	ff 1f       	adc	r31, r31
    4536:	bb 1f       	adc	r27, r27
    4538:	66 1f       	adc	r22, r22
    453a:	77 1f       	adc	r23, r23
    453c:	88 1f       	adc	r24, r24
    453e:	91 50       	subi	r25, 0x01	; 1
    4540:	50 40       	sbci	r21, 0x00	; 0
    4542:	a9 f7       	brne	.-22     	; 0x452e <__mulsf3_pse+0x64>
    4544:	9e 3f       	cpi	r25, 0xFE	; 254
    4546:	51 05       	cpc	r21, r1
    4548:	70 f0       	brcs	.+28     	; 0x4566 <__mulsf3_pse+0x9c>
    454a:	b7 ce       	rjmp	.-658    	; 0x42ba <__fp_inf>
    454c:	9f cf       	rjmp	.-194    	; 0x448c <__fp_szero>
    454e:	5f 3f       	cpi	r21, 0xFF	; 255
    4550:	ec f3       	brlt	.-6      	; 0x454c <__mulsf3_pse+0x82>
    4552:	98 3e       	cpi	r25, 0xE8	; 232
    4554:	dc f3       	brlt	.-10     	; 0x454c <__mulsf3_pse+0x82>
    4556:	86 95       	lsr	r24
    4558:	77 95       	ror	r23
    455a:	67 95       	ror	r22
    455c:	b7 95       	ror	r27
    455e:	f7 95       	ror	r31
    4560:	e7 95       	ror	r30
    4562:	9f 5f       	subi	r25, 0xFF	; 255
    4564:	c1 f7       	brne	.-16     	; 0x4556 <__mulsf3_pse+0x8c>
    4566:	fe 2b       	or	r31, r30
    4568:	88 0f       	add	r24, r24
    456a:	91 1d       	adc	r25, r1
    456c:	96 95       	lsr	r25
    456e:	87 95       	ror	r24
    4570:	97 f9       	bld	r25, 7
    4572:	08 95       	ret

00004574 <round>:
    4574:	59 df       	rcall	.-334    	; 0x4428 <__fp_splitA>
    4576:	e0 f0       	brcs	.+56     	; 0x45b0 <round+0x3c>
    4578:	9e 37       	cpi	r25, 0x7E	; 126
    457a:	d8 f0       	brcs	.+54     	; 0x45b2 <round+0x3e>
    457c:	96 39       	cpi	r25, 0x96	; 150
    457e:	b8 f4       	brcc	.+46     	; 0x45ae <round+0x3a>
    4580:	9e 38       	cpi	r25, 0x8E	; 142
    4582:	48 f4       	brcc	.+18     	; 0x4596 <round+0x22>
    4584:	67 2f       	mov	r22, r23
    4586:	78 2f       	mov	r23, r24
    4588:	88 27       	eor	r24, r24
    458a:	98 5f       	subi	r25, 0xF8	; 248
    458c:	f9 cf       	rjmp	.-14     	; 0x4580 <round+0xc>
    458e:	86 95       	lsr	r24
    4590:	77 95       	ror	r23
    4592:	67 95       	ror	r22
    4594:	93 95       	inc	r25
    4596:	95 39       	cpi	r25, 0x95	; 149
    4598:	d0 f3       	brcs	.-12     	; 0x458e <round+0x1a>
    459a:	b6 2f       	mov	r27, r22
    459c:	b1 70       	andi	r27, 0x01	; 1
    459e:	6b 0f       	add	r22, r27
    45a0:	71 1d       	adc	r23, r1
    45a2:	81 1d       	adc	r24, r1
    45a4:	20 f4       	brcc	.+8      	; 0x45ae <round+0x3a>
    45a6:	87 95       	ror	r24
    45a8:	77 95       	ror	r23
    45aa:	67 95       	ror	r22
    45ac:	93 95       	inc	r25
    45ae:	8b ce       	rjmp	.-746    	; 0x42c6 <__fp_mintl>
    45b0:	a5 ce       	rjmp	.-694    	; 0x42fc <__fp_mpack>
    45b2:	6c cf       	rjmp	.-296    	; 0x448c <__fp_szero>

000045b4 <sin>:
    45b4:	9f 93       	push	r25
    45b6:	e7 de       	rcall	.-562    	; 0x4386 <__fp_rempio2>
    45b8:	0f 90       	pop	r0
    45ba:	07 fc       	sbrc	r0, 7
    45bc:	ee 5f       	subi	r30, 0xFE	; 254
    45be:	1b cf       	rjmp	.-458    	; 0x43f6 <__fp_sinus>
    45c0:	11 f4       	brne	.+4      	; 0x45c6 <sin+0x12>
    45c2:	0e f4       	brtc	.+2      	; 0x45c6 <sin+0x12>
    45c4:	a9 ce       	rjmp	.-686    	; 0x4318 <__fp_nan>
    45c6:	9a ce       	rjmp	.-716    	; 0x42fc <__fp_mpack>

000045c8 <sqrt>:
    45c8:	2f df       	rcall	.-418    	; 0x4428 <__fp_splitA>
    45ca:	d0 f3       	brcs	.-12     	; 0x45c0 <sin+0xc>
    45cc:	99 23       	and	r25, r25
    45ce:	d9 f3       	breq	.-10     	; 0x45c6 <sin+0x12>
    45d0:	ce f3       	brts	.-14     	; 0x45c4 <sin+0x10>
    45d2:	9f 57       	subi	r25, 0x7F	; 127
    45d4:	55 0b       	sbc	r21, r21
    45d6:	87 ff       	sbrs	r24, 7
    45d8:	38 d0       	rcall	.+112    	; 0x464a <__fp_norm2>
    45da:	00 24       	eor	r0, r0
    45dc:	a0 e6       	ldi	r26, 0x60	; 96
    45de:	40 ea       	ldi	r20, 0xA0	; 160
    45e0:	90 01       	movw	r18, r0
    45e2:	80 58       	subi	r24, 0x80	; 128
    45e4:	56 95       	lsr	r21
    45e6:	97 95       	ror	r25
    45e8:	28 f4       	brcc	.+10     	; 0x45f4 <sqrt+0x2c>
    45ea:	80 5c       	subi	r24, 0xC0	; 192
    45ec:	66 0f       	add	r22, r22
    45ee:	77 1f       	adc	r23, r23
    45f0:	88 1f       	adc	r24, r24
    45f2:	20 f0       	brcs	.+8      	; 0x45fc <sqrt+0x34>
    45f4:	26 17       	cp	r18, r22
    45f6:	37 07       	cpc	r19, r23
    45f8:	48 07       	cpc	r20, r24
    45fa:	30 f4       	brcc	.+12     	; 0x4608 <sqrt+0x40>
    45fc:	62 1b       	sub	r22, r18
    45fe:	73 0b       	sbc	r23, r19
    4600:	84 0b       	sbc	r24, r20
    4602:	20 29       	or	r18, r0
    4604:	31 29       	or	r19, r1
    4606:	4a 2b       	or	r20, r26
    4608:	a6 95       	lsr	r26
    460a:	17 94       	ror	r1
    460c:	07 94       	ror	r0
    460e:	20 25       	eor	r18, r0
    4610:	31 25       	eor	r19, r1
    4612:	4a 27       	eor	r20, r26
    4614:	58 f7       	brcc	.-42     	; 0x45ec <sqrt+0x24>
    4616:	66 0f       	add	r22, r22
    4618:	77 1f       	adc	r23, r23
    461a:	88 1f       	adc	r24, r24
    461c:	20 f0       	brcs	.+8      	; 0x4626 <sqrt+0x5e>
    461e:	26 17       	cp	r18, r22
    4620:	37 07       	cpc	r19, r23
    4622:	48 07       	cpc	r20, r24
    4624:	30 f4       	brcc	.+12     	; 0x4632 <sqrt+0x6a>
    4626:	62 0b       	sbc	r22, r18
    4628:	73 0b       	sbc	r23, r19
    462a:	84 0b       	sbc	r24, r20
    462c:	20 0d       	add	r18, r0
    462e:	31 1d       	adc	r19, r1
    4630:	41 1d       	adc	r20, r1
    4632:	a0 95       	com	r26
    4634:	81 f7       	brne	.-32     	; 0x4616 <sqrt+0x4e>
    4636:	b9 01       	movw	r22, r18
    4638:	84 2f       	mov	r24, r20
    463a:	91 58       	subi	r25, 0x81	; 129
    463c:	88 0f       	add	r24, r24
    463e:	96 95       	lsr	r25
    4640:	87 95       	ror	r24
    4642:	08 95       	ret

00004644 <square>:
    4644:	9b 01       	movw	r18, r22
    4646:	ac 01       	movw	r20, r24
    4648:	32 cf       	rjmp	.-412    	; 0x44ae <__mulsf3>

0000464a <__fp_norm2>:
    464a:	91 50       	subi	r25, 0x01	; 1
    464c:	50 40       	sbci	r21, 0x00	; 0
    464e:	66 0f       	add	r22, r22
    4650:	77 1f       	adc	r23, r23
    4652:	88 1f       	adc	r24, r24
    4654:	d2 f7       	brpl	.-12     	; 0x464a <__fp_norm2>
    4656:	08 95       	ret

00004658 <__fp_powsodd>:
    4658:	9f 93       	push	r25
    465a:	8f 93       	push	r24
    465c:	7f 93       	push	r23
    465e:	6f 93       	push	r22
    4660:	ff 93       	push	r31
    4662:	ef 93       	push	r30
    4664:	9b 01       	movw	r18, r22
    4666:	ac 01       	movw	r20, r24
    4668:	22 df       	rcall	.-444    	; 0x44ae <__mulsf3>
    466a:	ef 91       	pop	r30
    466c:	ff 91       	pop	r31
    466e:	57 de       	rcall	.-850    	; 0x431e <__fp_powser>
    4670:	2f 91       	pop	r18
    4672:	3f 91       	pop	r19
    4674:	4f 91       	pop	r20
    4676:	5f 91       	pop	r21
    4678:	1a cf       	rjmp	.-460    	; 0x44ae <__mulsf3>

0000467a <__udivmodhi4>:
    467a:	aa 1b       	sub	r26, r26
    467c:	bb 1b       	sub	r27, r27
    467e:	51 e1       	ldi	r21, 0x11	; 17
    4680:	07 c0       	rjmp	.+14     	; 0x4690 <__udivmodhi4_ep>

00004682 <__udivmodhi4_loop>:
    4682:	aa 1f       	adc	r26, r26
    4684:	bb 1f       	adc	r27, r27
    4686:	a6 17       	cp	r26, r22
    4688:	b7 07       	cpc	r27, r23
    468a:	10 f0       	brcs	.+4      	; 0x4690 <__udivmodhi4_ep>
    468c:	a6 1b       	sub	r26, r22
    468e:	b7 0b       	sbc	r27, r23

00004690 <__udivmodhi4_ep>:
    4690:	88 1f       	adc	r24, r24
    4692:	99 1f       	adc	r25, r25
    4694:	5a 95       	dec	r21
    4696:	a9 f7       	brne	.-22     	; 0x4682 <__udivmodhi4_loop>
    4698:	80 95       	com	r24
    469a:	90 95       	com	r25
    469c:	bc 01       	movw	r22, r24
    469e:	cd 01       	movw	r24, r26
    46a0:	08 95       	ret

000046a2 <__udivmodsi4>:
    46a2:	a1 e2       	ldi	r26, 0x21	; 33
    46a4:	1a 2e       	mov	r1, r26
    46a6:	aa 1b       	sub	r26, r26
    46a8:	bb 1b       	sub	r27, r27
    46aa:	fd 01       	movw	r30, r26
    46ac:	0d c0       	rjmp	.+26     	; 0x46c8 <__udivmodsi4_ep>

000046ae <__udivmodsi4_loop>:
    46ae:	aa 1f       	adc	r26, r26
    46b0:	bb 1f       	adc	r27, r27
    46b2:	ee 1f       	adc	r30, r30
    46b4:	ff 1f       	adc	r31, r31
    46b6:	a2 17       	cp	r26, r18
    46b8:	b3 07       	cpc	r27, r19
    46ba:	e4 07       	cpc	r30, r20
    46bc:	f5 07       	cpc	r31, r21
    46be:	20 f0       	brcs	.+8      	; 0x46c8 <__udivmodsi4_ep>
    46c0:	a2 1b       	sub	r26, r18
    46c2:	b3 0b       	sbc	r27, r19
    46c4:	e4 0b       	sbc	r30, r20
    46c6:	f5 0b       	sbc	r31, r21

000046c8 <__udivmodsi4_ep>:
    46c8:	66 1f       	adc	r22, r22
    46ca:	77 1f       	adc	r23, r23
    46cc:	88 1f       	adc	r24, r24
    46ce:	99 1f       	adc	r25, r25
    46d0:	1a 94       	dec	r1
    46d2:	69 f7       	brne	.-38     	; 0x46ae <__udivmodsi4_loop>
    46d4:	60 95       	com	r22
    46d6:	70 95       	com	r23
    46d8:	80 95       	com	r24
    46da:	90 95       	com	r25
    46dc:	9b 01       	movw	r18, r22
    46de:	ac 01       	movw	r20, r24
    46e0:	bd 01       	movw	r22, r26
    46e2:	cf 01       	movw	r24, r30
    46e4:	08 95       	ret

000046e6 <__umulhisi3>:
    46e6:	a2 9f       	mul	r26, r18
    46e8:	b0 01       	movw	r22, r0
    46ea:	b3 9f       	mul	r27, r19
    46ec:	c0 01       	movw	r24, r0
    46ee:	a3 9f       	mul	r26, r19
    46f0:	70 0d       	add	r23, r0
    46f2:	81 1d       	adc	r24, r1
    46f4:	11 24       	eor	r1, r1
    46f6:	91 1d       	adc	r25, r1
    46f8:	b2 9f       	mul	r27, r18
    46fa:	70 0d       	add	r23, r0
    46fc:	81 1d       	adc	r24, r1
    46fe:	11 24       	eor	r1, r1
    4700:	91 1d       	adc	r25, r1
    4702:	08 95       	ret

00004704 <__itoa_ncheck>:
    4704:	bb 27       	eor	r27, r27
    4706:	4a 30       	cpi	r20, 0x0A	; 10
    4708:	31 f4       	brne	.+12     	; 0x4716 <__itoa_ncheck+0x12>
    470a:	99 23       	and	r25, r25
    470c:	22 f4       	brpl	.+8      	; 0x4716 <__itoa_ncheck+0x12>
    470e:	bd e2       	ldi	r27, 0x2D	; 45
    4710:	90 95       	com	r25
    4712:	81 95       	neg	r24
    4714:	9f 4f       	sbci	r25, 0xFF	; 255
    4716:	01 c0       	rjmp	.+2      	; 0x471a <__utoa_common>

00004718 <__utoa_ncheck>:
    4718:	bb 27       	eor	r27, r27

0000471a <__utoa_common>:
    471a:	fb 01       	movw	r30, r22
    471c:	55 27       	eor	r21, r21
    471e:	aa 27       	eor	r26, r26
    4720:	88 0f       	add	r24, r24
    4722:	99 1f       	adc	r25, r25
    4724:	aa 1f       	adc	r26, r26
    4726:	a4 17       	cp	r26, r20
    4728:	10 f0       	brcs	.+4      	; 0x472e <__utoa_common+0x14>
    472a:	a4 1b       	sub	r26, r20
    472c:	83 95       	inc	r24
    472e:	50 51       	subi	r21, 0x10	; 16
    4730:	b9 f7       	brne	.-18     	; 0x4720 <__utoa_common+0x6>
    4732:	a0 5d       	subi	r26, 0xD0	; 208
    4734:	aa 33       	cpi	r26, 0x3A	; 58
    4736:	08 f0       	brcs	.+2      	; 0x473a <__utoa_common+0x20>
    4738:	a9 5d       	subi	r26, 0xD9	; 217
    473a:	a1 93       	st	Z+, r26
    473c:	00 97       	sbiw	r24, 0x00	; 0
    473e:	79 f7       	brne	.-34     	; 0x471e <__utoa_common+0x4>
    4740:	b1 11       	cpse	r27, r1
    4742:	b1 93       	st	Z+, r27
    4744:	11 92       	st	Z+, r1
    4746:	cb 01       	movw	r24, r22
    4748:	00 c0       	rjmp	.+0      	; 0x474a <strrev>

0000474a <strrev>:
    474a:	dc 01       	movw	r26, r24
    474c:	fc 01       	movw	r30, r24
    474e:	67 2f       	mov	r22, r23
    4750:	71 91       	ld	r23, Z+
    4752:	77 23       	and	r23, r23
    4754:	e1 f7       	brne	.-8      	; 0x474e <strrev+0x4>
    4756:	32 97       	sbiw	r30, 0x02	; 2
    4758:	04 c0       	rjmp	.+8      	; 0x4762 <strrev+0x18>
    475a:	7c 91       	ld	r23, X
    475c:	6d 93       	st	X+, r22
    475e:	70 83       	st	Z, r23
    4760:	62 91       	ld	r22, -Z
    4762:	ae 17       	cp	r26, r30
    4764:	bf 07       	cpc	r27, r31
    4766:	c8 f3       	brcs	.-14     	; 0x475a <strrev+0x10>
    4768:	08 95       	ret

0000476a <eeprom_read_byte>:
    476a:	f9 99       	sbic	0x1f, 1	; 31
    476c:	fe cf       	rjmp	.-4      	; 0x476a <eeprom_read_byte>
    476e:	92 bd       	out	0x22, r25	; 34
    4770:	81 bd       	out	0x21, r24	; 33
    4772:	f8 9a       	sbi	0x1f, 0	; 31
    4774:	99 27       	eor	r25, r25
    4776:	80 b5       	in	r24, 0x20	; 32
    4778:	08 95       	ret

0000477a <eeprom_write_byte>:
    477a:	26 2f       	mov	r18, r22

0000477c <eeprom_write_r18>:
    477c:	f9 99       	sbic	0x1f, 1	; 31
    477e:	fe cf       	rjmp	.-4      	; 0x477c <eeprom_write_r18>
    4780:	1f ba       	out	0x1f, r1	; 31
    4782:	92 bd       	out	0x22, r25	; 34
    4784:	81 bd       	out	0x21, r24	; 33
    4786:	20 bd       	out	0x20, r18	; 32
    4788:	0f b6       	in	r0, 0x3f	; 63
    478a:	f8 94       	cli
    478c:	fa 9a       	sbi	0x1f, 2	; 31
    478e:	f9 9a       	sbi	0x1f, 1	; 31
    4790:	0f be       	out	0x3f, r0	; 63
    4792:	01 96       	adiw	r24, 0x01	; 1
    4794:	08 95       	ret

00004796 <_exit>:
    4796:	f8 94       	cli

00004798 <__stop_program>:
    4798:	ff cf       	rjmp	.-2      	; 0x4798 <__stop_program>
