
hexapod.elf:     file format elf32-avr

Sections:
Idx Name          Size      VMA       LMA       File off  Algn
  0 .data         00000386  00800100  0000388c  00003920  2**0
                  CONTENTS, ALLOC, LOAD, DATA
  1 .text         0000388c  00000000  00000000  00000094  2**1
                  CONTENTS, ALLOC, LOAD, READONLY, CODE
  2 .bss          0000087d  00800486  00800486  00003ca6  2**0
                  ALLOC
  3 .comment      00000030  00000000  00000000  00003ca6  2**0
                  CONTENTS, READONLY
  4 .note.gnu.avr.deviceinfo 00000040  00000000  00000000  00003cd8  2**2
                  CONTENTS, READONLY
  5 .debug_aranges 00000738  00000000  00000000  00003d18  2**3
                  CONTENTS, READONLY, DEBUGGING
  6 .debug_info   00008807  00000000  00000000  00004450  2**0
                  CONTENTS, READONLY, DEBUGGING
  7 .debug_abbrev 0000288b  00000000  00000000  0000cc57  2**0
                  CONTENTS, READONLY, DEBUGGING
  8 .debug_line   000089a4  00000000  00000000  0000f4e2  2**0
                  CONTENTS, READONLY, DEBUGGING
  9 .debug_frame  0000134c  00000000  00000000  00017e88  2**2
                  CONTENTS, READONLY, DEBUGGING
 10 .debug_str    0000ff1c  00000000  00000000  000191d4  2**0
                  CONTENTS, READONLY, DEBUGGING
 11 .debug_loc    00005aca  00000000  00000000  000290f0  2**0
                  CONTENTS, READONLY, DEBUGGING
 12 .debug_ranges 00000628  00000000  00000000  0002ebba  2**0
                  CONTENTS, READONLY, DEBUGGING
 13 .debug_macro  00002b96  00000000  00000000  0002f1e2  2**0
                  CONTENTS, READONLY, DEBUGGING

Disassembly of section .text:

00000000 <__vectors>:
       0:	7f c0       	rjmp	.+254    	; 0x100 <__ctors_end>
       2:	00 00       	nop
       4:	9c c0       	rjmp	.+312    	; 0x13e <__bad_interrupt>
       6:	00 00       	nop
       8:	9a c0       	rjmp	.+308    	; 0x13e <__bad_interrupt>
       a:	00 00       	nop
       c:	98 c0       	rjmp	.+304    	; 0x13e <__bad_interrupt>
       e:	00 00       	nop
      10:	96 c0       	rjmp	.+300    	; 0x13e <__bad_interrupt>
      12:	00 00       	nop
      14:	94 c0       	rjmp	.+296    	; 0x13e <__bad_interrupt>
      16:	00 00       	nop
      18:	92 c0       	rjmp	.+292    	; 0x13e <__bad_interrupt>
      1a:	00 00       	nop
      1c:	90 c0       	rjmp	.+288    	; 0x13e <__bad_interrupt>
      1e:	00 00       	nop
      20:	8e c0       	rjmp	.+284    	; 0x13e <__bad_interrupt>
      22:	00 00       	nop
      24:	0c 94 ca 0e 	jmp	0x1d94	; 0x1d94 <__vector_9>
      28:	8a c0       	rjmp	.+276    	; 0x13e <__bad_interrupt>
      2a:	00 00       	nop
      2c:	88 c0       	rjmp	.+272    	; 0x13e <__bad_interrupt>
      2e:	00 00       	nop
      30:	86 c0       	rjmp	.+268    	; 0x13e <__bad_interrupt>
      32:	00 00       	nop
      34:	84 c0       	rjmp	.+264    	; 0x13e <__bad_interrupt>
      36:	00 00       	nop
      38:	82 c0       	rjmp	.+260    	; 0x13e <__bad_interrupt>
      3a:	00 00       	nop
      3c:	80 c0       	rjmp	.+256    	; 0x13e <__bad_interrupt>
      3e:	00 00       	nop
      40:	7e c0       	rjmp	.+252    	; 0x13e <__bad_interrupt>
      42:	00 00       	nop
      44:	7c c0       	rjmp	.+248    	; 0x13e <__bad_interrupt>
      46:	00 00       	nop
      48:	0c 94 33 0e 	jmp	0x1c66	; 0x1c66 <__vector_18>
      4c:	0c 94 b3 0a 	jmp	0x1566	; 0x1566 <__vector_19>
      50:	0c 94 fe 11 	jmp	0x23fc	; 0x23fc <__vector_20>
      54:	0c 94 23 12 	jmp	0x2446	; 0x2446 <__vector_21>
      58:	0c 94 56 12 	jmp	0x24ac	; 0x24ac <__vector_22>
      5c:	70 c0       	rjmp	.+224    	; 0x13e <__bad_interrupt>
      5e:	00 00       	nop
      60:	6e c0       	rjmp	.+220    	; 0x13e <__bad_interrupt>
      62:	00 00       	nop
      64:	6c c0       	rjmp	.+216    	; 0x13e <__bad_interrupt>
      66:	00 00       	nop
      68:	6a c0       	rjmp	.+212    	; 0x13e <__bad_interrupt>
      6a:	00 00       	nop
      6c:	68 c0       	rjmp	.+208    	; 0x13e <__bad_interrupt>
      6e:	00 00       	nop
      70:	0c 94 60 12 	jmp	0x24c0	; 0x24c0 <__vector_28>
      74:	0c 94 85 12 	jmp	0x250a	; 0x250a <__vector_29>
      78:	0c 94 b8 12 	jmp	0x2570	; 0x2570 <__vector_30>
      7c:	60 c0       	rjmp	.+192    	; 0x13e <__bad_interrupt>
      7e:	00 00       	nop
      80:	5e c0       	rjmp	.+188    	; 0x13e <__bad_interrupt>
      82:	00 00       	nop
      84:	5c c0       	rjmp	.+184    	; 0x13e <__bad_interrupt>
      86:	00 00       	nop
      88:	5a c0       	rjmp	.+180    	; 0x13e <__bad_interrupt>
      8a:	00 00       	nop
      8c:	08 4a       	sbci	r16, 0xA8	; 168
      8e:	d7 3b       	cpi	r29, 0xB7	; 183
      90:	3b ce       	rjmp	.-906    	; 0xfffffd08 <__eeprom_end+0xff7efd08>
      92:	01 6e       	ori	r16, 0xE1	; 225
      94:	84 bc       	out	0x24, r8	; 36
      96:	bf fd       	.word	0xfdbf	; ????
      98:	c1 2f       	mov	r28, r17
      9a:	3d 6c       	ori	r19, 0xCD	; 205
      9c:	74 31       	cpi	r23, 0x14	; 20
      9e:	9a bd       	out	0x2a, r25	; 42
      a0:	56 83       	std	Z+6, r21	; 0x06
      a2:	3d da       	rcall	.-2950   	; 0xfffff51e <__eeprom_end+0xff7ef51e>
      a4:	3d 00       	.word	0x003d	; ????
      a6:	c7 7f       	andi	r28, 0xF7	; 247
      a8:	11 be       	out	0x31, r1	; 49
      aa:	d9 e4       	ldi	r29, 0x49	; 73
      ac:	bb 4c       	sbci	r27, 0xCB	; 203
      ae:	3e 91       	ld	r19, -X
      b0:	6b aa       	std	Y+51, r6	; 0x33
      b2:	aa be       	out	0x3a, r10	; 58
      b4:	00 00       	nop
      b6:	00 80       	ld	r0, Z
      b8:	3f 07       	cpc	r19, r31
      ba:	2c 7a       	andi	r18, 0xAC	; 172
      bc:	a5 ba       	out	0x15, r10	; 21
      be:	6c c5       	rjmp	.+2776   	; 0xb98 <DrvLegSetXYZ+0x38>
      c0:	90 da       	rcall	.-2784   	; 0xfffff5e2 <__eeprom_end+0xff7ef5e2>
      c2:	3b 93       	.word	0x933b	; ????
      c4:	65 fc       	sbrc	r6, 5
      c6:	8b bc       	out	0x2b, r8	; 43
      c8:	53 f8       	bld	r5, 3
      ca:	10 fd       	sbrc	r17, 0
      cc:	3c 56       	subi	r19, 0x6C	; 108
      ce:	92 83       	std	Z+2, r25	; 0x02
      d0:	4d bd       	out	0x2d, r20	; 45
      d2:	87 9d       	mul	r24, r7
      d4:	3a b6       	in	r3, 0x3a	; 58
      d6:	3d cb       	rjmp	.-2438   	; 0xfffff752 <__eeprom_end+0xff7ef752>
      d8:	c9 bf       	out	0x39, r28	; 57
      da:	5b be       	out	0x3b, r5	; 59
      dc:	73 da       	rcall	.-2842   	; 0xfffff5c4 <__eeprom_end+0xff7ef5c4>
      de:	0f c9       	rjmp	.-3554   	; 0xfffff2fe <__eeprom_end+0xff7ef2fe>
      e0:	3f 05       	cpc	r19, r15
      e2:	a8 4c       	sbci	r26, 0xC8	; 200
      e4:	cd b2       	in	r12, 0x1d	; 29
      e6:	d4 4e       	sbci	r29, 0xE4	; 228
      e8:	b9 38       	cpi	r27, 0x89	; 137
      ea:	36 a9       	ldd	r19, Z+54	; 0x36
      ec:	02 0c       	add	r0, r2
      ee:	50 b9       	out	0x00, r21	; 0
      f0:	91 86       	std	Z+9, r9	; 0x09
      f2:	88 08       	sbc	r8, r8
      f4:	3c a6       	std	Y+44, r3	; 0x2c
      f6:	aa aa       	std	Y+50, r10	; 0x32
      f8:	2a be       	out	0x3a, r2	; 58
      fa:	00 00       	nop
      fc:	00 80       	ld	r0, Z
      fe:	3f 00       	.word	0x003f	; ????

00000100 <__ctors_end>:
     100:	11 24       	eor	r1, r1
     102:	1f be       	out	0x3f, r1	; 63
     104:	cf ef       	ldi	r28, 0xFF	; 255
     106:	d0 e4       	ldi	r29, 0x40	; 64
     108:	de bf       	out	0x3e, r29	; 62
     10a:	cd bf       	out	0x3d, r28	; 61

0000010c <__do_copy_data>:
     10c:	14 e0       	ldi	r17, 0x04	; 4
     10e:	a0 e0       	ldi	r26, 0x00	; 0
     110:	b1 e0       	ldi	r27, 0x01	; 1
     112:	ec e8       	ldi	r30, 0x8C	; 140
     114:	f8 e3       	ldi	r31, 0x38	; 56
     116:	00 e0       	ldi	r16, 0x00	; 0
     118:	0b bf       	out	0x3b, r16	; 59
     11a:	02 c0       	rjmp	.+4      	; 0x120 <__do_copy_data+0x14>
     11c:	07 90       	elpm	r0, Z+
     11e:	0d 92       	st	X+, r0
     120:	a6 38       	cpi	r26, 0x86	; 134
     122:	b1 07       	cpc	r27, r17
     124:	d9 f7       	brne	.-10     	; 0x11c <__do_copy_data+0x10>

00000126 <__do_clear_bss>:
     126:	2d e0       	ldi	r18, 0x0D	; 13
     128:	a6 e8       	ldi	r26, 0x86	; 134
     12a:	b4 e0       	ldi	r27, 0x04	; 4
     12c:	01 c0       	rjmp	.+2      	; 0x130 <.do_clear_bss_start>

0000012e <.do_clear_bss_loop>:
     12e:	1d 92       	st	X+, r1

00000130 <.do_clear_bss_start>:
     130:	a3 30       	cpi	r26, 0x03	; 3
     132:	b2 07       	cpc	r27, r18
     134:	e1 f7       	brne	.-8      	; 0x12e <.do_clear_bss_loop>
     136:	0e 94 c2 12 	call	0x2584	; 0x2584 <main>
     13a:	0c 94 44 1c 	jmp	0x3888	; 0x3888 <_exit>

0000013e <__bad_interrupt>:
     13e:	60 cf       	rjmp	.-320    	; 0x0 <__vectors>

00000140 <CmpPCA9685Reset>:
	CmpPCA9685Reset(addr);
	return oSuccess;
}

Boolean CmpPCA9685Reset( Int8U addr )
{
     140:	cf 93       	push	r28
	Boolean oSuccess = FALSE;
	oSuccess = DrvTwiWriteReg(addr,PCA9685_MODE1,0x80);
     142:	40 e8       	ldi	r20, 0x80	; 128
     144:	60 e0       	ldi	r22, 0x00	; 0
     146:	0e 94 39 10 	call	0x2072	; 0x2072 <DrvTwiWriteReg>
     14a:	c8 2f       	mov	r28, r24
	DrvTickDelayUs(200);
     14c:	68 ec       	ldi	r22, 0xC8	; 200
     14e:	70 e0       	ldi	r23, 0x00	; 0
     150:	80 e0       	ldi	r24, 0x00	; 0
     152:	90 e0       	ldi	r25, 0x00	; 0
     154:	0e 94 1d 0e 	call	0x1c3a	; 0x1c3a <DrvTickDelayUs>
	return oSuccess;
}
     158:	8c 2f       	mov	r24, r28
     15a:	cf 91       	pop	r28
     15c:	08 95       	ret

0000015e <CmpPCA9685Init>:

////////////////////////////////////////PRIVATE VARIABLES/////////////////////////////////////////

 /////////////////////////////////////////PUBLIC FUNCTIONS/////////////////////////////////////////
Boolean CmpPCA9685Init( Int8U addr )
{
     15e:	cf 93       	push	r28
     160:	c8 2f       	mov	r28, r24
	Boolean oSuccess = TRUE;
	
	DrvTwiInit(TWI_SPEED_400K);
     162:	60 e8       	ldi	r22, 0x80	; 128
     164:	7a e1       	ldi	r23, 0x1A	; 26
     166:	86 e0       	ldi	r24, 0x06	; 6
     168:	90 e0       	ldi	r25, 0x00	; 0
     16a:	0e 94 9b 0f 	call	0x1f36	; 0x1f36 <DrvTwiInit>
	
	CmpPCA9685Reset(addr);
     16e:	8c 2f       	mov	r24, r28
     170:	e7 df       	rcall	.-50     	; 0x140 <CmpPCA9685Reset>
	return oSuccess;
}
     172:	81 e0       	ldi	r24, 0x01	; 1
     174:	cf 91       	pop	r28
     176:	08 95       	ret

00000178 <CmpPCA9685SetPWMFreq>:
	DrvTickDelayUs(200);
	return oSuccess;
}

Boolean CmpPCA9685SetPWMFreq(Int8U addr, float freq)
{
     178:	cf 92       	push	r12
     17a:	df 92       	push	r13
     17c:	ef 92       	push	r14
     17e:	ff 92       	push	r15
     180:	1f 93       	push	r17
     182:	cf 93       	push	r28
     184:	df 93       	push	r29
     186:	1f 92       	push	r1
     188:	cd b7       	in	r28, 0x3d	; 61
     18a:	de b7       	in	r29, 0x3e	; 62
     18c:	18 2f       	mov	r17, r24
     18e:	cb 01       	movw	r24, r22
     190:	ba 01       	movw	r22, r20
	freq *= 0.9;  // Correct for overshoot in the frequency setting (see issue #11).
	float prescaleval = 25000000.0;
	prescaleval /= 4096.0;
	prescaleval /= freq;
     192:	26 e6       	ldi	r18, 0x66	; 102
     194:	36 e6       	ldi	r19, 0x66	; 102
     196:	46 e6       	ldi	r20, 0x66	; 102
     198:	5f e3       	ldi	r21, 0x3F	; 63
     19a:	0e 94 d0 1a 	call	0x35a0	; 0x35a0 <__mulsf3>
     19e:	9b 01       	movw	r18, r22
     1a0:	ac 01       	movw	r20, r24
     1a2:	60 e2       	ldi	r22, 0x20	; 32
     1a4:	7c eb       	ldi	r23, 0xBC	; 188
     1a6:	8e eb       	ldi	r24, 0xBE	; 190
     1a8:	95 e4       	ldi	r25, 0x45	; 69
     1aa:	0e 94 ae 18 	call	0x315c	; 0x315c <__divsf3>
	prescaleval -= 1.0;

	Int8U prescale = floor(prescaleval + 0.5);
     1ae:	20 e0       	ldi	r18, 0x00	; 0
     1b0:	30 e0       	ldi	r19, 0x00	; 0
     1b2:	40 e8       	ldi	r20, 0x80	; 128
     1b4:	5f e3       	ldi	r21, 0x3F	; 63
     1b6:	0e 94 1a 18 	call	0x3034	; 0x3034 <__subsf3>
     1ba:	20 e0       	ldi	r18, 0x00	; 0
     1bc:	30 e0       	ldi	r19, 0x00	; 0
     1be:	40 e0       	ldi	r20, 0x00	; 0
     1c0:	5f e3       	ldi	r21, 0x3F	; 63
     1c2:	0e 94 1b 18 	call	0x3036	; 0x3036 <__addsf3>
     1c6:	0e 94 84 19 	call	0x3308	; 0x3308 <floor>
     1ca:	6b 01       	movw	r12, r22
     1cc:	7c 01       	movw	r14, r24
	
	Int8U oldmode = 0U;
     1ce:	19 82       	std	Y+1, r1	; 0x01
	DrvTwiReadReg(addr,PCA9685_MODE1, &oldmode );
     1d0:	ae 01       	movw	r20, r28
     1d2:	4f 5f       	subi	r20, 0xFF	; 255
     1d4:	5f 4f       	sbci	r21, 0xFF	; 255
     1d6:	60 e0       	ldi	r22, 0x00	; 0
     1d8:	81 2f       	mov	r24, r17
     1da:	0e 94 ca 0f 	call	0x1f94	; 0x1f94 <DrvTwiReadReg>
	Int8U newmode = (oldmode & 0x7FU) | 0x10U; // sleep
	DrvTwiWriteReg(addr,PCA9685_MODE1, newmode); // go to sleep
     1de:	49 81       	ldd	r20, Y+1	; 0x01
     1e0:	4f 76       	andi	r20, 0x6F	; 111
     1e2:	40 61       	ori	r20, 0x10	; 16
     1e4:	60 e0       	ldi	r22, 0x00	; 0
     1e6:	81 2f       	mov	r24, r17
     1e8:	0e 94 39 10 	call	0x2072	; 0x2072 <DrvTwiWriteReg>
	DrvTwiWriteReg(addr,PCA9685_PRESCALE, prescale); // set the prescaler
     1ec:	c7 01       	movw	r24, r14
     1ee:	b6 01       	movw	r22, r12
     1f0:	0e 94 1b 19 	call	0x3236	; 0x3236 <__fixunssfsi>
     1f4:	46 2f       	mov	r20, r22
     1f6:	6e ef       	ldi	r22, 0xFE	; 254
     1f8:	81 2f       	mov	r24, r17
     1fa:	0e 94 39 10 	call	0x2072	; 0x2072 <DrvTwiWriteReg>
	DrvTwiWriteReg(addr,PCA9685_MODE1, oldmode);
     1fe:	49 81       	ldd	r20, Y+1	; 0x01
     200:	60 e0       	ldi	r22, 0x00	; 0
     202:	81 2f       	mov	r24, r17
     204:	0e 94 39 10 	call	0x2072	; 0x2072 <DrvTwiWriteReg>
	DrvTickDelayUs(500U);
     208:	64 ef       	ldi	r22, 0xF4	; 244
     20a:	71 e0       	ldi	r23, 0x01	; 1
     20c:	80 e0       	ldi	r24, 0x00	; 0
     20e:	90 e0       	ldi	r25, 0x00	; 0
     210:	0e 94 1d 0e 	call	0x1c3a	; 0x1c3a <DrvTickDelayUs>
	return DrvTwiWriteReg(addr,PCA9685_MODE1, oldmode | 0xA0U);  //  This sets the MODE1 register to turn on auto increment.
     214:	49 81       	ldd	r20, Y+1	; 0x01
     216:	40 6a       	ori	r20, 0xA0	; 160
     218:	60 e0       	ldi	r22, 0x00	; 0
     21a:	81 2f       	mov	r24, r17
     21c:	0e 94 39 10 	call	0x2072	; 0x2072 <DrvTwiWriteReg>
}
     220:	0f 90       	pop	r0
     222:	df 91       	pop	r29
     224:	cf 91       	pop	r28
     226:	1f 91       	pop	r17
     228:	ff 90       	pop	r15
     22a:	ef 90       	pop	r14
     22c:	df 90       	pop	r13
     22e:	cf 90       	pop	r12
     230:	08 95       	ret

00000232 <CmpPCA9685SetPWM>:


Boolean CmpPCA9685SetPWM(Int8U addr, Int8U num, Int16U on, Int16U off)
{
     232:	cf 93       	push	r28
     234:	df 93       	push	r29
     236:	00 d0       	rcall	.+0      	; 0x238 <CmpPCA9685SetPWM+0x6>
     238:	00 d0       	rcall	.+0      	; 0x23a <CmpPCA9685SetPWM+0x8>
     23a:	cd b7       	in	r28, 0x3d	; 61
     23c:	de b7       	in	r29, 0x3e	; 62
	Int8U buffer [] = {on,on>>8U,off, off>>8U}; 
     23e:	49 83       	std	Y+1, r20	; 0x01
     240:	5a 83       	std	Y+2, r21	; 0x02
     242:	2b 83       	std	Y+3, r18	; 0x03
     244:	3c 83       	std	Y+4, r19	; 0x04
	return DrvTwiWriteRegBuf(addr, LED0_ON_L + 4 * num, buffer, 4);
     246:	66 0f       	add	r22, r22
     248:	66 0f       	add	r22, r22
     24a:	6a 5f       	subi	r22, 0xFA	; 250
     24c:	24 e0       	ldi	r18, 0x04	; 4
     24e:	ae 01       	movw	r20, r28
     250:	4f 5f       	subi	r20, 0xFF	; 255
     252:	5f 4f       	sbci	r21, 0xFF	; 255
     254:	0e 94 89 10 	call	0x2112	; 0x2112 <DrvTwiWriteRegBuf>
}
     258:	0f 90       	pop	r0
     25a:	0f 90       	pop	r0
     25c:	0f 90       	pop	r0
     25e:	0f 90       	pop	r0
     260:	df 91       	pop	r29
     262:	cf 91       	pop	r28
     264:	08 95       	ret

00000266 <DrvAdcInit>:
//return : TRUE si ok
Boolean DrvAdcInit ( void )
{
	Boolean oSuccess = TRUE;
	//AVCC with external capacitor at AREF pin
	BIT_HIGH(ADMUX,REFS0);
     266:	ec e7       	ldi	r30, 0x7C	; 124
     268:	f0 e0       	ldi	r31, 0x00	; 0
     26a:	80 81       	ld	r24, Z
     26c:	80 64       	ori	r24, 0x40	; 64
     26e:	80 83       	st	Z, r24
	BIT_HIGH(ADMUX,REFS1);
     270:	80 81       	ld	r24, Z
     272:	80 68       	ori	r24, 0x80	; 128
     274:	80 83       	st	Z, r24
	//single ended input
	BIT_LOW(ADMUX,MUX4);
     276:	80 81       	ld	r24, Z
     278:	8f 7e       	andi	r24, 0xEF	; 239
     27a:	80 83       	st	Z, r24
	BIT_LOW(ADMUX,MUX3);
     27c:	80 81       	ld	r24, Z
     27e:	87 7f       	andi	r24, 0xF7	; 247
     280:	80 83       	st	Z, r24
	
	//free running
	BIT_LOW(ADCSRB,ADTS0);
     282:	eb e7       	ldi	r30, 0x7B	; 123
     284:	f0 e0       	ldi	r31, 0x00	; 0
     286:	80 81       	ld	r24, Z
     288:	8e 7f       	andi	r24, 0xFE	; 254
     28a:	80 83       	st	Z, r24
	BIT_LOW(ADCSRB,ADTS1);
     28c:	80 81       	ld	r24, Z
     28e:	8d 7f       	andi	r24, 0xFD	; 253
     290:	80 83       	st	Z, r24
	BIT_LOW(ADCSRB,ADTS2);
     292:	80 81       	ld	r24, Z
     294:	8b 7f       	andi	r24, 0xFB	; 251
     296:	80 83       	st	Z, r24
		
	//no start now
	BIT_LOW(ADCSRA,ADSC);
     298:	ea e7       	ldi	r30, 0x7A	; 122
     29a:	f0 e0       	ldi	r31, 0x00	; 0
     29c:	80 81       	ld	r24, Z
     29e:	8f 7b       	andi	r24, 0xBF	; 191
     2a0:	80 83       	st	Z, r24
	//no auto trigger
	BIT_LOW(ADCSRA,ADATE);
     2a2:	80 81       	ld	r24, Z
     2a4:	8f 7d       	andi	r24, 0xDF	; 223
     2a6:	80 83       	st	Z, r24
	//flag
	BIT_LOW(ADCSRA,ADIF);
     2a8:	80 81       	ld	r24, Z
     2aa:	8f 7e       	andi	r24, 0xEF	; 239
     2ac:	80 83       	st	Z, r24
	//disable ADC interrupt
	BIT_LOW(ADCSRA,ADIE);
     2ae:	80 81       	ld	r24, Z
     2b0:	87 7f       	andi	r24, 0xF7	; 247
     2b2:	80 83       	st	Z, r24
	//division factor set to 8
	BIT_HIGH(ADCSRA,ADPS0);
     2b4:	80 81       	ld	r24, Z
     2b6:	81 60       	ori	r24, 0x01	; 1
     2b8:	80 83       	st	Z, r24
	BIT_HIGH(ADCSRA,ADPS1);
     2ba:	80 81       	ld	r24, Z
     2bc:	82 60       	ori	r24, 0x02	; 2
     2be:	80 83       	st	Z, r24
	//enable ADC
	BIT_HIGH(ADCSRA,ADEN);
     2c0:	80 81       	ld	r24, Z
     2c2:	80 68       	ori	r24, 0x80	; 128
     2c4:	80 83       	st	Z, r24
	
	return oSuccess;
}
     2c6:	81 e0       	ldi	r24, 0x01	; 1
     2c8:	08 95       	ret

000002ca <DrvAdcRead>:

//Fonction de lecture ADC
Int16U DrvAdcRead ( EIoPin pin )
{
	//only on ADC pins
	if(pin < EIO_PORT_A)
     2ca:	88 30       	cpi	r24, 0x08	; 8
     2cc:	70 f4       	brcc	.+28     	; 0x2ea <DrvAdcRead+0x20>
	{		
		ADMUX = ((ADMUX & 0xE0U) | pin);
     2ce:	ec e7       	ldi	r30, 0x7C	; 124
     2d0:	f0 e0       	ldi	r31, 0x00	; 0
     2d2:	90 81       	ld	r25, Z
     2d4:	90 7e       	andi	r25, 0xE0	; 224
     2d6:	89 2b       	or	r24, r25
     2d8:	80 83       	st	Z, r24
		BIT_HIGH(ADCSRA,ADSC);
     2da:	ea e7       	ldi	r30, 0x7A	; 122
     2dc:	f0 e0       	ldi	r31, 0x00	; 0
     2de:	80 81       	ld	r24, Z
     2e0:	80 64       	ori	r24, 0x40	; 64
     2e2:	80 83       	st	Z, r24
		while(ADCSRA & (1<<ADSC));
     2e4:	80 81       	ld	r24, Z
     2e6:	86 fd       	sbrc	r24, 6
     2e8:	fd cf       	rjmp	.-6      	; 0x2e4 <DrvAdcRead+0x1a>
	}
	
	//
	adc[E_ADC_0].value = ADC;
     2ea:	80 91 78 00 	lds	r24, 0x0078	; 0x800078 <__TEXT_REGION_LENGTH__+0x7e0078>
     2ee:	90 91 79 00 	lds	r25, 0x0079	; 0x800079 <__TEXT_REGION_LENGTH__+0x7e0079>
     2f2:	90 93 75 0a 	sts	0x0A75, r25	; 0x800a75 <adc+0x1>
     2f6:	80 93 74 0a 	sts	0x0A74, r24	; 0x800a74 <adc>
	return adc[E_ADC_0].value * STEP;		
     2fa:	60 91 74 0a 	lds	r22, 0x0A74	; 0x800a74 <adc>
     2fe:	70 91 75 0a 	lds	r23, 0x0A75	; 0x800a75 <adc+0x1>
     302:	80 e0       	ldi	r24, 0x00	; 0
     304:	90 e0       	ldi	r25, 0x00	; 0
     306:	0e 94 47 19 	call	0x328e	; 0x328e <__floatunsisf>
     30a:	28 e0       	ldi	r18, 0x08	; 8
     30c:	30 e2       	ldi	r19, 0x20	; 32
     30e:	40 e8       	ldi	r20, 0x80	; 128
     310:	5e e3       	ldi	r21, 0x3E	; 62
     312:	0e 94 d0 1a 	call	0x35a0	; 0x35a0 <__mulsf3>
     316:	0e 94 1b 19 	call	0x3236	; 0x3236 <__fixunssfsi>
}
     31a:	cb 01       	movw	r24, r22
     31c:	08 95       	ret

0000031e <DrvBitmapGetBitmapArrow>:
	______XX,XX______,
	_______X,X_______,
};

void DrvBitmapGetBitmapArrow( SBitmap *bmp, EBitmapArrow value )
{
     31e:	fc 01       	movw	r30, r24
	if(value == ARROW_UP)	bmp->bmp = bitmapArrowUp;
     320:	61 11       	cpse	r22, r1
     322:	05 c0       	rjmp	.+10     	; 0x32e <DrvBitmapGetBitmapArrow+0x10>
     324:	88 e1       	ldi	r24, 0x18	; 24
     326:	91 e0       	ldi	r25, 0x01	; 1
     328:	91 83       	std	Z+1, r25	; 0x01
     32a:	80 83       	st	Z, r24
     32c:	1b c0       	rjmp	.+54     	; 0x364 <DrvBitmapGetBitmapArrow+0x46>
	else if(value == ARROW_DOWN)	bmp->bmp = bitmapArrowDown;
     32e:	61 30       	cpi	r22, 0x01	; 1
     330:	29 f4       	brne	.+10     	; 0x33c <DrvBitmapGetBitmapArrow+0x1e>
     332:	8c e0       	ldi	r24, 0x0C	; 12
     334:	91 e0       	ldi	r25, 0x01	; 1
     336:	91 83       	std	Z+1, r25	; 0x01
     338:	80 83       	st	Z, r24
     33a:	14 c0       	rjmp	.+40     	; 0x364 <DrvBitmapGetBitmapArrow+0x46>
	else if(value == ARROW_LEFT)	bmp->bmp = bitmapArrowLeft;
     33c:	62 30       	cpi	r22, 0x02	; 2
     33e:	29 f4       	brne	.+10     	; 0x34a <DrvBitmapGetBitmapArrow+0x2c>
     340:	84 e2       	ldi	r24, 0x24	; 36
     342:	91 e0       	ldi	r25, 0x01	; 1
     344:	91 83       	std	Z+1, r25	; 0x01
     346:	80 83       	st	Z, r24
     348:	0d c0       	rjmp	.+26     	; 0x364 <DrvBitmapGetBitmapArrow+0x46>
	else if(value == ARROW_RIGHT)	bmp->bmp = bitmapArrowRight;
     34a:	63 30       	cpi	r22, 0x03	; 3
     34c:	29 f4       	brne	.+10     	; 0x358 <DrvBitmapGetBitmapArrow+0x3a>
     34e:	80 e3       	ldi	r24, 0x30	; 48
     350:	91 e0       	ldi	r25, 0x01	; 1
     352:	91 83       	std	Z+1, r25	; 0x01
     354:	80 83       	st	Z, r24
     356:	06 c0       	rjmp	.+12     	; 0x364 <DrvBitmapGetBitmapArrow+0x46>
	else if(value == ARROW_CENTER)	bmp->bmp = bitmapArrowCenter;
     358:	64 30       	cpi	r22, 0x04	; 4
     35a:	21 f4       	brne	.+8      	; 0x364 <DrvBitmapGetBitmapArrow+0x46>
     35c:	80 e0       	ldi	r24, 0x00	; 0
     35e:	91 e0       	ldi	r25, 0x01	; 1
     360:	91 83       	std	Z+1, r25	; 0x01
     362:	80 83       	st	Z, r24
	bmp->width = 8U * 2U;
     364:	80 e1       	ldi	r24, 0x10	; 16
     366:	90 e0       	ldi	r25, 0x00	; 0
     368:	93 83       	std	Z+3, r25	; 0x03
     36a:	82 83       	std	Z+2, r24	; 0x02
	bmp->height = 6U;
     36c:	86 e0       	ldi	r24, 0x06	; 6
     36e:	90 e0       	ldi	r25, 0x00	; 0
     370:	95 83       	std	Z+5, r25	; 0x05
     372:	84 83       	std	Z+4, r24	; 0x04
     374:	08 95       	ret

00000376 <DrvBitmapGetBitmapBatteryValue>:
}

void DrvBitmapGetBitmapBatteryValue( SBitmap *bmp, uint8_t value )
{
     376:	fc 01       	movw	r30, r24
	if(value == 100)	bmp->bmp = bitmapBattery100;
     378:	64 36       	cpi	r22, 0x64	; 100
     37a:	29 f4       	brne	.+10     	; 0x386 <DrvBitmapGetBitmapBatteryValue+0x10>
     37c:	84 e7       	ldi	r24, 0x74	; 116
     37e:	91 e0       	ldi	r25, 0x01	; 1
     380:	91 83       	std	Z+1, r25	; 0x01
     382:	80 83       	st	Z, r24
     384:	19 c0       	rjmp	.+50     	; 0x3b8 <DrvBitmapGetBitmapBatteryValue+0x42>
	else if(value >= 75)	bmp->bmp = bitmapBattery75;
     386:	6b 34       	cpi	r22, 0x4B	; 75
     388:	28 f0       	brcs	.+10     	; 0x394 <DrvBitmapGetBitmapBatteryValue+0x1e>
     38a:	86 e6       	ldi	r24, 0x66	; 102
     38c:	91 e0       	ldi	r25, 0x01	; 1
     38e:	91 83       	std	Z+1, r25	; 0x01
     390:	80 83       	st	Z, r24
     392:	12 c0       	rjmp	.+36     	; 0x3b8 <DrvBitmapGetBitmapBatteryValue+0x42>
	else if(value >= 50)	bmp->bmp = bitmapBattery50;
     394:	62 33       	cpi	r22, 0x32	; 50
     396:	28 f0       	brcs	.+10     	; 0x3a2 <DrvBitmapGetBitmapBatteryValue+0x2c>
     398:	88 e5       	ldi	r24, 0x58	; 88
     39a:	91 e0       	ldi	r25, 0x01	; 1
     39c:	91 83       	std	Z+1, r25	; 0x01
     39e:	80 83       	st	Z, r24
     3a0:	0b c0       	rjmp	.+22     	; 0x3b8 <DrvBitmapGetBitmapBatteryValue+0x42>
	else if(value >= 25)	bmp->bmp = bitmapBattery25;
     3a2:	69 31       	cpi	r22, 0x19	; 25
     3a4:	28 f0       	brcs	.+10     	; 0x3b0 <DrvBitmapGetBitmapBatteryValue+0x3a>
     3a6:	8a e4       	ldi	r24, 0x4A	; 74
     3a8:	91 e0       	ldi	r25, 0x01	; 1
     3aa:	91 83       	std	Z+1, r25	; 0x01
     3ac:	80 83       	st	Z, r24
     3ae:	04 c0       	rjmp	.+8      	; 0x3b8 <DrvBitmapGetBitmapBatteryValue+0x42>
	else bmp->bmp = bitmapBattery0;
     3b0:	8c e3       	ldi	r24, 0x3C	; 60
     3b2:	91 e0       	ldi	r25, 0x01	; 1
     3b4:	91 83       	std	Z+1, r25	; 0x01
     3b6:	80 83       	st	Z, r24
	bmp->width = 8U * 2U;
     3b8:	80 e1       	ldi	r24, 0x10	; 16
     3ba:	90 e0       	ldi	r25, 0x00	; 0
     3bc:	93 83       	std	Z+3, r25	; 0x03
     3be:	82 83       	std	Z+2, r24	; 0x02
	bmp->height = 7U;
     3c0:	87 e0       	ldi	r24, 0x07	; 7
     3c2:	90 e0       	ldi	r25, 0x00	; 0
     3c4:	95 83       	std	Z+5, r25	; 0x05
     3c6:	84 83       	std	Z+4, r24	; 0x04
     3c8:	08 95       	ret

000003ca <DrvButtonIsrCallbackTimer>:

//Fonction qui retourne l'etat actuel du bouton
EButtonState DrvButtonGetState( Int8U idButton )
{
	return MesButtons[ idButton ].state;
}
     3ca:	80 91 77 0a 	lds	r24, 0x0A77	; 0x800a77 <MesButtons+0x1>
     3ce:	81 30       	cpi	r24, 0x01	; 1
     3d0:	51 f5       	brne	.+84     	; 0x426 <__LOCK_REGION_LENGTH__+0x26>
     3d2:	80 91 79 0a 	lds	r24, 0x0A79	; 0x800a79 <MesButtons+0x3>
     3d6:	81 30       	cpi	r24, 0x01	; 1
     3d8:	99 f4       	brne	.+38     	; 0x400 <__LOCK_REGION_LENGTH__>
     3da:	80 91 76 0a 	lds	r24, 0x0A76	; 0x800a76 <MesButtons>
     3de:	cd d0       	rcall	.+410    	; 0x57a <DrvIoGetPinState>
     3e0:	81 11       	cpse	r24, r1
     3e2:	0b c0       	rjmp	.+22     	; 0x3fa <DrvButtonIsrCallbackTimer+0x30>
     3e4:	e6 e7       	ldi	r30, 0x76	; 118
     3e6:	fa e0       	ldi	r31, 0x0A	; 10
     3e8:	82 81       	ldd	r24, Z+2	; 0x02
     3ea:	8f 5f       	subi	r24, 0xFF	; 255
     3ec:	82 83       	std	Z+2, r24	; 0x02
     3ee:	82 81       	ldd	r24, Z+2	; 0x02
     3f0:	8a 30       	cpi	r24, 0x0A	; 10
     3f2:	c8 f0       	brcs	.+50     	; 0x426 <__LOCK_REGION_LENGTH__+0x26>
     3f4:	13 82       	std	Z+3, r1	; 0x03
     3f6:	12 82       	std	Z+2, r1	; 0x02
     3f8:	08 95       	ret
     3fa:	10 92 78 0a 	sts	0x0A78, r1	; 0x800a78 <MesButtons+0x2>
     3fe:	08 95       	ret
     400:	80 91 76 0a 	lds	r24, 0x0A76	; 0x800a76 <MesButtons>
     404:	ba d0       	rcall	.+372    	; 0x57a <DrvIoGetPinState>
     406:	81 30       	cpi	r24, 0x01	; 1
     408:	61 f4       	brne	.+24     	; 0x422 <__LOCK_REGION_LENGTH__+0x22>
     40a:	e6 e7       	ldi	r30, 0x76	; 118
     40c:	fa e0       	ldi	r31, 0x0A	; 10
     40e:	82 81       	ldd	r24, Z+2	; 0x02
     410:	8f 5f       	subi	r24, 0xFF	; 255
     412:	82 83       	std	Z+2, r24	; 0x02
     414:	82 81       	ldd	r24, Z+2	; 0x02
     416:	8a 30       	cpi	r24, 0x0A	; 10
     418:	30 f0       	brcs	.+12     	; 0x426 <__LOCK_REGION_LENGTH__+0x26>
     41a:	81 e0       	ldi	r24, 0x01	; 1
     41c:	83 83       	std	Z+3, r24	; 0x03
     41e:	12 82       	std	Z+2, r1	; 0x02
     420:	08 95       	ret
     422:	10 92 78 0a 	sts	0x0A78, r1	; 0x800a78 <MesButtons+0x2>
     426:	08 95       	ret

00000428 <DrvButtonInit>:
     428:	25 ee       	ldi	r18, 0xE5	; 229
     42a:	31 e0       	ldi	r19, 0x01	; 1
     42c:	41 e0       	ldi	r20, 0x01	; 1
     42e:	65 e0       	ldi	r22, 0x05	; 5
     430:	70 e0       	ldi	r23, 0x00	; 0
     432:	80 e0       	ldi	r24, 0x00	; 0
     434:	0e 94 7c 0e 	call	0x1cf8	; 0x1cf8 <DrvTimerAddTimer>
     438:	81 e0       	ldi	r24, 0x01	; 1
     43a:	08 95       	ret

0000043c <DrvButtonAddButton>:
     43c:	81 11       	cpse	r24, r1
     43e:	0d c0       	rjmp	.+26     	; 0x45a <DrvButtonAddButton+0x1e>
     440:	80 91 82 01 	lds	r24, 0x0182	; 0x800182 <ButtonsPins>
     444:	e6 e7       	ldi	r30, 0x76	; 118
     446:	fa e0       	ldi	r31, 0x0A	; 10
     448:	80 83       	st	Z, r24
     44a:	81 e0       	ldi	r24, 0x01	; 1
     44c:	81 83       	std	Z+1, r24	; 0x01
     44e:	12 82       	std	Z+2, r1	; 0x02
     450:	14 82       	std	Z+4, r1	; 0x04
     452:	83 83       	std	Z+3, r24	; 0x03
     454:	80 81       	ld	r24, Z
     456:	70 c0       	rjmp	.+224    	; 0x538 <DrvIoSetPinInput>
     458:	08 95       	ret
     45a:	80 e0       	ldi	r24, 0x00	; 0
     45c:	08 95       	ret

0000045e <DrvButtonPushed>:

//Fonction qui retourne le changement d'etat du bouton
Boolean DrvButtonPushed( Int8U idButton )
{
	Boolean oStatus = FALSE;
	if(MesButtons[ idButton ].state == E_BUTTON_STATE_PUSHED)
     45e:	90 e0       	ldi	r25, 0x00	; 0
     460:	fc 01       	movw	r30, r24
     462:	ee 0f       	add	r30, r30
     464:	ff 1f       	adc	r31, r31
     466:	ee 0f       	add	r30, r30
     468:	ff 1f       	adc	r31, r31
     46a:	e8 0f       	add	r30, r24
     46c:	f9 1f       	adc	r31, r25
     46e:	ea 58       	subi	r30, 0x8A	; 138
     470:	f5 4f       	sbci	r31, 0xF5	; 245
     472:	23 81       	ldd	r18, Z+3	; 0x03
     474:	21 11       	cpse	r18, r1
     476:	19 c0       	rjmp	.+50     	; 0x4aa <DrvButtonPushed+0x4c>
	{
		if(	FALSE == MesButtons[ idButton ].buttonPushed )
     478:	fc 01       	movw	r30, r24
     47a:	ee 0f       	add	r30, r30
     47c:	ff 1f       	adc	r31, r31
     47e:	ee 0f       	add	r30, r30
     480:	ff 1f       	adc	r31, r31
     482:	e8 0f       	add	r30, r24
     484:	f9 1f       	adc	r31, r25
     486:	ea 58       	subi	r30, 0x8A	; 138
     488:	f5 4f       	sbci	r31, 0xF5	; 245
     48a:	24 81       	ldd	r18, Z+4	; 0x04
     48c:	21 11       	cpse	r18, r1
     48e:	1a c0       	rjmp	.+52     	; 0x4c4 <DrvButtonPushed+0x66>
		{
			MesButtons[ idButton ].buttonPushed = TRUE;
     490:	fc 01       	movw	r30, r24
     492:	ee 0f       	add	r30, r30
     494:	ff 1f       	adc	r31, r31
     496:	ee 0f       	add	r30, r30
     498:	ff 1f       	adc	r31, r31
     49a:	8e 0f       	add	r24, r30
     49c:	9f 1f       	adc	r25, r31
     49e:	fc 01       	movw	r30, r24
     4a0:	ea 58       	subi	r30, 0x8A	; 138
     4a2:	f5 4f       	sbci	r31, 0xF5	; 245
     4a4:	81 e0       	ldi	r24, 0x01	; 1
     4a6:	84 83       	std	Z+4, r24	; 0x04
     4a8:	08 95       	ret
			oStatus = TRUE;
		}
	}
	else
	{
		MesButtons[ idButton ].buttonPushed = FALSE;
     4aa:	fc 01       	movw	r30, r24
     4ac:	ee 0f       	add	r30, r30
     4ae:	ff 1f       	adc	r31, r31
     4b0:	ee 0f       	add	r30, r30
     4b2:	ff 1f       	adc	r31, r31
     4b4:	8e 0f       	add	r24, r30
     4b6:	9f 1f       	adc	r25, r31
     4b8:	fc 01       	movw	r30, r24
     4ba:	ea 58       	subi	r30, 0x8A	; 138
     4bc:	f5 4f       	sbci	r31, 0xF5	; 245
     4be:	14 82       	std	Z+4, r1	; 0x04
		oStatus = FALSE;
     4c0:	80 e0       	ldi	r24, 0x00	; 0
     4c2:	08 95       	ret


//Fonction qui retourne le changement d'etat du bouton
Boolean DrvButtonPushed( Int8U idButton )
{
	Boolean oStatus = FALSE;
     4c4:	80 e0       	ldi	r24, 0x00	; 0
	{
		MesButtons[ idButton ].buttonPushed = FALSE;
		oStatus = FALSE;
	}
	return oStatus;
}
     4c6:	08 95       	ret

000004c8 <DrvEepromIsConfigured>:
}
////////////////////////////////////////PRIVATE FUNCTIONS/////////////////////////////////////////
//Fonction de lecture eeprom
static Int8U DrvEepromReadByte ( const Int8U * addr )
{
	return eeprom_read_byte(addr);
     4c8:	80 e0       	ldi	r24, 0x00	; 0
     4ca:	90 e0       	ldi	r25, 0x00	; 0
     4cc:	0e 94 2e 1c 	call	0x385c	; 0x385c <eeprom_read_byte>
}

//retourne l'etat de config de l'eeprom
Boolean DrvEepromIsConfigured ( void )
{
	return DrvEepromReadByte( ADDR_EEPROM_CHECK_EEPROM ) == EEPROM_DEFAULT_VALUE ? FALSE : TRUE ;
     4d0:	91 e0       	ldi	r25, 0x01	; 1
     4d2:	8f 3f       	cpi	r24, 0xFF	; 255
     4d4:	09 f4       	brne	.+2      	; 0x4d8 <DrvEepromIsConfigured+0x10>
     4d6:	90 e0       	ldi	r25, 0x00	; 0
}
     4d8:	89 2f       	mov	r24, r25
     4da:	08 95       	ret

000004dc <DrvEepromInit>:
Boolean DrvEepromInit ( void )
{
	Boolean oSuccess = TRUE;
	
	//return from boot with OK
	if( DrvEepromIsConfigured() != TRUE ) 
     4dc:	f5 df       	rcall	.-22     	; 0x4c8 <DrvEepromIsConfigured>
     4de:	81 30       	cpi	r24, 0x01	; 1
     4e0:	51 f0       	breq	.+20     	; 0x4f6 <DrvEepromInit+0x1a>
//Fonction d ecriture eeprom
static void DrvEepromWriteByte ( Int8U * addr, Int8U byte)
{
	if(EEPROM_WRITE_ENABLE)
	{
		eeprom_write_byte(addr,byte);
     4e2:	60 e1       	ldi	r22, 0x10	; 16
     4e4:	81 e0       	ldi	r24, 0x01	; 1
     4e6:	90 e0       	ldi	r25, 0x00	; 0
     4e8:	0e 94 36 1c 	call	0x386c	; 0x386c <eeprom_write_byte>
     4ec:	60 e5       	ldi	r22, 0x50	; 80
     4ee:	82 e0       	ldi	r24, 0x02	; 2
     4f0:	90 e0       	ldi	r25, 0x00	; 0
     4f2:	0e 94 36 1c 	call	0x386c	; 0x386c <eeprom_write_byte>
		//on ecrit la version hardware
		DrvEepromWriteByte(ADDR_EEPROM_VERSION_HARD, VERSION_HARDWARE);
	}

	return oSuccess;
}
     4f6:	81 e0       	ldi	r24, 0x01	; 1
     4f8:	08 95       	ret

000004fa <DrvEepromSetConfiguration>:
//Fonction d ecriture eeprom
static void DrvEepromWriteByte ( Int8U * addr, Int8U byte)
{
	if(EEPROM_WRITE_ENABLE)
	{
		eeprom_write_byte(addr,byte);
     4fa:	61 e0       	ldi	r22, 0x01	; 1
     4fc:	80 e0       	ldi	r24, 0x00	; 0
     4fe:	90 e0       	ldi	r25, 0x00	; 0
     500:	0c 94 36 1c 	jmp	0x386c	; 0x386c <eeprom_write_byte>
     504:	08 95       	ret

00000506 <DrvIoSetPinOutput>:
////////////////////////////////////////PUBILC FUNCTIONS//////////////////////////////////////////
Boolean DrvIoSetPinOutput ( EIoPin pin ) 
{
	Boolean o_success = FALSE;
	
	if( pin < EIO_NB_PIN )
     506:	80 32       	cpi	r24, 0x20	; 32
     508:	a8 f4       	brcc	.+42     	; 0x534 <DrvIoSetPinOutput+0x2e>
	{
		*(ioTable[ pin ].ddr) |= (1 << ioTable[ pin ].bit);
     50a:	97 e0       	ldi	r25, 0x07	; 7
     50c:	89 9f       	mul	r24, r25
     50e:	f0 01       	movw	r30, r0
     510:	11 24       	eor	r1, r1
     512:	ec 56       	subi	r30, 0x6C	; 108
     514:	fc 4f       	sbci	r31, 0xFC	; 252
     516:	a2 81       	ldd	r26, Z+2	; 0x02
     518:	b3 81       	ldd	r27, Z+3	; 0x03
     51a:	2c 91       	ld	r18, X
     51c:	81 e0       	ldi	r24, 0x01	; 1
     51e:	90 e0       	ldi	r25, 0x00	; 0
     520:	06 80       	ldd	r0, Z+6	; 0x06
     522:	02 c0       	rjmp	.+4      	; 0x528 <DrvIoSetPinOutput+0x22>
     524:	88 0f       	add	r24, r24
     526:	99 1f       	adc	r25, r25
     528:	0a 94       	dec	r0
     52a:	e2 f7       	brpl	.-8      	; 0x524 <DrvIoSetPinOutput+0x1e>
     52c:	82 2b       	or	r24, r18
     52e:	8c 93       	st	X, r24
		o_success = TRUE;
     530:	81 e0       	ldi	r24, 0x01	; 1
     532:	08 95       	ret


////////////////////////////////////////PUBILC FUNCTIONS//////////////////////////////////////////
Boolean DrvIoSetPinOutput ( EIoPin pin ) 
{
	Boolean o_success = FALSE;
     534:	80 e0       	ldi	r24, 0x00	; 0
	{
		*(ioTable[ pin ].ddr) |= (1 << ioTable[ pin ].bit);
		o_success = TRUE;
	}
	return o_success;
}
     536:	08 95       	ret

00000538 <DrvIoSetPinInput>:

Boolean DrvIoSetPinInput ( EIoPin pin ) 
{
	Boolean o_success = FALSE;
	if( pin < EIO_NB_PIN )
     538:	80 32       	cpi	r24, 0x20	; 32
     53a:	e8 f4       	brcc	.+58     	; 0x576 <DrvIoSetPinInput+0x3e>
	{
		*(ioTable[ pin ].ddr) &=~ (1 << ioTable[ pin ].bit);
     53c:	97 e0       	ldi	r25, 0x07	; 7
     53e:	89 9f       	mul	r24, r25
     540:	f0 01       	movw	r30, r0
     542:	11 24       	eor	r1, r1
     544:	ec 56       	subi	r30, 0x6C	; 108
     546:	fc 4f       	sbci	r31, 0xFC	; 252
     548:	a2 81       	ldd	r26, Z+2	; 0x02
     54a:	b3 81       	ldd	r27, Z+3	; 0x03
     54c:	2c 91       	ld	r18, X
     54e:	81 e0       	ldi	r24, 0x01	; 1
     550:	90 e0       	ldi	r25, 0x00	; 0
     552:	06 80       	ldd	r0, Z+6	; 0x06
     554:	02 c0       	rjmp	.+4      	; 0x55a <DrvIoSetPinInput+0x22>
     556:	88 0f       	add	r24, r24
     558:	99 1f       	adc	r25, r25
     55a:	0a 94       	dec	r0
     55c:	e2 f7       	brpl	.-8      	; 0x556 <DrvIoSetPinInput+0x1e>
     55e:	80 95       	com	r24
     560:	92 2f       	mov	r25, r18
     562:	98 23       	and	r25, r24
     564:	9c 93       	st	X, r25
		*(ioTable[ pin ].port) &=~ (1 << ioTable[ pin ].bit);
     566:	01 90       	ld	r0, Z+
     568:	f0 81       	ld	r31, Z
     56a:	e0 2d       	mov	r30, r0
     56c:	90 81       	ld	r25, Z
     56e:	89 23       	and	r24, r25
     570:	80 83       	st	Z, r24
		o_success = TRUE;
     572:	81 e0       	ldi	r24, 0x01	; 1
     574:	08 95       	ret
	return o_success;
}

Boolean DrvIoSetPinInput ( EIoPin pin ) 
{
	Boolean o_success = FALSE;
     576:	80 e0       	ldi	r24, 0x00	; 0
		*(ioTable[ pin ].ddr) &=~ (1 << ioTable[ pin ].bit);
		*(ioTable[ pin ].port) &=~ (1 << ioTable[ pin ].bit);
		o_success = TRUE;
	}
	return o_success;
}
     578:	08 95       	ret

0000057a <DrvIoGetPinState>:

EIOLevel DrvIoGetPinState ( EIoPin pin )
{
	EIOLevel pin_value = IO_LEVEL_LOW;

	pin_value = *(ioTable[pin].pin);
     57a:	27 e0       	ldi	r18, 0x07	; 7
     57c:	82 9f       	mul	r24, r18
     57e:	c0 01       	movw	r24, r0
     580:	11 24       	eor	r1, r1
     582:	fc 01       	movw	r30, r24
     584:	ec 56       	subi	r30, 0x6C	; 108
     586:	fc 4f       	sbci	r31, 0xFC	; 252
     588:	a4 81       	ldd	r26, Z+4	; 0x04
     58a:	b5 81       	ldd	r27, Z+5	; 0x05
     58c:	8c 91       	ld	r24, X
	pin_value = pin_value >> ioTable[pin].bit;
     58e:	90 e0       	ldi	r25, 0x00	; 0
     590:	06 80       	ldd	r0, Z+6	; 0x06
     592:	02 c0       	rjmp	.+4      	; 0x598 <DrvIoGetPinState+0x1e>
     594:	95 95       	asr	r25
     596:	87 95       	ror	r24
     598:	0a 94       	dec	r0
     59a:	e2 f7       	brpl	.-8      	; 0x594 <DrvIoGetPinState+0x1a>
	pin_value &= 0x01U;

	return pin_value ;
}
     59c:	81 70       	andi	r24, 0x01	; 1
     59e:	08 95       	ret

000005a0 <DrvIoSetPinState>:

void DrvIoSetPinState ( EIoPin pin , EIOLevel level)
{
	EIOLevel not_level = ((EIOLevel)(~level)) & 0x01U ;

	*(ioTable[pin].port) &= (Int8U)(~(Int8U)(not_level << (Int8U)ioTable[pin].bit));
     5a0:	27 e0       	ldi	r18, 0x07	; 7
     5a2:	82 9f       	mul	r24, r18
     5a4:	c0 01       	movw	r24, r0
     5a6:	11 24       	eor	r1, r1
     5a8:	dc 01       	movw	r26, r24
     5aa:	ac 56       	subi	r26, 0x6C	; 108
     5ac:	bc 4f       	sbci	r27, 0xFC	; 252
     5ae:	ed 91       	ld	r30, X+
     5b0:	fc 91       	ld	r31, X
     5b2:	11 97       	sbiw	r26, 0x01	; 1
     5b4:	80 81       	ld	r24, Z
     5b6:	16 96       	adiw	r26, 0x06	; 6
     5b8:	4c 91       	ld	r20, X
     5ba:	91 e0       	ldi	r25, 0x01	; 1
     5bc:	96 27       	eor	r25, r22
     5be:	29 2f       	mov	r18, r25
     5c0:	21 70       	andi	r18, 0x01	; 1
     5c2:	30 e0       	ldi	r19, 0x00	; 0
     5c4:	04 2e       	mov	r0, r20
     5c6:	02 c0       	rjmp	.+4      	; 0x5cc <DrvIoSetPinState+0x2c>
     5c8:	22 0f       	add	r18, r18
     5ca:	33 1f       	adc	r19, r19
     5cc:	0a 94       	dec	r0
     5ce:	e2 f7       	brpl	.-8      	; 0x5c8 <DrvIoSetPinState+0x28>
     5d0:	20 95       	com	r18
     5d2:	28 23       	and	r18, r24
     5d4:	20 83       	st	Z, r18
	*(ioTable[pin].port) |= (Int8U)( level << (Int8U)ioTable[pin].bit );
     5d6:	80 81       	ld	r24, Z
     5d8:	70 e0       	ldi	r23, 0x00	; 0
     5da:	02 c0       	rjmp	.+4      	; 0x5e0 <DrvIoSetPinState+0x40>
     5dc:	66 0f       	add	r22, r22
     5de:	77 1f       	adc	r23, r23
     5e0:	4a 95       	dec	r20
     5e2:	e2 f7       	brpl	.-8      	; 0x5dc <DrvIoSetPinState+0x3c>
     5e4:	68 2b       	or	r22, r24
     5e6:	60 83       	st	Z, r22
     5e8:	08 95       	ret

000005ea <DrvLedIsrCallbackTimer>:
		MesLeds[ idLed ].mode = E_LED_ON_OFF;
		MesLeds[ idLed ].state = E_LED_STATE_OFF;
		DrvIoSetPinState(MesLeds[ idLed ].pin,FALSE);
	}
	return oSuccess;
}
     5ea:	cf 92       	push	r12
     5ec:	df 92       	push	r13
     5ee:	ef 92       	push	r14
     5f0:	ff 92       	push	r15
     5f2:	1f 93       	push	r17
     5f4:	cf 93       	push	r28
     5f6:	df 93       	push	r29
     5f8:	c0 e0       	ldi	r28, 0x00	; 0
     5fa:	d0 e0       	ldi	r29, 0x00	; 0
     5fc:	1b e0       	ldi	r17, 0x0B	; 11
     5fe:	7e 01       	movw	r14, r28
     600:	1c 9f       	mul	r17, r28
     602:	f0 01       	movw	r30, r0
     604:	1d 9f       	mul	r17, r29
     606:	f0 0d       	add	r31, r0
     608:	11 24       	eor	r1, r1
     60a:	e5 58       	subi	r30, 0x85	; 133
     60c:	f5 4f       	sbci	r31, 0xF5	; 245
     60e:	82 81       	ldd	r24, Z+2	; 0x02
     610:	81 30       	cpi	r24, 0x01	; 1
     612:	09 f0       	breq	.+2      	; 0x616 <DrvLedIsrCallbackTimer+0x2c>
     614:	4b c0       	rjmp	.+150    	; 0x6ac <DrvLedIsrCallbackTimer+0xc2>
     616:	1c 9f       	mul	r17, r28
     618:	f0 01       	movw	r30, r0
     61a:	1d 9f       	mul	r17, r29
     61c:	f0 0d       	add	r31, r0
     61e:	11 24       	eor	r1, r1
     620:	e5 58       	subi	r30, 0x85	; 133
     622:	f5 4f       	sbci	r31, 0xF5	; 245
     624:	81 81       	ldd	r24, Z+1	; 0x01
     626:	81 11       	cpse	r24, r1
     628:	1c c0       	rjmp	.+56     	; 0x662 <DrvLedIsrCallbackTimer+0x78>
     62a:	1c 9f       	mul	r17, r28
     62c:	f0 01       	movw	r30, r0
     62e:	1d 9f       	mul	r17, r29
     630:	f0 0d       	add	r31, r0
     632:	11 24       	eor	r1, r1
     634:	e5 58       	subi	r30, 0x85	; 133
     636:	f5 4f       	sbci	r31, 0xF5	; 245
     638:	85 81       	ldd	r24, Z+5	; 0x05
     63a:	96 81       	ldd	r25, Z+6	; 0x06
     63c:	9c 01       	movw	r18, r24
     63e:	2f 5f       	subi	r18, 0xFF	; 255
     640:	3f 4f       	sbci	r19, 0xFF	; 255
     642:	36 83       	std	Z+6, r19	; 0x06
     644:	25 83       	std	Z+5, r18	; 0x05
     646:	23 81       	ldd	r18, Z+3	; 0x03
     648:	34 81       	ldd	r19, Z+4	; 0x04
     64a:	28 17       	cp	r18, r24
     64c:	39 07       	cpc	r19, r25
     64e:	48 f4       	brcc	.+18     	; 0x662 <DrvLedIsrCallbackTimer+0x78>
     650:	6f 01       	movw	r12, r30
     652:	81 e0       	ldi	r24, 0x01	; 1
     654:	81 83       	std	Z+1, r24	; 0x01
     656:	80 81       	ld	r24, Z
     658:	60 e0       	ldi	r22, 0x00	; 0
     65a:	a2 df       	rcall	.-188    	; 0x5a0 <DrvIoSetPinState>
     65c:	f6 01       	movw	r30, r12
     65e:	16 82       	std	Z+6, r1	; 0x06
     660:	15 82       	std	Z+5, r1	; 0x05
     662:	1e 9d       	mul	r17, r14
     664:	f0 01       	movw	r30, r0
     666:	1f 9d       	mul	r17, r15
     668:	f0 0d       	add	r31, r0
     66a:	11 24       	eor	r1, r1
     66c:	e5 58       	subi	r30, 0x85	; 133
     66e:	f5 4f       	sbci	r31, 0xF5	; 245
     670:	81 81       	ldd	r24, Z+1	; 0x01
     672:	81 30       	cpi	r24, 0x01	; 1
     674:	d9 f4       	brne	.+54     	; 0x6ac <DrvLedIsrCallbackTimer+0xc2>
     676:	1e 9d       	mul	r17, r14
     678:	f0 01       	movw	r30, r0
     67a:	1f 9d       	mul	r17, r15
     67c:	f0 0d       	add	r31, r0
     67e:	11 24       	eor	r1, r1
     680:	e5 58       	subi	r30, 0x85	; 133
     682:	f5 4f       	sbci	r31, 0xF5	; 245
     684:	87 81       	ldd	r24, Z+7	; 0x07
     686:	90 85       	ldd	r25, Z+8	; 0x08
     688:	9c 01       	movw	r18, r24
     68a:	2f 5f       	subi	r18, 0xFF	; 255
     68c:	3f 4f       	sbci	r19, 0xFF	; 255
     68e:	30 87       	std	Z+8, r19	; 0x08
     690:	27 83       	std	Z+7, r18	; 0x07
     692:	21 85       	ldd	r18, Z+9	; 0x09
     694:	32 85       	ldd	r19, Z+10	; 0x0a
     696:	28 17       	cp	r18, r24
     698:	39 07       	cpc	r19, r25
     69a:	40 f4       	brcc	.+16     	; 0x6ac <DrvLedIsrCallbackTimer+0xc2>
     69c:	7f 01       	movw	r14, r30
     69e:	11 82       	std	Z+1, r1	; 0x01
     6a0:	80 81       	ld	r24, Z
     6a2:	61 e0       	ldi	r22, 0x01	; 1
     6a4:	7d df       	rcall	.-262    	; 0x5a0 <DrvIoSetPinState>
     6a6:	f7 01       	movw	r30, r14
     6a8:	10 86       	std	Z+8, r1	; 0x08
     6aa:	17 82       	std	Z+7, r1	; 0x07
     6ac:	21 96       	adiw	r28, 0x01	; 1
     6ae:	c4 30       	cpi	r28, 0x04	; 4
     6b0:	d1 05       	cpc	r29, r1
     6b2:	09 f0       	breq	.+2      	; 0x6b6 <DrvLedIsrCallbackTimer+0xcc>
     6b4:	a4 cf       	rjmp	.-184    	; 0x5fe <DrvLedIsrCallbackTimer+0x14>
     6b6:	df 91       	pop	r29
     6b8:	cf 91       	pop	r28
     6ba:	1f 91       	pop	r17
     6bc:	ff 90       	pop	r15
     6be:	ef 90       	pop	r14
     6c0:	df 90       	pop	r13
     6c2:	cf 90       	pop	r12
     6c4:	08 95       	ret

000006c6 <DrvLedInit>:
     6c6:	25 ef       	ldi	r18, 0xF5	; 245
     6c8:	32 e0       	ldi	r19, 0x02	; 2
     6ca:	41 e0       	ldi	r20, 0x01	; 1
     6cc:	61 e0       	ldi	r22, 0x01	; 1
     6ce:	70 e0       	ldi	r23, 0x00	; 0
     6d0:	81 e0       	ldi	r24, 0x01	; 1
     6d2:	0e 94 7c 0e 	call	0x1cf8	; 0x1cf8 <DrvTimerAddTimer>
     6d6:	81 e0       	ldi	r24, 0x01	; 1
     6d8:	08 95       	ret

000006da <DrvLedSetPinLed>:
     6da:	84 30       	cpi	r24, 0x04	; 4
     6dc:	e0 f4       	brcc	.+56     	; 0x716 <DrvLedSetPinLed+0x3c>
     6de:	90 e0       	ldi	r25, 0x00	; 0
     6e0:	fc 01       	movw	r30, r24
     6e2:	ed 57       	subi	r30, 0x7D	; 125
     6e4:	fe 4f       	sbci	r31, 0xFE	; 254
     6e6:	20 81       	ld	r18, Z
     6e8:	3b e0       	ldi	r19, 0x0B	; 11
     6ea:	38 9f       	mul	r19, r24
     6ec:	f0 01       	movw	r30, r0
     6ee:	39 9f       	mul	r19, r25
     6f0:	f0 0d       	add	r31, r0
     6f2:	11 24       	eor	r1, r1
     6f4:	e5 58       	subi	r30, 0x85	; 133
     6f6:	f5 4f       	sbci	r31, 0xF5	; 245
     6f8:	20 83       	st	Z, r18
     6fa:	81 e0       	ldi	r24, 0x01	; 1
     6fc:	81 83       	std	Z+1, r24	; 0x01
     6fe:	12 82       	std	Z+2, r1	; 0x02
     700:	14 82       	std	Z+4, r1	; 0x04
     702:	13 82       	std	Z+3, r1	; 0x03
     704:	16 82       	std	Z+6, r1	; 0x06
     706:	15 82       	std	Z+5, r1	; 0x05
     708:	10 86       	std	Z+8, r1	; 0x08
     70a:	17 82       	std	Z+7, r1	; 0x07
     70c:	12 86       	std	Z+10, r1	; 0x0a
     70e:	11 86       	std	Z+9, r1	; 0x09
     710:	80 81       	ld	r24, Z
     712:	f9 ce       	rjmp	.-526    	; 0x506 <DrvIoSetPinOutput>
     714:	08 95       	ret
     716:	80 e0       	ldi	r24, 0x00	; 0
     718:	08 95       	ret

0000071a <DrvLedSetToggle>:
//Fonction de modification d'etat de la led en TOGGLE
Boolean DrvLedSetToggle ( Int8U idLed )
{
	Boolean oSuccess = FALSE;
	
	if( idLed < E_NB_LEDS )
     71a:	84 30       	cpi	r24, 0x04	; 4
     71c:	88 f5       	brcc	.+98     	; 0x780 <DrvLedSetToggle+0x66>
	{
		MesLeds[ idLed ].mode = E_LED_ON_OFF;
     71e:	28 2f       	mov	r18, r24
     720:	30 e0       	ldi	r19, 0x00	; 0
     722:	9b e0       	ldi	r25, 0x0B	; 11
     724:	89 9f       	mul	r24, r25
     726:	f0 01       	movw	r30, r0
     728:	11 24       	eor	r1, r1
     72a:	e5 58       	subi	r30, 0x85	; 133
     72c:	f5 4f       	sbci	r31, 0xF5	; 245
     72e:	12 82       	std	Z+2, r1	; 0x02
		if( MesLeds[ idLed ].state == E_LED_STATE_ON )
     730:	81 81       	ldd	r24, Z+1	; 0x01
     732:	81 11       	cpse	r24, r1
     734:	0e c0       	rjmp	.+28     	; 0x752 <DrvLedSetToggle+0x38>
		{
			MesLeds[ idLed ].state = E_LED_STATE_OFF;
     736:	8b e0       	ldi	r24, 0x0B	; 11
     738:	82 9f       	mul	r24, r18
     73a:	f0 01       	movw	r30, r0
     73c:	83 9f       	mul	r24, r19
     73e:	f0 0d       	add	r31, r0
     740:	11 24       	eor	r1, r1
     742:	e5 58       	subi	r30, 0x85	; 133
     744:	f5 4f       	sbci	r31, 0xF5	; 245
     746:	81 e0       	ldi	r24, 0x01	; 1
     748:	81 83       	std	Z+1, r24	; 0x01
			DrvIoSetPinState(MesLeds[ idLed ].pin,TRUE);
     74a:	80 81       	ld	r24, Z
     74c:	61 e0       	ldi	r22, 0x01	; 1
     74e:	28 df       	rcall	.-432    	; 0x5a0 <DrvIoSetPinState>
     750:	17 c0       	rjmp	.+46     	; 0x780 <DrvLedSetToggle+0x66>
		}
		else if( MesLeds[ idLed ].state == E_LED_STATE_OFF )
     752:	8b e0       	ldi	r24, 0x0B	; 11
     754:	82 9f       	mul	r24, r18
     756:	f0 01       	movw	r30, r0
     758:	83 9f       	mul	r24, r19
     75a:	f0 0d       	add	r31, r0
     75c:	11 24       	eor	r1, r1
     75e:	e5 58       	subi	r30, 0x85	; 133
     760:	f5 4f       	sbci	r31, 0xF5	; 245
     762:	81 81       	ldd	r24, Z+1	; 0x01
     764:	81 30       	cpi	r24, 0x01	; 1
     766:	61 f4       	brne	.+24     	; 0x780 <DrvLedSetToggle+0x66>
		{
			MesLeds[ idLed ].state = E_LED_STATE_ON;
     768:	8b e0       	ldi	r24, 0x0B	; 11
     76a:	82 9f       	mul	r24, r18
     76c:	f0 01       	movw	r30, r0
     76e:	83 9f       	mul	r24, r19
     770:	f0 0d       	add	r31, r0
     772:	11 24       	eor	r1, r1
     774:	e5 58       	subi	r30, 0x85	; 133
     776:	f5 4f       	sbci	r31, 0xF5	; 245
     778:	11 82       	std	Z+1, r1	; 0x01
			DrvIoSetPinState(MesLeds[ idLed ].pin,FALSE);
     77a:	80 81       	ld	r24, Z
     77c:	60 e0       	ldi	r22, 0x00	; 0
     77e:	10 df       	rcall	.-480    	; 0x5a0 <DrvIoSetPinState>
		}
	}
	return oSuccess;
}
     780:	80 e0       	ldi	r24, 0x00	; 0
     782:	08 95       	ret

00000784 <DrvLedSetState>:
//Fonction de modification d'etat de la led
Boolean DrvLedSetState ( Int8U idLed, ELedState state )
{
	Boolean oSuccess = FALSE;
	
	if( idLed < E_NB_LEDS )
     784:	84 30       	cpi	r24, 0x04	; 4
     786:	28 f5       	brcc	.+74     	; 0x7d2 <DrvLedSetState+0x4e>
	{
		MesLeds[ idLed ].mode = E_LED_ON_OFF;
     788:	28 2f       	mov	r18, r24
     78a:	30 e0       	ldi	r19, 0x00	; 0
     78c:	9b e0       	ldi	r25, 0x0B	; 11
     78e:	89 9f       	mul	r24, r25
     790:	f0 01       	movw	r30, r0
     792:	11 24       	eor	r1, r1
     794:	e5 58       	subi	r30, 0x85	; 133
     796:	f5 4f       	sbci	r31, 0xF5	; 245
     798:	12 82       	std	Z+2, r1	; 0x02
		if( state == E_LED_STATE_ON )
     79a:	61 11       	cpse	r22, r1
     79c:	0c c0       	rjmp	.+24     	; 0x7b6 <DrvLedSetState+0x32>
		{
			MesLeds[ idLed ].state = E_LED_STATE_ON;
     79e:	8b e0       	ldi	r24, 0x0B	; 11
     7a0:	82 9f       	mul	r24, r18
     7a2:	f0 01       	movw	r30, r0
     7a4:	83 9f       	mul	r24, r19
     7a6:	f0 0d       	add	r31, r0
     7a8:	11 24       	eor	r1, r1
     7aa:	e5 58       	subi	r30, 0x85	; 133
     7ac:	f5 4f       	sbci	r31, 0xF5	; 245
     7ae:	11 82       	std	Z+1, r1	; 0x01
			DrvIoSetPinState(MesLeds[ idLed ].pin,FALSE);
     7b0:	80 81       	ld	r24, Z
     7b2:	f6 de       	rcall	.-532    	; 0x5a0 <DrvIoSetPinState>
     7b4:	0e c0       	rjmp	.+28     	; 0x7d2 <DrvLedSetState+0x4e>
		}
		else if( state == E_LED_STATE_OFF )
     7b6:	61 30       	cpi	r22, 0x01	; 1
     7b8:	61 f4       	brne	.+24     	; 0x7d2 <DrvLedSetState+0x4e>
		{
			MesLeds[ idLed ].state = E_LED_STATE_OFF;
     7ba:	8b e0       	ldi	r24, 0x0B	; 11
     7bc:	82 9f       	mul	r24, r18
     7be:	f0 01       	movw	r30, r0
     7c0:	83 9f       	mul	r24, r19
     7c2:	f0 0d       	add	r31, r0
     7c4:	11 24       	eor	r1, r1
     7c6:	e5 58       	subi	r30, 0x85	; 133
     7c8:	f5 4f       	sbci	r31, 0xF5	; 245
     7ca:	81 e0       	ldi	r24, 0x01	; 1
     7cc:	81 83       	std	Z+1, r24	; 0x01
			DrvIoSetPinState(MesLeds[ idLed ].pin,TRUE);
     7ce:	80 81       	ld	r24, Z
     7d0:	e7 de       	rcall	.-562    	; 0x5a0 <DrvIoSetPinState>
		}
	}
	return oSuccess;
}
     7d2:	80 e0       	ldi	r24, 0x00	; 0
     7d4:	08 95       	ret

000007d6 <DrvLegInit>:
 static volatile float L, L1;
 static volatile float alpha, alpha1,alpha2,beta,gama;

// Init of Drv PWM
Boolean DrvLegInit( void )
{
     7d6:	ff 92       	push	r15
     7d8:	0f 93       	push	r16
     7da:	1f 93       	push	r17
     7dc:	cf 93       	push	r28
     7de:	df 93       	push	r29
     7e0:	03 ea       	ldi	r16, 0xA3	; 163
     7e2:	14 e0       	ldi	r17, 0x04	; 4
     7e4:	c0 e0       	ldi	r28, 0x00	; 0
	//init each servos of each leg
	for(Int8U i = 0U ; i < NB_LEGS ; i++ )
     7e6:	d0 e0       	ldi	r29, 0x00	; 0
	{
		legs[i].id					= i ;
     7e8:	f8 01       	movw	r30, r16
     7ea:	d0 83       	st	Z, r29
		
		legs[i].coxaAngle				= DrvServoGetStruture(i * 3) ;
     7ec:	8c 2f       	mov	r24, r28
     7ee:	af d6       	rcall	.+3422   	; 0x154e <DrvServoGetStruture>
     7f0:	f8 01       	movw	r30, r16
     7f2:	92 83       	std	Z+2, r25	; 0x02
     7f4:	81 83       	std	Z+1, r24	; 0x01
		legs[i].coxaAngle->id			= (i * 3);
     7f6:	fc 01       	movw	r30, r24
     7f8:	c0 83       	st	Z, r28
     7fa:	ff 24       	eor	r15, r15
     7fc:	f3 94       	inc	r15
     7fe:	fc 0e       	add	r15, r28
		legs[i].femurAngle				= DrvServoGetStruture((i * 3) + 1) ;
     800:	8f 2d       	mov	r24, r15
     802:	a5 d6       	rcall	.+3402   	; 0x154e <DrvServoGetStruture>
     804:	f8 01       	movw	r30, r16
     806:	94 83       	std	Z+4, r25	; 0x04
     808:	83 83       	std	Z+3, r24	; 0x03
		legs[i].femurAngle->id			= (i * 3) + 1 ;
     80a:	fc 01       	movw	r30, r24
     80c:	f0 82       	st	Z, r15
     80e:	68 94       	set
     810:	ff 24       	eor	r15, r15
     812:	f1 f8       	bld	r15, 1
		legs[i].tibiaAngle				= DrvServoGetStruture((i * 3) + 2) ;
     814:	fc 0e       	add	r15, r28
     816:	8f 2d       	mov	r24, r15
     818:	9a d6       	rcall	.+3380   	; 0x154e <DrvServoGetStruture>
     81a:	f8 01       	movw	r30, r16
     81c:	96 83       	std	Z+6, r25	; 0x06
     81e:	85 83       	std	Z+5, r24	; 0x05
		legs[i].tibiaAngle->id			= (i * 3) + 2 ;
     820:	fc 01       	movw	r30, r24
     822:	f0 82       	st	Z, r15

// Init of Drv PWM
Boolean DrvLegInit( void )
{
	//init each servos of each leg
	for(Int8U i = 0U ; i < NB_LEGS ; i++ )
     824:	df 5f       	subi	r29, 0xFF	; 255
     826:	09 5f       	subi	r16, 0xF9	; 249
     828:	1f 4f       	sbci	r17, 0xFF	; 255
     82a:	cd 5f       	subi	r28, 0xFD	; 253
     82c:	d6 30       	cpi	r29, 0x06	; 6
     82e:	e1 f6       	brne	.-72     	; 0x7e8 <DrvLegInit+0x12>
 * 
 * \return Boolean if success
 */
static Boolean DrvLegSetOffset ( void ) 
{		
	legs[ E_LEG_L_F ].coxaAngle->currentPosition		= LEG_COXA_U_L_MID ;
     830:	e3 ea       	ldi	r30, 0xA3	; 163
     832:	f4 e0       	ldi	r31, 0x04	; 4
     834:	a1 81       	ldd	r26, Z+1	; 0x01
     836:	b2 81       	ldd	r27, Z+2	; 0x02
     838:	2e e1       	ldi	r18, 0x1E	; 30
     83a:	30 e0       	ldi	r19, 0x00	; 0
     83c:	12 96       	adiw	r26, 0x02	; 2
     83e:	3c 93       	st	X, r19
     840:	2e 93       	st	-X, r18
     842:	11 97       	sbiw	r26, 0x01	; 1
	legs[ E_LEG_L_F ].coxaAngle->targetPosition		= LEG_COXA_U_L_MID ;
     844:	a1 81       	ldd	r26, Z+1	; 0x01
     846:	b2 81       	ldd	r27, Z+2	; 0x02
     848:	16 96       	adiw	r26, 0x06	; 6
     84a:	3c 93       	st	X, r19
     84c:	2e 93       	st	-X, r18
     84e:	15 97       	sbiw	r26, 0x05	; 5
	legs[ E_LEG_L_F ].coxaAngle->mid			= LEG_COXA_U_L_MID ;
     850:	52 96       	adiw	r26, 0x12	; 18
     852:	3c 93       	st	X, r19
     854:	2e 93       	st	-X, r18
     856:	51 97       	sbiw	r26, 0x11	; 17
	legs[ E_LEG_L_F ].coxaAngle->min			= LEG_COXA_U_L_MIN ;
     858:	50 96       	adiw	r26, 0x10	; 16
     85a:	1c 92       	st	X, r1
     85c:	1e 92       	st	-X, r1
     85e:	1f 97       	sbiw	r26, 0x0f	; 15
	legs[ E_LEG_L_F ].coxaAngle->max			= LEG_COXA_U_L_MAX ;
     860:	8c e3       	ldi	r24, 0x3C	; 60
     862:	90 e0       	ldi	r25, 0x00	; 0
     864:	54 96       	adiw	r26, 0x14	; 20
     866:	9c 93       	st	X, r25
     868:	8e 93       	st	-X, r24
     86a:	53 97       	sbiw	r26, 0x13	; 19
	legs[ E_LEG_L_F ].femurAngle->currentPosition			= LEG_FEMUR_U_L_MAX ;
     86c:	a3 81       	ldd	r26, Z+3	; 0x03
     86e:	b4 81       	ldd	r27, Z+4	; 0x04
     870:	66 e4       	ldi	r22, 0x46	; 70
     872:	70 e0       	ldi	r23, 0x00	; 0
     874:	12 96       	adiw	r26, 0x02	; 2
     876:	7c 93       	st	X, r23
     878:	6e 93       	st	-X, r22
     87a:	11 97       	sbiw	r26, 0x01	; 1
	legs[ E_LEG_L_F ].femurAngle->targetPosition		= LEG_FEMUR_U_L_MAX ;
     87c:	c3 81       	ldd	r28, Z+3	; 0x03
     87e:	d4 81       	ldd	r29, Z+4	; 0x04
     880:	7e 83       	std	Y+6, r23	; 0x06
     882:	6d 83       	std	Y+5, r22	; 0x05
	legs[ E_LEG_L_F ].femurAngle->mid			= LEG_FEMUR_U_L_MID ;
     884:	1a 8a       	std	Y+18, r1	; 0x12
     886:	19 8a       	std	Y+17, r1	; 0x11
	legs[ E_LEG_L_F ].femurAngle->min			= LEG_FEMUR_U_L_MIN ;
     888:	aa eb       	ldi	r26, 0xBA	; 186
     88a:	bf ef       	ldi	r27, 0xFF	; 255
     88c:	b8 8b       	std	Y+16, r27	; 0x10
     88e:	af 87       	std	Y+15, r26	; 0x0f
	legs[ E_LEG_L_F ].femurAngle->max			= LEG_FEMUR_U_L_MAX ;
     890:	7c 8b       	std	Y+20, r23	; 0x14
     892:	6b 8b       	std	Y+19, r22	; 0x13
	legs[ E_LEG_L_F ].tibiaAngle->currentPosition		= LEG_TIBIA_U_L_MAX ;
     894:	c5 81       	ldd	r28, Z+5	; 0x05
     896:	d6 81       	ldd	r29, Z+6	; 0x06
     898:	9a 83       	std	Y+2, r25	; 0x02
     89a:	89 83       	std	Y+1, r24	; 0x01
	legs[ E_LEG_L_F ].tibiaAngle->targetPosition		= LEG_TIBIA_U_L_MAX ;
     89c:	c5 81       	ldd	r28, Z+5	; 0x05
     89e:	d6 81       	ldd	r29, Z+6	; 0x06
     8a0:	9e 83       	std	Y+6, r25	; 0x06
     8a2:	8d 83       	std	Y+5, r24	; 0x05
	legs[ E_LEG_L_F ].tibiaAngle->mid			= LEG_TIBIA_U_L_MID ;
     8a4:	c5 81       	ldd	r28, Z+5	; 0x05
     8a6:	d6 81       	ldd	r29, Z+6	; 0x06
     8a8:	1a 8a       	std	Y+18, r1	; 0x12
     8aa:	19 8a       	std	Y+17, r1	; 0x11
	legs[ E_LEG_L_F ].tibiaAngle->min			= LEG_TIBIA_U_L_MIN ;
     8ac:	44 ec       	ldi	r20, 0xC4	; 196
     8ae:	5f ef       	ldi	r21, 0xFF	; 255
     8b0:	58 8b       	std	Y+16, r21	; 0x10
     8b2:	4f 87       	std	Y+15, r20	; 0x0f
	legs[ E_LEG_L_F ].tibiaAngle->max			= LEG_TIBIA_U_L_MAX ;
     8b4:	9c 8b       	std	Y+20, r25	; 0x14
     8b6:	8b 8b       	std	Y+19, r24	; 0x13
		
	legs[ E_LEG_L_M ].coxaAngle->currentPosition		= LEG_COXA_M_L_MID ;
     8b8:	c0 85       	ldd	r28, Z+8	; 0x08
     8ba:	d1 85       	ldd	r29, Z+9	; 0x09
     8bc:	1a 82       	std	Y+2, r1	; 0x02
     8be:	19 82       	std	Y+1, r1	; 0x01
	legs[ E_LEG_L_M ].coxaAngle->targetPosition		= LEG_COXA_M_L_MID ;
     8c0:	c0 85       	ldd	r28, Z+8	; 0x08
     8c2:	d1 85       	ldd	r29, Z+9	; 0x09
     8c4:	1e 82       	std	Y+6, r1	; 0x06
     8c6:	1d 82       	std	Y+5, r1	; 0x05
	legs[ E_LEG_L_M ].coxaAngle->mid			= LEG_COXA_M_L_MID ;
     8c8:	c0 85       	ldd	r28, Z+8	; 0x08
     8ca:	d1 85       	ldd	r29, Z+9	; 0x09
     8cc:	1a 8a       	std	Y+18, r1	; 0x12
     8ce:	19 8a       	std	Y+17, r1	; 0x11
	legs[ E_LEG_L_M ].coxaAngle->min			= LEG_COXA_M_L_MIN ;
     8d0:	02 ee       	ldi	r16, 0xE2	; 226
     8d2:	1f ef       	ldi	r17, 0xFF	; 255
     8d4:	18 8b       	std	Y+16, r17	; 0x10
     8d6:	0f 87       	std	Y+15, r16	; 0x0f
	legs[ E_LEG_L_M ].coxaAngle->max			= LEG_COXA_M_L_MAX ;
     8d8:	3c 8b       	std	Y+20, r19	; 0x14
     8da:	2b 8b       	std	Y+19, r18	; 0x13
	legs[ E_LEG_L_M ].femurAngle->currentPosition		= LEG_FEMUR_M_L_MAX ;
     8dc:	c2 85       	ldd	r28, Z+10	; 0x0a
     8de:	d3 85       	ldd	r29, Z+11	; 0x0b
     8e0:	7a 83       	std	Y+2, r23	; 0x02
     8e2:	69 83       	std	Y+1, r22	; 0x01
	legs[ E_LEG_L_M ].femurAngle->targetPosition		= LEG_FEMUR_M_L_MAX ;
     8e4:	c2 85       	ldd	r28, Z+10	; 0x0a
     8e6:	d3 85       	ldd	r29, Z+11	; 0x0b
     8e8:	7e 83       	std	Y+6, r23	; 0x06
     8ea:	6d 83       	std	Y+5, r22	; 0x05
	legs[ E_LEG_L_M ].femurAngle->mid			= LEG_FEMUR_M_L_MID ;
     8ec:	c2 85       	ldd	r28, Z+10	; 0x0a
     8ee:	d3 85       	ldd	r29, Z+11	; 0x0b
     8f0:	1a 8a       	std	Y+18, r1	; 0x12
     8f2:	19 8a       	std	Y+17, r1	; 0x11
	legs[ E_LEG_L_M ].femurAngle->min			= LEG_FEMUR_M_L_MIN ;
     8f4:	b8 8b       	std	Y+16, r27	; 0x10
     8f6:	af 87       	std	Y+15, r26	; 0x0f
	legs[ E_LEG_L_M ].femurAngle->max			= LEG_FEMUR_M_L_MAX ;
     8f8:	7c 8b       	std	Y+20, r23	; 0x14
     8fa:	6b 8b       	std	Y+19, r22	; 0x13
	legs[ E_LEG_L_M ].tibiaAngle->currentPosition		= LEG_TIBIA_M_L_MAX ;
     8fc:	c4 85       	ldd	r28, Z+12	; 0x0c
     8fe:	d5 85       	ldd	r29, Z+13	; 0x0d
     900:	9a 83       	std	Y+2, r25	; 0x02
     902:	89 83       	std	Y+1, r24	; 0x01
	legs[ E_LEG_L_M ].tibiaAngle->targetPosition		= LEG_TIBIA_M_L_MAX ;
     904:	c4 85       	ldd	r28, Z+12	; 0x0c
     906:	d5 85       	ldd	r29, Z+13	; 0x0d
     908:	9e 83       	std	Y+6, r25	; 0x06
     90a:	8d 83       	std	Y+5, r24	; 0x05
	legs[ E_LEG_L_M ].tibiaAngle->mid			= LEG_TIBIA_M_L_MID ;
     90c:	c4 85       	ldd	r28, Z+12	; 0x0c
     90e:	d5 85       	ldd	r29, Z+13	; 0x0d
     910:	1a 8a       	std	Y+18, r1	; 0x12
     912:	19 8a       	std	Y+17, r1	; 0x11
	legs[ E_LEG_L_M ].tibiaAngle->min			= LEG_TIBIA_M_L_MIN ;
     914:	58 8b       	std	Y+16, r21	; 0x10
     916:	4f 87       	std	Y+15, r20	; 0x0f
	legs[ E_LEG_L_M ].tibiaAngle->max			= LEG_TIBIA_M_L_MAX ;
     918:	9c 8b       	std	Y+20, r25	; 0x14
     91a:	8b 8b       	std	Y+19, r24	; 0x13
		
	legs[ E_LEG_L_R ].coxaAngle->currentPosition		= LEG_COXA_B_L_MID ;
     91c:	c7 85       	ldd	r28, Z+15	; 0x0f
     91e:	d0 89       	ldd	r29, Z+16	; 0x10
     920:	3a 83       	std	Y+2, r19	; 0x02
     922:	29 83       	std	Y+1, r18	; 0x01
	legs[ E_LEG_L_R ].coxaAngle->targetPosition		= LEG_COXA_B_L_MID ;
     924:	c7 85       	ldd	r28, Z+15	; 0x0f
     926:	d0 89       	ldd	r29, Z+16	; 0x10
     928:	3e 83       	std	Y+6, r19	; 0x06
     92a:	2d 83       	std	Y+5, r18	; 0x05
	legs[ E_LEG_L_R ].coxaAngle->mid			= LEG_COXA_B_L_MID ;
     92c:	c7 85       	ldd	r28, Z+15	; 0x0f
     92e:	d0 89       	ldd	r29, Z+16	; 0x10
     930:	3a 8b       	std	Y+18, r19	; 0x12
     932:	29 8b       	std	Y+17, r18	; 0x11
	legs[ E_LEG_L_R ].coxaAngle->min			= LEG_COXA_B_L_MIN ;
     934:	18 8a       	std	Y+16, r1	; 0x10
     936:	1f 86       	std	Y+15, r1	; 0x0f
	legs[ E_LEG_L_R ].coxaAngle->max			= LEG_COXA_B_L_MAX ;
     938:	c7 85       	ldd	r28, Z+15	; 0x0f
     93a:	d0 89       	ldd	r29, Z+16	; 0x10
     93c:	9c 8b       	std	Y+20, r25	; 0x14
     93e:	8b 8b       	std	Y+19, r24	; 0x13
	legs[ E_LEG_L_R ].femurAngle->currentPosition		= LEG_FEMUR_B_L_MAX ;
     940:	c1 89       	ldd	r28, Z+17	; 0x11
     942:	d2 89       	ldd	r29, Z+18	; 0x12
     944:	7a 83       	std	Y+2, r23	; 0x02
     946:	69 83       	std	Y+1, r22	; 0x01
	legs[ E_LEG_L_R ].femurAngle->targetPosition		= LEG_FEMUR_B_L_MAX ;
     948:	c1 89       	ldd	r28, Z+17	; 0x11
     94a:	d2 89       	ldd	r29, Z+18	; 0x12
     94c:	7e 83       	std	Y+6, r23	; 0x06
     94e:	6d 83       	std	Y+5, r22	; 0x05
	legs[ E_LEG_L_R ].femurAngle->mid			= LEG_FEMUR_B_L_MID ;
     950:	c1 89       	ldd	r28, Z+17	; 0x11
     952:	d2 89       	ldd	r29, Z+18	; 0x12
     954:	1a 8a       	std	Y+18, r1	; 0x12
     956:	19 8a       	std	Y+17, r1	; 0x11
	legs[ E_LEG_L_R ].femurAngle->min			= LEG_FEMUR_B_L_MIN ;
     958:	c1 89       	ldd	r28, Z+17	; 0x11
     95a:	d2 89       	ldd	r29, Z+18	; 0x12
     95c:	b8 8b       	std	Y+16, r27	; 0x10
     95e:	af 87       	std	Y+15, r26	; 0x0f
	legs[ E_LEG_L_R ].femurAngle->max			= LEG_FEMUR_B_L_MAX ;
     960:	c1 89       	ldd	r28, Z+17	; 0x11
     962:	d2 89       	ldd	r29, Z+18	; 0x12
     964:	7c 8b       	std	Y+20, r23	; 0x14
     966:	6b 8b       	std	Y+19, r22	; 0x13
	legs[ E_LEG_L_R ].tibiaAngle->currentPosition		= LEG_TIBIA_B_L_MAX ;
     968:	c3 89       	ldd	r28, Z+19	; 0x13
     96a:	d4 89       	ldd	r29, Z+20	; 0x14
     96c:	9a 83       	std	Y+2, r25	; 0x02
     96e:	89 83       	std	Y+1, r24	; 0x01
	legs[ E_LEG_L_R ].tibiaAngle->targetPosition		= LEG_TIBIA_B_L_MAX ;
     970:	c3 89       	ldd	r28, Z+19	; 0x13
     972:	d4 89       	ldd	r29, Z+20	; 0x14
     974:	9e 83       	std	Y+6, r25	; 0x06
     976:	8d 83       	std	Y+5, r24	; 0x05
	legs[ E_LEG_L_R ].tibiaAngle->mid			= LEG_TIBIA_B_L_MID ;
     978:	c3 89       	ldd	r28, Z+19	; 0x13
     97a:	d4 89       	ldd	r29, Z+20	; 0x14
     97c:	1a 8a       	std	Y+18, r1	; 0x12
     97e:	19 8a       	std	Y+17, r1	; 0x11
	legs[ E_LEG_L_R ].tibiaAngle->min			= LEG_TIBIA_B_L_MIN ;
     980:	c3 89       	ldd	r28, Z+19	; 0x13
     982:	d4 89       	ldd	r29, Z+20	; 0x14
     984:	58 8b       	std	Y+16, r21	; 0x10
     986:	4f 87       	std	Y+15, r20	; 0x0f
	legs[ E_LEG_L_R ].tibiaAngle->max			= LEG_TIBIA_B_L_MAX ;
     988:	c3 89       	ldd	r28, Z+19	; 0x13
     98a:	d4 89       	ldd	r29, Z+20	; 0x14
     98c:	9c 8b       	std	Y+20, r25	; 0x14
     98e:	8b 8b       	std	Y+19, r24	; 0x13
		
	legs[ E_LEG_R_F ].coxaAngle->currentPosition		= LEG_COXA_U_R_MID ;
     990:	c6 89       	ldd	r28, Z+22	; 0x16
     992:	d7 89       	ldd	r29, Z+23	; 0x17
     994:	3a 83       	std	Y+2, r19	; 0x02
     996:	29 83       	std	Y+1, r18	; 0x01
	legs[ E_LEG_R_F ].coxaAngle->targetPosition		= LEG_COXA_U_R_MID ;
     998:	c6 89       	ldd	r28, Z+22	; 0x16
     99a:	d7 89       	ldd	r29, Z+23	; 0x17
     99c:	3e 83       	std	Y+6, r19	; 0x06
     99e:	2d 83       	std	Y+5, r18	; 0x05
	legs[ E_LEG_R_F ].coxaAngle->mid			= LEG_COXA_U_R_MID ;
     9a0:	c6 89       	ldd	r28, Z+22	; 0x16
     9a2:	d7 89       	ldd	r29, Z+23	; 0x17
     9a4:	3a 8b       	std	Y+18, r19	; 0x12
     9a6:	29 8b       	std	Y+17, r18	; 0x11
	legs[ E_LEG_R_F ].coxaAngle->min			= LEG_COXA_U_R_MIN ;
     9a8:	c6 89       	ldd	r28, Z+22	; 0x16
     9aa:	d7 89       	ldd	r29, Z+23	; 0x17
     9ac:	18 8a       	std	Y+16, r1	; 0x10
     9ae:	1f 86       	std	Y+15, r1	; 0x0f
	legs[ E_LEG_R_F ].coxaAngle->max			= LEG_COXA_U_R_MAX ;
     9b0:	c6 89       	ldd	r28, Z+22	; 0x16
     9b2:	d7 89       	ldd	r29, Z+23	; 0x17
     9b4:	9c 8b       	std	Y+20, r25	; 0x14
     9b6:	8b 8b       	std	Y+19, r24	; 0x13
	legs[ E_LEG_R_F ].femurAngle->currentPosition			= LEG_FEMUR_U_R_MIN ;
     9b8:	c0 8d       	ldd	r28, Z+24	; 0x18
     9ba:	d1 8d       	ldd	r29, Z+25	; 0x19
     9bc:	ba 83       	std	Y+2, r27	; 0x02
     9be:	a9 83       	std	Y+1, r26	; 0x01
	legs[ E_LEG_R_F ].femurAngle->targetPosition		= LEG_FEMUR_U_R_MIN ;
     9c0:	c0 8d       	ldd	r28, Z+24	; 0x18
     9c2:	d1 8d       	ldd	r29, Z+25	; 0x19
     9c4:	be 83       	std	Y+6, r27	; 0x06
     9c6:	ad 83       	std	Y+5, r26	; 0x05
	legs[ E_LEG_R_F ].femurAngle->mid			= LEG_FEMUR_U_R_MID ;
     9c8:	c0 8d       	ldd	r28, Z+24	; 0x18
     9ca:	d1 8d       	ldd	r29, Z+25	; 0x19
     9cc:	1a 8a       	std	Y+18, r1	; 0x12
     9ce:	19 8a       	std	Y+17, r1	; 0x11
	legs[ E_LEG_R_F ].femurAngle->min			= LEG_FEMUR_U_R_MIN ;
     9d0:	c0 8d       	ldd	r28, Z+24	; 0x18
     9d2:	d1 8d       	ldd	r29, Z+25	; 0x19
     9d4:	b8 8b       	std	Y+16, r27	; 0x10
     9d6:	af 87       	std	Y+15, r26	; 0x0f
	legs[ E_LEG_R_F ].femurAngle->max			= LEG_FEMUR_U_R_MAX ;
     9d8:	c0 8d       	ldd	r28, Z+24	; 0x18
     9da:	d1 8d       	ldd	r29, Z+25	; 0x19
     9dc:	7c 8b       	std	Y+20, r23	; 0x14
     9de:	6b 8b       	std	Y+19, r22	; 0x13
	legs[ E_LEG_R_F ].tibiaAngle->currentPosition		= LEG_TIBIA_U_R_MIN ;
     9e0:	c2 8d       	ldd	r28, Z+26	; 0x1a
     9e2:	d3 8d       	ldd	r29, Z+27	; 0x1b
     9e4:	5a 83       	std	Y+2, r21	; 0x02
     9e6:	49 83       	std	Y+1, r20	; 0x01
	legs[ E_LEG_R_F ].tibiaAngle->targetPosition		= LEG_TIBIA_U_R_MIN ;
     9e8:	c2 8d       	ldd	r28, Z+26	; 0x1a
     9ea:	d3 8d       	ldd	r29, Z+27	; 0x1b
     9ec:	5e 83       	std	Y+6, r21	; 0x06
     9ee:	4d 83       	std	Y+5, r20	; 0x05
	legs[ E_LEG_R_F ].tibiaAngle->mid			= LEG_TIBIA_U_R_MID ;
     9f0:	c2 8d       	ldd	r28, Z+26	; 0x1a
     9f2:	d3 8d       	ldd	r29, Z+27	; 0x1b
     9f4:	1a 8a       	std	Y+18, r1	; 0x12
     9f6:	19 8a       	std	Y+17, r1	; 0x11
	legs[ E_LEG_R_F ].tibiaAngle->min			= LEG_TIBIA_U_R_MIN ;
     9f8:	c2 8d       	ldd	r28, Z+26	; 0x1a
     9fa:	d3 8d       	ldd	r29, Z+27	; 0x1b
     9fc:	58 8b       	std	Y+16, r21	; 0x10
     9fe:	4f 87       	std	Y+15, r20	; 0x0f
	legs[ E_LEG_R_F ].tibiaAngle->max			= LEG_TIBIA_U_R_MAX ;
     a00:	c2 8d       	ldd	r28, Z+26	; 0x1a
     a02:	d3 8d       	ldd	r29, Z+27	; 0x1b
     a04:	9c 8b       	std	Y+20, r25	; 0x14
     a06:	8b 8b       	std	Y+19, r24	; 0x13
				  
	legs[ E_LEG_R_M ].coxaAngle->currentPosition		= LEG_COXA_M_R_MID ;
     a08:	c5 8d       	ldd	r28, Z+29	; 0x1d
     a0a:	d6 8d       	ldd	r29, Z+30	; 0x1e
     a0c:	1a 82       	std	Y+2, r1	; 0x02
     a0e:	19 82       	std	Y+1, r1	; 0x01
	legs[ E_LEG_R_M ].coxaAngle->targetPosition		= LEG_COXA_M_R_MID ;
     a10:	c5 8d       	ldd	r28, Z+29	; 0x1d
     a12:	d6 8d       	ldd	r29, Z+30	; 0x1e
     a14:	1e 82       	std	Y+6, r1	; 0x06
     a16:	1d 82       	std	Y+5, r1	; 0x05
	legs[ E_LEG_R_M ].coxaAngle->mid			= LEG_COXA_M_R_MID ;
     a18:	c5 8d       	ldd	r28, Z+29	; 0x1d
     a1a:	d6 8d       	ldd	r29, Z+30	; 0x1e
     a1c:	1a 8a       	std	Y+18, r1	; 0x12
     a1e:	19 8a       	std	Y+17, r1	; 0x11
	legs[ E_LEG_R_M ].coxaAngle->min			= LEG_COXA_M_R_MIN ;
     a20:	c5 8d       	ldd	r28, Z+29	; 0x1d
     a22:	d6 8d       	ldd	r29, Z+30	; 0x1e
     a24:	18 8b       	std	Y+16, r17	; 0x10
     a26:	0f 87       	std	Y+15, r16	; 0x0f
	legs[ E_LEG_R_M ].coxaAngle->max			= LEG_COXA_M_R_MAX ;
     a28:	c5 8d       	ldd	r28, Z+29	; 0x1d
     a2a:	d6 8d       	ldd	r29, Z+30	; 0x1e
     a2c:	3c 8b       	std	Y+20, r19	; 0x14
     a2e:	2b 8b       	std	Y+19, r18	; 0x13
	legs[ E_LEG_R_M ].femurAngle->currentPosition		= LEG_FEMUR_M_R_MIN ;
     a30:	c7 8d       	ldd	r28, Z+31	; 0x1f
     a32:	d0 a1       	ldd	r29, Z+32	; 0x20
     a34:	ba 83       	std	Y+2, r27	; 0x02
     a36:	a9 83       	std	Y+1, r26	; 0x01
	legs[ E_LEG_R_M ].femurAngle->targetPosition		= LEG_FEMUR_M_R_MIN ;
     a38:	c7 8d       	ldd	r28, Z+31	; 0x1f
     a3a:	d0 a1       	ldd	r29, Z+32	; 0x20
     a3c:	be 83       	std	Y+6, r27	; 0x06
     a3e:	ad 83       	std	Y+5, r26	; 0x05
	legs[ E_LEG_R_M ].femurAngle->mid			= LEG_FEMUR_M_R_MID ;
     a40:	c7 8d       	ldd	r28, Z+31	; 0x1f
     a42:	d0 a1       	ldd	r29, Z+32	; 0x20
     a44:	1a 8a       	std	Y+18, r1	; 0x12
     a46:	19 8a       	std	Y+17, r1	; 0x11
	legs[ E_LEG_R_M ].femurAngle->min			= LEG_FEMUR_M_R_MIN ;
     a48:	c7 8d       	ldd	r28, Z+31	; 0x1f
     a4a:	d0 a1       	ldd	r29, Z+32	; 0x20
     a4c:	b8 8b       	std	Y+16, r27	; 0x10
     a4e:	af 87       	std	Y+15, r26	; 0x0f
	legs[ E_LEG_R_M ].femurAngle->max			= LEG_FEMUR_M_R_MAX ;
     a50:	c7 8d       	ldd	r28, Z+31	; 0x1f
     a52:	d0 a1       	ldd	r29, Z+32	; 0x20
     a54:	7c 8b       	std	Y+20, r23	; 0x14
     a56:	6b 8b       	std	Y+19, r22	; 0x13
	legs[ E_LEG_R_M ].tibiaAngle->currentPosition		= LEG_TIBIA_M_R_MIN ;
     a58:	c1 a1       	ldd	r28, Z+33	; 0x21
     a5a:	d2 a1       	ldd	r29, Z+34	; 0x22
     a5c:	5a 83       	std	Y+2, r21	; 0x02
     a5e:	49 83       	std	Y+1, r20	; 0x01
	legs[ E_LEG_R_M ].tibiaAngle->targetPosition		= LEG_TIBIA_M_R_MIN ;
     a60:	c1 a1       	ldd	r28, Z+33	; 0x21
     a62:	d2 a1       	ldd	r29, Z+34	; 0x22
     a64:	5e 83       	std	Y+6, r21	; 0x06
     a66:	4d 83       	std	Y+5, r20	; 0x05
	legs[ E_LEG_R_M ].tibiaAngle->mid			= LEG_TIBIA_M_R_MID ;
     a68:	c1 a1       	ldd	r28, Z+33	; 0x21
     a6a:	d2 a1       	ldd	r29, Z+34	; 0x22
     a6c:	1a 8a       	std	Y+18, r1	; 0x12
     a6e:	19 8a       	std	Y+17, r1	; 0x11
	legs[ E_LEG_R_M ].tibiaAngle->min			= LEG_TIBIA_M_R_MIN ;
     a70:	c1 a1       	ldd	r28, Z+33	; 0x21
     a72:	d2 a1       	ldd	r29, Z+34	; 0x22
     a74:	58 8b       	std	Y+16, r21	; 0x10
     a76:	4f 87       	std	Y+15, r20	; 0x0f
	legs[ E_LEG_R_M ].tibiaAngle->max			= LEG_TIBIA_M_R_MAX ;
     a78:	c1 a1       	ldd	r28, Z+33	; 0x21
     a7a:	d2 a1       	ldd	r29, Z+34	; 0x22
     a7c:	9c 8b       	std	Y+20, r25	; 0x14
     a7e:	8b 8b       	std	Y+19, r24	; 0x13
				  
	legs[ E_LEG_R_R ].coxaAngle->currentPosition		= LEG_COXA_B_R_MID ;
     a80:	c4 a1       	ldd	r28, Z+36	; 0x24
     a82:	d5 a1       	ldd	r29, Z+37	; 0x25
     a84:	3a 83       	std	Y+2, r19	; 0x02
     a86:	29 83       	std	Y+1, r18	; 0x01
	legs[ E_LEG_R_R ].coxaAngle->targetPosition		= LEG_COXA_B_R_MID ;
     a88:	c4 a1       	ldd	r28, Z+36	; 0x24
     a8a:	d5 a1       	ldd	r29, Z+37	; 0x25
     a8c:	3e 83       	std	Y+6, r19	; 0x06
     a8e:	2d 83       	std	Y+5, r18	; 0x05
	legs[ E_LEG_R_R ].coxaAngle->mid			= LEG_COXA_B_R_MID ;
     a90:	c4 a1       	ldd	r28, Z+36	; 0x24
     a92:	d5 a1       	ldd	r29, Z+37	; 0x25
     a94:	3a 8b       	std	Y+18, r19	; 0x12
     a96:	29 8b       	std	Y+17, r18	; 0x11
	legs[ E_LEG_R_R ].coxaAngle->min			= LEG_COXA_B_R_MIN ;
     a98:	c4 a1       	ldd	r28, Z+36	; 0x24
     a9a:	d5 a1       	ldd	r29, Z+37	; 0x25
     a9c:	18 8a       	std	Y+16, r1	; 0x10
     a9e:	1f 86       	std	Y+15, r1	; 0x0f
	legs[ E_LEG_R_R ].coxaAngle->max			= LEG_COXA_B_R_MAX ;
     aa0:	c4 a1       	ldd	r28, Z+36	; 0x24
     aa2:	d5 a1       	ldd	r29, Z+37	; 0x25
     aa4:	9c 8b       	std	Y+20, r25	; 0x14
     aa6:	8b 8b       	std	Y+19, r24	; 0x13
	legs[ E_LEG_R_R ].femurAngle->currentPosition		= LEG_FEMUR_B_R_MIN ;
     aa8:	c6 a1       	ldd	r28, Z+38	; 0x26
     aaa:	d7 a1       	ldd	r29, Z+39	; 0x27
     aac:	ba 83       	std	Y+2, r27	; 0x02
     aae:	a9 83       	std	Y+1, r26	; 0x01
	legs[ E_LEG_R_R ].femurAngle->targetPosition		= LEG_FEMUR_B_R_MIN ;
     ab0:	c6 a1       	ldd	r28, Z+38	; 0x26
     ab2:	d7 a1       	ldd	r29, Z+39	; 0x27
     ab4:	be 83       	std	Y+6, r27	; 0x06
     ab6:	ad 83       	std	Y+5, r26	; 0x05
	legs[ E_LEG_R_R ].femurAngle->mid			= LEG_FEMUR_B_R_MID ;
     ab8:	c6 a1       	ldd	r28, Z+38	; 0x26
     aba:	d7 a1       	ldd	r29, Z+39	; 0x27
     abc:	1a 8a       	std	Y+18, r1	; 0x12
     abe:	19 8a       	std	Y+17, r1	; 0x11
	legs[ E_LEG_R_R ].femurAngle->min			= LEG_FEMUR_B_R_MIN ;
     ac0:	c6 a1       	ldd	r28, Z+38	; 0x26
     ac2:	d7 a1       	ldd	r29, Z+39	; 0x27
     ac4:	b8 8b       	std	Y+16, r27	; 0x10
     ac6:	af 87       	std	Y+15, r26	; 0x0f
	legs[ E_LEG_R_R ].femurAngle->max			= LEG_FEMUR_B_R_MAX ;
     ac8:	a6 a1       	ldd	r26, Z+38	; 0x26
     aca:	b7 a1       	ldd	r27, Z+39	; 0x27
     acc:	54 96       	adiw	r26, 0x14	; 20
     ace:	7c 93       	st	X, r23
     ad0:	6e 93       	st	-X, r22
     ad2:	53 97       	sbiw	r26, 0x13	; 19
	legs[ E_LEG_R_R ].tibiaAngle->currentPosition		= LEG_TIBIA_B_R_MIN ;
     ad4:	a0 a5       	ldd	r26, Z+40	; 0x28
     ad6:	b1 a5       	ldd	r27, Z+41	; 0x29
     ad8:	12 96       	adiw	r26, 0x02	; 2
     ada:	5c 93       	st	X, r21
     adc:	4e 93       	st	-X, r20
     ade:	11 97       	sbiw	r26, 0x01	; 1
	legs[ E_LEG_R_R ].tibiaAngle->targetPosition		= LEG_TIBIA_B_R_MIN ;
     ae0:	a0 a5       	ldd	r26, Z+40	; 0x28
     ae2:	b1 a5       	ldd	r27, Z+41	; 0x29
     ae4:	16 96       	adiw	r26, 0x06	; 6
     ae6:	5c 93       	st	X, r21
     ae8:	4e 93       	st	-X, r20
     aea:	15 97       	sbiw	r26, 0x05	; 5
	legs[ E_LEG_R_R ].tibiaAngle->mid			= LEG_TIBIA_B_R_MID ;
     aec:	a0 a5       	ldd	r26, Z+40	; 0x28
     aee:	b1 a5       	ldd	r27, Z+41	; 0x29
     af0:	52 96       	adiw	r26, 0x12	; 18
     af2:	1c 92       	st	X, r1
     af4:	1e 92       	st	-X, r1
     af6:	51 97       	sbiw	r26, 0x11	; 17
	legs[ E_LEG_R_R ].tibiaAngle->min			= LEG_TIBIA_B_R_MIN ;
     af8:	a0 a5       	ldd	r26, Z+40	; 0x28
     afa:	b1 a5       	ldd	r27, Z+41	; 0x29
     afc:	50 96       	adiw	r26, 0x10	; 16
     afe:	5c 93       	st	X, r21
     b00:	4e 93       	st	-X, r20
     b02:	1f 97       	sbiw	r26, 0x0f	; 15
	legs[ E_LEG_R_R ].tibiaAngle->max			= LEG_TIBIA_B_R_MAX ;
     b04:	00 a4       	ldd	r0, Z+40	; 0x28
     b06:	f1 a5       	ldd	r31, Z+41	; 0x29
     b08:	e0 2d       	mov	r30, r0
     b0a:	94 8b       	std	Z+20, r25	; 0x14
     b0c:	83 8b       	std	Z+19, r24	; 0x13
		legs[i].tibiaAngle				= DrvServoGetStruture((i * 3) + 2) ;
		legs[i].tibiaAngle->id			= (i * 3) + 2 ;
	}
	//offset and limits
	DrvLegSetOffset();	
	update = 0;
     b0e:	10 92 a2 04 	sts	0x04A2, r1	; 0x8004a2 <update>
	
	return TRUE;
}
     b12:	81 e0       	ldi	r24, 0x01	; 1
     b14:	df 91       	pop	r29
     b16:	cf 91       	pop	r28
     b18:	1f 91       	pop	r17
     b1a:	0f 91       	pop	r16
     b1c:	ff 90       	pop	r15
     b1e:	08 95       	ret

00000b20 <DrvLegGetLeg>:

S_Leg* DrvLegGetLeg( E_LEG indexLeg )
{
	return &legs[ indexLeg ];
     b20:	27 e0       	ldi	r18, 0x07	; 7
     b22:	82 9f       	mul	r24, r18
     b24:	c0 01       	movw	r24, r0
     b26:	11 24       	eor	r1, r1
}
     b28:	8d 55       	subi	r24, 0x5D	; 93
     b2a:	9b 4f       	sbci	r25, 0xFB	; 251
     b2c:	08 95       	ret

00000b2e <DrvLegCheckTarget>:

Boolean DrvLegCheckTarget( E_LEG indexLeg )
{
     b2e:	cf 93       	push	r28
	Int8U indexEpaule = 0U + (indexLeg * 3U);
     b30:	c8 2f       	mov	r28, r24
     b32:	cc 0f       	add	r28, r28
     b34:	c8 0f       	add	r28, r24
	Int8U indexCoude  = 1U + (indexLeg * 3U);
	Int8U indexPoigne = 2U + (indexLeg * 3U);
	if( 
		DrvServoCheckPosition(indexEpaule) &&
     b36:	8c 2f       	mov	r24, r28
     b38:	7d d3       	rcall	.+1786   	; 0x1234 <DrvServoCheckPosition>
     b3a:	98 2f       	mov	r25, r24
Boolean DrvLegCheckTarget( E_LEG indexLeg )
{
	Int8U indexEpaule = 0U + (indexLeg * 3U);
	Int8U indexCoude  = 1U + (indexLeg * 3U);
	Int8U indexPoigne = 2U + (indexLeg * 3U);
	if( 
     b3c:	88 23       	and	r24, r24
     b3e:	69 f0       	breq	.+26     	; 0xb5a <DrvLegCheckTarget+0x2c>
		DrvServoCheckPosition(indexEpaule) &&
		DrvServoCheckPosition(indexCoude) &&
     b40:	81 e0       	ldi	r24, 0x01	; 1
     b42:	8c 0f       	add	r24, r28
     b44:	77 d3       	rcall	.+1774   	; 0x1234 <DrvServoCheckPosition>
     b46:	98 2f       	mov	r25, r24
{
	Int8U indexEpaule = 0U + (indexLeg * 3U);
	Int8U indexCoude  = 1U + (indexLeg * 3U);
	Int8U indexPoigne = 2U + (indexLeg * 3U);
	if( 
		DrvServoCheckPosition(indexEpaule) &&
     b48:	88 23       	and	r24, r24
     b4a:	39 f0       	breq	.+14     	; 0xb5a <DrvLegCheckTarget+0x2c>
		DrvServoCheckPosition(indexCoude) &&
		DrvServoCheckPosition(indexPoigne) 
     b4c:	82 e0       	ldi	r24, 0x02	; 2
     b4e:	8c 0f       	add	r24, r28
     b50:	71 d3       	rcall	.+1762   	; 0x1234 <DrvServoCheckPosition>
		)
		{
			return TRUE;
     b52:	91 e0       	ldi	r25, 0x01	; 1
     b54:	81 11       	cpse	r24, r1
     b56:	01 c0       	rjmp	.+2      	; 0xb5a <DrvLegCheckTarget+0x2c>
     b58:	90 e0       	ldi	r25, 0x00	; 0
		}
	return FALSE;
}
     b5a:	89 2f       	mov	r24, r25
     b5c:	cf 91       	pop	r28
     b5e:	08 95       	ret

00000b60 <DrvLegSetXYZ>:

Boolean DrvLegSetXYZ( E_LEG indexLeg, Int16S x, Int16S y, Int16S z, Int16U speed )
{	
     b60:	2f 92       	push	r2
     b62:	3f 92       	push	r3
     b64:	4f 92       	push	r4
     b66:	5f 92       	push	r5
     b68:	6f 92       	push	r6
     b6a:	7f 92       	push	r7
     b6c:	8f 92       	push	r8
     b6e:	9f 92       	push	r9
     b70:	af 92       	push	r10
     b72:	bf 92       	push	r11
     b74:	cf 92       	push	r12
     b76:	df 92       	push	r13
     b78:	ef 92       	push	r14
     b7a:	ff 92       	push	r15
     b7c:	0f 93       	push	r16
     b7e:	1f 93       	push	r17
     b80:	cf 93       	push	r28
     b82:	df 93       	push	r29
     b84:	cd b7       	in	r28, 0x3d	; 61
     b86:	de b7       	in	r29, 0x3e	; 62
     b88:	28 97       	sbiw	r28, 0x08	; 8
     b8a:	0f b6       	in	r0, 0x3f	; 63
     b8c:	f8 94       	cli
     b8e:	de bf       	out	0x3e, r29	; 62
     b90:	0f be       	out	0x3f, r0	; 63
     b92:	cd bf       	out	0x3d, r28	; 61
	//http://te.unib.ac.id/lecturer/indraagustian/2014/05/3dof-inverse-kinematic-for-armleg-of-robot-use-arduino/
	if(indexLeg < E_NB_LEGS)
     b94:	86 30       	cpi	r24, 0x06	; 6
     b96:	08 f0       	brcs	.+2      	; 0xb9a <DrvLegSetXYZ+0x3a>
     b98:	7c c2       	rjmp	.+1272   	; 0x1092 <DrvLegSetXYZ+0x532>
     b9a:	6b 01       	movw	r12, r22
     b9c:	28 2e       	mov	r2, r24
	{
		//index of servos
		Int8U indexHanche = 0U + (indexLeg * 3U);
     b9e:	38 2e       	mov	r3, r24
     ba0:	33 0c       	add	r3, r3
     ba2:	38 0e       	add	r3, r24
		Int8U indexGenoux  = 1U + (indexLeg * 3U);
     ba4:	81 e0       	ldi	r24, 0x01	; 1
     ba6:	83 0d       	add	r24, r3
     ba8:	89 83       	std	Y+1, r24	; 0x01
		Int8U indexCheville = 2U + (indexLeg * 3U);
     baa:	92 e0       	ldi	r25, 0x02	; 2
     bac:	93 0d       	add	r25, r3
     bae:	9a 83       	std	Y+2, r25	; 0x02
	
		//add size of members
		y += (LEG_COCYX_LENGHT + LEG_FEMUR_LENGHT );
     bb0:	7a 01       	movw	r14, r20
     bb2:	e9 e6       	ldi	r30, 0x69	; 105
     bb4:	ee 0e       	add	r14, r30
     bb6:	f1 1c       	adc	r15, r1
		z += LEG_TIBIA_LENGHT;
     bb8:	c9 01       	movw	r24, r18
     bba:	83 58       	subi	r24, 0x83	; 131
     bbc:	9f 4f       	sbci	r25, 0xFF	; 255
     bbe:	98 87       	std	Y+8, r25	; 0x08
     bc0:	8f 83       	std	Y+7, r24	; 0x07
		
		//compute angles from distances
		L1 = (float)sqrt((x * x) + (y * y));
     bc2:	66 9f       	mul	r22, r22
     bc4:	40 01       	movw	r8, r0
     bc6:	67 9f       	mul	r22, r23
     bc8:	90 0c       	add	r9, r0
     bca:	90 0c       	add	r9, r0
     bcc:	11 24       	eor	r1, r1
     bce:	ee 9c       	mul	r14, r14
     bd0:	c0 01       	movw	r24, r0
     bd2:	ef 9c       	mul	r14, r15
     bd4:	90 0d       	add	r25, r0
     bd6:	90 0d       	add	r25, r0
     bd8:	11 24       	eor	r1, r1
     bda:	88 0e       	add	r8, r24
     bdc:	99 1e       	adc	r9, r25
     bde:	09 2c       	mov	r0, r9
     be0:	00 0c       	add	r0, r0
     be2:	aa 08       	sbc	r10, r10
     be4:	bb 08       	sbc	r11, r11
     be6:	c5 01       	movw	r24, r10
     be8:	b4 01       	movw	r22, r8
     bea:	0e 94 49 19 	call	0x3292	; 0x3292 <__floatsisf>
     bee:	0e 94 5d 1b 	call	0x36ba	; 0x36ba <sqrt>
     bf2:	60 93 9a 04 	sts	0x049A, r22	; 0x80049a <L1>
     bf6:	70 93 9b 04 	sts	0x049B, r23	; 0x80049b <L1+0x1>
     bfa:	80 93 9c 04 	sts	0x049C, r24	; 0x80049c <L1+0x2>
     bfe:	90 93 9d 04 	sts	0x049D, r25	; 0x80049d <L1+0x3>
		gama = (float)atan((float)x / (float)y);
     c02:	b6 01       	movw	r22, r12
     c04:	dd 0c       	add	r13, r13
     c06:	88 0b       	sbc	r24, r24
     c08:	99 0b       	sbc	r25, r25
     c0a:	0e 94 49 19 	call	0x3292	; 0x3292 <__floatsisf>
     c0e:	4b 01       	movw	r8, r22
     c10:	5c 01       	movw	r10, r24
     c12:	b7 01       	movw	r22, r14
     c14:	ff 0c       	add	r15, r15
     c16:	88 0b       	sbc	r24, r24
     c18:	99 0b       	sbc	r25, r25
     c1a:	0e 94 49 19 	call	0x3292	; 0x3292 <__floatsisf>
     c1e:	9b 01       	movw	r18, r22
     c20:	ac 01       	movw	r20, r24
     c22:	c5 01       	movw	r24, r10
     c24:	b4 01       	movw	r22, r8
     c26:	0e 94 ae 18 	call	0x315c	; 0x315c <__divsf3>
     c2a:	0e 94 7f 18 	call	0x30fe	; 0x30fe <atan>
     c2e:	60 93 86 04 	sts	0x0486, r22	; 0x800486 <__data_end>
     c32:	70 93 87 04 	sts	0x0487, r23	; 0x800487 <__data_end+0x1>
     c36:	80 93 88 04 	sts	0x0488, r24	; 0x800488 <__data_end+0x2>
     c3a:	90 93 89 04 	sts	0x0489, r25	; 0x800489 <__data_end+0x3>
		L = (float)sqrt(((L1 - LEG_COCYX_LENGHT) * (L1 - LEG_COCYX_LENGHT)) + (z * z));
     c3e:	80 90 9a 04 	lds	r8, 0x049A	; 0x80049a <L1>
     c42:	90 90 9b 04 	lds	r9, 0x049B	; 0x80049b <L1+0x1>
     c46:	a0 90 9c 04 	lds	r10, 0x049C	; 0x80049c <L1+0x2>
     c4a:	b0 90 9d 04 	lds	r11, 0x049D	; 0x80049d <L1+0x3>
     c4e:	c0 90 9a 04 	lds	r12, 0x049A	; 0x80049a <L1>
     c52:	d0 90 9b 04 	lds	r13, 0x049B	; 0x80049b <L1+0x1>
     c56:	e0 90 9c 04 	lds	r14, 0x049C	; 0x80049c <L1+0x2>
     c5a:	f0 90 9d 04 	lds	r15, 0x049D	; 0x80049d <L1+0x3>
     c5e:	20 e0       	ldi	r18, 0x00	; 0
     c60:	30 e0       	ldi	r19, 0x00	; 0
     c62:	40 ef       	ldi	r20, 0xF0	; 240
     c64:	51 e4       	ldi	r21, 0x41	; 65
     c66:	c5 01       	movw	r24, r10
     c68:	b4 01       	movw	r22, r8
     c6a:	0e 94 1a 18 	call	0x3034	; 0x3034 <__subsf3>
     c6e:	2b 01       	movw	r4, r22
     c70:	3c 01       	movw	r6, r24
     c72:	20 e0       	ldi	r18, 0x00	; 0
     c74:	30 e0       	ldi	r19, 0x00	; 0
     c76:	40 ef       	ldi	r20, 0xF0	; 240
     c78:	51 e4       	ldi	r21, 0x41	; 65
     c7a:	c7 01       	movw	r24, r14
     c7c:	b6 01       	movw	r22, r12
     c7e:	0e 94 1a 18 	call	0x3034	; 0x3034 <__subsf3>
     c82:	9b 01       	movw	r18, r22
     c84:	ac 01       	movw	r20, r24
     c86:	c3 01       	movw	r24, r6
     c88:	b2 01       	movw	r22, r4
     c8a:	0e 94 d0 1a 	call	0x35a0	; 0x35a0 <__mulsf3>
     c8e:	6b 83       	std	Y+3, r22	; 0x03
     c90:	7c 83       	std	Y+4, r23	; 0x04
     c92:	8d 83       	std	Y+5, r24	; 0x05
     c94:	9e 83       	std	Y+6, r25	; 0x06
     c96:	ef 81       	ldd	r30, Y+7	; 0x07
     c98:	f8 85       	ldd	r31, Y+8	; 0x08
     c9a:	ee 9f       	mul	r30, r30
     c9c:	c0 01       	movw	r24, r0
     c9e:	ef 9f       	mul	r30, r31
     ca0:	90 0d       	add	r25, r0
     ca2:	90 0d       	add	r25, r0
     ca4:	11 24       	eor	r1, r1
     ca6:	2c 01       	movw	r4, r24
     ca8:	99 0f       	add	r25, r25
     caa:	66 08       	sbc	r6, r6
     cac:	77 08       	sbc	r7, r7
     cae:	20 e0       	ldi	r18, 0x00	; 0
     cb0:	30 e0       	ldi	r19, 0x00	; 0
     cb2:	40 ef       	ldi	r20, 0xF0	; 240
     cb4:	51 e4       	ldi	r21, 0x41	; 65
     cb6:	c5 01       	movw	r24, r10
     cb8:	b4 01       	movw	r22, r8
     cba:	0e 94 1a 18 	call	0x3034	; 0x3034 <__subsf3>
     cbe:	4b 01       	movw	r8, r22
     cc0:	5c 01       	movw	r10, r24
     cc2:	20 e0       	ldi	r18, 0x00	; 0
     cc4:	30 e0       	ldi	r19, 0x00	; 0
     cc6:	40 ef       	ldi	r20, 0xF0	; 240
     cc8:	51 e4       	ldi	r21, 0x41	; 65
     cca:	c7 01       	movw	r24, r14
     ccc:	b6 01       	movw	r22, r12
     cce:	0e 94 1a 18 	call	0x3034	; 0x3034 <__subsf3>
     cd2:	9b 01       	movw	r18, r22
     cd4:	ac 01       	movw	r20, r24
     cd6:	c5 01       	movw	r24, r10
     cd8:	b4 01       	movw	r22, r8
     cda:	0e 94 d0 1a 	call	0x35a0	; 0x35a0 <__mulsf3>
     cde:	6b 01       	movw	r12, r22
     ce0:	7c 01       	movw	r14, r24
     ce2:	c3 01       	movw	r24, r6
     ce4:	b2 01       	movw	r22, r4
     ce6:	0e 94 49 19 	call	0x3292	; 0x3292 <__floatsisf>
     cea:	9b 01       	movw	r18, r22
     cec:	ac 01       	movw	r20, r24
     cee:	c7 01       	movw	r24, r14
     cf0:	b6 01       	movw	r22, r12
     cf2:	0e 94 1b 18 	call	0x3036	; 0x3036 <__addsf3>
     cf6:	0e 94 5d 1b 	call	0x36ba	; 0x36ba <sqrt>
     cfa:	60 93 9e 04 	sts	0x049E, r22	; 0x80049e <L>
     cfe:	70 93 9f 04 	sts	0x049F, r23	; 0x80049f <L+0x1>
     d02:	80 93 a0 04 	sts	0x04A0, r24	; 0x8004a0 <L+0x2>
     d06:	90 93 a1 04 	sts	0x04A1, r25	; 0x8004a1 <L+0x3>
		beta = (float)acos(((LEG_TIBIA_LENGHT * LEG_TIBIA_LENGHT) + (LEG_FEMUR_LENGHT * LEG_FEMUR_LENGHT) - (L * L)) / (2 * LEG_TIBIA_LENGHT * LEG_FEMUR_LENGHT));
     d0a:	60 91 9e 04 	lds	r22, 0x049E	; 0x80049e <L>
     d0e:	70 91 9f 04 	lds	r23, 0x049F	; 0x80049f <L+0x1>
     d12:	80 91 a0 04 	lds	r24, 0x04A0	; 0x8004a0 <L+0x2>
     d16:	90 91 a1 04 	lds	r25, 0x04A1	; 0x8004a1 <L+0x3>
     d1a:	20 91 9e 04 	lds	r18, 0x049E	; 0x80049e <L>
     d1e:	30 91 9f 04 	lds	r19, 0x049F	; 0x80049f <L+0x1>
     d22:	40 91 a0 04 	lds	r20, 0x04A0	; 0x8004a0 <L+0x2>
     d26:	50 91 a1 04 	lds	r21, 0x04A1	; 0x8004a1 <L+0x3>
     d2a:	0e 94 d0 1a 	call	0x35a0	; 0x35a0 <__mulsf3>
     d2e:	9b 01       	movw	r18, r22
     d30:	ac 01       	movw	r20, r24
     d32:	60 e0       	ldi	r22, 0x00	; 0
     d34:	74 e0       	ldi	r23, 0x04	; 4
     d36:	86 ea       	ldi	r24, 0xA6	; 166
     d38:	96 e4       	ldi	r25, 0x46	; 70
     d3a:	0e 94 1a 18 	call	0x3034	; 0x3034 <__subsf3>
     d3e:	20 e0       	ldi	r18, 0x00	; 0
     d40:	3c e7       	ldi	r19, 0x7C	; 124
     d42:	42 e9       	ldi	r20, 0x92	; 146
     d44:	56 e4       	ldi	r21, 0x46	; 70
     d46:	0e 94 ae 18 	call	0x315c	; 0x315c <__divsf3>
     d4a:	0e 94 0c 18 	call	0x3018	; 0x3018 <acos>
     d4e:	60 93 8a 04 	sts	0x048A, r22	; 0x80048a <beta>
     d52:	70 93 8b 04 	sts	0x048B, r23	; 0x80048b <beta+0x1>
     d56:	80 93 8c 04 	sts	0x048C, r24	; 0x80048c <beta+0x2>
     d5a:	90 93 8d 04 	sts	0x048D, r25	; 0x80048d <beta+0x3>
		alpha1 = (float)acos(z / L);
     d5e:	c0 90 9e 04 	lds	r12, 0x049E	; 0x80049e <L>
     d62:	d0 90 9f 04 	lds	r13, 0x049F	; 0x80049f <L+0x1>
     d66:	e0 90 a0 04 	lds	r14, 0x04A0	; 0x8004a0 <L+0x2>
     d6a:	f0 90 a1 04 	lds	r15, 0x04A1	; 0x8004a1 <L+0x3>
     d6e:	2f 81       	ldd	r18, Y+7	; 0x07
     d70:	38 85       	ldd	r19, Y+8	; 0x08
     d72:	b9 01       	movw	r22, r18
     d74:	33 0f       	add	r19, r19
     d76:	88 0b       	sbc	r24, r24
     d78:	99 0b       	sbc	r25, r25
     d7a:	0e 94 49 19 	call	0x3292	; 0x3292 <__floatsisf>
     d7e:	a7 01       	movw	r20, r14
     d80:	96 01       	movw	r18, r12
     d82:	0e 94 ae 18 	call	0x315c	; 0x315c <__divsf3>
     d86:	0e 94 0c 18 	call	0x3018	; 0x3018 <acos>
     d8a:	60 93 92 04 	sts	0x0492, r22	; 0x800492 <alpha1>
     d8e:	70 93 93 04 	sts	0x0493, r23	; 0x800493 <alpha1+0x1>
     d92:	80 93 94 04 	sts	0x0494, r24	; 0x800494 <alpha1+0x2>
     d96:	90 93 95 04 	sts	0x0495, r25	; 0x800495 <alpha1+0x3>
		alpha2 = (float)acos(((LEG_FEMUR_LENGHT * LEG_FEMUR_LENGHT) + (L * L) - (LEG_TIBIA_LENGHT * LEG_TIBIA_LENGHT)) / (2 * LEG_FEMUR_LENGHT * L));
     d9a:	60 91 9e 04 	lds	r22, 0x049E	; 0x80049e <L>
     d9e:	70 91 9f 04 	lds	r23, 0x049F	; 0x80049f <L+0x1>
     da2:	80 91 a0 04 	lds	r24, 0x04A0	; 0x8004a0 <L+0x2>
     da6:	90 91 a1 04 	lds	r25, 0x04A1	; 0x8004a1 <L+0x3>
     daa:	20 91 9e 04 	lds	r18, 0x049E	; 0x80049e <L>
     dae:	30 91 9f 04 	lds	r19, 0x049F	; 0x80049f <L+0x1>
     db2:	40 91 a0 04 	lds	r20, 0x04A0	; 0x8004a0 <L+0x2>
     db6:	50 91 a1 04 	lds	r21, 0x04A1	; 0x8004a1 <L+0x3>
     dba:	80 90 9e 04 	lds	r8, 0x049E	; 0x80049e <L>
     dbe:	90 90 9f 04 	lds	r9, 0x049F	; 0x80049f <L+0x1>
     dc2:	a0 90 a0 04 	lds	r10, 0x04A0	; 0x8004a0 <L+0x2>
     dc6:	b0 90 a1 04 	lds	r11, 0x04A1	; 0x8004a1 <L+0x3>
     dca:	0e 94 d0 1a 	call	0x35a0	; 0x35a0 <__mulsf3>
     dce:	20 e0       	ldi	r18, 0x00	; 0
     dd0:	38 ec       	ldi	r19, 0xC8	; 200
     dd2:	4f ea       	ldi	r20, 0xAF	; 175
     dd4:	55 e4       	ldi	r21, 0x45	; 69
     dd6:	0e 94 1b 18 	call	0x3036	; 0x3036 <__addsf3>
     dda:	20 e0       	ldi	r18, 0x00	; 0
     ddc:	34 e2       	ldi	r19, 0x24	; 36
     dde:	44 e7       	ldi	r20, 0x74	; 116
     de0:	56 e4       	ldi	r21, 0x46	; 70
     de2:	0e 94 1a 18 	call	0x3034	; 0x3034 <__subsf3>
     de6:	6b 01       	movw	r12, r22
     de8:	7c 01       	movw	r14, r24
     dea:	20 e0       	ldi	r18, 0x00	; 0
     dec:	30 e0       	ldi	r19, 0x00	; 0
     dee:	46 e1       	ldi	r20, 0x16	; 22
     df0:	53 e4       	ldi	r21, 0x43	; 67
     df2:	c5 01       	movw	r24, r10
     df4:	b4 01       	movw	r22, r8
     df6:	0e 94 d0 1a 	call	0x35a0	; 0x35a0 <__mulsf3>
     dfa:	9b 01       	movw	r18, r22
     dfc:	ac 01       	movw	r20, r24
     dfe:	c7 01       	movw	r24, r14
     e00:	b6 01       	movw	r22, r12
     e02:	0e 94 ae 18 	call	0x315c	; 0x315c <__divsf3>
     e06:	0e 94 0c 18 	call	0x3018	; 0x3018 <acos>
     e0a:	60 93 8e 04 	sts	0x048E, r22	; 0x80048e <alpha2>
     e0e:	70 93 8f 04 	sts	0x048F, r23	; 0x80048f <alpha2+0x1>
     e12:	80 93 90 04 	sts	0x0490, r24	; 0x800490 <alpha2+0x2>
     e16:	90 93 91 04 	sts	0x0491, r25	; 0x800491 <alpha2+0x3>
		alpha = alpha1 + alpha2;
     e1a:	60 91 92 04 	lds	r22, 0x0492	; 0x800492 <alpha1>
     e1e:	70 91 93 04 	lds	r23, 0x0493	; 0x800493 <alpha1+0x1>
     e22:	80 91 94 04 	lds	r24, 0x0494	; 0x800494 <alpha1+0x2>
     e26:	90 91 95 04 	lds	r25, 0x0495	; 0x800495 <alpha1+0x3>
     e2a:	20 91 8e 04 	lds	r18, 0x048E	; 0x80048e <alpha2>
     e2e:	30 91 8f 04 	lds	r19, 0x048F	; 0x80048f <alpha2+0x1>
     e32:	40 91 90 04 	lds	r20, 0x0490	; 0x800490 <alpha2+0x2>
     e36:	50 91 91 04 	lds	r21, 0x0491	; 0x800491 <alpha2+0x3>
     e3a:	0e 94 1b 18 	call	0x3036	; 0x3036 <__addsf3>
     e3e:	60 93 96 04 	sts	0x0496, r22	; 0x800496 <alpha>
     e42:	70 93 97 04 	sts	0x0497, r23	; 0x800497 <alpha+0x1>
     e46:	80 93 98 04 	sts	0x0498, r24	; 0x800498 <alpha+0x2>
     e4a:	90 93 99 04 	sts	0x0499, r25	; 0x800499 <alpha+0x3>
	
		// if left
		if(indexLeg < E_LEG_R_F)
     e4e:	32 e0       	ldi	r19, 0x02	; 2
     e50:	32 15       	cp	r19, r2
     e52:	08 f4       	brcc	.+2      	; 0xe56 <DrvLegSetXYZ+0x2f6>
     e54:	64 c0       	rjmp	.+200    	; 0xf1e <DrvLegSetXYZ+0x3be>
		{
			gama  = (gama * 180) / M_PI;
     e56:	60 91 86 04 	lds	r22, 0x0486	; 0x800486 <__data_end>
     e5a:	70 91 87 04 	lds	r23, 0x0487	; 0x800487 <__data_end+0x1>
     e5e:	80 91 88 04 	lds	r24, 0x0488	; 0x800488 <__data_end+0x2>
     e62:	90 91 89 04 	lds	r25, 0x0489	; 0x800489 <__data_end+0x3>
     e66:	20 e0       	ldi	r18, 0x00	; 0
     e68:	30 e0       	ldi	r19, 0x00	; 0
     e6a:	44 e3       	ldi	r20, 0x34	; 52
     e6c:	53 e4       	ldi	r21, 0x43	; 67
     e6e:	0e 94 d0 1a 	call	0x35a0	; 0x35a0 <__mulsf3>
     e72:	2b ed       	ldi	r18, 0xDB	; 219
     e74:	3f e0       	ldi	r19, 0x0F	; 15
     e76:	49 e4       	ldi	r20, 0x49	; 73
     e78:	50 e4       	ldi	r21, 0x40	; 64
     e7a:	0e 94 ae 18 	call	0x315c	; 0x315c <__divsf3>
     e7e:	60 93 86 04 	sts	0x0486, r22	; 0x800486 <__data_end>
     e82:	70 93 87 04 	sts	0x0487, r23	; 0x800487 <__data_end+0x1>
     e86:	80 93 88 04 	sts	0x0488, r24	; 0x800488 <__data_end+0x2>
     e8a:	90 93 89 04 	sts	0x0489, r25	; 0x800489 <__data_end+0x3>
			alpha = ((-alpha * 180) / M_PI) + 90.0;
     e8e:	80 91 96 04 	lds	r24, 0x0496	; 0x800496 <alpha>
     e92:	90 91 97 04 	lds	r25, 0x0497	; 0x800497 <alpha+0x1>
     e96:	a0 91 98 04 	lds	r26, 0x0498	; 0x800498 <alpha+0x2>
     e9a:	b0 91 99 04 	lds	r27, 0x0499	; 0x800499 <alpha+0x3>
     e9e:	bc 01       	movw	r22, r24
     ea0:	cd 01       	movw	r24, r26
     ea2:	90 58       	subi	r25, 0x80	; 128
     ea4:	20 e0       	ldi	r18, 0x00	; 0
     ea6:	30 e0       	ldi	r19, 0x00	; 0
     ea8:	44 e3       	ldi	r20, 0x34	; 52
     eaa:	53 e4       	ldi	r21, 0x43	; 67
     eac:	0e 94 d0 1a 	call	0x35a0	; 0x35a0 <__mulsf3>
     eb0:	2b ed       	ldi	r18, 0xDB	; 219
     eb2:	3f e0       	ldi	r19, 0x0F	; 15
     eb4:	49 e4       	ldi	r20, 0x49	; 73
     eb6:	50 e4       	ldi	r21, 0x40	; 64
     eb8:	0e 94 ae 18 	call	0x315c	; 0x315c <__divsf3>
     ebc:	20 e0       	ldi	r18, 0x00	; 0
     ebe:	30 e0       	ldi	r19, 0x00	; 0
     ec0:	44 eb       	ldi	r20, 0xB4	; 180
     ec2:	52 e4       	ldi	r21, 0x42	; 66
     ec4:	0e 94 1b 18 	call	0x3036	; 0x3036 <__addsf3>
     ec8:	60 93 96 04 	sts	0x0496, r22	; 0x800496 <alpha>
     ecc:	70 93 97 04 	sts	0x0497, r23	; 0x800497 <alpha+0x1>
     ed0:	80 93 98 04 	sts	0x0498, r24	; 0x800498 <alpha+0x2>
     ed4:	90 93 99 04 	sts	0x0499, r25	; 0x800499 <alpha+0x3>
			beta  = ((beta * 180) / M_PI) - 90.0;
     ed8:	60 91 8a 04 	lds	r22, 0x048A	; 0x80048a <beta>
     edc:	70 91 8b 04 	lds	r23, 0x048B	; 0x80048b <beta+0x1>
     ee0:	80 91 8c 04 	lds	r24, 0x048C	; 0x80048c <beta+0x2>
     ee4:	90 91 8d 04 	lds	r25, 0x048D	; 0x80048d <beta+0x3>
     ee8:	20 e0       	ldi	r18, 0x00	; 0
     eea:	30 e0       	ldi	r19, 0x00	; 0
     eec:	44 e3       	ldi	r20, 0x34	; 52
     eee:	53 e4       	ldi	r21, 0x43	; 67
     ef0:	0e 94 d0 1a 	call	0x35a0	; 0x35a0 <__mulsf3>
     ef4:	2b ed       	ldi	r18, 0xDB	; 219
     ef6:	3f e0       	ldi	r19, 0x0F	; 15
     ef8:	49 e4       	ldi	r20, 0x49	; 73
     efa:	50 e4       	ldi	r21, 0x40	; 64
     efc:	0e 94 ae 18 	call	0x315c	; 0x315c <__divsf3>
     f00:	20 e0       	ldi	r18, 0x00	; 0
     f02:	30 e0       	ldi	r19, 0x00	; 0
     f04:	44 eb       	ldi	r20, 0xB4	; 180
     f06:	52 e4       	ldi	r21, 0x42	; 66
     f08:	0e 94 1a 18 	call	0x3034	; 0x3034 <__subsf3>
     f0c:	60 93 8a 04 	sts	0x048A, r22	; 0x80048a <beta>
     f10:	70 93 8b 04 	sts	0x048B, r23	; 0x80048b <beta+0x1>
     f14:	80 93 8c 04 	sts	0x048C, r24	; 0x80048c <beta+0x2>
     f18:	90 93 8d 04 	sts	0x048D, r25	; 0x80048d <beta+0x3>
     f1c:	66 c0       	rjmp	.+204    	; 0xfea <DrvLegSetXYZ+0x48a>
		}
		//else right
		else
		{
			gama  = (-gama * 180) / M_PI;
     f1e:	80 91 86 04 	lds	r24, 0x0486	; 0x800486 <__data_end>
     f22:	90 91 87 04 	lds	r25, 0x0487	; 0x800487 <__data_end+0x1>
     f26:	a0 91 88 04 	lds	r26, 0x0488	; 0x800488 <__data_end+0x2>
     f2a:	b0 91 89 04 	lds	r27, 0x0489	; 0x800489 <__data_end+0x3>
     f2e:	bc 01       	movw	r22, r24
     f30:	cd 01       	movw	r24, r26
     f32:	90 58       	subi	r25, 0x80	; 128
     f34:	20 e0       	ldi	r18, 0x00	; 0
     f36:	30 e0       	ldi	r19, 0x00	; 0
     f38:	44 e3       	ldi	r20, 0x34	; 52
     f3a:	53 e4       	ldi	r21, 0x43	; 67
     f3c:	0e 94 d0 1a 	call	0x35a0	; 0x35a0 <__mulsf3>
     f40:	2b ed       	ldi	r18, 0xDB	; 219
     f42:	3f e0       	ldi	r19, 0x0F	; 15
     f44:	49 e4       	ldi	r20, 0x49	; 73
     f46:	50 e4       	ldi	r21, 0x40	; 64
     f48:	0e 94 ae 18 	call	0x315c	; 0x315c <__divsf3>
     f4c:	60 93 86 04 	sts	0x0486, r22	; 0x800486 <__data_end>
     f50:	70 93 87 04 	sts	0x0487, r23	; 0x800487 <__data_end+0x1>
     f54:	80 93 88 04 	sts	0x0488, r24	; 0x800488 <__data_end+0x2>
     f58:	90 93 89 04 	sts	0x0489, r25	; 0x800489 <__data_end+0x3>
			alpha = ((alpha * 180) / M_PI) - 90.0;
     f5c:	60 91 96 04 	lds	r22, 0x0496	; 0x800496 <alpha>
     f60:	70 91 97 04 	lds	r23, 0x0497	; 0x800497 <alpha+0x1>
     f64:	80 91 98 04 	lds	r24, 0x0498	; 0x800498 <alpha+0x2>
     f68:	90 91 99 04 	lds	r25, 0x0499	; 0x800499 <alpha+0x3>
     f6c:	20 e0       	ldi	r18, 0x00	; 0
     f6e:	30 e0       	ldi	r19, 0x00	; 0
     f70:	44 e3       	ldi	r20, 0x34	; 52
     f72:	53 e4       	ldi	r21, 0x43	; 67
     f74:	0e 94 d0 1a 	call	0x35a0	; 0x35a0 <__mulsf3>
     f78:	2b ed       	ldi	r18, 0xDB	; 219
     f7a:	3f e0       	ldi	r19, 0x0F	; 15
     f7c:	49 e4       	ldi	r20, 0x49	; 73
     f7e:	50 e4       	ldi	r21, 0x40	; 64
     f80:	0e 94 ae 18 	call	0x315c	; 0x315c <__divsf3>
     f84:	20 e0       	ldi	r18, 0x00	; 0
     f86:	30 e0       	ldi	r19, 0x00	; 0
     f88:	44 eb       	ldi	r20, 0xB4	; 180
     f8a:	52 e4       	ldi	r21, 0x42	; 66
     f8c:	0e 94 1a 18 	call	0x3034	; 0x3034 <__subsf3>
     f90:	60 93 96 04 	sts	0x0496, r22	; 0x800496 <alpha>
     f94:	70 93 97 04 	sts	0x0497, r23	; 0x800497 <alpha+0x1>
     f98:	80 93 98 04 	sts	0x0498, r24	; 0x800498 <alpha+0x2>
     f9c:	90 93 99 04 	sts	0x0499, r25	; 0x800499 <alpha+0x3>
			beta  = ((-beta * 180) / M_PI) + 90.0;
     fa0:	80 91 8a 04 	lds	r24, 0x048A	; 0x80048a <beta>
     fa4:	90 91 8b 04 	lds	r25, 0x048B	; 0x80048b <beta+0x1>
     fa8:	a0 91 8c 04 	lds	r26, 0x048C	; 0x80048c <beta+0x2>
     fac:	b0 91 8d 04 	lds	r27, 0x048D	; 0x80048d <beta+0x3>
     fb0:	bc 01       	movw	r22, r24
     fb2:	cd 01       	movw	r24, r26
     fb4:	90 58       	subi	r25, 0x80	; 128
     fb6:	20 e0       	ldi	r18, 0x00	; 0
     fb8:	30 e0       	ldi	r19, 0x00	; 0
     fba:	44 e3       	ldi	r20, 0x34	; 52
     fbc:	53 e4       	ldi	r21, 0x43	; 67
     fbe:	0e 94 d0 1a 	call	0x35a0	; 0x35a0 <__mulsf3>
     fc2:	2b ed       	ldi	r18, 0xDB	; 219
     fc4:	3f e0       	ldi	r19, 0x0F	; 15
     fc6:	49 e4       	ldi	r20, 0x49	; 73
     fc8:	50 e4       	ldi	r21, 0x40	; 64
     fca:	0e 94 ae 18 	call	0x315c	; 0x315c <__divsf3>
     fce:	20 e0       	ldi	r18, 0x00	; 0
     fd0:	30 e0       	ldi	r19, 0x00	; 0
     fd2:	44 eb       	ldi	r20, 0xB4	; 180
     fd4:	52 e4       	ldi	r21, 0x42	; 66
     fd6:	0e 94 1b 18 	call	0x3036	; 0x3036 <__addsf3>
     fda:	60 93 8a 04 	sts	0x048A, r22	; 0x80048a <beta>
     fde:	70 93 8b 04 	sts	0x048B, r23	; 0x80048b <beta+0x1>
     fe2:	80 93 8c 04 	sts	0x048C, r24	; 0x80048c <beta+0x2>
     fe6:	90 93 8d 04 	sts	0x048D, r25	; 0x80048d <beta+0x3>
		}
	
		//set servos position
		DrvServoSetTarget(indexHanche,		(Int16S)round(gama)		+ legs[ indexLeg ].coxaAngle->mid	,	speed );
     fea:	60 91 86 04 	lds	r22, 0x0486	; 0x800486 <__data_end>
     fee:	70 91 87 04 	lds	r23, 0x0487	; 0x800487 <__data_end+0x1>
     ff2:	80 91 88 04 	lds	r24, 0x0488	; 0x800488 <__data_end+0x2>
     ff6:	90 91 89 04 	lds	r25, 0x0489	; 0x800489 <__data_end+0x3>
     ffa:	0e 94 33 1b 	call	0x3666	; 0x3666 <round>
     ffe:	27 e0       	ldi	r18, 0x07	; 7
    1000:	22 9e       	mul	r2, r18
    1002:	f0 01       	movw	r30, r0
    1004:	11 24       	eor	r1, r1
    1006:	ed 55       	subi	r30, 0x5D	; 93
    1008:	fb 4f       	sbci	r31, 0xFB	; 251
    100a:	fc 83       	std	Y+4, r31	; 0x04
    100c:	eb 83       	std	Y+3, r30	; 0x03
    100e:	e1 80       	ldd	r14, Z+1	; 0x01
    1010:	f2 80       	ldd	r15, Z+2	; 0x02
    1012:	0e 94 16 19 	call	0x322c	; 0x322c <__fixsfsi>
    1016:	f7 01       	movw	r30, r14
    1018:	21 89       	ldd	r18, Z+17	; 0x11
    101a:	32 89       	ldd	r19, Z+18	; 0x12
    101c:	62 0f       	add	r22, r18
    101e:	73 1f       	adc	r23, r19
    1020:	a8 01       	movw	r20, r16
    1022:	83 2d       	mov	r24, r3
    1024:	87 d0       	rcall	.+270    	; 0x1134 <DrvServoSetTarget>
		DrvServoSetTarget(indexGenoux,		(Int16S)(round(alpha))	+ legs[ indexLeg ].femurAngle->mid	,	speed );
    1026:	60 91 96 04 	lds	r22, 0x0496	; 0x800496 <alpha>
    102a:	70 91 97 04 	lds	r23, 0x0497	; 0x800497 <alpha+0x1>
    102e:	80 91 98 04 	lds	r24, 0x0498	; 0x800498 <alpha+0x2>
    1032:	90 91 99 04 	lds	r25, 0x0499	; 0x800499 <alpha+0x3>
    1036:	0e 94 33 1b 	call	0x3666	; 0x3666 <round>
    103a:	eb 81       	ldd	r30, Y+3	; 0x03
    103c:	fc 81       	ldd	r31, Y+4	; 0x04
    103e:	e3 80       	ldd	r14, Z+3	; 0x03
    1040:	f4 80       	ldd	r15, Z+4	; 0x04
    1042:	0e 94 16 19 	call	0x322c	; 0x322c <__fixsfsi>
    1046:	f7 01       	movw	r30, r14
    1048:	21 89       	ldd	r18, Z+17	; 0x11
    104a:	32 89       	ldd	r19, Z+18	; 0x12
    104c:	62 0f       	add	r22, r18
    104e:	73 1f       	adc	r23, r19
    1050:	a8 01       	movw	r20, r16
    1052:	89 81       	ldd	r24, Y+1	; 0x01
    1054:	6f d0       	rcall	.+222    	; 0x1134 <DrvServoSetTarget>
		DrvServoSetTarget(indexCheville,	(Int16S)(round(beta) )	+ legs[ indexLeg ].tibiaAngle->mid	,	speed );
    1056:	60 91 8a 04 	lds	r22, 0x048A	; 0x80048a <beta>
    105a:	70 91 8b 04 	lds	r23, 0x048B	; 0x80048b <beta+0x1>
    105e:	80 91 8c 04 	lds	r24, 0x048C	; 0x80048c <beta+0x2>
    1062:	90 91 8d 04 	lds	r25, 0x048D	; 0x80048d <beta+0x3>
    1066:	0e 94 33 1b 	call	0x3666	; 0x3666 <round>
    106a:	eb 81       	ldd	r30, Y+3	; 0x03
    106c:	fc 81       	ldd	r31, Y+4	; 0x04
    106e:	05 80       	ldd	r0, Z+5	; 0x05
    1070:	f6 81       	ldd	r31, Z+6	; 0x06
    1072:	e0 2d       	mov	r30, r0
    1074:	fc 83       	std	Y+4, r31	; 0x04
    1076:	eb 83       	std	Y+3, r30	; 0x03
    1078:	0e 94 16 19 	call	0x322c	; 0x322c <__fixsfsi>
    107c:	eb 81       	ldd	r30, Y+3	; 0x03
    107e:	fc 81       	ldd	r31, Y+4	; 0x04
    1080:	21 89       	ldd	r18, Z+17	; 0x11
    1082:	32 89       	ldd	r19, Z+18	; 0x12
    1084:	62 0f       	add	r22, r18
    1086:	73 1f       	adc	r23, r19
    1088:	a8 01       	movw	r20, r16
    108a:	8a 81       	ldd	r24, Y+2	; 0x02
    108c:	53 d0       	rcall	.+166    	; 0x1134 <DrvServoSetTarget>
	
		return TRUE;
    108e:	81 e0       	ldi	r24, 0x01	; 1
    1090:	01 c0       	rjmp	.+2      	; 0x1094 <DrvLegSetXYZ+0x534>
	}
	return FALSE;
    1092:	80 e0       	ldi	r24, 0x00	; 0
}
    1094:	28 96       	adiw	r28, 0x08	; 8
    1096:	0f b6       	in	r0, 0x3f	; 63
    1098:	f8 94       	cli
    109a:	de bf       	out	0x3e, r29	; 62
    109c:	0f be       	out	0x3f, r0	; 63
    109e:	cd bf       	out	0x3d, r28	; 61
    10a0:	df 91       	pop	r29
    10a2:	cf 91       	pop	r28
    10a4:	1f 91       	pop	r17
    10a6:	0f 91       	pop	r16
    10a8:	ff 90       	pop	r15
    10aa:	ef 90       	pop	r14
    10ac:	df 90       	pop	r13
    10ae:	cf 90       	pop	r12
    10b0:	bf 90       	pop	r11
    10b2:	af 90       	pop	r10
    10b4:	9f 90       	pop	r9
    10b6:	8f 90       	pop	r8
    10b8:	7f 90       	pop	r7
    10ba:	6f 90       	pop	r6
    10bc:	5f 90       	pop	r5
    10be:	4f 90       	pop	r4
    10c0:	3f 90       	pop	r3
    10c2:	2f 90       	pop	r2
    10c4:	08 95       	ret

000010c6 <DrvLegUpdate>:


Boolean DrvLegUpdate( void )
{
	//update each servo
	DrvServoUpdate();
    10c6:	c7 d0       	rcall	.+398    	; 0x1256 <DrvServoUpdate>

	return TRUE;
} 
    10c8:	81 e0       	ldi	r24, 0x01	; 1
    10ca:	08 95       	ret

000010cc <DrvServoInit>:

// get the target of the selected servo
Int16S DrvServoGetTarget( Int8U index )
{
	return servos[ index ].targetPosition;
}
    10cc:	ed ec       	ldi	r30, 0xCD	; 205
    10ce:	f4 e0       	ldi	r31, 0x04	; 4
    10d0:	80 e0       	ldi	r24, 0x00	; 0
    10d2:	4a e5       	ldi	r20, 0x5A	; 90
    10d4:	50 e0       	ldi	r21, 0x00	; 0
    10d6:	24 eb       	ldi	r18, 0xB4	; 180
    10d8:	30 e0       	ldi	r19, 0x00	; 0
    10da:	93 e0       	ldi	r25, 0x03	; 3
    10dc:	80 83       	st	Z, r24
    10de:	12 82       	std	Z+2, r1	; 0x02
    10e0:	11 82       	std	Z+1, r1	; 0x01
    10e2:	14 82       	std	Z+4, r1	; 0x04
    10e4:	13 82       	std	Z+3, r1	; 0x03
    10e6:	16 82       	std	Z+6, r1	; 0x06
    10e8:	15 82       	std	Z+5, r1	; 0x05
    10ea:	14 86       	std	Z+12, r1	; 0x0c
    10ec:	13 86       	std	Z+11, r1	; 0x0b
    10ee:	17 82       	std	Z+7, r1	; 0x07
    10f0:	10 86       	std	Z+8, r1	; 0x08
    10f2:	11 86       	std	Z+9, r1	; 0x09
    10f4:	12 86       	std	Z+10, r1	; 0x0a
    10f6:	16 86       	std	Z+14, r1	; 0x0e
    10f8:	15 86       	std	Z+13, r1	; 0x0d
    10fa:	10 8a       	std	Z+16, r1	; 0x10
    10fc:	17 86       	std	Z+15, r1	; 0x0f
    10fe:	52 8b       	std	Z+18, r21	; 0x12
    1100:	41 8b       	std	Z+17, r20	; 0x11
    1102:	34 8b       	std	Z+20, r19	; 0x14
    1104:	23 8b       	std	Z+19, r18	; 0x13
    1106:	95 8b       	std	Z+21, r25	; 0x15
    1108:	8f 5f       	subi	r24, 0xFF	; 255
    110a:	76 96       	adiw	r30, 0x16	; 22
    110c:	82 31       	cpi	r24, 0x12	; 18
    110e:	31 f7       	brne	.-52     	; 0x10dc <DrvServoInit+0x10>
    1110:	80 e4       	ldi	r24, 0x40	; 64
    1112:	25 d8       	rcall	.-4022   	; 0x15e <CmpPCA9685Init>
    1114:	81 e4       	ldi	r24, 0x41	; 65
    1116:	23 d8       	rcall	.-4026   	; 0x15e <CmpPCA9685Init>
    1118:	40 e0       	ldi	r20, 0x00	; 0
    111a:	50 e0       	ldi	r21, 0x00	; 0
    111c:	60 e7       	ldi	r22, 0x70	; 112
    111e:	72 e4       	ldi	r23, 0x42	; 66
    1120:	80 e4       	ldi	r24, 0x40	; 64
    1122:	2a d8       	rcall	.-4012   	; 0x178 <CmpPCA9685SetPWMFreq>
    1124:	40 e0       	ldi	r20, 0x00	; 0
    1126:	50 e0       	ldi	r21, 0x00	; 0
    1128:	60 e7       	ldi	r22, 0x70	; 112
    112a:	72 e4       	ldi	r23, 0x42	; 66
    112c:	81 e4       	ldi	r24, 0x41	; 65
    112e:	24 d8       	rcall	.-4024   	; 0x178 <CmpPCA9685SetPWMFreq>
    1130:	81 e0       	ldi	r24, 0x01	; 1
    1132:	08 95       	ret

00001134 <DrvServoSetTarget>:
    1134:	ef 92       	push	r14
    1136:	ff 92       	push	r15
    1138:	0f 93       	push	r16
    113a:	1f 93       	push	r17
    113c:	cf 93       	push	r28
    113e:	df 93       	push	r29
    1140:	82 31       	cpi	r24, 0x12	; 18
    1142:	08 f0       	brcs	.+2      	; 0x1146 <DrvServoSetTarget+0x12>
    1144:	69 c0       	rjmp	.+210    	; 0x1218 <DrvServoSetTarget+0xe4>
    1146:	c8 2f       	mov	r28, r24
    1148:	d0 e0       	ldi	r29, 0x00	; 0
    114a:	96 e1       	ldi	r25, 0x16	; 22
    114c:	89 9f       	mul	r24, r25
    114e:	f0 01       	movw	r30, r0
    1150:	11 24       	eor	r1, r1
    1152:	e3 53       	subi	r30, 0x33	; 51
    1154:	fb 4f       	sbci	r31, 0xFB	; 251
    1156:	87 85       	ldd	r24, Z+15	; 0x0f
    1158:	90 89       	ldd	r25, Z+16	; 0x10
    115a:	68 17       	cp	r22, r24
    115c:	79 07       	cpc	r23, r25
    115e:	0c f4       	brge	.+2      	; 0x1162 <DrvServoSetTarget+0x2e>
    1160:	5d c0       	rjmp	.+186    	; 0x121c <DrvServoSetTarget+0xe8>
    1162:	86 e1       	ldi	r24, 0x16	; 22
    1164:	8c 9f       	mul	r24, r28
    1166:	f0 01       	movw	r30, r0
    1168:	8d 9f       	mul	r24, r29
    116a:	f0 0d       	add	r31, r0
    116c:	11 24       	eor	r1, r1
    116e:	e3 53       	subi	r30, 0x33	; 51
    1170:	fb 4f       	sbci	r31, 0xFB	; 251
    1172:	83 89       	ldd	r24, Z+19	; 0x13
    1174:	94 89       	ldd	r25, Z+20	; 0x14
    1176:	86 17       	cp	r24, r22
    1178:	97 07       	cpc	r25, r23
    117a:	0c f4       	brge	.+2      	; 0x117e <DrvServoSetTarget+0x4a>
    117c:	51 c0       	rjmp	.+162    	; 0x1220 <DrvServoSetTarget+0xec>
    117e:	86 e1       	ldi	r24, 0x16	; 22
    1180:	8c 9f       	mul	r24, r28
    1182:	f0 01       	movw	r30, r0
    1184:	8d 9f       	mul	r24, r29
    1186:	f0 0d       	add	r31, r0
    1188:	11 24       	eor	r1, r1
    118a:	e3 53       	subi	r30, 0x33	; 51
    118c:	fb 4f       	sbci	r31, 0xFB	; 251
    118e:	85 81       	ldd	r24, Z+5	; 0x05
    1190:	96 81       	ldd	r25, Z+6	; 0x06
    1192:	68 17       	cp	r22, r24
    1194:	79 07       	cpc	r23, r25
    1196:	09 f4       	brne	.+2      	; 0x119a <DrvServoSetTarget+0x66>
    1198:	45 c0       	rjmp	.+138    	; 0x1224 <DrvServoSetTarget+0xf0>
    119a:	7a 01       	movw	r14, r20
    119c:	8f 01       	movw	r16, r30
    119e:	81 81       	ldd	r24, Z+1	; 0x01
    11a0:	92 81       	ldd	r25, Z+2	; 0x02
    11a2:	94 83       	std	Z+4, r25	; 0x04
    11a4:	83 83       	std	Z+3, r24	; 0x03
    11a6:	76 83       	std	Z+6, r23	; 0x06
    11a8:	65 83       	std	Z+5, r22	; 0x05
    11aa:	3d d5       	rcall	.+2682   	; 0x1c26 <DrvTickGetTimeMs>
    11ac:	f8 01       	movw	r30, r16
    11ae:	67 83       	std	Z+7, r22	; 0x07
    11b0:	70 87       	std	Z+8, r23	; 0x08
    11b2:	81 87       	std	Z+9, r24	; 0x09
    11b4:	92 87       	std	Z+10, r25	; 0x0a
    11b6:	85 81       	ldd	r24, Z+5	; 0x05
    11b8:	96 81       	ldd	r25, Z+6	; 0x06
    11ba:	21 81       	ldd	r18, Z+1	; 0x01
    11bc:	32 81       	ldd	r19, Z+2	; 0x02
    11be:	82 1b       	sub	r24, r18
    11c0:	93 0b       	sbc	r25, r19
    11c2:	ac 01       	movw	r20, r24
    11c4:	22 f4       	brpl	.+8      	; 0x11ce <DrvServoSetTarget+0x9a>
    11c6:	44 27       	eor	r20, r20
    11c8:	55 27       	eor	r21, r21
    11ca:	48 1b       	sub	r20, r24
    11cc:	59 0b       	sbc	r21, r25
    11ce:	88 ee       	ldi	r24, 0xE8	; 232
    11d0:	93 e0       	ldi	r25, 0x03	; 3
    11d2:	48 9f       	mul	r20, r24
    11d4:	90 01       	movw	r18, r0
    11d6:	49 9f       	mul	r20, r25
    11d8:	30 0d       	add	r19, r0
    11da:	58 9f       	mul	r21, r24
    11dc:	30 0d       	add	r19, r0
    11de:	11 24       	eor	r1, r1
    11e0:	a9 e8       	ldi	r26, 0x89	; 137
    11e2:	b8 e8       	ldi	r27, 0x88	; 136
    11e4:	0e 94 ec 1b 	call	0x37d8	; 0x37d8 <__umulhisi3>
    11e8:	26 e1       	ldi	r18, 0x16	; 22
    11ea:	2c 9f       	mul	r18, r28
    11ec:	f0 01       	movw	r30, r0
    11ee:	2d 9f       	mul	r18, r29
    11f0:	f0 0d       	add	r31, r0
    11f2:	11 24       	eor	r1, r1
    11f4:	e3 53       	subi	r30, 0x33	; 51
    11f6:	fb 4f       	sbci	r31, 0xFB	; 251
    11f8:	96 95       	lsr	r25
    11fa:	87 95       	ror	r24
    11fc:	92 95       	swap	r25
    11fe:	82 95       	swap	r24
    1200:	8f 70       	andi	r24, 0x0F	; 15
    1202:	89 27       	eor	r24, r25
    1204:	9f 70       	andi	r25, 0x0F	; 15
    1206:	89 27       	eor	r24, r25
    1208:	8e 15       	cp	r24, r14
    120a:	9f 05       	cpc	r25, r15
    120c:	08 f4       	brcc	.+2      	; 0x1210 <DrvServoSetTarget+0xdc>
    120e:	c7 01       	movw	r24, r14
    1210:	94 87       	std	Z+12, r25	; 0x0c
    1212:	83 87       	std	Z+11, r24	; 0x0b
    1214:	81 e0       	ldi	r24, 0x01	; 1
    1216:	07 c0       	rjmp	.+14     	; 0x1226 <DrvServoSetTarget+0xf2>
    1218:	80 e0       	ldi	r24, 0x00	; 0
    121a:	05 c0       	rjmp	.+10     	; 0x1226 <DrvServoSetTarget+0xf2>
    121c:	80 e0       	ldi	r24, 0x00	; 0
    121e:	03 c0       	rjmp	.+6      	; 0x1226 <DrvServoSetTarget+0xf2>
    1220:	80 e0       	ldi	r24, 0x00	; 0
    1222:	01 c0       	rjmp	.+2      	; 0x1226 <DrvServoSetTarget+0xf2>
    1224:	80 e0       	ldi	r24, 0x00	; 0
    1226:	df 91       	pop	r29
    1228:	cf 91       	pop	r28
    122a:	1f 91       	pop	r17
    122c:	0f 91       	pop	r16
    122e:	ff 90       	pop	r15
    1230:	ef 90       	pop	r14
    1232:	08 95       	ret

00001234 <DrvServoCheckPosition>:

//check if servo reaches target
Boolean DrvServoCheckPosition( Int8U index )
{
	if( servos[index].currentPosition != servos[index].targetPosition )
    1234:	26 e1       	ldi	r18, 0x16	; 22
    1236:	82 9f       	mul	r24, r18
    1238:	c0 01       	movw	r24, r0
    123a:	11 24       	eor	r1, r1
    123c:	fc 01       	movw	r30, r24
    123e:	e3 53       	subi	r30, 0x33	; 51
    1240:	fb 4f       	sbci	r31, 0xFB	; 251
    1242:	81 e0       	ldi	r24, 0x01	; 1
    1244:	41 81       	ldd	r20, Z+1	; 0x01
    1246:	52 81       	ldd	r21, Z+2	; 0x02
    1248:	25 81       	ldd	r18, Z+5	; 0x05
    124a:	36 81       	ldd	r19, Z+6	; 0x06
    124c:	42 17       	cp	r20, r18
    124e:	53 07       	cpc	r21, r19
    1250:	09 f0       	breq	.+2      	; 0x1254 <DrvServoCheckPosition+0x20>
    1252:	80 e0       	ldi	r24, 0x00	; 0
	{
		return FALSE;
	}
	return TRUE;
}
    1254:	08 95       	ret

00001256 <DrvServoUpdate>:

//set the position
void DrvServoUpdate ( void )
{
    1256:	3f 92       	push	r3
    1258:	4f 92       	push	r4
    125a:	5f 92       	push	r5
    125c:	6f 92       	push	r6
    125e:	7f 92       	push	r7
    1260:	8f 92       	push	r8
    1262:	9f 92       	push	r9
    1264:	af 92       	push	r10
    1266:	bf 92       	push	r11
    1268:	cf 92       	push	r12
    126a:	df 92       	push	r13
    126c:	ef 92       	push	r14
    126e:	ff 92       	push	r15
    1270:	0f 93       	push	r16
    1272:	1f 93       	push	r17
    1274:	cf 93       	push	r28
    1276:	df 93       	push	r29
    1278:	cd b7       	in	r28, 0x3d	; 61
    127a:	de b7       	in	r29, 0x3e	; 62
    127c:	2c 97       	sbiw	r28, 0x0c	; 12
    127e:	0f b6       	in	r0, 0x3f	; 63
    1280:	f8 94       	cli
    1282:	de bf       	out	0x3e, r29	; 62
    1284:	0f be       	out	0x3f, r0	; 63
    1286:	cd bf       	out	0x3d, r28	; 61
    1288:	2e ec       	ldi	r18, 0xCE	; 206
    128a:	34 e0       	ldi	r19, 0x04	; 4
	for (Int8U index = 0U; index < NB_SERVOS ; index++)
    128c:	10 e0       	ldi	r17, 0x00	; 0
  return (x - in_min) * (out_max - out_min) / (in_max - in_min) + out_min;
}

static inline float SetRangeInt16(Int16U x, Int16U in_min, Int16U in_max, Int16U out_min, Int16U out_max)
{
	return ((Int32U)(x - in_min) * (out_max - out_min)) / (in_max - in_min) + out_min;
    128e:	3c 87       	std	Y+12, r19	; 0x0c
    1290:	2b 87       	std	Y+11, r18	; 0x0b
    1292:	31 2e       	mov	r3, r17
////////////////////////////////////////PRIVATE FUNCTIONS/////////////////////////////////////////

void DrvServoComputeAngle ( Int8U index )
{
	//if needed
	if( DrvServoCheckPosition(index) == FALSE )
    1294:	83 2d       	mov	r24, r3
    1296:	ce df       	rcall	.-100    	; 0x1234 <DrvServoCheckPosition>
    1298:	81 11       	cpse	r24, r1
    129a:	0a c1       	rjmp	.+532    	; 0x14b0 <DrvServoUpdate+0x25a>
	{
		float currentTime	= DrvTickGetTimeMs() - servos[ index ].startTime;
    129c:	c4 d4       	rcall	.+2440   	; 0x1c26 <DrvTickGetTimeMs>
    129e:	ab 85       	ldd	r26, Y+11	; 0x0b
    12a0:	bc 85       	ldd	r27, Y+12	; 0x0c
    12a2:	be 83       	std	Y+6, r27	; 0x06
    12a4:	ad 83       	std	Y+5, r26	; 0x05
    12a6:	16 96       	adiw	r26, 0x06	; 6
    12a8:	0d 91       	ld	r16, X+
    12aa:	1d 91       	ld	r17, X+
    12ac:	2d 91       	ld	r18, X+
    12ae:	3c 91       	ld	r19, X
    12b0:	19 97       	sbiw	r26, 0x09	; 9
    12b2:	60 1b       	sub	r22, r16
    12b4:	71 0b       	sbc	r23, r17
    12b6:	82 0b       	sbc	r24, r18
    12b8:	93 0b       	sbc	r25, r19
    12ba:	0e 94 47 19 	call	0x328e	; 0x328e <__floatunsisf>
    12be:	6b 01       	movw	r12, r22
    12c0:	7c 01       	movw	r14, r24
    12c2:	eb 85       	ldd	r30, Y+11	; 0x0b
		float startValue	= servos[ index ].startPosition;
    12c4:	fc 85       	ldd	r31, Y+12	; 0x0c
    12c6:	62 81       	ldd	r22, Z+2	; 0x02
    12c8:	73 81       	ldd	r23, Z+3	; 0x03
    12ca:	07 2e       	mov	r0, r23
    12cc:	00 0c       	add	r0, r0
    12ce:	88 0b       	sbc	r24, r24
    12d0:	99 0b       	sbc	r25, r25
    12d2:	0e 94 49 19 	call	0x3292	; 0x3292 <__floatsisf>
    12d6:	69 83       	std	Y+1, r22	; 0x01
    12d8:	7a 83       	std	Y+2, r23	; 0x02
    12da:	8b 83       	std	Y+3, r24	; 0x03
    12dc:	9c 83       	std	Y+4, r25	; 0x04
    12de:	ab 85       	ldd	r26, Y+11	; 0x0b
		float changeValue	= servos[ index ].targetPosition - startValue;
    12e0:	bc 85       	ldd	r27, Y+12	; 0x0c
    12e2:	14 96       	adiw	r26, 0x04	; 4
    12e4:	0d 91       	ld	r16, X+
    12e6:	1c 91       	ld	r17, X
    12e8:	15 97       	sbiw	r26, 0x05	; 5
    12ea:	b8 01       	movw	r22, r16
    12ec:	01 2e       	mov	r0, r17
    12ee:	00 0c       	add	r0, r0
    12f0:	88 0b       	sbc	r24, r24
    12f2:	99 0b       	sbc	r25, r25
    12f4:	0e 94 49 19 	call	0x3292	; 0x3292 <__floatsisf>
    12f8:	29 81       	ldd	r18, Y+1	; 0x01
    12fa:	3a 81       	ldd	r19, Y+2	; 0x02
    12fc:	4b 81       	ldd	r20, Y+3	; 0x03
    12fe:	5c 81       	ldd	r21, Y+4	; 0x04
    1300:	0e 94 1a 18 	call	0x3034	; 0x3034 <__subsf3>
    1304:	2b 01       	movw	r4, r22
    1306:	3c 01       	movw	r6, r24
    1308:	eb 85       	ldd	r30, Y+11	; 0x0b
		float duration		= servos[ index ].movingTime;
    130a:	fc 85       	ldd	r31, Y+12	; 0x0c
    130c:	62 85       	ldd	r22, Z+10	; 0x0a
    130e:	73 85       	ldd	r23, Z+11	; 0x0b
    1310:	80 e0       	ldi	r24, 0x00	; 0
    1312:	90 e0       	ldi	r25, 0x00	; 0
    1314:	0e 94 47 19 	call	0x328e	; 0x328e <__floatunsisf>
    1318:	4b 01       	movw	r8, r22
    131a:	5c 01       	movw	r10, r24
    131c:	ab 85       	ldd	r26, Y+11	; 0x0b
		
		if(servos[ index ].ease == E_SERVO_EASE_LINEAR)
    131e:	bc 85       	ldd	r27, Y+12	; 0x0c
    1320:	54 96       	adiw	r26, 0x14	; 20
    1322:	8c 91       	ld	r24, X
    1324:	81 11       	cpse	r24, r1
    1326:	19 c0       	rjmp	.+50     	; 0x135a <DrvServoUpdate+0x104>
    1328:	a5 01       	movw	r20, r10
		{
			servos[index].currentPosition = round(changeValue * (currentTime / duration) + startValue);
    132a:	94 01       	movw	r18, r8
    132c:	c7 01       	movw	r24, r14
    132e:	b6 01       	movw	r22, r12
    1330:	0e 94 ae 18 	call	0x315c	; 0x315c <__divsf3>
    1334:	a3 01       	movw	r20, r6
    1336:	92 01       	movw	r18, r4
    1338:	0e 94 d0 1a 	call	0x35a0	; 0x35a0 <__mulsf3>
    133c:	29 81       	ldd	r18, Y+1	; 0x01
    133e:	3a 81       	ldd	r19, Y+2	; 0x02
    1340:	4b 81       	ldd	r20, Y+3	; 0x03
    1342:	5c 81       	ldd	r21, Y+4	; 0x04
    1344:	0e 94 1b 18 	call	0x3036	; 0x3036 <__addsf3>
    1348:	0e 94 33 1b 	call	0x3666	; 0x3666 <round>
    134c:	0e 94 16 19 	call	0x322c	; 0x322c <__fixsfsi>
    1350:	eb 85       	ldd	r30, Y+11	; 0x0b
    1352:	fc 85       	ldd	r31, Y+12	; 0x0c
    1354:	71 83       	std	Z+1, r23	; 0x01
    1356:	60 83       	st	Z, r22
    1358:	8c c0       	rjmp	.+280    	; 0x1472 <DrvServoUpdate+0x21c>
    135a:	81 30       	cpi	r24, 0x01	; 1
		}
		else if(servos[ index ].ease == E_SERVO_EASE_SINUS_IN)
    135c:	41 f5       	brne	.+80     	; 0x13ae <DrvServoUpdate+0x158>
    135e:	a5 01       	movw	r20, r10
		{
			servos[index].currentPosition = round(-changeValue * cos( M_PI_2 * (currentTime / duration)) + changeValue + startValue);
    1360:	94 01       	movw	r18, r8
    1362:	c7 01       	movw	r24, r14
    1364:	b6 01       	movw	r22, r12
    1366:	0e 94 ae 18 	call	0x315c	; 0x315c <__divsf3>
    136a:	2b ed       	ldi	r18, 0xDB	; 219
    136c:	3f e0       	ldi	r19, 0x0F	; 15
    136e:	49 ec       	ldi	r20, 0xC9	; 201
    1370:	5f e3       	ldi	r21, 0x3F	; 63
    1372:	0e 94 d0 1a 	call	0x35a0	; 0x35a0 <__mulsf3>
    1376:	0e 94 ab 18 	call	0x3156	; 0x3156 <cos>
    137a:	9b 01       	movw	r18, r22
    137c:	ac 01       	movw	r20, r24
    137e:	c3 01       	movw	r24, r6
    1380:	b2 01       	movw	r22, r4
    1382:	90 58       	subi	r25, 0x80	; 128
    1384:	0e 94 d0 1a 	call	0x35a0	; 0x35a0 <__mulsf3>
    1388:	a3 01       	movw	r20, r6
    138a:	92 01       	movw	r18, r4
    138c:	0e 94 1b 18 	call	0x3036	; 0x3036 <__addsf3>
    1390:	29 81       	ldd	r18, Y+1	; 0x01
    1392:	3a 81       	ldd	r19, Y+2	; 0x02
    1394:	4b 81       	ldd	r20, Y+3	; 0x03
    1396:	5c 81       	ldd	r21, Y+4	; 0x04
    1398:	0e 94 1b 18 	call	0x3036	; 0x3036 <__addsf3>
    139c:	0e 94 33 1b 	call	0x3666	; 0x3666 <round>
    13a0:	0e 94 16 19 	call	0x322c	; 0x322c <__fixsfsi>
    13a4:	ad 81       	ldd	r26, Y+5	; 0x05
    13a6:	be 81       	ldd	r27, Y+6	; 0x06
    13a8:	6d 93       	st	X+, r22
    13aa:	7c 93       	st	X, r23
    13ac:	62 c0       	rjmp	.+196    	; 0x1472 <DrvServoUpdate+0x21c>
    13ae:	82 30       	cpi	r24, 0x02	; 2
		}
		else if(servos[ index ].ease == E_SERVO_EASE_SINUS_OUT)
    13b0:	19 f5       	brne	.+70     	; 0x13f8 <DrvServoUpdate+0x1a2>
    13b2:	a5 01       	movw	r20, r10
		{
			servos[index].currentPosition = round(changeValue * sin( M_PI_2 * (currentTime / duration)) + startValue);
    13b4:	94 01       	movw	r18, r8
    13b6:	c7 01       	movw	r24, r14
    13b8:	b6 01       	movw	r22, r12
    13ba:	0e 94 ae 18 	call	0x315c	; 0x315c <__divsf3>
    13be:	2b ed       	ldi	r18, 0xDB	; 219
    13c0:	3f e0       	ldi	r19, 0x0F	; 15
    13c2:	49 ec       	ldi	r20, 0xC9	; 201
    13c4:	5f e3       	ldi	r21, 0x3F	; 63
    13c6:	0e 94 d0 1a 	call	0x35a0	; 0x35a0 <__mulsf3>
    13ca:	0e 94 53 1b 	call	0x36a6	; 0x36a6 <sin>
    13ce:	9b 01       	movw	r18, r22
    13d0:	ac 01       	movw	r20, r24
    13d2:	c3 01       	movw	r24, r6
    13d4:	b2 01       	movw	r22, r4
    13d6:	0e 94 d0 1a 	call	0x35a0	; 0x35a0 <__mulsf3>
    13da:	29 81       	ldd	r18, Y+1	; 0x01
    13dc:	3a 81       	ldd	r19, Y+2	; 0x02
    13de:	4b 81       	ldd	r20, Y+3	; 0x03
    13e0:	5c 81       	ldd	r21, Y+4	; 0x04
    13e2:	0e 94 1b 18 	call	0x3036	; 0x3036 <__addsf3>
    13e6:	0e 94 33 1b 	call	0x3666	; 0x3666 <round>
    13ea:	0e 94 16 19 	call	0x322c	; 0x322c <__fixsfsi>
    13ee:	ed 81       	ldd	r30, Y+5	; 0x05
    13f0:	fe 81       	ldd	r31, Y+6	; 0x06
    13f2:	71 83       	std	Z+1, r23	; 0x01
    13f4:	60 83       	st	Z, r22
    13f6:	3d c0       	rjmp	.+122    	; 0x1472 <DrvServoUpdate+0x21c>
    13f8:	83 30       	cpi	r24, 0x03	; 3
		}
		else if(servos[ index ].ease == E_SERVO_EASE_SINUS_IN_OUT)
    13fa:	d9 f5       	brne	.+118    	; 0x1472 <DrvServoUpdate+0x21c>
    13fc:	a5 01       	movw	r20, r10
		{
			servos[index].currentPosition = round((-changeValue/2) * (cos( M_PI * (currentTime / duration)) - 1 ) + startValue);
    13fe:	94 01       	movw	r18, r8
    1400:	c7 01       	movw	r24, r14
    1402:	b6 01       	movw	r22, r12
    1404:	0e 94 ae 18 	call	0x315c	; 0x315c <__divsf3>
    1408:	2b ed       	ldi	r18, 0xDB	; 219
    140a:	3f e0       	ldi	r19, 0x0F	; 15
    140c:	49 e4       	ldi	r20, 0x49	; 73
    140e:	50 e4       	ldi	r21, 0x40	; 64
    1410:	0e 94 d0 1a 	call	0x35a0	; 0x35a0 <__mulsf3>
    1414:	0e 94 ab 18 	call	0x3156	; 0x3156 <cos>
    1418:	6f 83       	std	Y+7, r22	; 0x07
    141a:	78 87       	std	Y+8, r23	; 0x08
    141c:	89 87       	std	Y+9, r24	; 0x09
    141e:	9a 87       	std	Y+10, r25	; 0x0a
    1420:	c3 01       	movw	r24, r6
    1422:	b2 01       	movw	r22, r4
    1424:	90 58       	subi	r25, 0x80	; 128
    1426:	20 e0       	ldi	r18, 0x00	; 0
    1428:	30 e0       	ldi	r19, 0x00	; 0
    142a:	40 e0       	ldi	r20, 0x00	; 0
    142c:	5f e3       	ldi	r21, 0x3F	; 63
    142e:	0e 94 d0 1a 	call	0x35a0	; 0x35a0 <__mulsf3>
    1432:	2b 01       	movw	r4, r22
    1434:	3c 01       	movw	r6, r24
    1436:	20 e0       	ldi	r18, 0x00	; 0
    1438:	30 e0       	ldi	r19, 0x00	; 0
    143a:	40 e8       	ldi	r20, 0x80	; 128
    143c:	5f e3       	ldi	r21, 0x3F	; 63
    143e:	6f 81       	ldd	r22, Y+7	; 0x07
    1440:	78 85       	ldd	r23, Y+8	; 0x08
    1442:	89 85       	ldd	r24, Y+9	; 0x09
    1444:	9a 85       	ldd	r25, Y+10	; 0x0a
    1446:	0e 94 1a 18 	call	0x3034	; 0x3034 <__subsf3>
    144a:	9b 01       	movw	r18, r22
    144c:	ac 01       	movw	r20, r24
    144e:	c3 01       	movw	r24, r6
    1450:	b2 01       	movw	r22, r4
    1452:	0e 94 d0 1a 	call	0x35a0	; 0x35a0 <__mulsf3>
    1456:	29 81       	ldd	r18, Y+1	; 0x01
    1458:	3a 81       	ldd	r19, Y+2	; 0x02
    145a:	4b 81       	ldd	r20, Y+3	; 0x03
    145c:	5c 81       	ldd	r21, Y+4	; 0x04
    145e:	0e 94 1b 18 	call	0x3036	; 0x3036 <__addsf3>
    1462:	0e 94 33 1b 	call	0x3666	; 0x3666 <round>
    1466:	0e 94 16 19 	call	0x322c	; 0x322c <__fixsfsi>
    146a:	ad 81       	ldd	r26, Y+5	; 0x05
    146c:	be 81       	ldd	r27, Y+6	; 0x06
    146e:	6d 93       	st	X+, r22
    1470:	7c 93       	st	X, r23
    1472:	a5 01       	movw	r20, r10
		}
		
		if(currentTime > duration)
    1474:	94 01       	movw	r18, r8
    1476:	c7 01       	movw	r24, r14
    1478:	b6 01       	movw	r22, r12
    147a:	0e 94 c5 1a 	call	0x358a	; 0x358a <__gesf2>
    147e:	18 16       	cp	r1, r24
    1480:	2c f4       	brge	.+10     	; 0x148c <DrvServoUpdate+0x236>
    1482:	ed 81       	ldd	r30, Y+5	; 0x05
		{
			servos[index].currentPosition = servos[ index ].targetPosition;
    1484:	fe 81       	ldd	r31, Y+6	; 0x06
    1486:	11 83       	std	Z+1, r17	; 0x01
    1488:	00 83       	st	Z, r16
    148a:	12 c0       	rjmp	.+36     	; 0x14b0 <DrvServoUpdate+0x25a>
    148c:	a5 01       	movw	r20, r10
		}
		else if(currentTime == duration)
    148e:	94 01       	movw	r18, r8
    1490:	c7 01       	movw	r24, r14
    1492:	b6 01       	movw	r22, r12
    1494:	0e 94 a7 18 	call	0x314e	; 0x314e <__cmpsf2>
    1498:	81 11       	cpse	r24, r1
    149a:	0a c0       	rjmp	.+20     	; 0x14b0 <DrvServoUpdate+0x25a>
    149c:	ad 81       	ldd	r26, Y+5	; 0x05
		{
			if(servos[index].callback != NULL)
    149e:	be 81       	ldd	r27, Y+6	; 0x06
    14a0:	1c 96       	adiw	r26, 0x0c	; 12
    14a2:	ed 91       	ld	r30, X+
    14a4:	fc 91       	ld	r31, X
    14a6:	1d 97       	sbiw	r26, 0x0d	; 13
    14a8:	30 97       	sbiw	r30, 0x00	; 0
    14aa:	11 f0       	breq	.+4      	; 0x14b0 <DrvServoUpdate+0x25a>
    14ac:	83 2d       	mov	r24, r3
			{
				servos[index].callback(index);
    14ae:	09 95       	icall
    14b0:	eb 85       	ldd	r30, Y+11	; 0x0b
{
	for (Int8U index = 0U; index < NB_SERVOS ; index++)
	{
		DrvServoComputeAngle(index);
	
		Int16S angle = servos[index].currentPosition;
    14b2:	fc 85       	ldd	r31, Y+12	; 0x0c
    14b4:	20 81       	ld	r18, Z
    14b6:	31 81       	ldd	r19, Z+1	; 0x01
    14b8:	26 5a       	subi	r18, 0xA6	; 166
    14ba:	3f 4f       	sbci	r19, 0xFF	; 255
    14bc:	a8 e9       	ldi	r26, 0x98	; 152
    14be:	b1 e0       	ldi	r27, 0x01	; 1
    14c0:	0e 94 ec 1b 	call	0x37d8	; 0x37d8 <__umulhisi3>
    14c4:	24 eb       	ldi	r18, 0xB4	; 180
    14c6:	30 e0       	ldi	r19, 0x00	; 0
    14c8:	40 e0       	ldi	r20, 0x00	; 0
    14ca:	50 e0       	ldi	r21, 0x00	; 0
    14cc:	0e 94 ca 1b 	call	0x3794	; 0x3794 <__udivmodsi4>
    14d0:	ca 01       	movw	r24, r20
    14d2:	b9 01       	movw	r22, r18
    14d4:	6e 58       	subi	r22, 0x8E	; 142
    14d6:	7f 4f       	sbci	r23, 0xFF	; 255
    14d8:	8f 4f       	sbci	r24, 0xFF	; 255
    14da:	9f 4f       	sbci	r25, 0xFF	; 255
    14dc:	0e 94 47 19 	call	0x328e	; 0x328e <__floatunsisf>
    14e0:	0e 94 16 19 	call	0x322c	; 0x322c <__fixsfsi>
	
		//convert to 0 to 180,0
		angle += 90;
		angle = SetRangeInt16(angle, SERVO_ANGLE_MIN, SERVO_ANGLE_MAX, 114, 522);
    14e4:	f8 e0       	ldi	r31, 0x08	; 8
	
		//send to PCA9685
		if(index > 8)
    14e6:	f3 15       	cp	r31, r3
    14e8:	48 f4       	brcc	.+18     	; 0x14fc <DrvServoUpdate+0x2a6>
    14ea:	9b 01       	movw	r18, r22
		{
			CmpPCA9685SetPWM(PCA9685_ADDRESS_0, index - 9, 0, angle);
    14ec:	40 e0       	ldi	r20, 0x00	; 0
    14ee:	50 e0       	ldi	r21, 0x00	; 0
    14f0:	67 ef       	ldi	r22, 0xF7	; 247
    14f2:	63 0d       	add	r22, r3
    14f4:	80 e4       	ldi	r24, 0x40	; 64
    14f6:	0e 94 19 01 	call	0x232	; 0x232 <CmpPCA9685SetPWM>
    14fa:	07 c0       	rjmp	.+14     	; 0x150a <DrvServoUpdate+0x2b4>
    14fc:	9b 01       	movw	r18, r22
		}
		else
		{
			CmpPCA9685SetPWM(PCA9685_ADDRESS_1, index, 0, angle);
    14fe:	40 e0       	ldi	r20, 0x00	; 0
    1500:	50 e0       	ldi	r21, 0x00	; 0
    1502:	63 2d       	mov	r22, r3
    1504:	81 e4       	ldi	r24, 0x41	; 65
    1506:	0e 94 19 01 	call	0x232	; 0x232 <CmpPCA9685SetPWM>
    150a:	33 94       	inc	r3
}

//set the position
void DrvServoUpdate ( void )
{
	for (Int8U index = 0U; index < NB_SERVOS ; index++)
    150c:	2b 85       	ldd	r18, Y+11	; 0x0b
    150e:	3c 85       	ldd	r19, Y+12	; 0x0c
    1510:	2a 5e       	subi	r18, 0xEA	; 234
    1512:	3f 4f       	sbci	r19, 0xFF	; 255
    1514:	3c 87       	std	Y+12, r19	; 0x0c
    1516:	2b 87       	std	Y+11, r18	; 0x0b
    1518:	32 e1       	ldi	r19, 0x12	; 18
    151a:	33 12       	cpse	r3, r19
    151c:	bb ce       	rjmp	.-650    	; 0x1294 <DrvServoUpdate+0x3e>
    151e:	2c 96       	adiw	r28, 0x0c	; 12
		else
		{
			CmpPCA9685SetPWM(PCA9685_ADDRESS_1, index, 0, angle);
		}
	}
}
    1520:	0f b6       	in	r0, 0x3f	; 63
    1522:	f8 94       	cli
    1524:	de bf       	out	0x3e, r29	; 62
    1526:	0f be       	out	0x3f, r0	; 63
    1528:	cd bf       	out	0x3d, r28	; 61
    152a:	df 91       	pop	r29
    152c:	cf 91       	pop	r28
    152e:	1f 91       	pop	r17
    1530:	0f 91       	pop	r16
    1532:	ff 90       	pop	r15
    1534:	ef 90       	pop	r14
    1536:	df 90       	pop	r13
    1538:	cf 90       	pop	r12
    153a:	bf 90       	pop	r11
    153c:	af 90       	pop	r10
    153e:	9f 90       	pop	r9
    1540:	8f 90       	pop	r8
    1542:	7f 90       	pop	r7
    1544:	6f 90       	pop	r6
    1546:	5f 90       	pop	r5
    1548:	4f 90       	pop	r4
    154a:	3f 90       	pop	r3
    154c:	08 95       	ret

0000154e <DrvServoGetStruture>:
    154e:	82 31       	cpi	r24, 0x12	; 18

// get the servo strucutre
SServo* DrvServoGetStruture( Int8U index )
{
	if( index < NB_SERVOS )
    1550:	38 f4       	brcc	.+14     	; 0x1560 <DrvServoGetStruture+0x12>
	{
		return &servos[ index ];
    1552:	26 e1       	ldi	r18, 0x16	; 22
    1554:	82 9f       	mul	r24, r18
    1556:	c0 01       	movw	r24, r0
    1558:	11 24       	eor	r1, r1
    155a:	83 53       	subi	r24, 0x33	; 51
    155c:	9b 4f       	sbci	r25, 0xFB	; 251
    155e:	08 95       	ret
	}
	return NULL;
    1560:	80 e0       	ldi	r24, 0x00	; 0
    1562:	90 e0       	ldi	r25, 0x00	; 0
}
    1564:	08 95       	ret

00001566 <__vector_19>:


////////////////////////////////////////ISR FUNCTIONS/////////////////////////////////////////

ISR(SPI_STC_vect)
{
    1566:	1f 92       	push	r1
    1568:	0f 92       	push	r0
    156a:	0f b6       	in	r0, 0x3f	; 63
    156c:	0f 92       	push	r0
    156e:	11 24       	eor	r1, r1
    1570:	8f 93       	push	r24
	SPDR = data;
    1572:	80 91 59 06 	lds	r24, 0x0659	; 0x800659 <data>
    1576:	8e bd       	out	0x2e, r24	; 46
}
    1578:	8f 91       	pop	r24
    157a:	0f 90       	pop	r0
    157c:	0f be       	out	0x3f, r0	; 63
    157e:	0f 90       	pop	r0
    1580:	1f 90       	pop	r1
    1582:	18 95       	reti

00001584 <DrvSSD1306ClearBuffer>:
	while ( *str ) 
	{
		DrvSSD1306DrawChar(*str++, x, y, color);
		x += CHAR_WIDTH + 1U;
	}
}
    1584:	80 e0       	ldi	r24, 0x00	; 0
    1586:	92 e0       	ldi	r25, 0x02	; 2
    1588:	e7 ea       	ldi	r30, 0xA7	; 167
    158a:	fa e0       	ldi	r31, 0x0A	; 10
    158c:	df 01       	movw	r26, r30
    158e:	9c 01       	movw	r18, r24
    1590:	1d 92       	st	X+, r1
    1592:	21 50       	subi	r18, 0x01	; 1
    1594:	30 40       	sbci	r19, 0x00	; 0
    1596:	e1 f7       	brne	.-8      	; 0x1590 <DrvSSD1306ClearBuffer+0xc>
    1598:	81 e0       	ldi	r24, 0x01	; 1
    159a:	08 95       	ret

0000159c <DrvSSD1306DrawPixel>:
    159c:	80 38       	cpi	r24, 0x80	; 128
    159e:	91 05       	cpc	r25, r1
    15a0:	08 f0       	brcs	.+2      	; 0x15a4 <DrvSSD1306DrawPixel+0x8>
    15a2:	66 c0       	rjmp	.+204    	; 0x1670 <DrvSSD1306DrawPixel+0xd4>
    15a4:	60 32       	cpi	r22, 0x20	; 32
    15a6:	71 05       	cpc	r23, r1
    15a8:	08 f0       	brcs	.+2      	; 0x15ac <DrvSSD1306DrawPixel+0x10>
    15aa:	62 c0       	rjmp	.+196    	; 0x1670 <DrvSSD1306DrawPixel+0xd4>
    15ac:	41 30       	cpi	r20, 0x01	; 1
    15ae:	51 05       	cpc	r21, r1
    15b0:	29 f0       	breq	.+10     	; 0x15bc <DrvSSD1306DrawPixel+0x20>
    15b2:	10 f1       	brcs	.+68     	; 0x15f8 <DrvSSD1306DrawPixel+0x5c>
    15b4:	42 30       	cpi	r20, 0x02	; 2
    15b6:	51 05       	cpc	r21, r1
    15b8:	f1 f1       	breq	.+124    	; 0x1636 <DrvSSD1306DrawPixel+0x9a>
    15ba:	08 95       	ret
    15bc:	fb 01       	movw	r30, r22
    15be:	f6 95       	lsr	r31
    15c0:	e7 95       	ror	r30
    15c2:	f6 95       	lsr	r31
    15c4:	e7 95       	ror	r30
    15c6:	f6 95       	lsr	r31
    15c8:	e7 95       	ror	r30
    15ca:	f6 95       	lsr	r31
    15cc:	fe 2f       	mov	r31, r30
    15ce:	ee 27       	eor	r30, r30
    15d0:	f7 95       	ror	r31
    15d2:	e7 95       	ror	r30
    15d4:	8e 0f       	add	r24, r30
    15d6:	9f 1f       	adc	r25, r31
    15d8:	fc 01       	movw	r30, r24
    15da:	e9 55       	subi	r30, 0x59	; 89
    15dc:	f5 4f       	sbci	r31, 0xF5	; 245
    15de:	67 70       	andi	r22, 0x07	; 7
    15e0:	77 27       	eor	r23, r23
    15e2:	81 e0       	ldi	r24, 0x01	; 1
    15e4:	90 e0       	ldi	r25, 0x00	; 0
    15e6:	02 c0       	rjmp	.+4      	; 0x15ec <DrvSSD1306DrawPixel+0x50>
    15e8:	88 0f       	add	r24, r24
    15ea:	99 1f       	adc	r25, r25
    15ec:	6a 95       	dec	r22
    15ee:	e2 f7       	brpl	.-8      	; 0x15e8 <DrvSSD1306DrawPixel+0x4c>
    15f0:	90 81       	ld	r25, Z
    15f2:	89 2b       	or	r24, r25
    15f4:	80 83       	st	Z, r24
    15f6:	08 95       	ret
    15f8:	fb 01       	movw	r30, r22
    15fa:	f6 95       	lsr	r31
    15fc:	e7 95       	ror	r30
    15fe:	f6 95       	lsr	r31
    1600:	e7 95       	ror	r30
    1602:	f6 95       	lsr	r31
    1604:	e7 95       	ror	r30
    1606:	f6 95       	lsr	r31
    1608:	fe 2f       	mov	r31, r30
    160a:	ee 27       	eor	r30, r30
    160c:	f7 95       	ror	r31
    160e:	e7 95       	ror	r30
    1610:	8e 0f       	add	r24, r30
    1612:	9f 1f       	adc	r25, r31
    1614:	fc 01       	movw	r30, r24
    1616:	e9 55       	subi	r30, 0x59	; 89
    1618:	f5 4f       	sbci	r31, 0xF5	; 245
    161a:	67 70       	andi	r22, 0x07	; 7
    161c:	77 27       	eor	r23, r23
    161e:	81 e0       	ldi	r24, 0x01	; 1
    1620:	90 e0       	ldi	r25, 0x00	; 0
    1622:	02 c0       	rjmp	.+4      	; 0x1628 <DrvSSD1306DrawPixel+0x8c>
    1624:	88 0f       	add	r24, r24
    1626:	99 1f       	adc	r25, r25
    1628:	6a 95       	dec	r22
    162a:	e2 f7       	brpl	.-8      	; 0x1624 <DrvSSD1306DrawPixel+0x88>
    162c:	80 95       	com	r24
    162e:	90 81       	ld	r25, Z
    1630:	89 23       	and	r24, r25
    1632:	80 83       	st	Z, r24
    1634:	08 95       	ret
    1636:	fb 01       	movw	r30, r22
    1638:	f6 95       	lsr	r31
    163a:	e7 95       	ror	r30
    163c:	f6 95       	lsr	r31
    163e:	e7 95       	ror	r30
    1640:	f6 95       	lsr	r31
    1642:	e7 95       	ror	r30
    1644:	f6 95       	lsr	r31
    1646:	fe 2f       	mov	r31, r30
    1648:	ee 27       	eor	r30, r30
    164a:	f7 95       	ror	r31
    164c:	e7 95       	ror	r30
    164e:	8e 0f       	add	r24, r30
    1650:	9f 1f       	adc	r25, r31
    1652:	fc 01       	movw	r30, r24
    1654:	e9 55       	subi	r30, 0x59	; 89
    1656:	f5 4f       	sbci	r31, 0xF5	; 245
    1658:	67 70       	andi	r22, 0x07	; 7
    165a:	77 27       	eor	r23, r23
    165c:	81 e0       	ldi	r24, 0x01	; 1
    165e:	90 e0       	ldi	r25, 0x00	; 0
    1660:	02 c0       	rjmp	.+4      	; 0x1666 <DrvSSD1306DrawPixel+0xca>
    1662:	88 0f       	add	r24, r24
    1664:	99 1f       	adc	r25, r25
    1666:	6a 95       	dec	r22
    1668:	e2 f7       	brpl	.-8      	; 0x1662 <DrvSSD1306DrawPixel+0xc6>
    166a:	90 81       	ld	r25, Z
    166c:	89 27       	eor	r24, r25
    166e:	80 83       	st	Z, r24
    1670:	08 95       	ret

00001672 <DrvSSD1306EraseArea>:
    1672:	6f 92       	push	r6
    1674:	7f 92       	push	r7
    1676:	8f 92       	push	r8
    1678:	9f 92       	push	r9
    167a:	af 92       	push	r10
    167c:	bf 92       	push	r11
    167e:	cf 92       	push	r12
    1680:	df 92       	push	r13
    1682:	ef 92       	push	r14
    1684:	ff 92       	push	r15
    1686:	0f 93       	push	r16
    1688:	1f 93       	push	r17
    168a:	cf 93       	push	r28
    168c:	df 93       	push	r29
    168e:	41 15       	cp	r20, r1
    1690:	51 05       	cpc	r21, r1
    1692:	c9 f4       	brne	.+50     	; 0x16c6 <DrvSSD1306EraseArea+0x54>
    1694:	25 c0       	rjmp	.+74     	; 0x16e0 <DrvSSD1306EraseArea+0x6e>
    1696:	67 2d       	mov	r22, r7
    1698:	78 2d       	mov	r23, r8
    169a:	91 2c       	mov	r9, r1
    169c:	ca 0d       	add	r28, r10
    169e:	db 1d       	adc	r29, r11
    16a0:	6e 0d       	add	r22, r14
    16a2:	7f 1d       	adc	r23, r15
    16a4:	47 2d       	mov	r20, r7
    16a6:	58 2d       	mov	r21, r8
    16a8:	ce 01       	movw	r24, r28
    16aa:	78 df       	rcall	.-272    	; 0x159c <DrvSSD1306DrawPixel>
    16ac:	93 94       	inc	r9
    16ae:	69 2d       	mov	r22, r9
    16b0:	70 e0       	ldi	r23, 0x00	; 0
    16b2:	60 17       	cp	r22, r16
    16b4:	71 07       	cpc	r23, r17
    16b6:	a0 f3       	brcs	.-24     	; 0x16a0 <DrvSSD1306EraseArea+0x2e>
    16b8:	63 94       	inc	r6
    16ba:	c6 2d       	mov	r28, r6
    16bc:	d0 e0       	ldi	r29, 0x00	; 0
    16be:	cc 15       	cp	r28, r12
    16c0:	dd 05       	cpc	r29, r13
    16c2:	50 f0       	brcs	.+20     	; 0x16d8 <DrvSSD1306EraseArea+0x66>
    16c4:	0d c0       	rjmp	.+26     	; 0x16e0 <DrvSSD1306EraseArea+0x6e>
    16c6:	89 01       	movw	r16, r18
    16c8:	6a 01       	movw	r12, r20
    16ca:	7b 01       	movw	r14, r22
    16cc:	5c 01       	movw	r10, r24
    16ce:	c0 e0       	ldi	r28, 0x00	; 0
    16d0:	d0 e0       	ldi	r29, 0x00	; 0
    16d2:	61 2c       	mov	r6, r1
    16d4:	71 2c       	mov	r7, r1
    16d6:	81 2c       	mov	r8, r1
    16d8:	01 15       	cp	r16, r1
    16da:	11 05       	cpc	r17, r1
    16dc:	e1 f6       	brne	.-72     	; 0x1696 <DrvSSD1306EraseArea+0x24>
    16de:	ec cf       	rjmp	.-40     	; 0x16b8 <DrvSSD1306EraseArea+0x46>
    16e0:	81 e0       	ldi	r24, 0x01	; 1
    16e2:	df 91       	pop	r29
    16e4:	cf 91       	pop	r28
    16e6:	1f 91       	pop	r17
    16e8:	0f 91       	pop	r16
    16ea:	ff 90       	pop	r15
    16ec:	ef 90       	pop	r14
    16ee:	df 90       	pop	r13
    16f0:	cf 90       	pop	r12
    16f2:	bf 90       	pop	r11
    16f4:	af 90       	pop	r10
    16f6:	9f 90       	pop	r9
    16f8:	8f 90       	pop	r8
    16fa:	7f 90       	pop	r7
    16fc:	6f 90       	pop	r6
    16fe:	08 95       	ret

00001700 <DrvSSD1306DrawLine>:
    1700:	6f 92       	push	r6
    1702:	7f 92       	push	r7
    1704:	8f 92       	push	r8
    1706:	9f 92       	push	r9
    1708:	af 92       	push	r10
    170a:	bf 92       	push	r11
    170c:	cf 92       	push	r12
    170e:	df 92       	push	r13
    1710:	ef 92       	push	r14
    1712:	ff 92       	push	r15
    1714:	0f 93       	push	r16
    1716:	1f 93       	push	r17
    1718:	cf 93       	push	r28
    171a:	df 93       	push	r29
    171c:	7c 01       	movw	r14, r24
    171e:	eb 01       	movw	r28, r22
    1720:	6a 01       	movw	r12, r20
    1722:	59 01       	movw	r10, r18
    1724:	81 e8       	ldi	r24, 0x81	; 129
    1726:	e8 16       	cp	r14, r24
    1728:	f1 04       	cpc	r15, r1
    172a:	08 f0       	brcs	.+2      	; 0x172e <DrvSSD1306DrawLine+0x2e>
    172c:	3c c0       	rjmp	.+120    	; 0x17a6 <DrvSSD1306DrawLine+0xa6>
    172e:	41 38       	cpi	r20, 0x81	; 129
    1730:	51 05       	cpc	r21, r1
    1732:	c8 f5       	brcc	.+114    	; 0x17a6 <DrvSSD1306DrawLine+0xa6>
    1734:	61 32       	cpi	r22, 0x21	; 33
    1736:	71 05       	cpc	r23, r1
    1738:	b0 f5       	brcc	.+108    	; 0x17a6 <DrvSSD1306DrawLine+0xa6>
    173a:	21 32       	cpi	r18, 0x21	; 33
    173c:	31 05       	cpc	r19, r1
    173e:	98 f5       	brcc	.+102    	; 0x17a6 <DrvSSD1306DrawLine+0xa6>
    1740:	3a 01       	movw	r6, r20
    1742:	6e 18       	sub	r6, r14
    1744:	7f 08       	sbc	r7, r15
    1746:	21 f4       	brne	.+8      	; 0x1750 <DrvSSD1306DrawLine+0x50>
    1748:	62 17       	cp	r22, r18
    174a:	73 07       	cpc	r23, r19
    174c:	20 f1       	brcs	.+72     	; 0x1796 <DrvSSD1306DrawLine+0x96>
    174e:	2b c0       	rjmp	.+86     	; 0x17a6 <DrvSSD1306DrawLine+0xa6>
    1750:	45 2b       	or	r20, r21
    1752:	49 f1       	breq	.+82     	; 0x17a6 <DrvSSD1306DrawLine+0xa6>
    1754:	49 01       	movw	r8, r18
    1756:	86 1a       	sub	r8, r22
    1758:	97 0a       	sbc	r9, r23
    175a:	cb 01       	movw	r24, r22
    175c:	82 1b       	sub	r24, r18
    175e:	93 0b       	sbc	r25, r19
    1760:	8e 9d       	mul	r24, r14
    1762:	50 01       	movw	r10, r0
    1764:	8f 9d       	mul	r24, r15
    1766:	b0 0c       	add	r11, r0
    1768:	9e 9d       	mul	r25, r14
    176a:	b0 0c       	add	r11, r0
    176c:	11 24       	eor	r1, r1
    176e:	e1 2c       	mov	r14, r1
    1770:	f1 2c       	mov	r15, r1
    1772:	c5 01       	movw	r24, r10
    1774:	b3 01       	movw	r22, r6
    1776:	0e 94 b6 1b 	call	0x376c	; 0x376c <__udivmodhi4>
    177a:	6c 0f       	add	r22, r28
    177c:	7d 1f       	adc	r23, r29
    177e:	a8 01       	movw	r20, r16
    1780:	c7 01       	movw	r24, r14
    1782:	0c df       	rcall	.-488    	; 0x159c <DrvSSD1306DrawPixel>
    1784:	8f ef       	ldi	r24, 0xFF	; 255
    1786:	e8 1a       	sub	r14, r24
    1788:	f8 0a       	sbc	r15, r24
    178a:	a8 0c       	add	r10, r8
    178c:	b9 1c       	adc	r11, r9
    178e:	ce 14       	cp	r12, r14
    1790:	df 04       	cpc	r13, r15
    1792:	79 f7       	brne	.-34     	; 0x1772 <DrvSSD1306DrawLine+0x72>
    1794:	08 c0       	rjmp	.+16     	; 0x17a6 <DrvSSD1306DrawLine+0xa6>
    1796:	a8 01       	movw	r20, r16
    1798:	be 01       	movw	r22, r28
    179a:	c7 01       	movw	r24, r14
    179c:	ff de       	rcall	.-514    	; 0x159c <DrvSSD1306DrawPixel>
    179e:	21 96       	adiw	r28, 0x01	; 1
    17a0:	ca 15       	cp	r28, r10
    17a2:	db 05       	cpc	r29, r11
    17a4:	c0 f3       	brcs	.-16     	; 0x1796 <DrvSSD1306DrawLine+0x96>
    17a6:	df 91       	pop	r29
    17a8:	cf 91       	pop	r28
    17aa:	1f 91       	pop	r17
    17ac:	0f 91       	pop	r16
    17ae:	ff 90       	pop	r15
    17b0:	ef 90       	pop	r14
    17b2:	df 90       	pop	r13
    17b4:	cf 90       	pop	r12
    17b6:	bf 90       	pop	r11
    17b8:	af 90       	pop	r10
    17ba:	9f 90       	pop	r9
    17bc:	8f 90       	pop	r8
    17be:	7f 90       	pop	r7
    17c0:	6f 90       	pop	r6
    17c2:	08 95       	ret

000017c4 <DrvSSD1306DrawRectangle>:
    17c4:	8f 92       	push	r8
    17c6:	9f 92       	push	r9
    17c8:	af 92       	push	r10
    17ca:	bf 92       	push	r11
    17cc:	cf 92       	push	r12
    17ce:	df 92       	push	r13
    17d0:	ef 92       	push	r14
    17d2:	ff 92       	push	r15
    17d4:	0f 93       	push	r16
    17d6:	1f 93       	push	r17
    17d8:	cf 93       	push	r28
    17da:	df 93       	push	r29
    17dc:	80 38       	cpi	r24, 0x80	; 128
    17de:	91 05       	cpc	r25, r1
    17e0:	f0 f4       	brcc	.+60     	; 0x181e <DrvSSD1306DrawRectangle+0x5a>
    17e2:	40 38       	cpi	r20, 0x80	; 128
    17e4:	51 05       	cpc	r21, r1
    17e6:	d8 f4       	brcc	.+54     	; 0x181e <DrvSSD1306DrawRectangle+0x5a>
    17e8:	60 32       	cpi	r22, 0x20	; 32
    17ea:	71 05       	cpc	r23, r1
    17ec:	c0 f4       	brcc	.+48     	; 0x181e <DrvSSD1306DrawRectangle+0x5a>
    17ee:	20 32       	cpi	r18, 0x20	; 32
    17f0:	31 05       	cpc	r19, r1
    17f2:	a8 f4       	brcc	.+42     	; 0x181e <DrvSSD1306DrawRectangle+0x5a>
    17f4:	69 01       	movw	r12, r18
    17f6:	ea 01       	movw	r28, r20
    17f8:	7b 01       	movw	r14, r22
    17fa:	4c 01       	movw	r8, r24
    17fc:	9b 01       	movw	r18, r22
    17fe:	80 df       	rcall	.-256    	; 0x1700 <DrvSSD1306DrawLine>
    1800:	96 01       	movw	r18, r12
    1802:	ae 01       	movw	r20, r28
    1804:	b6 01       	movw	r22, r12
    1806:	c4 01       	movw	r24, r8
    1808:	7b df       	rcall	.-266    	; 0x1700 <DrvSSD1306DrawLine>
    180a:	96 01       	movw	r18, r12
    180c:	a4 01       	movw	r20, r8
    180e:	b7 01       	movw	r22, r14
    1810:	c4 01       	movw	r24, r8
    1812:	76 df       	rcall	.-276    	; 0x1700 <DrvSSD1306DrawLine>
    1814:	96 01       	movw	r18, r12
    1816:	ae 01       	movw	r20, r28
    1818:	b7 01       	movw	r22, r14
    181a:	ce 01       	movw	r24, r28
    181c:	71 df       	rcall	.-286    	; 0x1700 <DrvSSD1306DrawLine>
    181e:	df 91       	pop	r29
    1820:	cf 91       	pop	r28
    1822:	1f 91       	pop	r17
    1824:	0f 91       	pop	r16
    1826:	ff 90       	pop	r15
    1828:	ef 90       	pop	r14
    182a:	df 90       	pop	r13
    182c:	cf 90       	pop	r12
    182e:	bf 90       	pop	r11
    1830:	af 90       	pop	r10
    1832:	9f 90       	pop	r9
    1834:	8f 90       	pop	r8
    1836:	08 95       	ret

00001838 <DrvSSD1306DrawChar>:
    1838:	2f 92       	push	r2
    183a:	3f 92       	push	r3
    183c:	4f 92       	push	r4
    183e:	5f 92       	push	r5
    1840:	6f 92       	push	r6
    1842:	7f 92       	push	r7
    1844:	8f 92       	push	r8
    1846:	9f 92       	push	r9
    1848:	af 92       	push	r10
    184a:	bf 92       	push	r11
    184c:	cf 92       	push	r12
    184e:	df 92       	push	r13
    1850:	ef 92       	push	r14
    1852:	ff 92       	push	r15
    1854:	0f 93       	push	r16
    1856:	1f 93       	push	r17
    1858:	cf 93       	push	r28
    185a:	df 93       	push	r29
    185c:	00 d0       	rcall	.+0      	; 0x185e <DrvSSD1306DrawChar+0x26>
    185e:	1f 92       	push	r1
    1860:	cd b7       	in	r28, 0x3d	; 61
    1862:	de b7       	in	r29, 0x3e	; 62
    1864:	49 83       	std	Y+1, r20	; 0x01
    1866:	25 2e       	mov	r2, r21
    1868:	72 2e       	mov	r7, r18
    186a:	8f 77       	andi	r24, 0x7F	; 127
    186c:	80 32       	cpi	r24, 0x20	; 32
    186e:	10 f0       	brcs	.+4      	; 0x1874 <DrvSSD1306DrawChar+0x3c>
    1870:	80 52       	subi	r24, 0x20	; 32
    1872:	01 c0       	rjmp	.+2      	; 0x1876 <DrvSSD1306DrawChar+0x3e>
    1874:	80 e0       	ldi	r24, 0x00	; 0
    1876:	90 e0       	ldi	r25, 0x00	; 0
    1878:	8c 01       	movw	r16, r24
    187a:	00 0f       	add	r16, r16
    187c:	11 1f       	adc	r17, r17
    187e:	00 0f       	add	r16, r16
    1880:	11 1f       	adc	r17, r17
    1882:	08 0f       	add	r16, r24
    1884:	19 1f       	adc	r17, r25
    1886:	0c 54       	subi	r16, 0x4C	; 76
    1888:	1e 4f       	sbci	r17, 0xFE	; 254
    188a:	58 01       	movw	r10, r16
    188c:	85 e0       	ldi	r24, 0x05	; 5
    188e:	a8 0e       	add	r10, r24
    1890:	b1 1c       	adc	r11, r1
    1892:	e6 2e       	mov	r14, r22
    1894:	f7 2e       	mov	r15, r23
    1896:	55 24       	eor	r5, r5
    1898:	53 94       	inc	r5
    189a:	61 2c       	mov	r6, r1
    189c:	31 2c       	mov	r3, r1
    189e:	41 2c       	mov	r4, r1
    18a0:	c7 2c       	mov	r12, r7
    18a2:	d1 2c       	mov	r13, r1
    18a4:	2f c0       	rjmp	.+94     	; 0x1904 <DrvSSD1306DrawChar+0xcc>
    18a6:	f8 01       	movw	r30, r16
    18a8:	80 81       	ld	r24, Z
    18aa:	90 e0       	ldi	r25, 0x00	; 0
    18ac:	08 2c       	mov	r0, r8
    18ae:	02 c0       	rjmp	.+4      	; 0x18b4 <DrvSSD1306DrawChar+0x7c>
    18b0:	95 95       	asr	r25
    18b2:	87 95       	ror	r24
    18b4:	0a 94       	dec	r0
    18b6:	e2 f7       	brpl	.-8      	; 0x18b0 <DrvSSD1306DrawChar+0x78>
    18b8:	80 ff       	sbrs	r24, 0
    18ba:	06 c0       	rjmp	.+12     	; 0x18c8 <DrvSSD1306DrawChar+0x90>
    18bc:	a6 01       	movw	r20, r12
    18be:	6a 81       	ldd	r22, Y+2	; 0x02
    18c0:	7b 81       	ldd	r23, Y+3	; 0x03
    18c2:	c7 01       	movw	r24, r14
    18c4:	6b de       	rcall	.-810    	; 0x159c <DrvSSD1306DrawPixel>
    18c6:	0a c0       	rjmp	.+20     	; 0x18dc <DrvSSD1306DrawChar+0xa4>
    18c8:	45 2d       	mov	r20, r5
    18ca:	56 2d       	mov	r21, r6
    18cc:	77 20       	and	r7, r7
    18ce:	11 f0       	breq	.+4      	; 0x18d4 <DrvSSD1306DrawChar+0x9c>
    18d0:	43 2d       	mov	r20, r3
    18d2:	54 2d       	mov	r21, r4
    18d4:	6a 81       	ldd	r22, Y+2	; 0x02
    18d6:	7b 81       	ldd	r23, Y+3	; 0x03
    18d8:	c7 01       	movw	r24, r14
    18da:	60 de       	rcall	.-832    	; 0x159c <DrvSSD1306DrawPixel>
    18dc:	ff ef       	ldi	r31, 0xFF	; 255
    18de:	8f 1a       	sub	r8, r31
    18e0:	9f 0a       	sbc	r9, r31
    18e2:	8a 81       	ldd	r24, Y+2	; 0x02
    18e4:	9b 81       	ldd	r25, Y+3	; 0x03
    18e6:	01 96       	adiw	r24, 0x01	; 1
    18e8:	9b 83       	std	Y+3, r25	; 0x03
    18ea:	8a 83       	std	Y+2, r24	; 0x02
    18ec:	98 e0       	ldi	r25, 0x08	; 8
    18ee:	89 16       	cp	r8, r25
    18f0:	91 04       	cpc	r9, r1
    18f2:	c9 f6       	brne	.-78     	; 0x18a6 <DrvSSD1306DrawChar+0x6e>
    18f4:	ef ef       	ldi	r30, 0xFF	; 255
    18f6:	ee 1a       	sub	r14, r30
    18f8:	fe 0a       	sbc	r15, r30
    18fa:	0f 5f       	subi	r16, 0xFF	; 255
    18fc:	1f 4f       	sbci	r17, 0xFF	; 255
    18fe:	a0 16       	cp	r10, r16
    1900:	b1 06       	cpc	r11, r17
    1902:	31 f0       	breq	.+12     	; 0x1910 <DrvSSD1306DrawChar+0xd8>
    1904:	f9 81       	ldd	r31, Y+1	; 0x01
    1906:	fa 83       	std	Y+2, r31	; 0x02
    1908:	2b 82       	std	Y+3, r2	; 0x03
    190a:	81 2c       	mov	r8, r1
    190c:	91 2c       	mov	r9, r1
    190e:	cb cf       	rjmp	.-106    	; 0x18a6 <DrvSSD1306DrawChar+0x6e>
    1910:	0f 90       	pop	r0
    1912:	0f 90       	pop	r0
    1914:	0f 90       	pop	r0
    1916:	df 91       	pop	r29
    1918:	cf 91       	pop	r28
    191a:	1f 91       	pop	r17
    191c:	0f 91       	pop	r16
    191e:	ff 90       	pop	r15
    1920:	ef 90       	pop	r14
    1922:	df 90       	pop	r13
    1924:	cf 90       	pop	r12
    1926:	bf 90       	pop	r11
    1928:	af 90       	pop	r10
    192a:	9f 90       	pop	r9
    192c:	8f 90       	pop	r8
    192e:	7f 90       	pop	r7
    1930:	6f 90       	pop	r6
    1932:	5f 90       	pop	r5
    1934:	4f 90       	pop	r4
    1936:	3f 90       	pop	r3
    1938:	2f 90       	pop	r2
    193a:	08 95       	ret

0000193c <DrvSSD1306DrawBitmap>:

void DrvSSD1306DrawBitmap(const SBitmap* bmp, uint16_t x, uint16_t y, uint8_t color)
{
    193c:	2f 92       	push	r2
    193e:	3f 92       	push	r3
    1940:	4f 92       	push	r4
    1942:	5f 92       	push	r5
    1944:	6f 92       	push	r6
    1946:	7f 92       	push	r7
    1948:	8f 92       	push	r8
    194a:	9f 92       	push	r9
    194c:	af 92       	push	r10
    194e:	bf 92       	push	r11
    1950:	cf 92       	push	r12
    1952:	df 92       	push	r13
    1954:	ef 92       	push	r14
    1956:	ff 92       	push	r15
    1958:	0f 93       	push	r16
    195a:	1f 93       	push	r17
    195c:	cf 93       	push	r28
    195e:	df 93       	push	r29
    1960:	00 d0       	rcall	.+0      	; 0x1962 <DrvSSD1306DrawBitmap+0x26>
    1962:	00 d0       	rcall	.+0      	; 0x1964 <DrvSSD1306DrawBitmap+0x28>
    1964:	1f 92       	push	r1
    1966:	cd b7       	in	r28, 0x3d	; 61
    1968:	de b7       	in	r29, 0x3e	; 62
	// Draw pixels
	for (uint16_t i = 0; i < bmp->height; i++)
    196a:	dc 01       	movw	r26, r24
    196c:	14 96       	adiw	r26, 0x04	; 4
    196e:	ed 91       	ld	r30, X+
    1970:	fc 91       	ld	r31, X
    1972:	15 97       	sbiw	r26, 0x05	; 5
    1974:	ef 2b       	or	r30, r31
    1976:	09 f0       	breq	.+2      	; 0x197a <DrvSSD1306DrawBitmap+0x3e>
    1978:	63 c0       	rjmp	.+198    	; 0x1a40 <DrvSSD1306DrawBitmap+0x104>
    197a:	80 c0       	rjmp	.+256    	; 0x1a7c <DrvSSD1306DrawBitmap+0x140>
	{
		for (uint16_t j = 0; j < bmp->width; j++)
    197c:	bb 81       	ldd	r27, Y+3	; 0x03
    197e:	bc 83       	std	Y+4, r27	; 0x04
    1980:	2d 82       	std	Y+5, r2	; 0x05
    1982:	81 2c       	mov	r8, r1
    1984:	91 2c       	mov	r9, r1
		{
			if (bmp->bmp[(j/8U)+(i*(bmp->width/8U))] & (0x80>>(j%8U)))
    1986:	96 95       	lsr	r25
    1988:	87 95       	ror	r24
    198a:	96 95       	lsr	r25
    198c:	87 95       	ror	r24
    198e:	96 95       	lsr	r25
    1990:	87 95       	ror	r24
    1992:	8e 9d       	mul	r24, r14
    1994:	90 01       	movw	r18, r0
    1996:	8f 9d       	mul	r24, r15
    1998:	30 0d       	add	r19, r0
    199a:	9e 9d       	mul	r25, r14
    199c:	30 0d       	add	r19, r0
    199e:	11 24       	eor	r1, r1
    19a0:	d8 01       	movw	r26, r16
    19a2:	ed 91       	ld	r30, X+
    19a4:	fc 91       	ld	r31, X
    19a6:	e2 0f       	add	r30, r18
    19a8:	f3 1f       	adc	r31, r19
    19aa:	c4 01       	movw	r24, r8
    19ac:	96 95       	lsr	r25
    19ae:	87 95       	ror	r24
    19b0:	96 95       	lsr	r25
    19b2:	87 95       	ror	r24
    19b4:	96 95       	lsr	r25
    19b6:	87 95       	ror	r24
    19b8:	e8 0f       	add	r30, r24
    19ba:	f9 1f       	adc	r31, r25
    19bc:	80 81       	ld	r24, Z
    19be:	28 2f       	mov	r18, r24
    19c0:	30 e0       	ldi	r19, 0x00	; 0
    19c2:	c4 01       	movw	r24, r8
    19c4:	87 70       	andi	r24, 0x07	; 7
    19c6:	99 27       	eor	r25, r25
    19c8:	f5 01       	movw	r30, r10
    19ca:	02 c0       	rjmp	.+4      	; 0x19d0 <DrvSSD1306DrawBitmap+0x94>
    19cc:	f5 95       	asr	r31
    19ce:	e7 95       	ror	r30
    19d0:	8a 95       	dec	r24
    19d2:	e2 f7       	brpl	.-8      	; 0x19cc <DrvSSD1306DrawBitmap+0x90>
    19d4:	cf 01       	movw	r24, r30
    19d6:	82 23       	and	r24, r18
    19d8:	93 23       	and	r25, r19
    19da:	89 2b       	or	r24, r25
    19dc:	39 f0       	breq	.+14     	; 0x19ec <DrvSSD1306DrawBitmap+0xb0>
			{
				DrvSSD1306DrawPixel(x+j, y+i, color);
    19de:	49 81       	ldd	r20, Y+1	; 0x01
    19e0:	5a 81       	ldd	r21, Y+2	; 0x02
    19e2:	b6 01       	movw	r22, r12
    19e4:	8c 81       	ldd	r24, Y+4	; 0x04
    19e6:	9d 81       	ldd	r25, Y+5	; 0x05
    19e8:	d9 dd       	rcall	.-1102   	; 0x159c <DrvSSD1306DrawPixel>
    19ea:	0a c0       	rjmp	.+20     	; 0x1a00 <DrvSSD1306DrawBitmap+0xc4>
			}
			else
			{
				DrvSSD1306DrawPixel(x+j, y+i, color==COLOR_BLACK ? COLOR_WHITE : COLOR_BLACK);
    19ec:	45 2d       	mov	r20, r5
    19ee:	56 2d       	mov	r21, r6
    19f0:	77 20       	and	r7, r7
    19f2:	11 f0       	breq	.+4      	; 0x19f8 <DrvSSD1306DrawBitmap+0xbc>
    19f4:	43 2d       	mov	r20, r3
    19f6:	54 2d       	mov	r21, r4
    19f8:	b6 01       	movw	r22, r12
    19fa:	8c 81       	ldd	r24, Y+4	; 0x04
    19fc:	9d 81       	ldd	r25, Y+5	; 0x05
    19fe:	ce dd       	rcall	.-1124   	; 0x159c <DrvSSD1306DrawPixel>
void DrvSSD1306DrawBitmap(const SBitmap* bmp, uint16_t x, uint16_t y, uint8_t color)
{
	// Draw pixels
	for (uint16_t i = 0; i < bmp->height; i++)
	{
		for (uint16_t j = 0; j < bmp->width; j++)
    1a00:	ff ef       	ldi	r31, 0xFF	; 255
    1a02:	8f 1a       	sub	r8, r31
    1a04:	9f 0a       	sbc	r9, r31
    1a06:	d8 01       	movw	r26, r16
    1a08:	12 96       	adiw	r26, 0x02	; 2
    1a0a:	8d 91       	ld	r24, X+
    1a0c:	9c 91       	ld	r25, X
    1a0e:	13 97       	sbiw	r26, 0x03	; 3
    1a10:	ec 81       	ldd	r30, Y+4	; 0x04
    1a12:	fd 81       	ldd	r31, Y+5	; 0x05
    1a14:	31 96       	adiw	r30, 0x01	; 1
    1a16:	fd 83       	std	Y+5, r31	; 0x05
    1a18:	ec 83       	std	Y+4, r30	; 0x04
    1a1a:	88 16       	cp	r8, r24
    1a1c:	99 06       	cpc	r9, r25
    1a1e:	08 f4       	brcc	.+2      	; 0x1a22 <DrvSSD1306DrawBitmap+0xe6>
    1a20:	b2 cf       	rjmp	.-156    	; 0x1986 <DrvSSD1306DrawBitmap+0x4a>
}

void DrvSSD1306DrawBitmap(const SBitmap* bmp, uint16_t x, uint16_t y, uint8_t color)
{
	// Draw pixels
	for (uint16_t i = 0; i < bmp->height; i++)
    1a22:	ff ef       	ldi	r31, 0xFF	; 255
    1a24:	ef 1a       	sub	r14, r31
    1a26:	ff 0a       	sbc	r15, r31
    1a28:	2f ef       	ldi	r18, 0xFF	; 255
    1a2a:	c2 1a       	sub	r12, r18
    1a2c:	d2 0a       	sbc	r13, r18
    1a2e:	d8 01       	movw	r26, r16
    1a30:	14 96       	adiw	r26, 0x04	; 4
    1a32:	8d 91       	ld	r24, X+
    1a34:	9c 91       	ld	r25, X
    1a36:	15 97       	sbiw	r26, 0x05	; 5
    1a38:	e8 16       	cp	r14, r24
    1a3a:	f9 06       	cpc	r15, r25
    1a3c:	b0 f0       	brcs	.+44     	; 0x1a6a <DrvSSD1306DrawBitmap+0x12e>
    1a3e:	1e c0       	rjmp	.+60     	; 0x1a7c <DrvSSD1306DrawBitmap+0x140>
    1a40:	72 2e       	mov	r7, r18
    1a42:	27 2e       	mov	r2, r23
    1a44:	6b 83       	std	Y+3, r22	; 0x03
    1a46:	8c 01       	movw	r16, r24
    1a48:	c4 2e       	mov	r12, r20
    1a4a:	d5 2e       	mov	r13, r21
    1a4c:	e1 2c       	mov	r14, r1
    1a4e:	f1 2c       	mov	r15, r1
	{
		for (uint16_t j = 0; j < bmp->width; j++)
		{
			if (bmp->bmp[(j/8U)+(i*(bmp->width/8U))] & (0x80>>(j%8U)))
    1a50:	68 94       	set
    1a52:	aa 24       	eor	r10, r10
    1a54:	a7 f8       	bld	r10, 7
    1a56:	b1 2c       	mov	r11, r1
			{
				DrvSSD1306DrawPixel(x+j, y+i, color);
			}
			else
			{
				DrvSSD1306DrawPixel(x+j, y+i, color==COLOR_BLACK ? COLOR_WHITE : COLOR_BLACK);
    1a58:	55 24       	eor	r5, r5
    1a5a:	53 94       	inc	r5
    1a5c:	61 2c       	mov	r6, r1
    1a5e:	31 2c       	mov	r3, r1
    1a60:	41 2c       	mov	r4, r1
	{
		for (uint16_t j = 0; j < bmp->width; j++)
		{
			if (bmp->bmp[(j/8U)+(i*(bmp->width/8U))] & (0x80>>(j%8U)))
			{
				DrvSSD1306DrawPixel(x+j, y+i, color);
    1a62:	e2 2f       	mov	r30, r18
    1a64:	f0 e0       	ldi	r31, 0x00	; 0
    1a66:	fa 83       	std	Y+2, r31	; 0x02
    1a68:	e9 83       	std	Y+1, r30	; 0x01
void DrvSSD1306DrawBitmap(const SBitmap* bmp, uint16_t x, uint16_t y, uint8_t color)
{
	// Draw pixels
	for (uint16_t i = 0; i < bmp->height; i++)
	{
		for (uint16_t j = 0; j < bmp->width; j++)
    1a6a:	d8 01       	movw	r26, r16
    1a6c:	12 96       	adiw	r26, 0x02	; 2
    1a6e:	8d 91       	ld	r24, X+
    1a70:	9c 91       	ld	r25, X
    1a72:	13 97       	sbiw	r26, 0x03	; 3
    1a74:	00 97       	sbiw	r24, 0x00	; 0
    1a76:	09 f0       	breq	.+2      	; 0x1a7a <DrvSSD1306DrawBitmap+0x13e>
    1a78:	81 cf       	rjmp	.-254    	; 0x197c <DrvSSD1306DrawBitmap+0x40>
    1a7a:	d3 cf       	rjmp	.-90     	; 0x1a22 <DrvSSD1306DrawBitmap+0xe6>
			{
				DrvSSD1306DrawPixel(x+j, y+i, color==COLOR_BLACK ? COLOR_WHITE : COLOR_BLACK);
			}
		}
	}
}
    1a7c:	0f 90       	pop	r0
    1a7e:	0f 90       	pop	r0
    1a80:	0f 90       	pop	r0
    1a82:	0f 90       	pop	r0
    1a84:	0f 90       	pop	r0
    1a86:	df 91       	pop	r29
    1a88:	cf 91       	pop	r28
    1a8a:	1f 91       	pop	r17
    1a8c:	0f 91       	pop	r16
    1a8e:	ff 90       	pop	r15
    1a90:	ef 90       	pop	r14
    1a92:	df 90       	pop	r13
    1a94:	cf 90       	pop	r12
    1a96:	bf 90       	pop	r11
    1a98:	af 90       	pop	r10
    1a9a:	9f 90       	pop	r9
    1a9c:	8f 90       	pop	r8
    1a9e:	7f 90       	pop	r7
    1aa0:	6f 90       	pop	r6
    1aa2:	5f 90       	pop	r5
    1aa4:	4f 90       	pop	r4
    1aa6:	3f 90       	pop	r3
    1aa8:	2f 90       	pop	r2
    1aaa:	08 95       	ret

00001aac <DrvSSD1306SendData>:

void DrvSSD1306SendData( Int8U *c, Int8U n)
{
    1aac:	26 2f       	mov	r18, r22
	DrvTwiWriteRegBuf(addr_i2c,0x00U,c,n);
    1aae:	ac 01       	movw	r20, r24
    1ab0:	60 e0       	ldi	r22, 0x00	; 0
    1ab2:	80 91 a8 01 	lds	r24, 0x01A8	; 0x8001a8 <addr_i2c>
    1ab6:	2d c3       	rjmp	.+1626   	; 0x2112 <DrvTwiWriteRegBuf>
    1ab8:	08 95       	ret

00001aba <DrvSSD1306SendDatum>:

}
void DrvSSD1306SendDatum(Int8U c) 
{
	DrvTwiWriteReg(addr_i2c,0x00U,c);
    1aba:	48 2f       	mov	r20, r24
    1abc:	60 e0       	ldi	r22, 0x00	; 0
    1abe:	80 91 a8 01 	lds	r24, 0x01A8	; 0x8001a8 <addr_i2c>
    1ac2:	d7 c2       	rjmp	.+1454   	; 0x2072 <DrvTwiWriteReg>
    1ac4:	08 95       	ret

00001ac6 <DrvSSD1306ClearDisplay>:
	DrvSSD1306ClearDisplay();
	DrvSSD1306Update();
	return TRUE;
}
Boolean DrvSSD1306ClearDisplay()
{
    1ac6:	cf 93       	push	r28
    1ac8:	df 93       	push	r29
		0,                         // Page start address
		0xFF,                      // Page end (not really, but works here)
		SSD1306_COLUMNADDR,
		0 
	};                       // Column start address
	DrvSSD1306SendData(dlist1, sizeof(dlist1));
    1aca:	65 e0       	ldi	r22, 0x05	; 5
    1acc:	8c e8       	ldi	r24, 0x8C	; 140
    1ace:	91 e0       	ldi	r25, 0x01	; 1
    1ad0:	ed df       	rcall	.-38     	; 0x1aac <DrvSSD1306SendData>
	DrvSSD1306SendDatum(SCREEN_WIDTH - 1); // Column end address
    1ad2:	8f e7       	ldi	r24, 0x7F	; 127
    1ad4:	f2 df       	rcall	.-28     	; 0x1aba <DrvSSD1306SendDatum>
    1ad6:	c0 e1       	ldi	r28, 0x10	; 16
    1ad8:	d0 e0       	ldi	r29, 0x00	; 0

	Int16U count = BUFFER_DISPLAY_LENGTH;
	
	while(count >= 32)
	{
		DrvTwiFillRegBuf(addr_i2c,0x40U,0x00U,32U);
    1ada:	20 e2       	ldi	r18, 0x20	; 32
    1adc:	40 e0       	ldi	r20, 0x00	; 0
    1ade:	60 e4       	ldi	r22, 0x40	; 64
    1ae0:	80 91 a8 01 	lds	r24, 0x01A8	; 0x8001a8 <addr_i2c>
    1ae4:	94 d3       	rcall	.+1832   	; 0x220e <DrvTwiFillRegBuf>
    1ae6:	21 97       	sbiw	r28, 0x01	; 1
	DrvSSD1306SendDatum(SCREEN_WIDTH - 1); // Column end address


	Int16U count = BUFFER_DISPLAY_LENGTH;
	
	while(count >= 32)
    1ae8:	c1 f7       	brne	.-16     	; 0x1ada <DrvSSD1306ClearDisplay+0x14>
	{
		DrvTwiFillRegBuf(addr_i2c,0x40U,0x00U,BUFFER_DISPLAY_LENGTH - count);
	}
	
	return TRUE;
}
    1aea:	81 e0       	ldi	r24, 0x01	; 1
    1aec:	df 91       	pop	r29
    1aee:	cf 91       	pop	r28
    1af0:	08 95       	ret

00001af2 <DrvSSD1306Update>:
	memset(bufferScreen, 0,BUFFER_DISPLAY_LENGTH);
	return TRUE;
}
	
Boolean DrvSSD1306Update( void )
{
    1af2:	0f 93       	push	r16
    1af4:	1f 93       	push	r17
    1af6:	cf 93       	push	r28
    1af8:	df 93       	push	r29
		0xFF,                      // Page end (not really, but works here)
		SSD1306_COLUMNADDR,
		0
	};
	// Column start address
	DrvSSD1306SendData(dlist2, sizeof(dlist2));
    1afa:	65 e0       	ldi	r22, 0x05	; 5
    1afc:	87 e8       	ldi	r24, 0x87	; 135
    1afe:	91 e0       	ldi	r25, 0x01	; 1
    1b00:	d5 df       	rcall	.-86     	; 0x1aac <DrvSSD1306SendData>
	DrvSSD1306SendDatum(SCREEN_WIDTH - 1); // Column end address
    1b02:	8f e7       	ldi	r24, 0x7F	; 127
    1b04:	da df       	rcall	.-76     	; 0x1aba <DrvSSD1306SendDatum>
    1b06:	c7 ea       	ldi	r28, 0xA7	; 167
    1b08:	da e0       	ldi	r29, 0x0A	; 10
    1b0a:	07 ea       	ldi	r16, 0xA7	; 167
    1b0c:	1c e0       	ldi	r17, 0x0C	; 12

	Int16U count = BUFFER_DISPLAY_LENGTH;
	
	while(count >= 32)
	{
		DrvTwiWriteRegBuf(addr_i2c,0x40U,&bufferScreen[ BUFFER_DISPLAY_LENGTH - count ],32U);
    1b0e:	20 e2       	ldi	r18, 0x20	; 32
    1b10:	ae 01       	movw	r20, r28
    1b12:	60 e4       	ldi	r22, 0x40	; 64
    1b14:	80 91 a8 01 	lds	r24, 0x01A8	; 0x8001a8 <addr_i2c>
    1b18:	fc d2       	rcall	.+1528   	; 0x2112 <DrvTwiWriteRegBuf>
    1b1a:	a0 96       	adiw	r28, 0x20	; 32
	DrvSSD1306SendData(dlist2, sizeof(dlist2));
	DrvSSD1306SendDatum(SCREEN_WIDTH - 1); // Column end address

	Int16U count = BUFFER_DISPLAY_LENGTH;
	
	while(count >= 32)
    1b1c:	c0 17       	cp	r28, r16
    1b1e:	d1 07       	cpc	r29, r17
    1b20:	b1 f7       	brne	.-20     	; 0x1b0e <DrvSSD1306Update+0x1c>
	if(count > 0 )
	{
		DrvTwiWriteRegBuf(addr_i2c,0x40U,&bufferScreen[ BUFFER_DISPLAY_LENGTH - count ],BUFFER_DISPLAY_LENGTH - count);
	}
	return TRUE;
}
    1b22:	81 e0       	ldi	r24, 0x01	; 1
    1b24:	df 91       	pop	r29
    1b26:	cf 91       	pop	r28
    1b28:	1f 91       	pop	r17
    1b2a:	0f 91       	pop	r16
    1b2c:	08 95       	ret

00001b2e <DrvSSD1306Init>:
void  DrvSSD1306SendData( Int8U *c, Int8U n);


Boolean DrvSSD1306Init(Int8U addr)
{
	addr_i2c = addr;
    1b2e:	80 93 a8 01 	sts	0x01A8, r24	; 0x8001a8 <addr_i2c>
	memset(bufferScreen, 0,BUFFER_DISPLAY_LENGTH);
    1b32:	80 e0       	ldi	r24, 0x00	; 0
    1b34:	92 e0       	ldi	r25, 0x02	; 2
    1b36:	e7 ea       	ldi	r30, 0xA7	; 167
    1b38:	fa e0       	ldi	r31, 0x0A	; 10
    1b3a:	df 01       	movw	r26, r30
    1b3c:	9c 01       	movw	r18, r24
    1b3e:	1d 92       	st	X+, r1
    1b40:	21 50       	subi	r18, 0x01	; 1
    1b42:	30 40       	sbci	r19, 0x00	; 0
    1b44:	e1 f7       	brne	.-8      	; 0x1b3e <DrvSSD1306Init+0x10>
	
	vccstate = SSD1306_SWITCHCAPVCC;
    1b46:	82 e0       	ldi	r24, 0x02	; 2
    1b48:	80 93 a7 01 	sts	0x01A7, r24	; 0x8001a7 <vccstate>
		SSD1306_DISPLAYOFF,                   // 0xAE
		SSD1306_SETDISPLAYCLOCKDIV,           // 0xD5
		0x80,                                 // the suggested ratio 0x80
		SSD1306_SETMULTIPLEX 
	};               // 0xA8
	DrvSSD1306SendData(init1, sizeof(init1));
    1b4c:	64 e0       	ldi	r22, 0x04	; 4
    1b4e:	83 ea       	ldi	r24, 0xA3	; 163
    1b50:	91 e0       	ldi	r25, 0x01	; 1
    1b52:	ac df       	rcall	.-168    	; 0x1aac <DrvSSD1306SendData>
	DrvSSD1306SendDatum(SCREEN_HEIGHT - 1);
    1b54:	8f e1       	ldi	r24, 0x1F	; 31
    1b56:	b1 df       	rcall	.-158    	; 0x1aba <DrvSSD1306SendDatum>
		SSD1306_SETDISPLAYOFFSET,             // 0xD3
		0x0,                                  // no offset
		SSD1306_SETSTARTLINE | 0x0,           // line #0
		SSD1306_CHARGEPUMP 
	};                 // 0x8D
	DrvSSD1306SendData(init2, sizeof(init2));
    1b58:	64 e0       	ldi	r22, 0x04	; 4
    1b5a:	8f e9       	ldi	r24, 0x9F	; 159
    1b5c:	91 e0       	ldi	r25, 0x01	; 1
    1b5e:	a6 df       	rcall	.-180    	; 0x1aac <DrvSSD1306SendData>

	DrvSSD1306SendDatum((vccstate == SSD1306_EXTERNALVCC) ? 0x10 : 0x14);
    1b60:	80 91 a7 01 	lds	r24, 0x01A7	; 0x8001a7 <vccstate>
    1b64:	81 30       	cpi	r24, 0x01	; 1
    1b66:	11 f0       	breq	.+4      	; 0x1b6c <DrvSSD1306Init+0x3e>
    1b68:	84 e1       	ldi	r24, 0x14	; 20
    1b6a:	01 c0       	rjmp	.+2      	; 0x1b6e <DrvSSD1306Init+0x40>
    1b6c:	80 e1       	ldi	r24, 0x10	; 16
		SSD1306_MEMORYMODE,                   // 0x20
		0x00,                                 // 0x0 act like ks0108
		SSD1306_SEGREMAP | 0x1,
		SSD1306_COMSCANDEC 
	};
	DrvSSD1306SendData(init3, sizeof(init3));
    1b6e:	a5 df       	rcall	.-182    	; 0x1aba <DrvSSD1306SendDatum>
    1b70:	64 e0       	ldi	r22, 0x04	; 4
    1b72:	8b e9       	ldi	r24, 0x9B	; 155
    1b74:	91 e0       	ldi	r25, 0x01	; 1
		SSD1306_SETCOMPINS,                 // 0xDA
		0x02,
		SSD1306_SETCONTRAST,                // 0x81
		0x8F 
	};
	DrvSSD1306SendData(init4a, sizeof(init4a));
    1b76:	9a df       	rcall	.-204    	; 0x1aac <DrvSSD1306SendData>
    1b78:	64 e0       	ldi	r22, 0x04	; 4
    1b7a:	87 e9       	ldi	r24, 0x97	; 151
    1b7c:	91 e0       	ldi	r25, 0x01	; 1
		

	DrvSSD1306SendDatum(SSD1306_SETPRECHARGE); // 0xd9
    1b7e:	96 df       	rcall	.-212    	; 0x1aac <DrvSSD1306SendData>
    1b80:	89 ed       	ldi	r24, 0xD9	; 217
    1b82:	9b df       	rcall	.-202    	; 0x1aba <DrvSSD1306SendDatum>
	DrvSSD1306SendDatum((vccstate == SSD1306_EXTERNALVCC) ? 0x22 : 0xF1);
    1b84:	80 91 a7 01 	lds	r24, 0x01A7	; 0x8001a7 <vccstate>
    1b88:	81 30       	cpi	r24, 0x01	; 1
    1b8a:	11 f0       	breq	.+4      	; 0x1b90 <DrvSSD1306Init+0x62>
    1b8c:	81 ef       	ldi	r24, 0xF1	; 241
    1b8e:	01 c0       	rjmp	.+2      	; 0x1b92 <DrvSSD1306Init+0x64>
		0x40,
		SSD1306_DISPLAYALLON_RESUME,         // 0xA4
		SSD1306_NORMALDISPLAY,               // 0xA6
		SSD1306_DEACTIVATE_SCROLL,
		SSD1306_DISPLAYON };                 // Main screen turn on
	DrvSSD1306SendData(init5, sizeof(init5));
    1b90:	82 e2       	ldi	r24, 0x22	; 34
    1b92:	93 df       	rcall	.-218    	; 0x1aba <DrvSSD1306SendDatum>
    1b94:	66 e0       	ldi	r22, 0x06	; 6
    1b96:	81 e9       	ldi	r24, 0x91	; 145
    1b98:	91 e0       	ldi	r25, 0x01	; 1
		
	DrvSSD1306ClearDisplay();
    1b9a:	88 df       	rcall	.-240    	; 0x1aac <DrvSSD1306SendData>
    1b9c:	94 df       	rcall	.-216    	; 0x1ac6 <DrvSSD1306ClearDisplay>
	DrvSSD1306Update();
    1b9e:	a9 df       	rcall	.-174    	; 0x1af2 <DrvSSD1306Update>
    1ba0:	81 e0       	ldi	r24, 0x01	; 1
	return TRUE;
}
    1ba2:	08 95       	ret

00001ba4 <DrvTickInit>:
    1ba4:	10 92 5a 06 	sts	0x065A, r1	; 0x80065a <tickCounter>
}


void DrvTickDelayMs( Int16U delay_ms )
{
	DrvTickDelayUs(delay_ms * 1000UL);
    1ba8:	10 92 5b 06 	sts	0x065B, r1	; 0x80065b <tickCounter+0x1>
    1bac:	10 92 5c 06 	sts	0x065C, r1	; 0x80065c <tickCounter+0x2>
    1bb0:	10 92 5d 06 	sts	0x065D, r1	; 0x80065d <tickCounter+0x3>
    1bb4:	14 bc       	out	0x24, r1	; 36
    1bb6:	16 bc       	out	0x26, r1	; 38
    1bb8:	84 b5       	in	r24, 0x24	; 36
    1bba:	8e 7f       	andi	r24, 0xFE	; 254
    1bbc:	84 bd       	out	0x24, r24	; 36
    1bbe:	84 b5       	in	r24, 0x24	; 36
    1bc0:	8d 7f       	andi	r24, 0xFD	; 253
    1bc2:	84 bd       	out	0x24, r24	; 36
    1bc4:	85 b5       	in	r24, 0x25	; 37
    1bc6:	87 7f       	andi	r24, 0xF7	; 247
    1bc8:	85 bd       	out	0x25, r24	; 37
    1bca:	85 b5       	in	r24, 0x25	; 37
    1bcc:	82 60       	ori	r24, 0x02	; 2
    1bce:	85 bd       	out	0x25, r24	; 37
    1bd0:	85 b5       	in	r24, 0x25	; 37
    1bd2:	8e 7f       	andi	r24, 0xFE	; 254
    1bd4:	85 bd       	out	0x25, r24	; 37
    1bd6:	ee e6       	ldi	r30, 0x6E	; 110
    1bd8:	f0 e0       	ldi	r31, 0x00	; 0
    1bda:	80 81       	ld	r24, Z
    1bdc:	81 60       	ori	r24, 0x01	; 1
    1bde:	80 83       	st	Z, r24
    1be0:	08 95       	ret

00001be2 <DrvTickGetTimeUs>:
    1be2:	3f b7       	in	r19, 0x3f	; 63
    1be4:	f8 94       	cli
    1be6:	80 91 5a 06 	lds	r24, 0x065A	; 0x80065a <tickCounter>
    1bea:	90 91 5b 06 	lds	r25, 0x065B	; 0x80065b <tickCounter+0x1>
    1bee:	a0 91 5c 06 	lds	r26, 0x065C	; 0x80065c <tickCounter+0x2>
    1bf2:	b0 91 5d 06 	lds	r27, 0x065D	; 0x80065d <tickCounter+0x3>
    1bf6:	26 b5       	in	r18, 0x26	; 38
    1bf8:	a8 9b       	sbis	0x15, 0	; 21
    1bfa:	05 c0       	rjmp	.+10     	; 0x1c06 <DrvTickGetTimeUs+0x24>
    1bfc:	2f 3f       	cpi	r18, 0xFF	; 255
    1bfe:	19 f0       	breq	.+6      	; 0x1c06 <DrvTickGetTimeUs+0x24>
    1c00:	01 96       	adiw	r24, 0x01	; 1
    1c02:	a1 1d       	adc	r26, r1
    1c04:	b1 1d       	adc	r27, r1
    1c06:	3f bf       	out	0x3f, r19	; 63
    1c08:	ba 2f       	mov	r27, r26
    1c0a:	a9 2f       	mov	r26, r25
    1c0c:	98 2f       	mov	r25, r24
    1c0e:	88 27       	eor	r24, r24
    1c10:	82 0f       	add	r24, r18
    1c12:	91 1d       	adc	r25, r1
    1c14:	a1 1d       	adc	r26, r1
    1c16:	b1 1d       	adc	r27, r1
    1c18:	bc 01       	movw	r22, r24
    1c1a:	cd 01       	movw	r24, r26
    1c1c:	96 95       	lsr	r25
    1c1e:	87 95       	ror	r24
    1c20:	77 95       	ror	r23
    1c22:	67 95       	ror	r22
    1c24:	08 95       	ret

00001c26 <DrvTickGetTimeMs>:
    1c26:	dd df       	rcall	.-70     	; 0x1be2 <DrvTickGetTimeUs>
    1c28:	28 ee       	ldi	r18, 0xE8	; 232
    1c2a:	33 e0       	ldi	r19, 0x03	; 3
    1c2c:	40 e0       	ldi	r20, 0x00	; 0
    1c2e:	50 e0       	ldi	r21, 0x00	; 0
    1c30:	0e 94 ca 1b 	call	0x3794	; 0x3794 <__udivmodsi4>
    1c34:	ca 01       	movw	r24, r20
    1c36:	b9 01       	movw	r22, r18
    1c38:	08 95       	ret

00001c3a <DrvTickDelayUs>:
    1c3a:	cf 92       	push	r12
    1c3c:	df 92       	push	r13
    1c3e:	ef 92       	push	r14
    1c40:	ff 92       	push	r15
    1c42:	6b 01       	movw	r12, r22
    1c44:	7c 01       	movw	r14, r24
    1c46:	cd df       	rcall	.-102    	; 0x1be2 <DrvTickGetTimeUs>
    1c48:	c6 0e       	add	r12, r22
    1c4a:	d7 1e       	adc	r13, r23
    1c4c:	e8 1e       	adc	r14, r24
    1c4e:	f9 1e       	adc	r15, r25
    1c50:	c8 df       	rcall	.-112    	; 0x1be2 <DrvTickGetTimeUs>
    1c52:	6c 15       	cp	r22, r12
    1c54:	7d 05       	cpc	r23, r13
    1c56:	8e 05       	cpc	r24, r14
    1c58:	9f 05       	cpc	r25, r15
    1c5a:	d0 f3       	brcs	.-12     	; 0x1c50 <DrvTickDelayUs+0x16>
    1c5c:	ff 90       	pop	r15
    1c5e:	ef 90       	pop	r14
    1c60:	df 90       	pop	r13
    1c62:	cf 90       	pop	r12
    1c64:	08 95       	ret

00001c66 <__vector_18>:


///////////////////////////////////////////ISR FUNCTIONS//////////////////////////////////////////
//ISR timer system 0.5s * 256 =  0.128 ms
ISR(TIMER0_OVF_vect) 
{
    1c66:	1f 92       	push	r1
    1c68:	0f 92       	push	r0
    1c6a:	0f b6       	in	r0, 0x3f	; 63
    1c6c:	0f 92       	push	r0
    1c6e:	11 24       	eor	r1, r1
    1c70:	8f 93       	push	r24
    1c72:	9f 93       	push	r25
    1c74:	af 93       	push	r26
    1c76:	bf 93       	push	r27
	tickCounter += 1UL ;
    1c78:	80 91 5a 06 	lds	r24, 0x065A	; 0x80065a <tickCounter>
    1c7c:	90 91 5b 06 	lds	r25, 0x065B	; 0x80065b <tickCounter+0x1>
    1c80:	a0 91 5c 06 	lds	r26, 0x065C	; 0x80065c <tickCounter+0x2>
    1c84:	b0 91 5d 06 	lds	r27, 0x065D	; 0x80065d <tickCounter+0x3>
    1c88:	01 96       	adiw	r24, 0x01	; 1
    1c8a:	a1 1d       	adc	r26, r1
    1c8c:	b1 1d       	adc	r27, r1
    1c8e:	80 93 5a 06 	sts	0x065A, r24	; 0x80065a <tickCounter>
    1c92:	90 93 5b 06 	sts	0x065B, r25	; 0x80065b <tickCounter+0x1>
    1c96:	a0 93 5c 06 	sts	0x065C, r26	; 0x80065c <tickCounter+0x2>
    1c9a:	b0 93 5d 06 	sts	0x065D, r27	; 0x80065d <tickCounter+0x3>
}
    1c9e:	bf 91       	pop	r27
    1ca0:	af 91       	pop	r26
    1ca2:	9f 91       	pop	r25
    1ca4:	8f 91       	pop	r24
    1ca6:	0f 90       	pop	r0
    1ca8:	0f be       	out	0x3f, r0	; 63
    1caa:	0f 90       	pop	r0
    1cac:	1f 90       	pop	r1
    1cae:	18 95       	reti

00001cb0 <DrvTimerInit>:

//fct qui fixe un delay au timer
void DrvTimerDelayTimer( Int8U index_timer , Int16U delay)
{
	MesTimers[ index_timer ].cpt_delay = 0U;	
	MesTimers[ index_timer ].delay	  = delay;
    1cb0:	e7 ea       	ldi	r30, 0xA7	; 167
    1cb2:	fc e0       	ldi	r31, 0x0C	; 12
    1cb4:	10 82       	st	Z, r1
    1cb6:	10 86       	std	Z+8, r1	; 0x08
    1cb8:	17 82       	std	Z+7, r1	; 0x07
    1cba:	11 86       	std	Z+9, r1	; 0x09
    1cbc:	11 8a       	std	Z+17, r1	; 0x11
    1cbe:	10 8a       	std	Z+16, r1	; 0x10
    1cc0:	12 8a       	std	Z+18, r1	; 0x12
    1cc2:	12 8e       	std	Z+26, r1	; 0x1a
    1cc4:	11 8e       	std	Z+25, r1	; 0x19
    1cc6:	13 8e       	std	Z+27, r1	; 0x1b
    1cc8:	13 a2       	std	Z+35, r1	; 0x23
    1cca:	12 a2       	std	Z+34, r1	; 0x22
    1ccc:	10 92 b0 00 	sts	0x00B0, r1	; 0x8000b0 <__TEXT_REGION_LENGTH__+0x7e00b0>
    1cd0:	10 92 b2 00 	sts	0x00B2, r1	; 0x8000b2 <__TEXT_REGION_LENGTH__+0x7e00b2>
    1cd4:	e1 eb       	ldi	r30, 0xB1	; 177
    1cd6:	f0 e0       	ldi	r31, 0x00	; 0
    1cd8:	80 81       	ld	r24, Z
    1cda:	81 60       	ori	r24, 0x01	; 1
    1cdc:	80 83       	st	Z, r24
    1cde:	80 81       	ld	r24, Z
    1ce0:	84 60       	ori	r24, 0x04	; 4
    1ce2:	80 83       	st	Z, r24
    1ce4:	8d e7       	ldi	r24, 0x7D	; 125
    1ce6:	80 93 b3 00 	sts	0x00B3, r24	; 0x8000b3 <__TEXT_REGION_LENGTH__+0x7e00b3>
    1cea:	b9 9a       	sbi	0x17, 1	; 23
    1cec:	e0 e7       	ldi	r30, 0x70	; 112
    1cee:	f0 e0       	ldi	r31, 0x00	; 0
    1cf0:	80 81       	ld	r24, Z
    1cf2:	82 60       	ori	r24, 0x02	; 2
    1cf4:	80 83       	st	Z, r24
    1cf6:	08 95       	ret

00001cf8 <DrvTimerAddTimer>:
    1cf8:	90 e0       	ldi	r25, 0x00	; 0
    1cfa:	fc 01       	movw	r30, r24
    1cfc:	ee 0f       	add	r30, r30
    1cfe:	ff 1f       	adc	r31, r31
    1d00:	ee 0f       	add	r30, r30
    1d02:	ff 1f       	adc	r31, r31
    1d04:	ee 0f       	add	r30, r30
    1d06:	ff 1f       	adc	r31, r31
    1d08:	8e 0f       	add	r24, r30
    1d0a:	9f 1f       	adc	r25, r31
    1d0c:	fc 01       	movw	r30, r24
    1d0e:	e9 55       	subi	r30, 0x59	; 89
    1d10:	f3 4f       	sbci	r31, 0xF3	; 243
    1d12:	72 83       	std	Z+2, r23	; 0x02
    1d14:	61 83       	std	Z+1, r22	; 0x01
    1d16:	14 82       	std	Z+4, r1	; 0x04
    1d18:	13 82       	std	Z+3, r1	; 0x03
    1d1a:	45 83       	std	Z+5, r20	; 0x05
    1d1c:	30 87       	std	Z+8, r19	; 0x08
    1d1e:	27 83       	std	Z+7, r18	; 0x07
    1d20:	81 e0       	ldi	r24, 0x01	; 1
    1d22:	80 83       	st	Z, r24
    1d24:	08 95       	ret

00001d26 <DrvTimerStopTimer>:
    1d26:	90 e0       	ldi	r25, 0x00	; 0
    1d28:	fc 01       	movw	r30, r24
    1d2a:	ee 0f       	add	r30, r30
    1d2c:	ff 1f       	adc	r31, r31
    1d2e:	ee 0f       	add	r30, r30
    1d30:	ff 1f       	adc	r31, r31
    1d32:	ee 0f       	add	r30, r30
    1d34:	ff 1f       	adc	r31, r31
    1d36:	8e 0f       	add	r24, r30
    1d38:	9f 1f       	adc	r25, r31
    1d3a:	fc 01       	movw	r30, r24
    1d3c:	e9 55       	subi	r30, 0x59	; 89
    1d3e:	f3 4f       	sbci	r31, 0xF3	; 243
    1d40:	10 82       	st	Z, r1
    1d42:	12 82       	std	Z+2, r1	; 0x02
    1d44:	11 82       	std	Z+1, r1	; 0x01
    1d46:	14 82       	std	Z+4, r1	; 0x04
    1d48:	13 82       	std	Z+3, r1	; 0x03
    1d4a:	82 e0       	ldi	r24, 0x02	; 2
    1d4c:	85 83       	std	Z+5, r24	; 0x05
    1d4e:	10 86       	std	Z+8, r1	; 0x08
    1d50:	17 82       	std	Z+7, r1	; 0x07
    1d52:	08 95       	ret

00001d54 <DrvTimerTickReset>:

//on reset tt les timers
void DrvTimerTickReset(void)
{
	//stop IT
	BIT_LOW(TIMSK2,OCIE2A);
    1d54:	e0 e7       	ldi	r30, 0x70	; 112
    1d56:	f0 e0       	ldi	r31, 0x00	; 0
    1d58:	80 81       	ld	r24, Z
    1d5a:	8d 7f       	andi	r24, 0xFD	; 253
    1d5c:	80 83       	st	Z, r24
	//set the threshold
	OCR2A   = TIMER2_OFFSET_COMPA;
    1d5e:	8d e7       	ldi	r24, 0x7D	; 125
    1d60:	80 93 b3 00 	sts	0x00B3, r24	; 0x8000b3 <__TEXT_REGION_LENGTH__+0x7e00b3>
	//on configure les timers autre que le timer event
	for(Int8U loop_index = 0U; loop_index < E_NB_TIMER ; loop_index++ )
	{
		MesTimers[ loop_index ].cpt_delay = 0U;	
    1d64:	a7 ea       	ldi	r26, 0xA7	; 167
    1d66:	bc e0       	ldi	r27, 0x0C	; 12
    1d68:	14 96       	adiw	r26, 0x04	; 4
    1d6a:	1c 92       	st	X, r1
    1d6c:	1e 92       	st	-X, r1
    1d6e:	13 97       	sbiw	r26, 0x03	; 3
    1d70:	1d 96       	adiw	r26, 0x0d	; 13
    1d72:	1c 92       	st	X, r1
    1d74:	1e 92       	st	-X, r1
    1d76:	1c 97       	sbiw	r26, 0x0c	; 12
    1d78:	56 96       	adiw	r26, 0x16	; 22
    1d7a:	1c 92       	st	X, r1
    1d7c:	1e 92       	st	-X, r1
    1d7e:	55 97       	sbiw	r26, 0x15	; 21
    1d80:	5f 96       	adiw	r26, 0x1f	; 31
    1d82:	1c 92       	st	X, r1
    1d84:	1e 92       	st	-X, r1
    1d86:	5e 97       	sbiw	r26, 0x1e	; 30
	}
	//reset the counter
	TCNT2	= 0U;
    1d88:	10 92 b2 00 	sts	0x00B2, r1	; 0x8000b2 <__TEXT_REGION_LENGTH__+0x7e00b2>
	//enable the IT
	BIT_HIGH(TIMSK2,OCIE2A);
    1d8c:	80 81       	ld	r24, Z
    1d8e:	82 60       	ori	r24, 0x02	; 2
    1d90:	80 83       	st	Z, r24
    1d92:	08 95       	ret

00001d94 <__vector_9>:


/////////////////////////////////////ISR PRIVATE FUNCTIONS////////////////////////////////////////
//ISR timer event 1ms
ISR(TIMER2_COMPA_vect)
{
    1d94:	1f 92       	push	r1
    1d96:	0f 92       	push	r0
    1d98:	0f b6       	in	r0, 0x3f	; 63
    1d9a:	0f 92       	push	r0
    1d9c:	11 24       	eor	r1, r1
    1d9e:	0b b6       	in	r0, 0x3b	; 59
    1da0:	0f 92       	push	r0
    1da2:	ef 92       	push	r14
    1da4:	ff 92       	push	r15
    1da6:	1f 93       	push	r17
    1da8:	2f 93       	push	r18
    1daa:	3f 93       	push	r19
    1dac:	4f 93       	push	r20
    1dae:	5f 93       	push	r21
    1db0:	6f 93       	push	r22
    1db2:	7f 93       	push	r23
    1db4:	8f 93       	push	r24
    1db6:	9f 93       	push	r25
    1db8:	af 93       	push	r26
    1dba:	bf 93       	push	r27
    1dbc:	cf 93       	push	r28
    1dbe:	df 93       	push	r29
    1dc0:	ef 93       	push	r30
    1dc2:	ff 93       	push	r31
	//on prend le temps de debut d'interruption
	Int8U tcnt2_start = TCNT2;
    1dc4:	10 91 b2 00 	lds	r17, 0x00B2	; 0x8000b2 <__TEXT_REGION_LENGTH__+0x7e00b2>
    1dc8:	c0 e0       	ldi	r28, 0x00	; 0
    1dca:	d0 e0       	ldi	r29, 0x00	; 0
    1dcc:	8c 2f       	mov	r24, r28
	for(Int8U loop_index = 0U; loop_index < E_NB_TIMER ; loop_index++ )
	{
		//si le timer est activ
		if( MesTimers[ loop_index ].enable == TRUE )
    1dce:	9e 01       	movw	r18, r28
    1dd0:	fe 01       	movw	r30, r28
    1dd2:	ee 0f       	add	r30, r30
    1dd4:	ff 1f       	adc	r31, r31
    1dd6:	ee 0f       	add	r30, r30
    1dd8:	ff 1f       	adc	r31, r31
    1dda:	ee 0f       	add	r30, r30
    1ddc:	ff 1f       	adc	r31, r31
    1dde:	ec 0f       	add	r30, r28
    1de0:	fd 1f       	adc	r31, r29
    1de2:	e9 55       	subi	r30, 0x59	; 89
    1de4:	f3 4f       	sbci	r31, 0xF3	; 243
    1de6:	90 81       	ld	r25, Z
    1de8:	91 30       	cpi	r25, 0x01	; 1
    1dea:	09 f0       	breq	.+2      	; 0x1dee <__vector_9+0x5a>
    1dec:	6c c0       	rjmp	.+216    	; 0x1ec6 <__vector_9+0x132>
		{
			//on incremente le compteur
			MesTimers[ loop_index ].cpt_delay++;
    1dee:	fe 01       	movw	r30, r28
    1df0:	ee 0f       	add	r30, r30
    1df2:	ff 1f       	adc	r31, r31
    1df4:	ee 0f       	add	r30, r30
    1df6:	ff 1f       	adc	r31, r31
    1df8:	ee 0f       	add	r30, r30
    1dfa:	ff 1f       	adc	r31, r31
    1dfc:	ec 0f       	add	r30, r28
    1dfe:	fd 1f       	adc	r31, r29
    1e00:	e9 55       	subi	r30, 0x59	; 89
    1e02:	f3 4f       	sbci	r31, 0xF3	; 243
    1e04:	43 81       	ldd	r20, Z+3	; 0x03
    1e06:	54 81       	ldd	r21, Z+4	; 0x04
    1e08:	4f 5f       	subi	r20, 0xFF	; 255
    1e0a:	5f 4f       	sbci	r21, 0xFF	; 255
    1e0c:	54 83       	std	Z+4, r21	; 0x04
    1e0e:	43 83       	std	Z+3, r20	; 0x03
			
			//on test par rapport a la valeur utilisateur
			if(MesTimers[ loop_index ].cpt_delay == MesTimers[ loop_index ].delay )
    1e10:	63 81       	ldd	r22, Z+3	; 0x03
    1e12:	74 81       	ldd	r23, Z+4	; 0x04
    1e14:	41 81       	ldd	r20, Z+1	; 0x01
    1e16:	52 81       	ldd	r21, Z+2	; 0x02
    1e18:	64 17       	cp	r22, r20
    1e1a:	75 07       	cpc	r23, r21
    1e1c:	09 f0       	breq	.+2      	; 0x1e20 <__vector_9+0x8c>
    1e1e:	53 c0       	rjmp	.+166    	; 0x1ec6 <__vector_9+0x132>
			{
				if( MesTimers[ loop_index ].mode != E_TIMER_MODE_NONE )
    1e20:	f9 01       	movw	r30, r18
    1e22:	ee 0f       	add	r30, r30
    1e24:	ff 1f       	adc	r31, r31
    1e26:	ee 0f       	add	r30, r30
    1e28:	ff 1f       	adc	r31, r31
    1e2a:	ee 0f       	add	r30, r30
    1e2c:	ff 1f       	adc	r31, r31
    1e2e:	e2 0f       	add	r30, r18
    1e30:	f3 1f       	adc	r31, r19
    1e32:	e9 55       	subi	r30, 0x59	; 89
    1e34:	f3 4f       	sbci	r31, 0xF3	; 243
    1e36:	95 81       	ldd	r25, Z+5	; 0x05
    1e38:	92 30       	cpi	r25, 0x02	; 2
    1e3a:	09 f4       	brne	.+2      	; 0x1e3e <__vector_9+0xaa>
    1e3c:	44 c0       	rjmp	.+136    	; 0x1ec6 <__vector_9+0x132>
				{
					//on remet a zero le compteur
					MesTimers[ loop_index ].cpt_delay = 0U;
    1e3e:	f9 01       	movw	r30, r18
    1e40:	ee 0f       	add	r30, r30
    1e42:	ff 1f       	adc	r31, r31
    1e44:	ee 0f       	add	r30, r30
    1e46:	ff 1f       	adc	r31, r31
    1e48:	ee 0f       	add	r30, r30
    1e4a:	ff 1f       	adc	r31, r31
    1e4c:	e2 0f       	add	r30, r18
    1e4e:	f3 1f       	adc	r31, r19
    1e50:	e9 55       	subi	r30, 0x59	; 89
    1e52:	f3 4f       	sbci	r31, 0xF3	; 243
    1e54:	14 82       	std	Z+4, r1	; 0x04
    1e56:	13 82       	std	Z+3, r1	; 0x03
					
					//si on est en mode ONE SHOT 
					//on atteind le temp, on supprime le timer
					if (MesTimers[ loop_index ].mode == E_TIMER_MODE_ONE_SHOT)
    1e58:	95 81       	ldd	r25, Z+5	; 0x05
    1e5a:	91 11       	cpse	r25, r1
    1e5c:	15 c0       	rjmp	.+42     	; 0x1e88 <__vector_9+0xf4>
					{
						//on garde la fonction appel avant de tt effacer
						ptrfct_Isr_Callback_Timer ptrfct = MesTimers[ loop_index ].ptrfct;
    1e5e:	f9 01       	movw	r30, r18
    1e60:	ee 0f       	add	r30, r30
    1e62:	ff 1f       	adc	r31, r31
    1e64:	ee 0f       	add	r30, r30
    1e66:	ff 1f       	adc	r31, r31
    1e68:	ee 0f       	add	r30, r30
    1e6a:	ff 1f       	adc	r31, r31
    1e6c:	2e 0f       	add	r18, r30
    1e6e:	3f 1f       	adc	r19, r31
    1e70:	f9 01       	movw	r30, r18
    1e72:	e9 55       	subi	r30, 0x59	; 89
    1e74:	f3 4f       	sbci	r31, 0xF3	; 243
    1e76:	e7 80       	ldd	r14, Z+7	; 0x07
    1e78:	f0 84       	ldd	r15, Z+8	; 0x08
						//on supprime le timer One Shot
						DrvTimerStopTimer( loop_index );
    1e7a:	55 df       	rcall	.-342    	; 0x1d26 <DrvTimerStopTimer>
						//on appelle la fonction
						if( ptrfct != NULL )
    1e7c:	e1 14       	cp	r14, r1
    1e7e:	f1 04       	cpc	r15, r1
    1e80:	11 f1       	breq	.+68     	; 0x1ec6 <__vector_9+0x132>
						{
							ptrfct();
    1e82:	f7 01       	movw	r30, r14
    1e84:	09 95       	icall
    1e86:	1f c0       	rjmp	.+62     	; 0x1ec6 <__vector_9+0x132>
						}
					}
					else
					{
						//on appelle la fonction
						if( MesTimers[ loop_index ].ptrfct != NULL )
    1e88:	f9 01       	movw	r30, r18
    1e8a:	ee 0f       	add	r30, r30
    1e8c:	ff 1f       	adc	r31, r31
    1e8e:	ee 0f       	add	r30, r30
    1e90:	ff 1f       	adc	r31, r31
    1e92:	ee 0f       	add	r30, r30
    1e94:	ff 1f       	adc	r31, r31
    1e96:	e2 0f       	add	r30, r18
    1e98:	f3 1f       	adc	r31, r19
    1e9a:	e9 55       	subi	r30, 0x59	; 89
    1e9c:	f3 4f       	sbci	r31, 0xF3	; 243
    1e9e:	87 81       	ldd	r24, Z+7	; 0x07
    1ea0:	90 85       	ldd	r25, Z+8	; 0x08
    1ea2:	89 2b       	or	r24, r25
    1ea4:	81 f0       	breq	.+32     	; 0x1ec6 <__vector_9+0x132>
						{
							MesTimers[ loop_index ].ptrfct();
    1ea6:	f9 01       	movw	r30, r18
    1ea8:	ee 0f       	add	r30, r30
    1eaa:	ff 1f       	adc	r31, r31
    1eac:	ee 0f       	add	r30, r30
    1eae:	ff 1f       	adc	r31, r31
    1eb0:	ee 0f       	add	r30, r30
    1eb2:	ff 1f       	adc	r31, r31
    1eb4:	2e 0f       	add	r18, r30
    1eb6:	3f 1f       	adc	r19, r31
    1eb8:	f9 01       	movw	r30, r18
    1eba:	e9 55       	subi	r30, 0x59	; 89
    1ebc:	f3 4f       	sbci	r31, 0xF3	; 243
    1ebe:	07 80       	ldd	r0, Z+7	; 0x07
    1ec0:	f0 85       	ldd	r31, Z+8	; 0x08
    1ec2:	e0 2d       	mov	r30, r0
    1ec4:	09 95       	icall
    1ec6:	21 96       	adiw	r28, 0x01	; 1
//ISR timer event 1ms
ISR(TIMER2_COMPA_vect)
{
	//on prend le temps de debut d'interruption
	Int8U tcnt2_start = TCNT2;
	for(Int8U loop_index = 0U; loop_index < E_NB_TIMER ; loop_index++ )
    1ec8:	c4 30       	cpi	r28, 0x04	; 4
    1eca:	d1 05       	cpc	r29, r1
    1ecc:	09 f0       	breq	.+2      	; 0x1ed0 <__vector_9+0x13c>
    1ece:	7e cf       	rjmp	.-260    	; 0x1dcc <__vector_9+0x38>
				}
			}
		}			
	}
	//on prend le temps de fin d'interruption
	Int8U tcnt2_end = TCNT2;
    1ed0:	80 91 b2 00 	lds	r24, 0x00B2	; 0x8000b2 <__TEXT_REGION_LENGTH__+0x7e00b2>
	//reenclanche le timer dans 1ms
	OCR2A = tcnt2_end + TIMER2_OFFSET_COMPA - (tcnt2_end - tcnt2_start) - 1U ;
    1ed4:	14 58       	subi	r17, 0x84	; 132
    1ed6:	10 93 b3 00 	sts	0x00B3, r17	; 0x8000b3 <__TEXT_REGION_LENGTH__+0x7e00b3>
    1eda:	ff 91       	pop	r31
    1edc:	ef 91       	pop	r30
    1ede:	df 91       	pop	r29
    1ee0:	cf 91       	pop	r28
    1ee2:	bf 91       	pop	r27
    1ee4:	af 91       	pop	r26
    1ee6:	9f 91       	pop	r25
    1ee8:	8f 91       	pop	r24
    1eea:	7f 91       	pop	r23
    1eec:	6f 91       	pop	r22
    1eee:	5f 91       	pop	r21
    1ef0:	4f 91       	pop	r20
    1ef2:	3f 91       	pop	r19
    1ef4:	2f 91       	pop	r18
    1ef6:	1f 91       	pop	r17
    1ef8:	ff 90       	pop	r15
    1efa:	ef 90       	pop	r14
    1efc:	0f 90       	pop	r0
    1efe:	0b be       	out	0x3b, r0	; 59
    1f00:	0f 90       	pop	r0
    1f02:	0f be       	out	0x3f, r0	; 63
    1f04:	0f 90       	pop	r0
    1f06:	1f 90       	pop	r1
    1f08:	18 95       	reti

00001f0a <DrvTwiWaitTransmission>:
				}
			}
		}
	}
	return read_no_error; 
}	
    1f0a:	8f ef       	ldi	r24, 0xFF	; 255
    1f0c:	ec eb       	ldi	r30, 0xBC	; 188
    1f0e:	f0 e0       	ldi	r31, 0x00	; 0
    1f10:	0e c0       	rjmp	.+28     	; 0x1f2e <DrvTwiWaitTransmission+0x24>
    1f12:	81 50       	subi	r24, 0x01	; 1
    1f14:	61 f4       	brne	.+24     	; 0x1f2e <DrvTwiWaitTransmission+0x24>
    1f16:	80 91 5e 06 	lds	r24, 0x065E	; 0x80065e <errorsCount>
    1f1a:	90 91 5f 06 	lds	r25, 0x065F	; 0x80065f <errorsCount+0x1>
    1f1e:	01 96       	adiw	r24, 0x01	; 1
    1f20:	90 93 5f 06 	sts	0x065F, r25	; 0x80065f <errorsCount+0x1>
    1f24:	80 93 5e 06 	sts	0x065E, r24	; 0x80065e <errorsCount>
    1f28:	10 92 bc 00 	sts	0x00BC, r1	; 0x8000bc <__TEXT_REGION_LENGTH__+0x7e00bc>
    1f2c:	08 95       	ret
    1f2e:	90 81       	ld	r25, Z
    1f30:	99 23       	and	r25, r25
    1f32:	7c f7       	brge	.-34     	; 0x1f12 <DrvTwiWaitTransmission+0x8>
    1f34:	08 95       	ret

00001f36 <DrvTwiInit>:
    1f36:	cf 92       	push	r12
    1f38:	df 92       	push	r13
    1f3a:	ef 92       	push	r14
    1f3c:	ff 92       	push	r15
    1f3e:	cf 93       	push	r28
    1f40:	df 93       	push	r29
    1f42:	6b 01       	movw	r12, r22
    1f44:	7c 01       	movw	r14, r24
    1f46:	c9 ea       	ldi	r28, 0xA9	; 169
    1f48:	d1 e0       	ldi	r29, 0x01	; 1
    1f4a:	88 81       	ld	r24, Y
    1f4c:	0e 94 83 02 	call	0x506	; 0x506 <DrvIoSetPinOutput>
    1f50:	89 81       	ldd	r24, Y+1	; 0x01
    1f52:	0e 94 83 02 	call	0x506	; 0x506 <DrvIoSetPinOutput>
    1f56:	60 e0       	ldi	r22, 0x00	; 0
    1f58:	7d e2       	ldi	r23, 0x2D	; 45
    1f5a:	81 e3       	ldi	r24, 0x31	; 49
    1f5c:	91 e0       	ldi	r25, 0x01	; 1
    1f5e:	a7 01       	movw	r20, r14
    1f60:	96 01       	movw	r18, r12
    1f62:	0e 94 ca 1b 	call	0x3794	; 0x3794 <__udivmodsi4>
    1f66:	20 51       	subi	r18, 0x10	; 16
    1f68:	31 09       	sbc	r19, r1
    1f6a:	36 95       	lsr	r19
    1f6c:	27 95       	ror	r18
    1f6e:	20 93 b8 00 	sts	0x00B8, r18	; 0x8000b8 <__TEXT_REGION_LENGTH__+0x7e00b8>
    1f72:	10 92 b9 00 	sts	0x00B9, r1	; 0x8000b9 <__TEXT_REGION_LENGTH__+0x7e00b9>
    1f76:	84 e0       	ldi	r24, 0x04	; 4
    1f78:	80 93 bc 00 	sts	0x00BC, r24	; 0x8000bc <__TEXT_REGION_LENGTH__+0x7e00bc>
    1f7c:	10 92 5f 06 	sts	0x065F, r1	; 0x80065f <errorsCount+0x1>
    1f80:	10 92 5e 06 	sts	0x065E, r1	; 0x80065e <errorsCount>
    1f84:	81 e0       	ldi	r24, 0x01	; 1
    1f86:	df 91       	pop	r29
    1f88:	cf 91       	pop	r28
    1f8a:	ff 90       	pop	r15
    1f8c:	ef 90       	pop	r14
    1f8e:	df 90       	pop	r13
    1f90:	cf 90       	pop	r12
    1f92:	08 95       	ret

00001f94 <DrvTwiReadReg>:
    1f94:	0f 93       	push	r16
    1f96:	1f 93       	push	r17
    1f98:	cf 93       	push	r28
    1f9a:	df 93       	push	r29
    1f9c:	c8 2f       	mov	r28, r24
    1f9e:	d6 2f       	mov	r29, r22
    1fa0:	8a 01       	movw	r16, r20
    1fa2:	84 ea       	ldi	r24, 0xA4	; 164
    1fa4:	80 93 bc 00 	sts	0x00BC, r24	; 0x8000bc <__TEXT_REGION_LENGTH__+0x7e00bc>
    1fa8:	b0 df       	rcall	.-160    	; 0x1f0a <DrvTwiWaitTransmission>
    1faa:	80 91 b9 00 	lds	r24, 0x00B9	; 0x8000b9 <__TEXT_REGION_LENGTH__+0x7e00b9>
    1fae:	88 30       	cpi	r24, 0x08	; 8
    1fb0:	29 f0       	breq	.+10     	; 0x1fbc <DrvTwiReadReg+0x28>
    1fb2:	80 91 b9 00 	lds	r24, 0x00B9	; 0x8000b9 <__TEXT_REGION_LENGTH__+0x7e00b9>
    1fb6:	80 31       	cpi	r24, 0x10	; 16
    1fb8:	09 f0       	breq	.+2      	; 0x1fbc <DrvTwiReadReg+0x28>
    1fba:	49 c0       	rjmp	.+146    	; 0x204e <DrvTwiReadReg+0xba>
    1fbc:	8c 2f       	mov	r24, r28
    1fbe:	88 0f       	add	r24, r24
    1fc0:	80 93 bb 00 	sts	0x00BB, r24	; 0x8000bb <__TEXT_REGION_LENGTH__+0x7e00bb>
    1fc4:	84 e8       	ldi	r24, 0x84	; 132
    1fc6:	80 93 bc 00 	sts	0x00BC, r24	; 0x8000bc <__TEXT_REGION_LENGTH__+0x7e00bc>
    1fca:	9f df       	rcall	.-194    	; 0x1f0a <DrvTwiWaitTransmission>
    1fcc:	80 91 b9 00 	lds	r24, 0x00B9	; 0x8000b9 <__TEXT_REGION_LENGTH__+0x7e00b9>
    1fd0:	88 31       	cpi	r24, 0x18	; 24
    1fd2:	09 f0       	breq	.+2      	; 0x1fd6 <DrvTwiReadReg+0x42>
    1fd4:	3e c0       	rjmp	.+124    	; 0x2052 <DrvTwiReadReg+0xbe>
    1fd6:	d0 93 bb 00 	sts	0x00BB, r29	; 0x8000bb <__TEXT_REGION_LENGTH__+0x7e00bb>
    1fda:	84 e8       	ldi	r24, 0x84	; 132
    1fdc:	80 93 bc 00 	sts	0x00BC, r24	; 0x8000bc <__TEXT_REGION_LENGTH__+0x7e00bc>
    1fe0:	94 df       	rcall	.-216    	; 0x1f0a <DrvTwiWaitTransmission>
    1fe2:	80 91 b9 00 	lds	r24, 0x00B9	; 0x8000b9 <__TEXT_REGION_LENGTH__+0x7e00b9>
    1fe6:	88 32       	cpi	r24, 0x28	; 40
    1fe8:	b1 f5       	brne	.+108    	; 0x2056 <DrvTwiReadReg+0xc2>
    1fea:	84 ea       	ldi	r24, 0xA4	; 164
    1fec:	80 93 bc 00 	sts	0x00BC, r24	; 0x8000bc <__TEXT_REGION_LENGTH__+0x7e00bc>
    1ff0:	8c df       	rcall	.-232    	; 0x1f0a <DrvTwiWaitTransmission>
    1ff2:	80 91 b9 00 	lds	r24, 0x00B9	; 0x8000b9 <__TEXT_REGION_LENGTH__+0x7e00b9>
    1ff6:	80 31       	cpi	r24, 0x10	; 16
    1ff8:	81 f5       	brne	.+96     	; 0x205a <DrvTwiReadReg+0xc6>
    1ffa:	cc 0f       	add	r28, r28
    1ffc:	c1 60       	ori	r28, 0x01	; 1
    1ffe:	c0 93 bb 00 	sts	0x00BB, r28	; 0x8000bb <__TEXT_REGION_LENGTH__+0x7e00bb>
    2002:	84 e8       	ldi	r24, 0x84	; 132
    2004:	80 93 bc 00 	sts	0x00BC, r24	; 0x8000bc <__TEXT_REGION_LENGTH__+0x7e00bc>
    2008:	80 df       	rcall	.-256    	; 0x1f0a <DrvTwiWaitTransmission>
    200a:	80 91 b9 00 	lds	r24, 0x00B9	; 0x8000b9 <__TEXT_REGION_LENGTH__+0x7e00b9>
    200e:	80 34       	cpi	r24, 0x40	; 64
    2010:	31 f5       	brne	.+76     	; 0x205e <DrvTwiReadReg+0xca>
    2012:	84 e8       	ldi	r24, 0x84	; 132
    2014:	80 93 bc 00 	sts	0x00BC, r24	; 0x8000bc <__TEXT_REGION_LENGTH__+0x7e00bc>
    2018:	78 df       	rcall	.-272    	; 0x1f0a <DrvTwiWaitTransmission>
    201a:	80 91 b9 00 	lds	r24, 0x00B9	; 0x8000b9 <__TEXT_REGION_LENGTH__+0x7e00b9>
    201e:	88 35       	cpi	r24, 0x58	; 88
    2020:	01 f5       	brne	.+64     	; 0x2062 <DrvTwiReadReg+0xce>
    2022:	80 91 bb 00 	lds	r24, 0x00BB	; 0x8000bb <__TEXT_REGION_LENGTH__+0x7e00bb>
    2026:	f8 01       	movw	r30, r16
    2028:	80 83       	st	Z, r24
    202a:	84 e9       	ldi	r24, 0x94	; 148
    202c:	80 93 bc 00 	sts	0x00BC, r24	; 0x8000bc <__TEXT_REGION_LENGTH__+0x7e00bc>
    2030:	80 91 b9 00 	lds	r24, 0x00B9	; 0x8000b9 <__TEXT_REGION_LENGTH__+0x7e00b9>
    2034:	88 3f       	cpi	r24, 0xF8	; 248
    2036:	b9 f0       	breq	.+46     	; 0x2066 <DrvTwiReadReg+0xd2>
    2038:	80 91 5e 06 	lds	r24, 0x065E	; 0x80065e <errorsCount>
    203c:	90 91 5f 06 	lds	r25, 0x065F	; 0x80065f <errorsCount+0x1>
    2040:	01 96       	adiw	r24, 0x01	; 1
    2042:	90 93 5f 06 	sts	0x065F, r25	; 0x80065f <errorsCount+0x1>
    2046:	80 93 5e 06 	sts	0x065E, r24	; 0x80065e <errorsCount>
    204a:	80 e0       	ldi	r24, 0x00	; 0
    204c:	0d c0       	rjmp	.+26     	; 0x2068 <DrvTwiReadReg+0xd4>
    204e:	80 e0       	ldi	r24, 0x00	; 0
    2050:	0b c0       	rjmp	.+22     	; 0x2068 <DrvTwiReadReg+0xd4>
    2052:	80 e0       	ldi	r24, 0x00	; 0
    2054:	09 c0       	rjmp	.+18     	; 0x2068 <DrvTwiReadReg+0xd4>
    2056:	80 e0       	ldi	r24, 0x00	; 0
    2058:	07 c0       	rjmp	.+14     	; 0x2068 <DrvTwiReadReg+0xd4>
    205a:	80 e0       	ldi	r24, 0x00	; 0
    205c:	05 c0       	rjmp	.+10     	; 0x2068 <DrvTwiReadReg+0xd4>
    205e:	80 e0       	ldi	r24, 0x00	; 0
    2060:	03 c0       	rjmp	.+6      	; 0x2068 <DrvTwiReadReg+0xd4>
    2062:	80 e0       	ldi	r24, 0x00	; 0
    2064:	01 c0       	rjmp	.+2      	; 0x2068 <DrvTwiReadReg+0xd4>
    2066:	81 e0       	ldi	r24, 0x01	; 1
    2068:	df 91       	pop	r29
    206a:	cf 91       	pop	r28
    206c:	1f 91       	pop	r17
    206e:	0f 91       	pop	r16
    2070:	08 95       	ret

00002072 <DrvTwiWriteReg>:
    2072:	1f 93       	push	r17
    2074:	cf 93       	push	r28
    2076:	df 93       	push	r29
    2078:	c8 2f       	mov	r28, r24
    207a:	d6 2f       	mov	r29, r22
    207c:	14 2f       	mov	r17, r20
    207e:	84 ea       	ldi	r24, 0xA4	; 164
    2080:	80 93 bc 00 	sts	0x00BC, r24	; 0x8000bc <__TEXT_REGION_LENGTH__+0x7e00bc>
    2084:	42 df       	rcall	.-380    	; 0x1f0a <DrvTwiWaitTransmission>
    2086:	80 91 b9 00 	lds	r24, 0x00B9	; 0x8000b9 <__TEXT_REGION_LENGTH__+0x7e00b9>
    208a:	88 30       	cpi	r24, 0x08	; 8
    208c:	21 f0       	breq	.+8      	; 0x2096 <DrvTwiWriteReg+0x24>
    208e:	80 91 b9 00 	lds	r24, 0x00B9	; 0x8000b9 <__TEXT_REGION_LENGTH__+0x7e00b9>
    2092:	80 31       	cpi	r24, 0x10	; 16
    2094:	89 f5       	brne	.+98     	; 0x20f8 <DrvTwiWriteReg+0x86>
    2096:	cc 0f       	add	r28, r28
    2098:	c0 93 bb 00 	sts	0x00BB, r28	; 0x8000bb <__TEXT_REGION_LENGTH__+0x7e00bb>
    209c:	84 e8       	ldi	r24, 0x84	; 132
    209e:	80 93 bc 00 	sts	0x00BC, r24	; 0x8000bc <__TEXT_REGION_LENGTH__+0x7e00bc>
    20a2:	33 df       	rcall	.-410    	; 0x1f0a <DrvTwiWaitTransmission>
    20a4:	80 91 b9 00 	lds	r24, 0x00B9	; 0x8000b9 <__TEXT_REGION_LENGTH__+0x7e00b9>
    20a8:	88 31       	cpi	r24, 0x18	; 24
    20aa:	41 f5       	brne	.+80     	; 0x20fc <DrvTwiWriteReg+0x8a>
    20ac:	d0 93 bb 00 	sts	0x00BB, r29	; 0x8000bb <__TEXT_REGION_LENGTH__+0x7e00bb>
    20b0:	84 e8       	ldi	r24, 0x84	; 132
    20b2:	80 93 bc 00 	sts	0x00BC, r24	; 0x8000bc <__TEXT_REGION_LENGTH__+0x7e00bc>
    20b6:	29 df       	rcall	.-430    	; 0x1f0a <DrvTwiWaitTransmission>
    20b8:	80 91 b9 00 	lds	r24, 0x00B9	; 0x8000b9 <__TEXT_REGION_LENGTH__+0x7e00b9>
    20bc:	88 32       	cpi	r24, 0x28	; 40
    20be:	01 f5       	brne	.+64     	; 0x2100 <DrvTwiWriteReg+0x8e>
    20c0:	10 93 bb 00 	sts	0x00BB, r17	; 0x8000bb <__TEXT_REGION_LENGTH__+0x7e00bb>
    20c4:	84 e8       	ldi	r24, 0x84	; 132
    20c6:	80 93 bc 00 	sts	0x00BC, r24	; 0x8000bc <__TEXT_REGION_LENGTH__+0x7e00bc>
    20ca:	1f df       	rcall	.-450    	; 0x1f0a <DrvTwiWaitTransmission>
    20cc:	80 91 b9 00 	lds	r24, 0x00B9	; 0x8000b9 <__TEXT_REGION_LENGTH__+0x7e00b9>
    20d0:	88 32       	cpi	r24, 0x28	; 40
    20d2:	c1 f4       	brne	.+48     	; 0x2104 <DrvTwiWriteReg+0x92>
    20d4:	84 e9       	ldi	r24, 0x94	; 148
    20d6:	80 93 bc 00 	sts	0x00BC, r24	; 0x8000bc <__TEXT_REGION_LENGTH__+0x7e00bc>
    20da:	80 91 b9 00 	lds	r24, 0x00B9	; 0x8000b9 <__TEXT_REGION_LENGTH__+0x7e00b9>
    20de:	88 3f       	cpi	r24, 0xF8	; 248
    20e0:	99 f0       	breq	.+38     	; 0x2108 <DrvTwiWriteReg+0x96>
    20e2:	80 91 5e 06 	lds	r24, 0x065E	; 0x80065e <errorsCount>
    20e6:	90 91 5f 06 	lds	r25, 0x065F	; 0x80065f <errorsCount+0x1>
    20ea:	01 96       	adiw	r24, 0x01	; 1
    20ec:	90 93 5f 06 	sts	0x065F, r25	; 0x80065f <errorsCount+0x1>
    20f0:	80 93 5e 06 	sts	0x065E, r24	; 0x80065e <errorsCount>
    20f4:	80 e0       	ldi	r24, 0x00	; 0
    20f6:	09 c0       	rjmp	.+18     	; 0x210a <DrvTwiWriteReg+0x98>
    20f8:	80 e0       	ldi	r24, 0x00	; 0
    20fa:	07 c0       	rjmp	.+14     	; 0x210a <DrvTwiWriteReg+0x98>
    20fc:	80 e0       	ldi	r24, 0x00	; 0
    20fe:	05 c0       	rjmp	.+10     	; 0x210a <DrvTwiWriteReg+0x98>
    2100:	80 e0       	ldi	r24, 0x00	; 0
    2102:	03 c0       	rjmp	.+6      	; 0x210a <DrvTwiWriteReg+0x98>
    2104:	80 e0       	ldi	r24, 0x00	; 0
    2106:	01 c0       	rjmp	.+2      	; 0x210a <DrvTwiWriteReg+0x98>
    2108:	81 e0       	ldi	r24, 0x01	; 1
    210a:	df 91       	pop	r29
    210c:	cf 91       	pop	r28
    210e:	1f 91       	pop	r17
    2110:	08 95       	ret

00002112 <DrvTwiWriteRegBuf>:

/************************************************************************/
/*Write many registers                                                  */
/************************************************************************/
Boolean DrvTwiWriteRegBuf(Int8U slave_address, Int8U slave_register, Int8U *buffer, Int8U buffer_size)
{
    2112:	9f 92       	push	r9
    2114:	af 92       	push	r10
    2116:	bf 92       	push	r11
    2118:	cf 92       	push	r12
    211a:	df 92       	push	r13
    211c:	ef 92       	push	r14
    211e:	ff 92       	push	r15
    2120:	0f 93       	push	r16
    2122:	1f 93       	push	r17
    2124:	cf 93       	push	r28
    2126:	df 93       	push	r29
    2128:	c8 2f       	mov	r28, r24
    212a:	f6 2e       	mov	r15, r22
    212c:	8a 01       	movw	r16, r20
    212e:	d2 2f       	mov	r29, r18
	Boolean o_success = TRUE;
	
	TWCR = (1U<<TWINT)|(1U<<TWSTA)|(1U<<TWEN);           // SEND START
    2130:	84 ea       	ldi	r24, 0xA4	; 164
    2132:	80 93 bc 00 	sts	0x00BC, r24	; 0x8000bc <__TEXT_REGION_LENGTH__+0x7e00bc>
	DrvTwiWaitTransmission();
    2136:	e9 de       	rcall	.-558    	; 0x1f0a <DrvTwiWaitTransmission>

	if  ( ((TWSR==TW_START) || (TWSR==TW_REP_START)) )
    2138:	80 91 b9 00 	lds	r24, 0x00B9	; 0x8000b9 <__TEXT_REGION_LENGTH__+0x7e00b9>
    213c:	88 30       	cpi	r24, 0x08	; 8
    213e:	29 f0       	breq	.+10     	; 0x214a <DrvTwiWriteRegBuf+0x38>
    2140:	80 91 b9 00 	lds	r24, 0x00B9	; 0x8000b9 <__TEXT_REGION_LENGTH__+0x7e00b9>
    2144:	80 31       	cpi	r24, 0x10	; 16
    2146:	09 f0       	breq	.+2      	; 0x214a <DrvTwiWriteRegBuf+0x38>
    2148:	51 c0       	rjmp	.+162    	; 0x21ec <DrvTwiWriteRegBuf+0xda>
	{
		//send slave address
		TWDR =  (slave_address << 1 ) | TW_WRITE;
    214a:	cc 0f       	add	r28, r28
    214c:	c0 93 bb 00 	sts	0x00BB, r28	; 0x8000bb <__TEXT_REGION_LENGTH__+0x7e00bb>
		TWCR = (1U << TWINT) | (1U << TWEN);
    2150:	84 e8       	ldi	r24, 0x84	; 132
    2152:	80 93 bc 00 	sts	0x00BC, r24	; 0x8000bc <__TEXT_REGION_LENGTH__+0x7e00bc>
		DrvTwiWaitTransmission();
    2156:	d9 de       	rcall	.-590    	; 0x1f0a <DrvTwiWaitTransmission>
		if ( (TWSR==TW_MT_SLA_ACK) )
    2158:	80 91 b9 00 	lds	r24, 0x00B9	; 0x8000b9 <__TEXT_REGION_LENGTH__+0x7e00b9>
    215c:	88 31       	cpi	r24, 0x18	; 24
    215e:	09 f0       	breq	.+2      	; 0x2162 <DrvTwiWriteRegBuf+0x50>
    2160:	47 c0       	rjmp	.+142    	; 0x21f0 <DrvTwiWriteRegBuf+0xde>
		{
			//send register address
			TWDR = slave_register;
    2162:	f0 92 bb 00 	sts	0x00BB, r15	; 0x8000bb <__TEXT_REGION_LENGTH__+0x7e00bb>
			TWCR = (1U<<TWINT) | (1U<<TWEN);
    2166:	84 e8       	ldi	r24, 0x84	; 132
    2168:	80 93 bc 00 	sts	0x00BC, r24	; 0x8000bc <__TEXT_REGION_LENGTH__+0x7e00bc>
			DrvTwiWaitTransmission();
    216c:	ce de       	rcall	.-612    	; 0x1f0a <DrvTwiWaitTransmission>
			if ( (TWSR==TW_MT_DATA_ACK) )
    216e:	80 91 b9 00 	lds	r24, 0x00B9	; 0x8000b9 <__TEXT_REGION_LENGTH__+0x7e00b9>
    2172:	88 32       	cpi	r24, 0x28	; 40
    2174:	09 f0       	breq	.+2      	; 0x2178 <DrvTwiWriteRegBuf+0x66>
    2176:	3e c0       	rjmp	.+124    	; 0x21f4 <DrvTwiWriteRegBuf+0xe2>
			{
				for ( Int8U loop_write_twi = 0 ; loop_write_twi < buffer_size; loop_write_twi++ )
    2178:	dd 23       	and	r29, r29
    217a:	99 f1       	breq	.+102    	; 0x21e2 <DrvTwiWriteRegBuf+0xd0>
    217c:	78 01       	movw	r14, r16
    217e:	d1 50       	subi	r29, 0x01	; 1
    2180:	cd 2f       	mov	r28, r29
    2182:	d0 e0       	ldi	r29, 0x00	; 0
    2184:	21 96       	adiw	r28, 0x01	; 1
    2186:	c0 0f       	add	r28, r16
    2188:	d1 1f       	adc	r29, r17
				{
					TWDR =  *buffer++;                                     // DATA TO WRITE
    218a:	0f 2e       	mov	r0, r31
    218c:	fb eb       	ldi	r31, 0xBB	; 187
    218e:	af 2e       	mov	r10, r31
    2190:	b1 2c       	mov	r11, r1
    2192:	f0 2d       	mov	r31, r0
					TWCR = (1U<<TWINT) | (1U<<TWEN);                       // send clock
    2194:	0f 2e       	mov	r0, r31
    2196:	fc eb       	ldi	r31, 0xBC	; 188
    2198:	cf 2e       	mov	r12, r31
    219a:	d1 2c       	mov	r13, r1
    219c:	f0 2d       	mov	r31, r0
    219e:	0f 2e       	mov	r0, r31
    21a0:	f4 e8       	ldi	r31, 0x84	; 132
    21a2:	9f 2e       	mov	r9, r31
    21a4:	f0 2d       	mov	r31, r0
					DrvTwiWaitTransmission();
					
					if ( (TWSR!=TW_MT_DATA_ACK) )  
    21a6:	09 eb       	ldi	r16, 0xB9	; 185
    21a8:	10 e0       	ldi	r17, 0x00	; 0
			DrvTwiWaitTransmission();
			if ( (TWSR==TW_MT_DATA_ACK) )
			{
				for ( Int8U loop_write_twi = 0 ; loop_write_twi < buffer_size; loop_write_twi++ )
				{
					TWDR =  *buffer++;                                     // DATA TO WRITE
    21aa:	f7 01       	movw	r30, r14
    21ac:	81 91       	ld	r24, Z+
    21ae:	7f 01       	movw	r14, r30
    21b0:	f5 01       	movw	r30, r10
					TWCR = (1U<<TWINT) | (1U<<TWEN);                       // send clock
    21b2:	80 83       	st	Z, r24
    21b4:	f6 01       	movw	r30, r12
					DrvTwiWaitTransmission();
    21b6:	90 82       	st	Z, r9
    21b8:	a8 de       	rcall	.-688    	; 0x1f0a <DrvTwiWaitTransmission>
					
					if ( (TWSR!=TW_MT_DATA_ACK) )  
    21ba:	f8 01       	movw	r30, r16
    21bc:	80 81       	ld	r24, Z
    21be:	88 32       	cpi	r24, 0x28	; 40
    21c0:	59 f0       	breq	.+22     	; 0x21d8 <DrvTwiWriteRegBuf+0xc6>
					{
						o_success = FALSE;
						errorsCount++;
    21c2:	80 91 5e 06 	lds	r24, 0x065E	; 0x80065e <errorsCount>
    21c6:	90 91 5f 06 	lds	r25, 0x065F	; 0x80065f <errorsCount+0x1>
    21ca:	01 96       	adiw	r24, 0x01	; 1
    21cc:	90 93 5f 06 	sts	0x065F, r25	; 0x80065f <errorsCount+0x1>
    21d0:	80 93 5e 06 	sts	0x065E, r24	; 0x80065e <errorsCount>
					TWCR = (1U<<TWINT) | (1U<<TWEN);                       // send clock
					DrvTwiWaitTransmission();
					
					if ( (TWSR!=TW_MT_DATA_ACK) )  
					{
						o_success = FALSE;
    21d4:	80 e0       	ldi	r24, 0x00	; 0
						errorsCount++;
						break;
    21d6:	06 c0       	rjmp	.+12     	; 0x21e4 <DrvTwiWriteRegBuf+0xd2>
			TWDR = slave_register;
			TWCR = (1U<<TWINT) | (1U<<TWEN);
			DrvTwiWaitTransmission();
			if ( (TWSR==TW_MT_DATA_ACK) )
			{
				for ( Int8U loop_write_twi = 0 ; loop_write_twi < buffer_size; loop_write_twi++ )
    21d8:	ce 15       	cp	r28, r14
    21da:	df 05       	cpc	r29, r15
    21dc:	31 f7       	brne	.-52     	; 0x21aa <DrvTwiWriteRegBuf+0x98>
/************************************************************************/
/*Write many registers                                                  */
/************************************************************************/
Boolean DrvTwiWriteRegBuf(Int8U slave_address, Int8U slave_register, Int8U *buffer, Int8U buffer_size)
{
	Boolean o_success = TRUE;
    21de:	81 e0       	ldi	r24, 0x01	; 1
    21e0:	01 c0       	rjmp	.+2      	; 0x21e4 <DrvTwiWriteRegBuf+0xd2>
    21e2:	81 e0       	ldi	r24, 0x01	; 1
						o_success = FALSE;
						errorsCount++;
						break;
					}
				}
				TWCR = (1U<<TWINT) | (1U<<TWEN)| (1U<<TWSTO);       // send stop
    21e4:	94 e9       	ldi	r25, 0x94	; 148
    21e6:	90 93 bc 00 	sts	0x00BC, r25	; 0x8000bc <__TEXT_REGION_LENGTH__+0x7e00bc>
    21ea:	05 c0       	rjmp	.+10     	; 0x21f6 <DrvTwiWriteRegBuf+0xe4>
/************************************************************************/
/*Write many registers                                                  */
/************************************************************************/
Boolean DrvTwiWriteRegBuf(Int8U slave_address, Int8U slave_register, Int8U *buffer, Int8U buffer_size)
{
	Boolean o_success = TRUE;
    21ec:	81 e0       	ldi	r24, 0x01	; 1
    21ee:	03 c0       	rjmp	.+6      	; 0x21f6 <DrvTwiWriteRegBuf+0xe4>
    21f0:	81 e0       	ldi	r24, 0x01	; 1
    21f2:	01 c0       	rjmp	.+2      	; 0x21f6 <DrvTwiWriteRegBuf+0xe4>
    21f4:	81 e0       	ldi	r24, 0x01	; 1
				TWCR = (1U<<TWINT) | (1U<<TWEN)| (1U<<TWSTO);       // send stop
			}
		}
	}
	return o_success;
}
    21f6:	df 91       	pop	r29
    21f8:	cf 91       	pop	r28
    21fa:	1f 91       	pop	r17
    21fc:	0f 91       	pop	r16
    21fe:	ff 90       	pop	r15
    2200:	ef 90       	pop	r14
    2202:	df 90       	pop	r13
    2204:	cf 90       	pop	r12
    2206:	bf 90       	pop	r11
    2208:	af 90       	pop	r10
    220a:	9f 90       	pop	r9
    220c:	08 95       	ret

0000220e <DrvTwiFillRegBuf>:

/************************************************************************/
/*write many register with same data                                    */
/************************************************************************/
Boolean DrvTwiFillRegBuf(Int8U slave_address, Int8U slave_register, Int8U data, Int8U buffer_size) 
{
    220e:	af 92       	push	r10
    2210:	bf 92       	push	r11
    2212:	cf 92       	push	r12
    2214:	df 92       	push	r13
    2216:	ef 92       	push	r14
    2218:	ff 92       	push	r15
    221a:	0f 93       	push	r16
    221c:	1f 93       	push	r17
    221e:	cf 93       	push	r28
    2220:	df 93       	push	r29
    2222:	c8 2f       	mov	r28, r24
    2224:	06 2f       	mov	r16, r22
    2226:	14 2f       	mov	r17, r20
    2228:	d2 2f       	mov	r29, r18
	Boolean o_success = TRUE;
	
	TWCR = (1U<<TWINT)|(1U<<TWSTA)|(1U<<TWEN);           // SEND START
    222a:	84 ea       	ldi	r24, 0xA4	; 164
    222c:	80 93 bc 00 	sts	0x00BC, r24	; 0x8000bc <__TEXT_REGION_LENGTH__+0x7e00bc>
	DrvTwiWaitTransmission();
    2230:	6c de       	rcall	.-808    	; 0x1f0a <DrvTwiWaitTransmission>

	if  ( ((TWSR==TW_START) || (TWSR==TW_REP_START)) )
    2232:	80 91 b9 00 	lds	r24, 0x00B9	; 0x8000b9 <__TEXT_REGION_LENGTH__+0x7e00b9>
    2236:	88 30       	cpi	r24, 0x08	; 8
    2238:	29 f0       	breq	.+10     	; 0x2244 <DrvTwiFillRegBuf+0x36>
    223a:	80 91 b9 00 	lds	r24, 0x00B9	; 0x8000b9 <__TEXT_REGION_LENGTH__+0x7e00b9>
    223e:	80 31       	cpi	r24, 0x10	; 16
    2240:	09 f0       	breq	.+2      	; 0x2244 <DrvTwiFillRegBuf+0x36>
    2242:	47 c0       	rjmp	.+142    	; 0x22d2 <DrvTwiFillRegBuf+0xc4>
	{
		//send slave address
		TWDR =  (slave_address << 1 ) | TW_WRITE;
    2244:	cc 0f       	add	r28, r28
    2246:	c0 93 bb 00 	sts	0x00BB, r28	; 0x8000bb <__TEXT_REGION_LENGTH__+0x7e00bb>
		TWCR = (1U << TWINT) | (1U << TWEN);
    224a:	84 e8       	ldi	r24, 0x84	; 132
    224c:	80 93 bc 00 	sts	0x00BC, r24	; 0x8000bc <__TEXT_REGION_LENGTH__+0x7e00bc>
		DrvTwiWaitTransmission();
    2250:	5c de       	rcall	.-840    	; 0x1f0a <DrvTwiWaitTransmission>
		if ( (TWSR==TW_MT_SLA_ACK) )
    2252:	80 91 b9 00 	lds	r24, 0x00B9	; 0x8000b9 <__TEXT_REGION_LENGTH__+0x7e00b9>
    2256:	88 31       	cpi	r24, 0x18	; 24
    2258:	09 f0       	breq	.+2      	; 0x225c <DrvTwiFillRegBuf+0x4e>
    225a:	3d c0       	rjmp	.+122    	; 0x22d6 <DrvTwiFillRegBuf+0xc8>
		{
			//send register address
			TWDR = slave_register;
    225c:	00 93 bb 00 	sts	0x00BB, r16	; 0x8000bb <__TEXT_REGION_LENGTH__+0x7e00bb>
			TWCR = (1U<<TWINT) | (1U<<TWEN);
    2260:	84 e8       	ldi	r24, 0x84	; 132
    2262:	80 93 bc 00 	sts	0x00BC, r24	; 0x8000bc <__TEXT_REGION_LENGTH__+0x7e00bc>
			DrvTwiWaitTransmission();
    2266:	51 de       	rcall	.-862    	; 0x1f0a <DrvTwiWaitTransmission>
			if ( (TWSR==TW_MT_DATA_ACK) )
    2268:	80 91 b9 00 	lds	r24, 0x00B9	; 0x8000b9 <__TEXT_REGION_LENGTH__+0x7e00b9>
    226c:	88 32       	cpi	r24, 0x28	; 40
    226e:	a9 f5       	brne	.+106    	; 0x22da <DrvTwiFillRegBuf+0xcc>
			{
				for ( Int8U loop_write_twi = 0 ; loop_write_twi < buffer_size; loop_write_twi++ )
    2270:	dd 23       	and	r29, r29
    2272:	51 f1       	breq	.+84     	; 0x22c8 <DrvTwiFillRegBuf+0xba>
    2274:	c0 e0       	ldi	r28, 0x00	; 0
				{
					TWDR =  data;                                     // DATA TO WRITE
    2276:	0f 2e       	mov	r0, r31
    2278:	fb eb       	ldi	r31, 0xBB	; 187
    227a:	af 2e       	mov	r10, r31
    227c:	b1 2c       	mov	r11, r1
    227e:	f0 2d       	mov	r31, r0
					TWCR = (1U<<TWINT) | (1U<<TWEN);                       // send clock
    2280:	0f 2e       	mov	r0, r31
    2282:	fc eb       	ldi	r31, 0xBC	; 188
    2284:	cf 2e       	mov	r12, r31
    2286:	d1 2c       	mov	r13, r1
    2288:	f0 2d       	mov	r31, r0
    228a:	04 e8       	ldi	r16, 0x84	; 132
					DrvTwiWaitTransmission();
					
					if ( (TWSR!=TW_MT_DATA_ACK) )
    228c:	0f 2e       	mov	r0, r31
    228e:	f9 eb       	ldi	r31, 0xB9	; 185
    2290:	ef 2e       	mov	r14, r31
    2292:	f1 2c       	mov	r15, r1
    2294:	f0 2d       	mov	r31, r0
			DrvTwiWaitTransmission();
			if ( (TWSR==TW_MT_DATA_ACK) )
			{
				for ( Int8U loop_write_twi = 0 ; loop_write_twi < buffer_size; loop_write_twi++ )
				{
					TWDR =  data;                                     // DATA TO WRITE
    2296:	f5 01       	movw	r30, r10
					TWCR = (1U<<TWINT) | (1U<<TWEN);                       // send clock
    2298:	10 83       	st	Z, r17
    229a:	f6 01       	movw	r30, r12
					DrvTwiWaitTransmission();
    229c:	00 83       	st	Z, r16
    229e:	35 de       	rcall	.-918    	; 0x1f0a <DrvTwiWaitTransmission>
					
					if ( (TWSR!=TW_MT_DATA_ACK) )
    22a0:	f7 01       	movw	r30, r14
    22a2:	80 81       	ld	r24, Z
    22a4:	88 32       	cpi	r24, 0x28	; 40
    22a6:	59 f0       	breq	.+22     	; 0x22be <DrvTwiFillRegBuf+0xb0>
					{
						o_success = FALSE;
						errorsCount++;
    22a8:	80 91 5e 06 	lds	r24, 0x065E	; 0x80065e <errorsCount>
    22ac:	90 91 5f 06 	lds	r25, 0x065F	; 0x80065f <errorsCount+0x1>
    22b0:	01 96       	adiw	r24, 0x01	; 1
    22b2:	90 93 5f 06 	sts	0x065F, r25	; 0x80065f <errorsCount+0x1>
    22b6:	80 93 5e 06 	sts	0x065E, r24	; 0x80065e <errorsCount>
					TWCR = (1U<<TWINT) | (1U<<TWEN);                       // send clock
					DrvTwiWaitTransmission();
					
					if ( (TWSR!=TW_MT_DATA_ACK) )
					{
						o_success = FALSE;
    22ba:	80 e0       	ldi	r24, 0x00	; 0
						errorsCount++;
						break;
    22bc:	06 c0       	rjmp	.+12     	; 0x22ca <DrvTwiFillRegBuf+0xbc>
			TWDR = slave_register;
			TWCR = (1U<<TWINT) | (1U<<TWEN);
			DrvTwiWaitTransmission();
			if ( (TWSR==TW_MT_DATA_ACK) )
			{
				for ( Int8U loop_write_twi = 0 ; loop_write_twi < buffer_size; loop_write_twi++ )
    22be:	cf 5f       	subi	r28, 0xFF	; 255
    22c0:	dc 13       	cpse	r29, r28
    22c2:	e9 cf       	rjmp	.-46     	; 0x2296 <DrvTwiFillRegBuf+0x88>
/************************************************************************/
/*write many register with same data                                    */
/************************************************************************/
Boolean DrvTwiFillRegBuf(Int8U slave_address, Int8U slave_register, Int8U data, Int8U buffer_size) 
{
	Boolean o_success = TRUE;
    22c4:	81 e0       	ldi	r24, 0x01	; 1
    22c6:	01 c0       	rjmp	.+2      	; 0x22ca <DrvTwiFillRegBuf+0xbc>
    22c8:	81 e0       	ldi	r24, 0x01	; 1
						o_success = FALSE;
						errorsCount++;
						break;
					}
				}
				TWCR = (1U<<TWINT) | (1U<<TWEN)| (1U<<TWSTO);       // send stop
    22ca:	94 e9       	ldi	r25, 0x94	; 148
    22cc:	90 93 bc 00 	sts	0x00BC, r25	; 0x8000bc <__TEXT_REGION_LENGTH__+0x7e00bc>
    22d0:	05 c0       	rjmp	.+10     	; 0x22dc <DrvTwiFillRegBuf+0xce>
/************************************************************************/
/*write many register with same data                                    */
/************************************************************************/
Boolean DrvTwiFillRegBuf(Int8U slave_address, Int8U slave_register, Int8U data, Int8U buffer_size) 
{
	Boolean o_success = TRUE;
    22d2:	81 e0       	ldi	r24, 0x01	; 1
    22d4:	03 c0       	rjmp	.+6      	; 0x22dc <DrvTwiFillRegBuf+0xce>
    22d6:	81 e0       	ldi	r24, 0x01	; 1
    22d8:	01 c0       	rjmp	.+2      	; 0x22dc <DrvTwiFillRegBuf+0xce>
    22da:	81 e0       	ldi	r24, 0x01	; 1
				TWCR = (1U<<TWINT) | (1U<<TWEN)| (1U<<TWSTO);       // send stop
			}
		}
	}
	return o_success;
}
    22dc:	df 91       	pop	r29
    22de:	cf 91       	pop	r28
    22e0:	1f 91       	pop	r17
    22e2:	0f 91       	pop	r16
    22e4:	ff 90       	pop	r15
    22e6:	ef 90       	pop	r14
    22e8:	df 90       	pop	r13
    22ea:	cf 90       	pop	r12
    22ec:	bf 90       	pop	r11
    22ee:	af 90       	pop	r10
    22f0:	08 95       	ret

000022f2 <DrvUartInit>:

Int8U DrvUartDataUsedTXBuff(Int8U indexUart) 
{
	Int8U nbDataUsed = uartRingBuffer[indexUart].Tx.Head - uartRingBuffer[indexUart].Tx.Tail;
	return nbDataUsed%MAX_BUFFER;
}
    22f2:	65 30       	cpi	r22, 0x05	; 5
    22f4:	00 f5       	brcc	.+64     	; 0x2336 <DrvUartInit+0x44>
    22f6:	81 11       	cpse	r24, r1
    22f8:	20 c0       	rjmp	.+64     	; 0x233a <DrvUartInit+0x48>
    22fa:	8a e0       	ldi	r24, 0x0A	; 10
    22fc:	90 e0       	ldi	r25, 0x00	; 0
    22fe:	90 93 c5 00 	sts	0x00C5, r25	; 0x8000c5 <__TEXT_REGION_LENGTH__+0x7e00c5>
    2302:	80 93 c4 00 	sts	0x00C4, r24	; 0x8000c4 <__TEXT_REGION_LENGTH__+0x7e00c4>
    2306:	e1 ec       	ldi	r30, 0xC1	; 193
    2308:	f0 e0       	ldi	r31, 0x00	; 0
    230a:	80 81       	ld	r24, Z
    230c:	80 61       	ori	r24, 0x10	; 16
    230e:	80 83       	st	Z, r24
    2310:	80 81       	ld	r24, Z
    2312:	88 60       	ori	r24, 0x08	; 8
    2314:	80 83       	st	Z, r24
    2316:	a2 ec       	ldi	r26, 0xC2	; 194
    2318:	b0 e0       	ldi	r27, 0x00	; 0
    231a:	8c 91       	ld	r24, X
    231c:	82 60       	ori	r24, 0x02	; 2
    231e:	8c 93       	st	X, r24
    2320:	80 81       	ld	r24, Z
    2322:	8f 7b       	andi	r24, 0xBF	; 191
    2324:	80 83       	st	Z, r24
    2326:	80 81       	ld	r24, Z
    2328:	8f 7d       	andi	r24, 0xDF	; 223
    232a:	80 83       	st	Z, r24
    232c:	80 81       	ld	r24, Z
    232e:	80 68       	ori	r24, 0x80	; 128
    2330:	80 83       	st	Z, r24
    2332:	81 e0       	ldi	r24, 0x01	; 1
    2334:	08 95       	ret
    2336:	80 e0       	ldi	r24, 0x00	; 0
    2338:	08 95       	ret
    233a:	80 e0       	ldi	r24, 0x00	; 0
    233c:	08 95       	ret

0000233e <DrvUartFillTxBuffer>:
    233e:	90 e0       	ldi	r25, 0x00	; 0
    2340:	fc 01       	movw	r30, r24
    2342:	fe 2f       	mov	r31, r30
    2344:	ee 27       	eor	r30, r30
    2346:	ff 0f       	add	r31, r31
    2348:	e0 5a       	subi	r30, 0xA0	; 160
    234a:	f8 4f       	sbci	r31, 0xF8	; 248
    234c:	20 81       	ld	r18, Z
    234e:	30 e0       	ldi	r19, 0x00	; 0
    2350:	2f 5f       	subi	r18, 0xFF	; 255
    2352:	3f 4f       	sbci	r19, 0xFF	; 255
    2354:	2e 3f       	cpi	r18, 0xFE	; 254
    2356:	31 05       	cpc	r19, r1
    2358:	10 f0       	brcs	.+4      	; 0x235e <DrvUartFillTxBuffer+0x20>
    235a:	20 e0       	ldi	r18, 0x00	; 0
    235c:	30 e0       	ldi	r19, 0x00	; 0
    235e:	98 2f       	mov	r25, r24
    2360:	88 27       	eor	r24, r24
    2362:	99 0f       	add	r25, r25
    2364:	80 5a       	subi	r24, 0xA0	; 160
    2366:	99 4f       	sbci	r25, 0xF9	; 249
    2368:	fc 01       	movw	r30, r24
    236a:	e2 0f       	add	r30, r18
    236c:	f3 1f       	adc	r31, r19
    236e:	ee 5f       	subi	r30, 0xFE	; 254
    2370:	fe 4f       	sbci	r31, 0xFE	; 254
    2372:	60 83       	st	Z, r22
    2374:	fc 01       	movw	r30, r24
    2376:	f3 95       	inc	r31
    2378:	20 83       	st	Z, r18
    237a:	81 e0       	ldi	r24, 0x01	; 1
    237c:	08 95       	ret

0000237e <DrvUartSendData>:
    237e:	81 11       	cpse	r24, r1
    2380:	07 c0       	rjmp	.+14     	; 0x2390 <DrvUartSendData+0x12>
    2382:	e1 ec       	ldi	r30, 0xC1	; 193
    2384:	f0 e0       	ldi	r31, 0x00	; 0
    2386:	80 81       	ld	r24, Z
    2388:	80 62       	ori	r24, 0x20	; 32
    238a:	80 83       	st	Z, r24
    238c:	81 e0       	ldi	r24, 0x01	; 1
    238e:	08 95       	ret
    2390:	80 e0       	ldi	r24, 0x00	; 0
    2392:	08 95       	ret

00002394 <DrvUartReadData>:
    2394:	48 2f       	mov	r20, r24
    2396:	50 e0       	ldi	r21, 0x00	; 0
    2398:	fa 01       	movw	r30, r20
    239a:	fe 2f       	mov	r31, r30
    239c:	ee 27       	eor	r30, r30
    239e:	ff 0f       	add	r31, r31
    23a0:	e0 5a       	subi	r30, 0xA0	; 160
    23a2:	f9 4f       	sbci	r31, 0xF9	; 249
    23a4:	21 81       	ldd	r18, Z+1	; 0x01
    23a6:	30 e0       	ldi	r19, 0x00	; 0
    23a8:	df 01       	movw	r26, r30
    23aa:	a2 0f       	add	r26, r18
    23ac:	b3 1f       	adc	r27, r19
    23ae:	12 96       	adiw	r26, 0x02	; 2
    23b0:	8c 91       	ld	r24, X
    23b2:	60 81       	ld	r22, Z
    23b4:	70 e0       	ldi	r23, 0x00	; 0
    23b6:	26 17       	cp	r18, r22
    23b8:	37 07       	cpc	r19, r23
    23ba:	71 f0       	breq	.+28     	; 0x23d8 <DrvUartReadData+0x44>
    23bc:	2f 5f       	subi	r18, 0xFF	; 255
    23be:	3f 4f       	sbci	r19, 0xFF	; 255
    23c0:	2e 3f       	cpi	r18, 0xFE	; 254
    23c2:	31 05       	cpc	r19, r1
    23c4:	10 f0       	brcs	.+4      	; 0x23ca <DrvUartReadData+0x36>
    23c6:	20 e0       	ldi	r18, 0x00	; 0
    23c8:	30 e0       	ldi	r19, 0x00	; 0
    23ca:	54 2f       	mov	r21, r20
    23cc:	44 27       	eor	r20, r20
    23ce:	55 0f       	add	r21, r21
    23d0:	fa 01       	movw	r30, r20
    23d2:	e0 5a       	subi	r30, 0xA0	; 160
    23d4:	f9 4f       	sbci	r31, 0xF9	; 249
    23d6:	21 83       	std	Z+1, r18	; 0x01
    23d8:	08 95       	ret

000023da <DrvUartDataAvailable>:
    23da:	e8 2f       	mov	r30, r24
    23dc:	f0 e0       	ldi	r31, 0x00	; 0
    23de:	fe 2f       	mov	r31, r30
    23e0:	ee 27       	eor	r30, r30
    23e2:	ff 0f       	add	r31, r31
    23e4:	e0 5a       	subi	r30, 0xA0	; 160
    23e6:	f9 4f       	sbci	r31, 0xF9	; 249
    23e8:	90 81       	ld	r25, Z
    23ea:	81 81       	ldd	r24, Z+1	; 0x01
    23ec:	98 1b       	sub	r25, r24
    23ee:	81 e0       	ldi	r24, 0x01	; 1
    23f0:	9e 3f       	cpi	r25, 0xFE	; 254
    23f2:	08 f4       	brcc	.+2      	; 0x23f6 <DrvUartDataAvailable+0x1c>
    23f4:	80 e0       	ldi	r24, 0x00	; 0
    23f6:	88 0f       	add	r24, r24
    23f8:	89 0f       	add	r24, r25
    23fa:	08 95       	ret

000023fc <__vector_20>:
	ISR(USART0_RX_vect)
#endif
#ifdef USART_RX_vect
	ISR(USART_RX_vect)
#endif
{
    23fc:	1f 92       	push	r1
    23fe:	0f 92       	push	r0
    2400:	0f b6       	in	r0, 0x3f	; 63
    2402:	0f 92       	push	r0
    2404:	11 24       	eor	r1, r1
    2406:	0b b6       	in	r0, 0x3b	; 59
    2408:	0f 92       	push	r0
    240a:	8f 93       	push	r24
    240c:	9f 93       	push	r25
    240e:	ef 93       	push	r30
    2410:	ff 93       	push	r31
	Int8U head = uartRingBuffer[E_UART_0].Rx.Head;
    2412:	e0 91 60 06 	lds	r30, 0x0660	; 0x800660 <uartRingBuffer>
	uartRingBuffer[E_UART_0].Rx.Buffer[head++] = UDR0;
    2416:	81 e0       	ldi	r24, 0x01	; 1
    2418:	8e 0f       	add	r24, r30
    241a:	f0 e0       	ldi	r31, 0x00	; 0
    241c:	90 91 c6 00 	lds	r25, 0x00C6	; 0x8000c6 <__TEXT_REGION_LENGTH__+0x7e00c6>
    2420:	e0 5a       	subi	r30, 0xA0	; 160
    2422:	f9 4f       	sbci	r31, 0xF9	; 249
    2424:	92 83       	std	Z+2, r25	; 0x02
	if (head >= MAX_BUFFER)
    2426:	8e 3f       	cpi	r24, 0xFE	; 254
    2428:	08 f0       	brcs	.+2      	; 0x242c <__vector_20+0x30>
	{
		head = 0U;
    242a:	80 e0       	ldi	r24, 0x00	; 0
	}
	uartRingBuffer[E_UART_0].Rx.Head = head;
    242c:	80 93 60 06 	sts	0x0660, r24	; 0x800660 <uartRingBuffer>
}
    2430:	ff 91       	pop	r31
    2432:	ef 91       	pop	r30
    2434:	9f 91       	pop	r25
    2436:	8f 91       	pop	r24
    2438:	0f 90       	pop	r0
    243a:	0b be       	out	0x3b, r0	; 59
    243c:	0f 90       	pop	r0
    243e:	0f be       	out	0x3f, r0	; 63
    2440:	0f 90       	pop	r0
    2442:	1f 90       	pop	r1
    2444:	18 95       	reti

00002446 <__vector_21>:
ISR(USART_UDRE_vect)
#endif
#ifdef USART0_UDRE_vect
ISR(USART0_UDRE_vect)
#endif
{
    2446:	1f 92       	push	r1
    2448:	0f 92       	push	r0
    244a:	0f b6       	in	r0, 0x3f	; 63
    244c:	0f 92       	push	r0
    244e:	11 24       	eor	r1, r1
    2450:	0b b6       	in	r0, 0x3b	; 59
    2452:	0f 92       	push	r0
    2454:	8f 93       	push	r24
    2456:	9f 93       	push	r25
    2458:	ef 93       	push	r30
    245a:	ff 93       	push	r31
	Int8U tail = uartRingBuffer[E_UART_0].Tx.Tail;
    245c:	90 91 61 07 	lds	r25, 0x0761	; 0x800761 <uartRingBuffer+0x101>
	if (uartRingBuffer[E_UART_0].Tx.Head != tail)
    2460:	80 91 60 07 	lds	r24, 0x0760	; 0x800760 <uartRingBuffer+0x100>
    2464:	98 17       	cp	r25, r24
    2466:	71 f0       	breq	.+28     	; 0x2484 <__vector_21+0x3e>
	{
		if (++tail >= MAX_BUFFER)
    2468:	81 e0       	ldi	r24, 0x01	; 1
    246a:	89 0f       	add	r24, r25
    246c:	8e 3f       	cpi	r24, 0xFE	; 254
    246e:	08 f0       	brcs	.+2      	; 0x2472 <__vector_21+0x2c>
		{
			tail = 0U;
    2470:	80 e0       	ldi	r24, 0x00	; 0
		}
		UDR0 = uartRingBuffer[E_UART_0].Tx.Buffer[tail];
    2472:	e8 2f       	mov	r30, r24
    2474:	f0 e0       	ldi	r31, 0x00	; 0
    2476:	ee 59       	subi	r30, 0x9E	; 158
    2478:	f8 4f       	sbci	r31, 0xF8	; 248
    247a:	90 81       	ld	r25, Z
    247c:	90 93 c6 00 	sts	0x00C6, r25	; 0x8000c6 <__TEXT_REGION_LENGTH__+0x7e00c6>
		uartRingBuffer[E_UART_0].Tx.Tail = tail;
    2480:	80 93 61 07 	sts	0x0761, r24	; 0x800761 <uartRingBuffer+0x101>
	}
	if (tail == uartRingBuffer[E_UART_0].Tx.Head)
    2484:	90 91 60 07 	lds	r25, 0x0760	; 0x800760 <uartRingBuffer+0x100>
    2488:	89 13       	cpse	r24, r25
    248a:	05 c0       	rjmp	.+10     	; 0x2496 <__vector_21+0x50>
	{
		BIT_LOW(UCSR0B,UDRIE0);
    248c:	e1 ec       	ldi	r30, 0xC1	; 193
    248e:	f0 e0       	ldi	r31, 0x00	; 0
    2490:	80 81       	ld	r24, Z
    2492:	8f 7d       	andi	r24, 0xDF	; 223
    2494:	80 83       	st	Z, r24
	}
}
    2496:	ff 91       	pop	r31
    2498:	ef 91       	pop	r30
    249a:	9f 91       	pop	r25
    249c:	8f 91       	pop	r24
    249e:	0f 90       	pop	r0
    24a0:	0b be       	out	0x3b, r0	; 59
    24a2:	0f 90       	pop	r0
    24a4:	0f be       	out	0x3f, r0	; 63
    24a6:	0f 90       	pop	r0
    24a8:	1f 90       	pop	r1
    24aa:	18 95       	reti

000024ac <__vector_22>:
ISR(USART_TX_vect)
#endif
#ifdef USART0_TX_vect
ISR(USART0_TX_vect)
#endif
{
    24ac:	1f 92       	push	r1
    24ae:	0f 92       	push	r0
    24b0:	0f b6       	in	r0, 0x3f	; 63
    24b2:	0f 92       	push	r0
    24b4:	11 24       	eor	r1, r1

}
    24b6:	0f 90       	pop	r0
    24b8:	0f be       	out	0x3f, r0	; 63
    24ba:	0f 90       	pop	r0
    24bc:	1f 90       	pop	r1
    24be:	18 95       	reti

000024c0 <__vector_28>:
#endif // UART_1_PINS


#ifdef UDR1
ISR(USART1_RX_vect)
{
    24c0:	1f 92       	push	r1
    24c2:	0f 92       	push	r0
    24c4:	0f b6       	in	r0, 0x3f	; 63
    24c6:	0f 92       	push	r0
    24c8:	11 24       	eor	r1, r1
    24ca:	0b b6       	in	r0, 0x3b	; 59
    24cc:	0f 92       	push	r0
    24ce:	8f 93       	push	r24
    24d0:	9f 93       	push	r25
    24d2:	ef 93       	push	r30
    24d4:	ff 93       	push	r31
	Int8U head = uartRingBuffer[E_UART_0].Rx.Head;
    24d6:	e0 91 60 06 	lds	r30, 0x0660	; 0x800660 <uartRingBuffer>
	uartRingBuffer[E_UART_0].Rx.Buffer[head++] = UDR1;
    24da:	81 e0       	ldi	r24, 0x01	; 1
    24dc:	8e 0f       	add	r24, r30
    24de:	f0 e0       	ldi	r31, 0x00	; 0
    24e0:	90 91 ce 00 	lds	r25, 0x00CE	; 0x8000ce <__TEXT_REGION_LENGTH__+0x7e00ce>
    24e4:	e0 5a       	subi	r30, 0xA0	; 160
    24e6:	f9 4f       	sbci	r31, 0xF9	; 249
    24e8:	92 83       	std	Z+2, r25	; 0x02
	if (head >= MAX_BUFFER)
    24ea:	8e 3f       	cpi	r24, 0xFE	; 254
    24ec:	08 f0       	brcs	.+2      	; 0x24f0 <__vector_28+0x30>
	{
		head = 0U;
    24ee:	80 e0       	ldi	r24, 0x00	; 0
	}
	uartRingBuffer[E_UART_0].Rx.Head = head;
    24f0:	80 93 60 06 	sts	0x0660, r24	; 0x800660 <uartRingBuffer>
}
    24f4:	ff 91       	pop	r31
    24f6:	ef 91       	pop	r30
    24f8:	9f 91       	pop	r25
    24fa:	8f 91       	pop	r24
    24fc:	0f 90       	pop	r0
    24fe:	0b be       	out	0x3b, r0	; 59
    2500:	0f 90       	pop	r0
    2502:	0f be       	out	0x3f, r0	; 63
    2504:	0f 90       	pop	r0
    2506:	1f 90       	pop	r1
    2508:	18 95       	reti

0000250a <__vector_29>:

ISR(USART1_UDRE_vect)
{
    250a:	1f 92       	push	r1
    250c:	0f 92       	push	r0
    250e:	0f b6       	in	r0, 0x3f	; 63
    2510:	0f 92       	push	r0
    2512:	11 24       	eor	r1, r1
    2514:	0b b6       	in	r0, 0x3b	; 59
    2516:	0f 92       	push	r0
    2518:	8f 93       	push	r24
    251a:	9f 93       	push	r25
    251c:	ef 93       	push	r30
    251e:	ff 93       	push	r31
	Int8U tail = uartRingBuffer[E_UART_0].Tx.Tail;
    2520:	90 91 61 07 	lds	r25, 0x0761	; 0x800761 <uartRingBuffer+0x101>
	if (uartRingBuffer[E_UART_0].Tx.Head != tail)
    2524:	80 91 60 07 	lds	r24, 0x0760	; 0x800760 <uartRingBuffer+0x100>
    2528:	98 17       	cp	r25, r24
    252a:	71 f0       	breq	.+28     	; 0x2548 <__vector_29+0x3e>
	{
		if (++tail >= MAX_BUFFER)
    252c:	81 e0       	ldi	r24, 0x01	; 1
    252e:	89 0f       	add	r24, r25
    2530:	8e 3f       	cpi	r24, 0xFE	; 254
    2532:	08 f0       	brcs	.+2      	; 0x2536 <__vector_29+0x2c>
		{
			tail = 0U;
    2534:	80 e0       	ldi	r24, 0x00	; 0
		}
		UDR1 = uartRingBuffer[E_UART_0].Tx.Buffer[tail];
    2536:	e8 2f       	mov	r30, r24
    2538:	f0 e0       	ldi	r31, 0x00	; 0
    253a:	ee 59       	subi	r30, 0x9E	; 158
    253c:	f8 4f       	sbci	r31, 0xF8	; 248
    253e:	90 81       	ld	r25, Z
    2540:	90 93 ce 00 	sts	0x00CE, r25	; 0x8000ce <__TEXT_REGION_LENGTH__+0x7e00ce>
		uartRingBuffer[E_UART_0].Tx.Tail = tail;
    2544:	80 93 61 07 	sts	0x0761, r24	; 0x800761 <uartRingBuffer+0x101>
	}
	if (tail == uartRingBuffer[E_UART_0].Tx.Head)
    2548:	90 91 60 07 	lds	r25, 0x0760	; 0x800760 <uartRingBuffer+0x100>
    254c:	89 13       	cpse	r24, r25
    254e:	05 c0       	rjmp	.+10     	; 0x255a <__vector_29+0x50>
	{
		BIT_LOW(UCSR1B,UDRIE1);	
    2550:	e9 ec       	ldi	r30, 0xC9	; 201
    2552:	f0 e0       	ldi	r31, 0x00	; 0
    2554:	80 81       	ld	r24, Z
    2556:	8f 7d       	andi	r24, 0xDF	; 223
    2558:	80 83       	st	Z, r24
	}
}
    255a:	ff 91       	pop	r31
    255c:	ef 91       	pop	r30
    255e:	9f 91       	pop	r25
    2560:	8f 91       	pop	r24
    2562:	0f 90       	pop	r0
    2564:	0b be       	out	0x3b, r0	; 59
    2566:	0f 90       	pop	r0
    2568:	0f be       	out	0x3f, r0	; 63
    256a:	0f 90       	pop	r0
    256c:	1f 90       	pop	r1
    256e:	18 95       	reti

00002570 <__vector_30>:

ISR(USART1_TX_vect)
{
    2570:	1f 92       	push	r1
    2572:	0f 92       	push	r0
    2574:	0f b6       	in	r0, 0x3f	; 63
    2576:	0f 92       	push	r0
    2578:	11 24       	eor	r1, r1

}
    257a:	0f 90       	pop	r0
    257c:	0f be       	out	0x3f, r0	; 63
    257e:	0f 90       	pop	r0
    2580:	1f 90       	pop	r1
    2582:	18 95       	reti

00002584 <main>:
int main(void)
{	
	// ********************* Reset Cause **********************************************
	//imu.status.lastResetCause = MCUSR;
	//reset status register
	MCUSR = 0U;
    2584:	14 be       	out	0x34, r1	; 52
	
	// ********************* Interrupt Vectors ****************************************
	// Enable change of interrupt vectors
	MCUCR |= (1<<IVCE);
    2586:	85 b7       	in	r24, 0x35	; 53
    2588:	81 60       	ori	r24, 0x01	; 1
    258a:	85 bf       	out	0x35, r24	; 53
	// Move interrupts to app flash section
	MCUCR &= ~(1<<IVSEL);
    258c:	85 b7       	in	r24, 0x35	; 53
    258e:	8d 7f       	andi	r24, 0xFD	; 253
    2590:	85 bf       	out	0x35, r24	; 53

	// ********************* Interrupt Disable ****************************************
	DrvInterruptClearAllInterrupts();
    2592:	f8 94       	cli
				: "r0"
		);
	}
	else
	{
		__asm__ __volatile__ (
    2594:	9e e0       	ldi	r25, 0x0E	; 14
    2596:	88 e1       	ldi	r24, 0x18	; 24
    2598:	0f b6       	in	r0, 0x3f	; 63
    259a:	f8 94       	cli
    259c:	a8 95       	wdr
    259e:	80 93 60 00 	sts	0x0060, r24	; 0x800060 <__TEXT_REGION_LENGTH__+0x7e0060>
    25a2:	0f be       	out	0x3f, r0	; 63
    25a4:	90 93 60 00 	sts	0x0060, r25	; 0x800060 <__TEXT_REGION_LENGTH__+0x7e0060>
	
	// ********************* WatchDog Enable ******************************************
	wdt_enable(WDTO_1S);
	
	// ********************* Interrupt Enable *****************************************
	DrvInterruptSetAllInterrupts();
    25a8:	78 94       	sei
	
	// ********************* Drivers core init ****************************************
	DrvTickInit();
    25aa:	fc da       	rcall	.-2568   	; 0x1ba4 <DrvTickInit>
	DrvTimerInit();
    25ac:	81 db       	rcall	.-2302   	; 0x1cb0 <DrvTimerInit>
    25ae:	0e 94 6e 02 	call	0x4dc	; 0x4dc <DrvEepromInit>
	DrvEepromInit();
    25b2:	64 e0       	ldi	r22, 0x04	; 4
	DrvUartInit( E_UART_0, UART_SPEED_115200 );
    25b4:	80 e0       	ldi	r24, 0x00	; 0
    25b6:	9d de       	rcall	.-710    	; 0x22f2 <DrvUartInit>
    25b8:	60 e8       	ldi	r22, 0x80	; 128
	DrvTwiInit(TWI_SPEED_400K);
    25ba:	7a e1       	ldi	r23, 0x1A	; 26
    25bc:	86 e0       	ldi	r24, 0x06	; 6
    25be:	90 e0       	ldi	r25, 0x00	; 0
	// ********************* Services core init ***************************************
	SrvBatteryInit();
    25c0:	ba dc       	rcall	.-1676   	; 0x1f36 <DrvTwiInit>
	SrvIhmInit();
    25c2:	39 d0       	rcall	.+114    	; 0x2636 <SrvBatteryInit>
	SrvDisplayInit();
    25c4:	48 d4       	rcall	.+2192   	; 0x2e56 <SrvIhmInit>
    25c6:	a1 d2       	rcall	.+1346   	; 0x2b0a <SrvDisplayInit>
	SrvCommInit();
    25c8:	f3 d0       	rcall	.+486    	; 0x27b0 <SrvCommInit>
    25ca:	76 d0       	rcall	.+236    	; 0x26b8 <SrvBodyInit>
	SrvBodyInit();
    25cc:	a2 d4       	rcall	.+2372   	; 0x2f12 <SrvIhmPlatformInitStart>
    25ce:	c2 db       	rcall	.-2172   	; 0x1d54 <DrvTimerTickReset>
	
	// ********************* Start IHM ************************************************
	SrvIhmPlatformInitStart() ;
    25d0:	08 db       	rcall	.-2544   	; 0x1be2 <DrvTickGetTimeUs>
    25d2:	60 93 60 0a 	sts	0x0A60, r22	; 0x800a60 <lastLoopTime>
		
	// ********************* Reset time ***********************************************
	DrvTimerTickReset();
	lastLoopTime = DrvTickGetTimeUs();
    25d6:	70 93 61 0a 	sts	0x0A61, r23	; 0x800a61 <lastLoopTime+0x1>
    25da:	80 93 62 0a 	sts	0x0A62, r24	; 0x800a62 <lastLoopTime+0x2>
    25de:	90 93 63 0a 	sts	0x0A63, r25	; 0x800a63 <lastLoopTime+0x3>
    25e2:	a8 d4       	rcall	.+2384   	; 0x2f34 <SrvIhmPlatformInitDone>
    25e4:	0e 94 7d 02 	call	0x4fa	; 0x4fa <DrvEepromSetConfiguration>
    25e8:	d8 e1       	ldi	r29, 0x18	; 24
		
	// ********************* Led ok blink mode ****************************************
	SrvIhmPlatformInitDone();
    25ea:	ce e0       	ldi	r28, 0x0E	; 14
	
	//SrvWalkInit();
		
	// ********************* Eeprom is now configured for next startup ****************
	DrvEepromSetConfiguration();
    25ec:	0f b6       	in	r0, 0x3f	; 63
    25ee:	f8 94       	cli
    25f0:	a8 95       	wdr
    25f2:	d0 93 60 00 	sts	0x0060, r29	; 0x800060 <__TEXT_REGION_LENGTH__+0x7e0060>
    25f6:	0f be       	out	0x3f, r0	; 63
    25f8:	c0 93 60 00 	sts	0x0060, r28	; 0x800060 <__TEXT_REGION_LENGTH__+0x7e0060>
    25fc:	f2 da       	rcall	.-2588   	; 0x1be2 <DrvTickGetTimeUs>
    25fe:	00 91 60 0a 	lds	r16, 0x0A60	; 0x800a60 <lastLoopTime>
    2602:	10 91 61 0a 	lds	r17, 0x0A61	; 0x800a61 <lastLoopTime+0x1>
		// ********************* Watchdog *********************************************
		wdt_enable(WDTO_1S);
				
		// ********************* Calcul du temps de cycle *****************************

		Int32U now = DrvTickGetTimeUs();
    2606:	20 91 62 0a 	lds	r18, 0x0A62	; 0x800a62 <lastLoopTime+0x2>
		//imu.status.loopTime = now - lastLoopTime;
		lastLoopTime = now - lastLoopTime;
    260a:	30 91 63 0a 	lds	r19, 0x0A63	; 0x800a63 <lastLoopTime+0x3>
    260e:	dc 01       	movw	r26, r24
    2610:	cb 01       	movw	r24, r22
    2612:	80 1b       	sub	r24, r16
    2614:	91 0b       	sbc	r25, r17
    2616:	a2 0b       	sbc	r26, r18
    2618:	b3 0b       	sbc	r27, r19
    261a:	80 93 60 0a 	sts	0x0A60, r24	; 0x800a60 <lastLoopTime>
    261e:	90 93 61 0a 	sts	0x0A61, r25	; 0x800a61 <lastLoopTime+0x1>
    2622:	a0 93 62 0a 	sts	0x0A62, r26	; 0x800a62 <lastLoopTime+0x2>
    2626:	b0 93 63 0a 	sts	0x0A63, r27	; 0x800a63 <lastLoopTime+0x3>
		//imu.status.lifeTime = now / 1000000U;
				

		// ********************* Call services******************
		SrvBatteryUpdate();
    262a:	0f d0       	rcall	.+30     	; 0x264a <SrvBatteryUpdate>
    262c:	6d d4       	rcall	.+2266   	; 0x2f08 <SrvIhmDispatcher>
		SrvIhmDispatcher();
    262e:	c4 d0       	rcall	.+392    	; 0x27b8 <SrvCommUpdate>
    2630:	5d d0       	rcall	.+186    	; 0x26ec <SrvBodyUpdate>
		SrvCommUpdate();
    2632:	b7 d3       	rcall	.+1902   	; 0x2da2 <SrvDisplayUpdate>
    2634:	db cf       	rjmp	.-74     	; 0x25ec <main+0x68>

00002636 <SrvBatteryInit>:
		SrvBodyUpdate();
    2636:	84 e0       	ldi	r24, 0x04	; 4
    2638:	80 93 d9 0c 	sts	0x0CD9, r24	; 0x800cd9 <level>
		SrvDisplayUpdate();
    263c:	10 92 d8 0c 	sts	0x0CD8, r1	; 0x800cd8 <batteryPercentage+0x1>


EBatteryLevel SrvBatteryGetLevel (void)
{
	return level;
}
    2640:	10 92 d7 0c 	sts	0x0CD7, r1	; 0x800cd7 <batteryPercentage>
    2644:	0c 94 33 01 	jmp	0x266	; 0x266 <DrvAdcInit>
    2648:	08 95       	ret

0000264a <SrvBatteryUpdate>:
    264a:	80 e0       	ldi	r24, 0x00	; 0
    264c:	0e 94 65 01 	call	0x2ca	; 0x2ca <DrvAdcRead>
    2650:	44 e6       	ldi	r20, 0x64	; 100
    2652:	48 9f       	mul	r20, r24
    2654:	90 01       	movw	r18, r0
    2656:	49 9f       	mul	r20, r25
    2658:	30 0d       	add	r19, r0
    265a:	11 24       	eor	r1, r1
    265c:	a5 e9       	ldi	r26, 0x95	; 149
    265e:	b7 ed       	ldi	r27, 0xD7	; 215
    2660:	0e 94 ec 1b 	call	0x37d8	; 0x37d8 <__umulhisi3>
    2664:	88 0f       	add	r24, r24
    2666:	89 2f       	mov	r24, r25
    2668:	88 1f       	adc	r24, r24
    266a:	99 0b       	sbc	r25, r25
    266c:	91 95       	neg	r25
    266e:	90 93 d8 0c 	sts	0x0CD8, r25	; 0x800cd8 <batteryPercentage+0x1>
    2672:	80 93 d7 0c 	sts	0x0CD7, r24	; 0x800cd7 <batteryPercentage>
    2676:	8f 35       	cpi	r24, 0x5F	; 95
    2678:	91 05       	cpc	r25, r1
    267a:	18 f0       	brcs	.+6      	; 0x2682 <SrvBatteryUpdate+0x38>
    267c:	10 92 d9 0c 	sts	0x0CD9, r1	; 0x800cd9 <level>
    2680:	08 95       	ret
    2682:	8b 34       	cpi	r24, 0x4B	; 75
    2684:	91 05       	cpc	r25, r1
    2686:	20 f0       	brcs	.+8      	; 0x2690 <SrvBatteryUpdate+0x46>
    2688:	81 e0       	ldi	r24, 0x01	; 1
    268a:	80 93 d9 0c 	sts	0x0CD9, r24	; 0x800cd9 <level>
    268e:	08 95       	ret
    2690:	82 33       	cpi	r24, 0x32	; 50
    2692:	91 05       	cpc	r25, r1
    2694:	20 f0       	brcs	.+8      	; 0x269e <SrvBatteryUpdate+0x54>
    2696:	82 e0       	ldi	r24, 0x02	; 2
    2698:	80 93 d9 0c 	sts	0x0CD9, r24	; 0x800cd9 <level>
    269c:	08 95       	ret
    269e:	49 97       	sbiw	r24, 0x19	; 25
    26a0:	20 f0       	brcs	.+8      	; 0x26aa <SrvBatteryUpdate+0x60>
    26a2:	83 e0       	ldi	r24, 0x03	; 3
    26a4:	80 93 d9 0c 	sts	0x0CD9, r24	; 0x800cd9 <level>
    26a8:	08 95       	ret
    26aa:	84 e0       	ldi	r24, 0x04	; 4
    26ac:	80 93 d9 0c 	sts	0x0CD9, r24	; 0x800cd9 <level>
    26b0:	08 95       	ret

000026b2 <SrvBatteryGetValue>:
uint8_t SrvBatteryGetValue (void) 
{
	return batteryPercentage;
    26b2:	80 91 d7 0c 	lds	r24, 0x0CD7	; 0x800cd7 <batteryPercentage>
    26b6:	08 95       	ret

000026b8 <SrvBodyInit>:
extern struct SBody Body;


//Fonction d'initialisation
Boolean SrvBodyInit ( void ) 
{
    26b8:	0f 93       	push	r16
    26ba:	1f 93       	push	r17
    26bc:	cf 93       	push	r28
	DrvServoInit();
    26be:	0e 94 66 08 	call	0x10cc	; 0x10cc <DrvServoInit>
	DrvLegInit();
    26c2:	0e 94 eb 03 	call	0x7d6	; 0x7d6 <DrvLegInit>
	SrvWalkInit();
    26c6:	47 d4       	rcall	.+2190   	; 0x2f56 <SrvWalkInit>
    26c8:	0b ec       	ldi	r16, 0xCB	; 203
    26ca:	1c e0       	ldi	r17, 0x0C	; 12
	
	//init each servos of each leg
	for(Int8U i = 0U ; i < NB_LEGS ; i++ )
    26cc:	c0 e0       	ldi	r28, 0x00	; 0
	{
		Body.legs[ i ] = DrvLegGetLeg( i );
    26ce:	8c 2f       	mov	r24, r28
    26d0:	0e 94 90 05 	call	0xb20	; 0xb20 <DrvLegGetLeg>
    26d4:	f8 01       	movw	r30, r16
    26d6:	81 93       	st	Z+, r24
    26d8:	91 93       	st	Z+, r25
    26da:	8f 01       	movw	r16, r30
	DrvServoInit();
	DrvLegInit();
	SrvWalkInit();
	
	//init each servos of each leg
	for(Int8U i = 0U ; i < NB_LEGS ; i++ )
    26dc:	cf 5f       	subi	r28, 0xFF	; 255
    26de:	c6 30       	cpi	r28, 0x06	; 6
    26e0:	b1 f7       	brne	.-20     	; 0x26ce <SrvBodyInit+0x16>
		Body.legs[ i ] = DrvLegGetLeg( i );
	}
	
	
	return TRUE;
}
    26e2:	81 e0       	ldi	r24, 0x01	; 1
    26e4:	cf 91       	pop	r28
    26e6:	1f 91       	pop	r17
    26e8:	0f 91       	pop	r16
    26ea:	08 95       	ret

000026ec <SrvBodyUpdate>:

//Fonction de dispatching d'evenements
void SrvBodyUpdate (void)
{
	SrvWalkUpdate();
    26ec:	92 c4       	rjmp	.+2340   	; 0x3012 <SrvWalkUpdate>
    26ee:	08 95       	ret

000026f0 <formatMessageMinMax>:
		itoa(servoDelay,(char*)&message[ 10U ],10);
	}
}

static void formatMessageMinMax ( uint8_t servoId, uint8_t servoPos, uint8_t *message)
{
    26f0:	1f 93       	push	r17
    26f2:	cf 93       	push	r28
    26f4:	df 93       	push	r29
    26f6:	16 2f       	mov	r17, r22
    26f8:	ea 01       	movw	r28, r20
	if( servoId >= 10)
    26fa:	8a 30       	cpi	r24, 0x0A	; 10
    26fc:	40 f0       	brcs	.+16     	; 0x270e <formatMessageMinMax+0x1e>
    } else if (__radix < 2 || __radix > 36) {
	*__s = 0;
	return __s;
    } else {
	extern char *__itoa_ncheck (int, char *, unsigned char);
	return __itoa_ncheck (__val, __s, __radix);
    26fe:	4a e0       	ldi	r20, 0x0A	; 10
    2700:	be 01       	movw	r22, r28
    2702:	6e 5f       	subi	r22, 0xFE	; 254
    2704:	7f 4f       	sbci	r23, 0xFF	; 255
    2706:	90 e0       	ldi	r25, 0x00	; 0
    2708:	0e 94 fb 1b 	call	0x37f6	; 0x37f6 <__itoa_ncheck>
    270c:	09 c0       	rjmp	.+18     	; 0x2720 <formatMessageMinMax+0x30>
	{
		itoa(servoId,(char*)&message[ 2U ],10); //servo id
	}
	else if( servoId >= 0)
	{
		message[ 2U ] = '0';
    270e:	90 e3       	ldi	r25, 0x30	; 48
    2710:	9a 83       	std	Y+2, r25	; 0x02
    2712:	4a e0       	ldi	r20, 0x0A	; 10
    2714:	be 01       	movw	r22, r28
    2716:	6d 5f       	subi	r22, 0xFD	; 253
    2718:	7f 4f       	sbci	r23, 0xFF	; 255
    271a:	90 e0       	ldi	r25, 0x00	; 0
    271c:	0e 94 fb 1b 	call	0x37f6	; 0x37f6 <__itoa_ncheck>
		itoa(servoId,(char*)&message[ 3U ],10); //servo id
	}
	
	if( servoPos >= 100)
    2720:	14 36       	cpi	r17, 0x64	; 100
    2722:	48 f0       	brcs	.+18     	; 0x2736 <formatMessageMinMax+0x46>
    2724:	be 01       	movw	r22, r28
    2726:	6c 5f       	subi	r22, 0xFC	; 252
    2728:	7f 4f       	sbci	r23, 0xFF	; 255
    272a:	4a e0       	ldi	r20, 0x0A	; 10
    272c:	81 2f       	mov	r24, r17
    272e:	90 e0       	ldi	r25, 0x00	; 0
    2730:	0e 94 fb 1b 	call	0x37f6	; 0x37f6 <__itoa_ncheck>
    2734:	18 c0       	rjmp	.+48     	; 0x2766 <formatMessageMinMax+0x76>
	{
		itoa(servoPos,(char*)&message[ 4U ],10);
	}
	else if( servoPos >= 10)
    2736:	1a 30       	cpi	r17, 0x0A	; 10
    2738:	58 f0       	brcs	.+22     	; 0x2750 <formatMessageMinMax+0x60>
	{
		message[ 4U ] = '0';
    273a:	80 e3       	ldi	r24, 0x30	; 48
    273c:	8c 83       	std	Y+4, r24	; 0x04
    273e:	be 01       	movw	r22, r28
    2740:	6b 5f       	subi	r22, 0xFB	; 251
    2742:	7f 4f       	sbci	r23, 0xFF	; 255
    2744:	4a e0       	ldi	r20, 0x0A	; 10
    2746:	81 2f       	mov	r24, r17
    2748:	90 e0       	ldi	r25, 0x00	; 0
    274a:	0e 94 fb 1b 	call	0x37f6	; 0x37f6 <__itoa_ncheck>
    274e:	0b c0       	rjmp	.+22     	; 0x2766 <formatMessageMinMax+0x76>
		itoa(servoPos,(char*)&message[ 5U ],10);
	}
	else if( servoPos >= 0)
	{
		message[ 4U ] = '0';
    2750:	80 e3       	ldi	r24, 0x30	; 48
    2752:	8c 83       	std	Y+4, r24	; 0x04
		message[ 5U ] = '0';
    2754:	8d 83       	std	Y+5, r24	; 0x05
    2756:	be 01       	movw	r22, r28
    2758:	6a 5f       	subi	r22, 0xFA	; 250
    275a:	7f 4f       	sbci	r23, 0xFF	; 255
    275c:	4a e0       	ldi	r20, 0x0A	; 10
    275e:	81 2f       	mov	r24, r17
    2760:	90 e0       	ldi	r25, 0x00	; 0
    2762:	0e 94 fb 1b 	call	0x37f6	; 0x37f6 <__itoa_ncheck>
		itoa(servoPos,(char*)&message[ 6U ],10);
	}
    2766:	df 91       	pop	r29
    2768:	cf 91       	pop	r28
    276a:	1f 91       	pop	r17
    276c:	08 95       	ret

0000276e <SrvCommWriteMessage>:
	return oSuccess;
}

//send message
static Boolean SrvCommWriteMessage( uint8_t *outcomFrame, uint8_t len )
{
    276e:	0f 93       	push	r16
    2770:	1f 93       	push	r17
    2772:	cf 93       	push	r28
    2774:	df 93       	push	r29
    2776:	8c 01       	movw	r16, r24
    2778:	c6 2f       	mov	r28, r22
	DrvUartFillTxBuffer(E_UART_0,'<');
    277a:	6c e3       	ldi	r22, 0x3C	; 60
    277c:	80 e0       	ldi	r24, 0x00	; 0
    277e:	df dd       	rcall	.-1090   	; 0x233e <DrvUartFillTxBuffer>
	//fill buffer
	for(Int16U loop = 0U; loop < len ; loop++)
    2780:	6c 2f       	mov	r22, r28
    2782:	70 e0       	ldi	r23, 0x00	; 0
    2784:	61 15       	cp	r22, r1
    2786:	71 05       	cpc	r23, r1
    2788:	49 f0       	breq	.+18     	; 0x279c <SrvCommWriteMessage+0x2e>
    278a:	e8 01       	movw	r28, r16
    278c:	06 0f       	add	r16, r22
    278e:	17 1f       	adc	r17, r23
	{
		//get pointer and loop on each usefull data
		DrvUartFillTxBuffer(E_UART_0,((Int8U *)outcomFrame)[loop]);
    2790:	69 91       	ld	r22, Y+
    2792:	80 e0       	ldi	r24, 0x00	; 0
    2794:	d4 dd       	rcall	.-1112   	; 0x233e <DrvUartFillTxBuffer>
//send message
static Boolean SrvCommWriteMessage( uint8_t *outcomFrame, uint8_t len )
{
	DrvUartFillTxBuffer(E_UART_0,'<');
	//fill buffer
	for(Int16U loop = 0U; loop < len ; loop++)
    2796:	c0 17       	cp	r28, r16
    2798:	d1 07       	cpc	r29, r17
    279a:	d1 f7       	brne	.-12     	; 0x2790 <SrvCommWriteMessage+0x22>
	{
		//get pointer and loop on each usefull data
		DrvUartFillTxBuffer(E_UART_0,((Int8U *)outcomFrame)[loop]);
	}
	DrvUartFillTxBuffer(E_UART_0,'>');
    279c:	6e e3       	ldi	r22, 0x3E	; 62
    279e:	80 e0       	ldi	r24, 0x00	; 0
	
	//can send over uart
	return DrvUartSendData(E_UART_0);
    27a0:	ce dd       	rcall	.-1124   	; 0x233e <DrvUartFillTxBuffer>
    27a2:	80 e0       	ldi	r24, 0x00	; 0
    27a4:	ec dd       	rcall	.-1064   	; 0x237e <DrvUartSendData>
}
    27a6:	df 91       	pop	r29
    27a8:	cf 91       	pop	r28
    27aa:	1f 91       	pop	r17
    27ac:	0f 91       	pop	r16
    27ae:	08 95       	ret

000027b0 <SrvCommInit>:
/************************************************************************/
/*init de la communication                                              */
/************************************************************************/
Boolean SrvCommInit (void) 
{
	return DrvUartInit( E_UART_0, UART_SPEED_115200 );
    27b0:	64 e0       	ldi	r22, 0x04	; 4
    27b2:	80 e0       	ldi	r24, 0x00	; 0
    27b4:	9e cd       	rjmp	.-1220   	; 0x22f2 <DrvUartInit>
}	
    27b6:	08 95       	ret

000027b8 <SrvCommUpdate>:

/************************************************************************/
/*dispatcher d'evenements                                               */
/************************************************************************/
void SrvCommUpdate ( void ) 
{
    27b8:	bf 92       	push	r11
    27ba:	cf 92       	push	r12
    27bc:	df 92       	push	r13
    27be:	ef 92       	push	r14
    27c0:	ff 92       	push	r15
    27c2:	0f 93       	push	r16
    27c4:	1f 93       	push	r17
    27c6:	cf 93       	push	r28
    27c8:	df 93       	push	r29
    27ca:	cd b7       	in	r28, 0x3d	; 61
    27cc:	de b7       	in	r29, 0x3e	; 62
    27ce:	68 97       	sbiw	r28, 0x18	; 24
    27d0:	0f b6       	in	r0, 0x3f	; 63
    27d2:	f8 94       	cli
    27d4:	de bf       	out	0x3e, r29	; 62
    27d6:	0f be       	out	0x3f, r0	; 63
    27d8:	cd bf       	out	0x3d, r28	; 61
}

//permits to decode the incoming data
static Boolean SrvCommDecodeMessage( void )
{
	nbDataAvailable = DrvUartDataAvailable(E_UART_0);
    27da:	80 e0       	ldi	r24, 0x00	; 0
    27dc:	fe dd       	rcall	.-1028   	; 0x23da <DrvUartDataAvailable>
    27de:	90 e0       	ldi	r25, 0x00	; 0
    27e0:	90 93 66 0a 	sts	0x0A66, r25	; 0x800a66 <nbDataAvailable+0x1>
    27e4:	80 93 65 0a 	sts	0x0A65, r24	; 0x800a65 <nbDataAvailable>
	
	//loop until the data is over
	for(Int16U loop = 0U; loop < nbDataAvailable ; loop++)
    27e8:	89 2b       	or	r24, r25
    27ea:	09 f4       	brne	.+2      	; 0x27ee <SrvCommUpdate+0x36>
    27ec:	7e c1       	rjmp	.+764    	; 0x2aea <SrvCommUpdate+0x332>
    27ee:	00 e0       	ldi	r16, 0x00	; 0
    27f0:	10 e0       	ldi	r17, 0x00	; 0
					inMessage.size = 0U;
				}
			break;
			case COMM_HEADER:
				//get header
				inMessage.header = datum;
    27f2:	0f 2e       	mov	r0, r31
    27f4:	fa ed       	ldi	r31, 0xDA	; 218
    27f6:	ef 2e       	mov	r14, r31
    27f8:	fc e0       	ldi	r31, 0x0C	; 12
    27fa:	ff 2e       	mov	r15, r31
    27fc:	f0 2d       	mov	r31, r0
				status = COMM_COMMAND;
    27fe:	68 94       	set
    2800:	cc 24       	eor	r12, r12
    2802:	c1 f8       	bld	r12, 1
			case COMM_START:
				//wait for start and end
				if( datum == '<' )
				{
					//new frame is coming
					status = COMM_HEADER;
    2804:	bb 24       	eor	r11, r11
    2806:	b3 94       	inc	r11
			break;
			
			case COMM_COMMAND:
				//get command id
				inMessage.command = datum;
				status = COMM_PARAMS;
    2808:	0f 2e       	mov	r0, r31
    280a:	f3 e0       	ldi	r31, 0x03	; 3
    280c:	df 2e       	mov	r13, r31
    280e:	f0 2d       	mov	r31, r0
	
	//loop until the data is over
	for(Int16U loop = 0U; loop < nbDataAvailable ; loop++)
	{
		//get the datum
		Int8U datum = DrvUartReadData(E_UART_0);
    2810:	80 e0       	ldi	r24, 0x00	; 0
    2812:	c0 dd       	rcall	.-1152   	; 0x2394 <DrvUartReadData>
		//switch
		switch((Int8U) status)
    2814:	90 91 64 0a 	lds	r25, 0x0A64	; 0x800a64 <status>
    2818:	91 30       	cpi	r25, 0x01	; 1
    281a:	79 f0       	breq	.+30     	; 0x283a <SrvCommUpdate+0x82>
    281c:	28 f0       	brcs	.+10     	; 0x2828 <SrvCommUpdate+0x70>
    281e:	92 30       	cpi	r25, 0x02	; 2
    2820:	89 f0       	breq	.+34     	; 0x2844 <SrvCommUpdate+0x8c>
    2822:	93 30       	cpi	r25, 0x03	; 3
    2824:	a9 f0       	breq	.+42     	; 0x2850 <SrvCommUpdate+0x98>
    2826:	4d c1       	rjmp	.+666    	; 0x2ac2 <SrvCommUpdate+0x30a>
		{
			case COMM_START:
				//wait for start and end
				if( datum == '<' )
    2828:	8c 33       	cpi	r24, 0x3C	; 60
    282a:	09 f0       	breq	.+2      	; 0x282e <SrvCommUpdate+0x76>
    282c:	4a c1       	rjmp	.+660    	; 0x2ac2 <SrvCommUpdate+0x30a>
				{
					//new frame is coming
					status = COMM_HEADER;
    282e:	b0 92 64 0a 	sts	0x0A64, r11	; 0x800a64 <status>
					//reset pointer
					inMessage.size = 0U;
    2832:	d7 01       	movw	r26, r14
    2834:	12 96       	adiw	r26, 0x02	; 2
    2836:	1c 92       	st	X, r1
    2838:	44 c1       	rjmp	.+648    	; 0x2ac2 <SrvCommUpdate+0x30a>
				}
			break;
			case COMM_HEADER:
				//get header
				inMessage.header = datum;
    283a:	f7 01       	movw	r30, r14
    283c:	80 83       	st	Z, r24
				status = COMM_COMMAND;
    283e:	c0 92 64 0a 	sts	0x0A64, r12	; 0x800a64 <status>
    2842:	3f c1       	rjmp	.+638    	; 0x2ac2 <SrvCommUpdate+0x30a>
			break;
			
			case COMM_COMMAND:
				//get command id
				inMessage.command = datum;
    2844:	d7 01       	movw	r26, r14
    2846:	11 96       	adiw	r26, 0x01	; 1
    2848:	8c 93       	st	X, r24
				status = COMM_PARAMS;
    284a:	d0 92 64 0a 	sts	0x0A64, r13	; 0x800a64 <status>
    284e:	39 c1       	rjmp	.+626    	; 0x2ac2 <SrvCommUpdate+0x30a>
			break;
			
			case COMM_PARAMS:
				//if end of frame
				if( datum == '>' )
    2850:	8e 33       	cpi	r24, 0x3E	; 62
    2852:	09 f0       	breq	.+2      	; 0x2856 <SrvCommUpdate+0x9e>
    2854:	21 c1       	rjmp	.+578    	; 0x2a98 <SrvCommUpdate+0x2e0>
				{
					status = COMM_START;
    2856:	10 92 64 0a 	sts	0x0A64, r1	; 0x800a64 <status>
static Boolean SrvCommExecuteMessage( void )
{
	Boolean oSuccess = FALSE;
	uint8_t servoId = 0xFFU;
	SServo *servo;
	uint8_t response [20U] = { 0U };
    285a:	fe 01       	movw	r30, r28
    285c:	31 96       	adiw	r30, 0x01	; 1
    285e:	84 e1       	ldi	r24, 0x14	; 20
    2860:	df 01       	movw	r26, r30
    2862:	1d 92       	st	X+, r1
    2864:	8a 95       	dec	r24
    2866:	e9 f7       	brne	.-6      	; 0x2862 <SrvCommUpdate+0xaa>
		
	//check command 
	if( inMessage.command ==  COMM_COMMAND_VERSION)
    2868:	80 91 db 0c 	lds	r24, 0x0CDB	; 0x800cdb <inMessage+0x1>
    286c:	80 33       	cpi	r24, 0x30	; 48
    286e:	59 f4       	brne	.+22     	; 0x2886 <SrvCommUpdate+0xce>
	{
		//prepare output string
		uint8_t responseVersion [ 4U ] = { COMM_HEADER_MESSAGE ,COMM_COMMAND_VERSION, '1', '5' };
    2870:	8d 8b       	std	Y+21, r24	; 0x15
    2872:	8e 8b       	std	Y+22, r24	; 0x16
    2874:	81 e3       	ldi	r24, 0x31	; 49
    2876:	8f 8b       	std	Y+23, r24	; 0x17
    2878:	85 e3       	ldi	r24, 0x35	; 53
    287a:	88 8f       	std	Y+24, r24	; 0x18
		SrvCommWriteMessage(responseVersion, 4U);
    287c:	64 e0       	ldi	r22, 0x04	; 4
    287e:	ce 01       	movw	r24, r28
    2880:	45 96       	adiw	r24, 0x15	; 21
    2882:	75 df       	rcall	.-278    	; 0x276e <SrvCommWriteMessage>
    2884:	29 c1       	rjmp	.+594    	; 0x2ad8 <SrvCommUpdate+0x320>
				
		//can send data
		oSuccess = TRUE;
	}
	else if( inMessage.command ==  COMM_COMMAND_SERVO_READ)
    2886:	81 33       	cpi	r24, 0x31	; 49
    2888:	09 f0       	breq	.+2      	; 0x288c <SrvCommUpdate+0xd4>
    288a:	79 c0       	rjmp	.+242    	; 0x297e <SrvCommUpdate+0x1c6>
	{
		servoId = (uint8_t)((inMessage.data[ 0U ] * 10U) + inMessage.data[ 1U ]);
    288c:	ea ed       	ldi	r30, 0xDA	; 218
    288e:	fc e0       	ldi	r31, 0x0C	; 12
    2890:	83 81       	ldd	r24, Z+3	; 0x03
    2892:	88 0f       	add	r24, r24
    2894:	18 2f       	mov	r17, r24
    2896:	11 0f       	add	r17, r17
    2898:	11 0f       	add	r17, r17
    289a:	18 0f       	add	r17, r24
    289c:	84 81       	ldd	r24, Z+4	; 0x04
    289e:	18 0f       	add	r17, r24
		//if legs
		if(servoId < NB_LEGS * NB_SERVOS_PER_LEG)
    28a0:	12 31       	cpi	r17, 0x12	; 18
    28a2:	08 f0       	brcs	.+2      	; 0x28a6 <SrvCommUpdate+0xee>
    28a4:	1e c1       	rjmp	.+572    	; 0x2ae2 <SrvCommUpdate+0x32a>
		{
			servo = DrvServoGetStruture(servoId);  
    28a6:	81 2f       	mov	r24, r17
    28a8:	0e 94 a7 0a 	call	0x154e	; 0x154e <DrvServoGetStruture>
				
			response[ 0U ] = '0'; //header
    28ac:	20 e3       	ldi	r18, 0x30	; 48
    28ae:	29 83       	std	Y+1, r18	; 0x01
			response[ 1U ] = COMM_COMMAND_SERVO_READ; //command
    28b0:	21 e3       	ldi	r18, 0x31	; 49
    28b2:	2a 83       	std	Y+2, r18	; 0x02
			formatMessage(servoId, servo->currentPosition, servo->movingTime, response);
    28b4:	fc 01       	movw	r30, r24
    28b6:	03 85       	ldd	r16, Z+11	; 0x0b
    28b8:	e0 2e       	mov	r14, r16
    28ba:	f1 80       	ldd	r15, Z+1	; 0x01
    28bc:	df 2c       	mov	r13, r15
	return FALSE;
}

static void formatMessage ( uint8_t servoId, uint8_t servoPos, uint8_t servoDelay, uint8_t *message)
{
	if( servoId >= 10)
    28be:	1a 30       	cpi	r17, 0x0A	; 10
    28c0:	40 f0       	brcs	.+16     	; 0x28d2 <SrvCommUpdate+0x11a>
    28c2:	4a e0       	ldi	r20, 0x0A	; 10
    28c4:	be 01       	movw	r22, r28
    28c6:	6d 5f       	subi	r22, 0xFD	; 253
    28c8:	7f 4f       	sbci	r23, 0xFF	; 255
    28ca:	81 2f       	mov	r24, r17
    28cc:	90 e0       	ldi	r25, 0x00	; 0
    28ce:	93 d7       	rcall	.+3878   	; 0x37f6 <__itoa_ncheck>
    28d0:	09 c0       	rjmp	.+18     	; 0x28e4 <SrvCommUpdate+0x12c>
	{
		itoa(servoId,(char*)&message[ 2U ],10); //servo id
	}
	else if( servoId >= 0)
	{
		message[ 2U ] = '0';
    28d2:	80 e3       	ldi	r24, 0x30	; 48
    28d4:	8b 83       	std	Y+3, r24	; 0x03
    28d6:	4a e0       	ldi	r20, 0x0A	; 10
    28d8:	be 01       	movw	r22, r28
    28da:	6c 5f       	subi	r22, 0xFC	; 252
    28dc:	7f 4f       	sbci	r23, 0xFF	; 255
    28de:	81 2f       	mov	r24, r17
    28e0:	90 e0       	ldi	r25, 0x00	; 0
    28e2:	89 d7       	rcall	.+3858   	; 0x37f6 <__itoa_ncheck>
		itoa(servoId,(char*)&message[ 3U ],10); //servo id
	}
	
	if( servoPos >= 100)
    28e4:	f3 e6       	ldi	r31, 0x63	; 99
    28e6:	fd 15       	cp	r31, r13
    28e8:	40 f4       	brcc	.+16     	; 0x28fa <SrvCommUpdate+0x142>
    28ea:	4a e0       	ldi	r20, 0x0A	; 10
    28ec:	be 01       	movw	r22, r28
    28ee:	6b 5f       	subi	r22, 0xFB	; 251
    28f0:	7f 4f       	sbci	r23, 0xFF	; 255
    28f2:	8f 2d       	mov	r24, r15
    28f4:	90 e0       	ldi	r25, 0x00	; 0
    28f6:	7f d7       	rcall	.+3838   	; 0x37f6 <__itoa_ncheck>
    28f8:	17 c0       	rjmp	.+46     	; 0x2928 <SrvCommUpdate+0x170>
	{
		itoa(servoPos,(char*)&message[ 4U ],10);
	}
	else if( servoPos >= 10)
    28fa:	89 e0       	ldi	r24, 0x09	; 9
    28fc:	8d 15       	cp	r24, r13
    28fe:	50 f4       	brcc	.+20     	; 0x2914 <SrvCommUpdate+0x15c>
	{
		message[ 4U ] = '0';
    2900:	80 e3       	ldi	r24, 0x30	; 48
    2902:	8d 83       	std	Y+5, r24	; 0x05
    2904:	4a e0       	ldi	r20, 0x0A	; 10
    2906:	be 01       	movw	r22, r28
    2908:	6a 5f       	subi	r22, 0xFA	; 250
    290a:	7f 4f       	sbci	r23, 0xFF	; 255
    290c:	8f 2d       	mov	r24, r15
    290e:	90 e0       	ldi	r25, 0x00	; 0
    2910:	72 d7       	rcall	.+3812   	; 0x37f6 <__itoa_ncheck>
    2912:	0a c0       	rjmp	.+20     	; 0x2928 <SrvCommUpdate+0x170>
		itoa(servoPos,(char*)&message[ 5U ],10);
	}
	else if( servoPos >= 0)
	{
		message[ 4U ] = '0';
    2914:	80 e3       	ldi	r24, 0x30	; 48
    2916:	8d 83       	std	Y+5, r24	; 0x05
		message[ 5U ] = '0';
    2918:	8e 83       	std	Y+6, r24	; 0x06
    291a:	4a e0       	ldi	r20, 0x0A	; 10
    291c:	be 01       	movw	r22, r28
    291e:	69 5f       	subi	r22, 0xF9	; 249
    2920:	7f 4f       	sbci	r23, 0xFF	; 255
    2922:	8f 2d       	mov	r24, r15
    2924:	90 e0       	ldi	r25, 0x00	; 0
    2926:	67 d7       	rcall	.+3790   	; 0x37f6 <__itoa_ncheck>
	
	if( servoDelay >= 1000)
	{
		itoa(servoDelay,(char*)&message[ 7U ],10);
	}
	else if( servoDelay >= 100)
    2928:	a3 e6       	ldi	r26, 0x63	; 99
    292a:	ae 15       	cp	r26, r14
    292c:	50 f4       	brcc	.+20     	; 0x2942 <SrvCommUpdate+0x18a>
	{
		message[ 7U ] = '0';
    292e:	80 e3       	ldi	r24, 0x30	; 48
    2930:	88 87       	std	Y+8, r24	; 0x08
    2932:	4a e0       	ldi	r20, 0x0A	; 10
    2934:	be 01       	movw	r22, r28
    2936:	67 5f       	subi	r22, 0xF7	; 247
    2938:	7f 4f       	sbci	r23, 0xFF	; 255
    293a:	80 2f       	mov	r24, r16
    293c:	90 e0       	ldi	r25, 0x00	; 0
    293e:	5b d7       	rcall	.+3766   	; 0x37f6 <__itoa_ncheck>
    2940:	19 c0       	rjmp	.+50     	; 0x2974 <SrvCommUpdate+0x1bc>
		itoa(servoDelay,(char*)&message[ 8U ],10);
	}
	else if( servoDelay >= 10)
    2942:	b9 e0       	ldi	r27, 0x09	; 9
    2944:	be 15       	cp	r27, r14
    2946:	58 f4       	brcc	.+22     	; 0x295e <SrvCommUpdate+0x1a6>
	{
		message[ 7U ] = '0';
    2948:	80 e3       	ldi	r24, 0x30	; 48
		message[ 8U ] = '0';
    294a:	88 87       	std	Y+8, r24	; 0x08
    294c:	89 87       	std	Y+9, r24	; 0x09
    294e:	4a e0       	ldi	r20, 0x0A	; 10
    2950:	be 01       	movw	r22, r28
    2952:	66 5f       	subi	r22, 0xF6	; 246
    2954:	7f 4f       	sbci	r23, 0xFF	; 255
    2956:	80 2f       	mov	r24, r16
    2958:	90 e0       	ldi	r25, 0x00	; 0
    295a:	4d d7       	rcall	.+3738   	; 0x37f6 <__itoa_ncheck>
    295c:	0b c0       	rjmp	.+22     	; 0x2974 <SrvCommUpdate+0x1bc>
		itoa(servoDelay,(char*)&message[ 9U ],10);
	}
	else if( servoDelay >= 0)
	{
		message[ 7U ] = '0';
    295e:	80 e3       	ldi	r24, 0x30	; 48
		message[ 8U ] = '0';
    2960:	88 87       	std	Y+8, r24	; 0x08
		message[ 9U ] = '0';
    2962:	89 87       	std	Y+9, r24	; 0x09
    2964:	8a 87       	std	Y+10, r24	; 0x0a
    2966:	4a e0       	ldi	r20, 0x0A	; 10
    2968:	be 01       	movw	r22, r28
    296a:	65 5f       	subi	r22, 0xF5	; 245
    296c:	7f 4f       	sbci	r23, 0xFF	; 255
    296e:	80 2f       	mov	r24, r16
    2970:	90 e0       	ldi	r25, 0x00	; 0
			servo = DrvServoGetStruture(servoId);  
				
			response[ 0U ] = '0'; //header
			response[ 1U ] = COMM_COMMAND_SERVO_READ; //command
			formatMessage(servoId, servo->currentPosition, servo->movingTime, response);
			SrvCommWriteMessage(response, 11U);
    2972:	41 d7       	rcall	.+3714   	; 0x37f6 <__itoa_ncheck>
    2974:	6b e0       	ldi	r22, 0x0B	; 11
    2976:	ce 01       	movw	r24, r28
    2978:	01 96       	adiw	r24, 0x01	; 1
    297a:	f9 de       	rcall	.-526    	; 0x276e <SrvCommWriteMessage>
    297c:	ad c0       	rjmp	.+346    	; 0x2ad8 <SrvCommUpdate+0x320>
			//can send data
			oSuccess = TRUE;
		}
	}
	else if( inMessage.command ==  COMM_COMMAND_SERVO_WRITE)
    297e:	82 33       	cpi	r24, 0x32	; 50
    2980:	09 f0       	breq	.+2      	; 0x2984 <SrvCommUpdate+0x1cc>
    2982:	45 c0       	rjmp	.+138    	; 0x2a0e <SrvCommUpdate+0x256>
	{
		servoId = (uint8_t)((inMessage.data [ 0U ] * 10U) + inMessage.data[ 1U ]);
    2984:	ea ed       	ldi	r30, 0xDA	; 218
    2986:	fc e0       	ldi	r31, 0x0C	; 12
    2988:	83 81       	ldd	r24, Z+3	; 0x03
    298a:	88 0f       	add	r24, r24
    298c:	98 2f       	mov	r25, r24
    298e:	99 0f       	add	r25, r25
    2990:	99 0f       	add	r25, r25
    2992:	89 0f       	add	r24, r25
    2994:	94 81       	ldd	r25, Z+4	; 0x04
    2996:	89 0f       	add	r24, r25
		//if legs
		if(servoId < NB_LEGS * NB_SERVOS_PER_LEG)
    2998:	82 31       	cpi	r24, 0x12	; 18
    299a:	08 f0       	brcs	.+2      	; 0x299e <SrvCommUpdate+0x1e6>
    299c:	a2 c0       	rjmp	.+324    	; 0x2ae2 <SrvCommUpdate+0x32a>
		{
			int16_t servoPos =  inMessage.data[ 2U ] * 100 + inMessage.data[ 3U ] * 10 + inMessage.data[ 4U ];
			uint16_t delay = inMessage.data[ 5U ] * 1000 + inMessage.data[ 6U ] * 100 + inMessage.data[ 7U ] * 10 + inMessage.data[ 8U ];
			
			DrvServoSetTarget(servoId,servoPos,delay);
    299e:	90 85       	ldd	r25, Z+8	; 0x08
    29a0:	28 ee       	ldi	r18, 0xE8	; 232
    29a2:	33 e0       	ldi	r19, 0x03	; 3
    29a4:	92 9f       	mul	r25, r18
    29a6:	a0 01       	movw	r20, r0
    29a8:	93 9f       	mul	r25, r19
    29aa:	50 0d       	add	r21, r0
    29ac:	11 24       	eor	r1, r1
    29ae:	21 85       	ldd	r18, Z+9	; 0x09
    29b0:	94 e6       	ldi	r25, 0x64	; 100
    29b2:	92 9f       	mul	r25, r18
    29b4:	40 0d       	add	r20, r0
    29b6:	51 1d       	adc	r21, r1
    29b8:	11 24       	eor	r1, r1
    29ba:	22 85       	ldd	r18, Z+10	; 0x0a
    29bc:	30 e0       	ldi	r19, 0x00	; 0
    29be:	b9 01       	movw	r22, r18
    29c0:	66 0f       	add	r22, r22
    29c2:	77 1f       	adc	r23, r23
    29c4:	22 0f       	add	r18, r18
    29c6:	33 1f       	adc	r19, r19
    29c8:	22 0f       	add	r18, r18
    29ca:	33 1f       	adc	r19, r19
    29cc:	22 0f       	add	r18, r18
    29ce:	33 1f       	adc	r19, r19
    29d0:	26 0f       	add	r18, r22
    29d2:	37 1f       	adc	r19, r23
    29d4:	42 0f       	add	r20, r18
    29d6:	53 1f       	adc	r21, r19
    29d8:	23 85       	ldd	r18, Z+11	; 0x0b
    29da:	42 0f       	add	r20, r18
    29dc:	51 1d       	adc	r21, r1
    29de:	a5 81       	ldd	r26, Z+5	; 0x05
    29e0:	26 81       	ldd	r18, Z+6	; 0x06
    29e2:	30 e0       	ldi	r19, 0x00	; 0
    29e4:	b9 01       	movw	r22, r18
    29e6:	66 0f       	add	r22, r22
    29e8:	77 1f       	adc	r23, r23
    29ea:	22 0f       	add	r18, r18
    29ec:	33 1f       	adc	r19, r19
    29ee:	22 0f       	add	r18, r18
    29f0:	33 1f       	adc	r19, r19
    29f2:	22 0f       	add	r18, r18
    29f4:	33 1f       	adc	r19, r19
    29f6:	62 0f       	add	r22, r18
    29f8:	73 1f       	adc	r23, r19
    29fa:	9a 9f       	mul	r25, r26
    29fc:	60 0d       	add	r22, r0
    29fe:	71 1d       	adc	r23, r1
    2a00:	11 24       	eor	r1, r1
    2a02:	97 81       	ldd	r25, Z+7	; 0x07
    2a04:	69 0f       	add	r22, r25
    2a06:	71 1d       	adc	r23, r1
    2a08:	0e 94 9a 08 	call	0x1134	; 0x1134 <DrvServoSetTarget>
    2a0c:	65 c0       	rjmp	.+202    	; 0x2ad8 <SrvCommUpdate+0x320>
			//can send data
			oSuccess = TRUE;
		}
	}
	else if( inMessage.command ==  COMM_COMMAND_SERVO_MIN_READ)
    2a0e:	83 33       	cpi	r24, 0x33	; 51
    2a10:	01 f5       	brne	.+64     	; 0x2a52 <SrvCommUpdate+0x29a>
	{
		servoId = (uint8_t)((inMessage.data[ 0U ] * 10U) + inMessage.data[ 1U ]);
    2a12:	ea ed       	ldi	r30, 0xDA	; 218
    2a14:	fc e0       	ldi	r31, 0x0C	; 12
    2a16:	83 81       	ldd	r24, Z+3	; 0x03
    2a18:	88 0f       	add	r24, r24
    2a1a:	18 2f       	mov	r17, r24
    2a1c:	11 0f       	add	r17, r17
    2a1e:	11 0f       	add	r17, r17
    2a20:	18 0f       	add	r17, r24
    2a22:	84 81       	ldd	r24, Z+4	; 0x04
    2a24:	18 0f       	add	r17, r24
		//if legs
		if(servoId < NB_LEGS * NB_SERVOS_PER_LEG)
    2a26:	12 31       	cpi	r17, 0x12	; 18
    2a28:	08 f0       	brcs	.+2      	; 0x2a2c <SrvCommUpdate+0x274>
    2a2a:	5b c0       	rjmp	.+182    	; 0x2ae2 <SrvCommUpdate+0x32a>
		{
			servo = DrvServoGetStruture(servoId);  
    2a2c:	81 2f       	mov	r24, r17
    2a2e:	0e 94 a7 0a 	call	0x154e	; 0x154e <DrvServoGetStruture>
				
			response[ 0U ] = '0'; //header
    2a32:	20 e3       	ldi	r18, 0x30	; 48
			response[ 1U ] = COMM_COMMAND_SERVO_MIN_READ; //command
    2a34:	29 83       	std	Y+1, r18	; 0x01
			formatMessageMinMax(servoId, servo->min, response);
    2a36:	23 e3       	ldi	r18, 0x33	; 51
    2a38:	2a 83       	std	Y+2, r18	; 0x02
    2a3a:	ae 01       	movw	r20, r28
    2a3c:	4f 5f       	subi	r20, 0xFF	; 255
    2a3e:	5f 4f       	sbci	r21, 0xFF	; 255
    2a40:	fc 01       	movw	r30, r24
    2a42:	67 85       	ldd	r22, Z+15	; 0x0f
    2a44:	81 2f       	mov	r24, r17
			SrvCommWriteMessage(response, 11U);
    2a46:	54 de       	rcall	.-856    	; 0x26f0 <formatMessageMinMax>
    2a48:	6b e0       	ldi	r22, 0x0B	; 11
    2a4a:	ce 01       	movw	r24, r28
    2a4c:	01 96       	adiw	r24, 0x01	; 1
    2a4e:	8f de       	rcall	.-738    	; 0x276e <SrvCommWriteMessage>
    2a50:	43 c0       	rjmp	.+134    	; 0x2ad8 <SrvCommUpdate+0x320>
			//can send data
			oSuccess = TRUE;
		}
	}
	else if( inMessage.command ==  COMM_COMMAND_SERVO_MAX_READ)
    2a52:	85 33       	cpi	r24, 0x35	; 53
    2a54:	09 f0       	breq	.+2      	; 0x2a58 <SrvCommUpdate+0x2a0>
    2a56:	45 c0       	rjmp	.+138    	; 0x2ae2 <SrvCommUpdate+0x32a>
	{
		servoId = (uint8_t)((inMessage.data[ 0U ] * 10U) + inMessage.data[ 1U ]);
    2a58:	ea ed       	ldi	r30, 0xDA	; 218
    2a5a:	fc e0       	ldi	r31, 0x0C	; 12
    2a5c:	83 81       	ldd	r24, Z+3	; 0x03
    2a5e:	88 0f       	add	r24, r24
    2a60:	18 2f       	mov	r17, r24
    2a62:	11 0f       	add	r17, r17
    2a64:	11 0f       	add	r17, r17
    2a66:	18 0f       	add	r17, r24
    2a68:	84 81       	ldd	r24, Z+4	; 0x04
    2a6a:	18 0f       	add	r17, r24
		//if legs
		if(servoId < NB_LEGS * NB_SERVOS_PER_LEG)
    2a6c:	12 31       	cpi	r17, 0x12	; 18
    2a6e:	c8 f5       	brcc	.+114    	; 0x2ae2 <SrvCommUpdate+0x32a>
		{
			servo = DrvServoGetStruture(servoId);  
    2a70:	81 2f       	mov	r24, r17
    2a72:	0e 94 a7 0a 	call	0x154e	; 0x154e <DrvServoGetStruture>
				
			response[ 0U ] = '0'; //header
    2a76:	20 e3       	ldi	r18, 0x30	; 48
			response[ 1U ] = COMM_COMMAND_SERVO_MAX_READ; //command
    2a78:	29 83       	std	Y+1, r18	; 0x01
			formatMessageMinMax(servoId, servo->max, response);
    2a7a:	25 e3       	ldi	r18, 0x35	; 53
    2a7c:	2a 83       	std	Y+2, r18	; 0x02
    2a7e:	ae 01       	movw	r20, r28
    2a80:	4f 5f       	subi	r20, 0xFF	; 255
    2a82:	5f 4f       	sbci	r21, 0xFF	; 255
    2a84:	dc 01       	movw	r26, r24
    2a86:	53 96       	adiw	r26, 0x13	; 19
    2a88:	6c 91       	ld	r22, X
    2a8a:	81 2f       	mov	r24, r17
			SrvCommWriteMessage(response, 11U);
    2a8c:	31 de       	rcall	.-926    	; 0x26f0 <formatMessageMinMax>
    2a8e:	6b e0       	ldi	r22, 0x0B	; 11
    2a90:	ce 01       	movw	r24, r28
    2a92:	01 96       	adiw	r24, 0x01	; 1
    2a94:	6c de       	rcall	.-808    	; 0x276e <SrvCommWriteMessage>
    2a96:	20 c0       	rjmp	.+64     	; 0x2ad8 <SrvCommUpdate+0x320>
					inMessage.size = 0U;
				}
				else
				{
					//fill buffer
					inMessage.data[ inMessage.size ] = datum;
    2a98:	f7 01       	movw	r30, r14
    2a9a:	92 81       	ldd	r25, Z+2	; 0x02
    2a9c:	29 2f       	mov	r18, r25
    2a9e:	30 e0       	ldi	r19, 0x00	; 0
    2aa0:	f9 01       	movw	r30, r18
    2aa2:	e6 52       	subi	r30, 0x26	; 38
    2aa4:	f3 4f       	sbci	r31, 0xF3	; 243
    2aa6:	83 83       	std	Z+3, r24	; 0x03
					if( (datum != '-') && (datum != '+') )
    2aa8:	8d 32       	cpi	r24, 0x2D	; 45
    2aaa:	39 f0       	breq	.+14     	; 0x2aba <SrvCommUpdate+0x302>
    2aac:	8b 32       	cpi	r24, 0x2B	; 43
    2aae:	29 f0       	breq	.+10     	; 0x2aba <SrvCommUpdate+0x302>
					{
						inMessage.data[ inMessage.size ] -= 0x30U;
    2ab0:	f9 01       	movw	r30, r18
    2ab2:	e6 52       	subi	r30, 0x26	; 38
    2ab4:	f3 4f       	sbci	r31, 0xF3	; 243
    2ab6:	80 53       	subi	r24, 0x30	; 48
    2ab8:	83 83       	std	Z+3, r24	; 0x03
					}
					inMessage.size++;
    2aba:	9f 5f       	subi	r25, 0xFF	; 255
    2abc:	d7 01       	movw	r26, r14
    2abe:	12 96       	adiw	r26, 0x02	; 2
static Boolean SrvCommDecodeMessage( void )
{
	nbDataAvailable = DrvUartDataAvailable(E_UART_0);
	
	//loop until the data is over
	for(Int16U loop = 0U; loop < nbDataAvailable ; loop++)
    2ac0:	9c 93       	st	X, r25
    2ac2:	0f 5f       	subi	r16, 0xFF	; 255
    2ac4:	1f 4f       	sbci	r17, 0xFF	; 255
    2ac6:	80 91 65 0a 	lds	r24, 0x0A65	; 0x800a65 <nbDataAvailable>
    2aca:	90 91 66 0a 	lds	r25, 0x0A66	; 0x800a66 <nbDataAvailable+0x1>
    2ace:	08 17       	cp	r16, r24
    2ad0:	19 07       	cpc	r17, r25
    2ad2:	08 f4       	brcc	.+2      	; 0x2ad6 <SrvCommUpdate+0x31e>
					status = COMM_START;
				
					//execute incoming message
					if(SrvCommExecuteMessage())
					{
						SrvCommWriteMessage((uint8_t*)"OK",2U);
    2ad4:	9d ce       	rjmp	.-710    	; 0x2810 <SrvCommUpdate+0x58>
    2ad6:	09 c0       	rjmp	.+18     	; 0x2aea <SrvCommUpdate+0x332>
    2ad8:	62 e0       	ldi	r22, 0x02	; 2
    2ada:	84 e7       	ldi	r24, 0x74	; 116
    2adc:	94 e0       	ldi	r25, 0x04	; 4
    2ade:	47 de       	rcall	.-882    	; 0x276e <SrvCommWriteMessage>
						return TRUE;
					}
					else
					{
						SrvCommWriteMessage((uint8_t*)"NO",2U);
    2ae0:	04 c0       	rjmp	.+8      	; 0x2aea <SrvCommUpdate+0x332>
    2ae2:	62 e0       	ldi	r22, 0x02	; 2
    2ae4:	87 e7       	ldi	r24, 0x77	; 119
    2ae6:	94 e0       	ldi	r25, 0x04	; 4
    2ae8:	42 de       	rcall	.-892    	; 0x276e <SrvCommWriteMessage>
/*dispatcher d'evenements                                               */
/************************************************************************/
void SrvCommUpdate ( void ) 
{
	SrvCommDecodeMessage();
}
    2aea:	68 96       	adiw	r28, 0x18	; 24
    2aec:	0f b6       	in	r0, 0x3f	; 63
    2aee:	f8 94       	cli
    2af0:	de bf       	out	0x3e, r29	; 62
    2af2:	0f be       	out	0x3f, r0	; 63
    2af4:	cd bf       	out	0x3d, r28	; 61
    2af6:	df 91       	pop	r29
    2af8:	cf 91       	pop	r28
    2afa:	1f 91       	pop	r17
    2afc:	0f 91       	pop	r16
    2afe:	ff 90       	pop	r15
    2b00:	ef 90       	pop	r14
    2b02:	df 90       	pop	r13
    2b04:	cf 90       	pop	r12
    2b06:	bf 90       	pop	r11
    2b08:	08 95       	ret

00002b0a <SrvDisplayInit>:


//Fonction d'initialisation
Boolean SrvDisplayInit ( void ) 
{
	prevMillisDisplay = 0U;
    2b0a:	10 92 6a 0a 	sts	0x0A6A, r1	; 0x800a6a <prevMillisDisplay>
    2b0e:	10 92 6b 0a 	sts	0x0A6B, r1	; 0x800a6b <prevMillisDisplay+0x1>
    2b12:	10 92 6c 0a 	sts	0x0A6C, r1	; 0x800a6c <prevMillisDisplay+0x2>
    2b16:	10 92 6d 0a 	sts	0x0A6D, r1	; 0x800a6d <prevMillisDisplay+0x3>
	tempPercentage = 0U;
    2b1a:	10 92 69 0a 	sts	0x0A69, r1	; 0x800a69 <tempPercentage>
	batteryLevel = 100U;
    2b1e:	84 e6       	ldi	r24, 0x64	; 100
    2b20:	80 93 ab 01 	sts	0x01AB, r24	; 0x8001ab <batteryLevel>
	toggleBatteryLogo = FALSE;
    2b24:	10 92 68 0a 	sts	0x0A68, r1	; 0x800a68 <toggleBatteryLogo>
	initStepDisplay = 0U;
    2b28:	10 92 67 0a 	sts	0x0A67, r1	; 0x800a67 <initStepDisplay>
	direction = ARROW_CENTER;
    2b2c:	84 e0       	ldi	r24, 0x04	; 4
    2b2e:	80 93 ef 0c 	sts	0x0CEF, r24	; 0x800cef <direction>
	return DrvSSD1306Init(SSD1306_ADDRESS);
    2b32:	8c e3       	ldi	r24, 0x3C	; 60
    2b34:	0c 94 97 0d 	jmp	0x1b2e	; 0x1b2e <DrvSSD1306Init>
}
    2b38:	08 95       	ret

00002b3a <SrvDisplayScreenShowArrow>:
}


//display direction on screen
void SrvDisplayScreenShowArrow ( void )
{
    2b3a:	cf 93       	push	r28
    2b3c:	df 93       	push	r29
    2b3e:	00 d0       	rcall	.+0      	; 0x2b40 <SrvDisplayScreenShowArrow+0x6>
    2b40:	00 d0       	rcall	.+0      	; 0x2b42 <SrvDisplayScreenShowArrow+0x8>
    2b42:	00 d0       	rcall	.+0      	; 0x2b44 <SrvDisplayScreenShowArrow+0xa>
    2b44:	cd b7       	in	r28, 0x3d	; 61
    2b46:	de b7       	in	r29, 0x3e	; 62
	SBitmap bmp;
	DrvBitmapGetBitmapArrow(&bmp,direction);
    2b48:	60 91 ef 0c 	lds	r22, 0x0CEF	; 0x800cef <direction>
    2b4c:	ce 01       	movw	r24, r28
    2b4e:	01 96       	adiw	r24, 0x01	; 1
    2b50:	0e 94 8f 01 	call	0x31e	; 0x31e <DrvBitmapGetBitmapArrow>
	DrvSSD1306DrawBitmap(&bmp,SCREEN_WIDTH - bmp.width,0,COLOR_WHITE);
    2b54:	8b 81       	ldd	r24, Y+3	; 0x03
    2b56:	9c 81       	ldd	r25, Y+4	; 0x04
    2b58:	60 e8       	ldi	r22, 0x80	; 128
    2b5a:	70 e0       	ldi	r23, 0x00	; 0
    2b5c:	68 1b       	sub	r22, r24
    2b5e:	79 0b       	sbc	r23, r25
    2b60:	21 e0       	ldi	r18, 0x01	; 1
    2b62:	40 e0       	ldi	r20, 0x00	; 0
    2b64:	50 e0       	ldi	r21, 0x00	; 0
    2b66:	ce 01       	movw	r24, r28
    2b68:	01 96       	adiw	r24, 0x01	; 1
    2b6a:	0e 94 9e 0c 	call	0x193c	; 0x193c <DrvSSD1306DrawBitmap>
	DrvSSD1306Update();
    2b6e:	0e 94 79 0d 	call	0x1af2	; 0x1af2 <DrvSSD1306Update>
}
    2b72:	26 96       	adiw	r28, 0x06	; 6
    2b74:	0f b6       	in	r0, 0x3f	; 63
    2b76:	f8 94       	cli
    2b78:	de bf       	out	0x3e, r29	; 62
    2b7a:	0f be       	out	0x3f, r0	; 63
    2b7c:	cd bf       	out	0x3d, r28	; 61
    2b7e:	df 91       	pop	r29
    2b80:	cf 91       	pop	r28
    2b82:	08 95       	ret

00002b84 <SrvDisplayScreenShowBattery>:
	}
}

//display battery on screen
void SrvDisplayScreenShowBattery ( uint8_t percentage )
{
    2b84:	cf 93       	push	r28
    2b86:	df 93       	push	r29
    2b88:	00 d0       	rcall	.+0      	; 0x2b8a <SrvDisplayScreenShowBattery+0x6>
    2b8a:	00 d0       	rcall	.+0      	; 0x2b8c <SrvDisplayScreenShowBattery+0x8>
    2b8c:	00 d0       	rcall	.+0      	; 0x2b8e <SrvDisplayScreenShowBattery+0xa>
    2b8e:	cd b7       	in	r28, 0x3d	; 61
    2b90:	de b7       	in	r29, 0x3e	; 62
	SBitmap bmp;
	DrvBitmapGetBitmapBatteryValue(&bmp,percentage);
    2b92:	68 2f       	mov	r22, r24
    2b94:	ce 01       	movw	r24, r28
    2b96:	01 96       	adiw	r24, 0x01	; 1
    2b98:	0e 94 bb 01 	call	0x376	; 0x376 <DrvBitmapGetBitmapBatteryValue>
	DrvSSD1306DrawBitmap(&bmp,0,0,COLOR_WHITE);
    2b9c:	21 e0       	ldi	r18, 0x01	; 1
    2b9e:	40 e0       	ldi	r20, 0x00	; 0
    2ba0:	50 e0       	ldi	r21, 0x00	; 0
    2ba2:	60 e0       	ldi	r22, 0x00	; 0
    2ba4:	70 e0       	ldi	r23, 0x00	; 0
    2ba6:	ce 01       	movw	r24, r28
    2ba8:	01 96       	adiw	r24, 0x01	; 1
    2baa:	0e 94 9e 0c 	call	0x193c	; 0x193c <DrvSSD1306DrawBitmap>
	DrvSSD1306Update();
    2bae:	0e 94 79 0d 	call	0x1af2	; 0x1af2 <DrvSSD1306Update>
}
    2bb2:	26 96       	adiw	r28, 0x06	; 6
    2bb4:	0f b6       	in	r0, 0x3f	; 63
    2bb6:	f8 94       	cli
    2bb8:	de bf       	out	0x3e, r29	; 62
    2bba:	0f be       	out	0x3f, r0	; 63
    2bbc:	cd bf       	out	0x3d, r28	; 61
    2bbe:	df 91       	pop	r29
    2bc0:	cf 91       	pop	r28
    2bc2:	08 95       	ret

00002bc4 <SrvDisplayScreenBatteryManagement>:
	DrvSSD1306Update();
}

//display battery on screen
void SrvDisplayScreenBatteryManagement ( void )
{
    2bc4:	0f 93       	push	r16
    2bc6:	1f 93       	push	r17
	if ((DrvTickGetTimeMs() - prevMillisDisplay) > 250U)
    2bc8:	2e d8       	rcall	.-4004   	; 0x1c26 <DrvTickGetTimeMs>
    2bca:	00 91 6a 0a 	lds	r16, 0x0A6A	; 0x800a6a <prevMillisDisplay>
    2bce:	10 91 6b 0a 	lds	r17, 0x0A6B	; 0x800a6b <prevMillisDisplay+0x1>
    2bd2:	20 91 6c 0a 	lds	r18, 0x0A6C	; 0x800a6c <prevMillisDisplay+0x2>
    2bd6:	30 91 6d 0a 	lds	r19, 0x0A6D	; 0x800a6d <prevMillisDisplay+0x3>
    2bda:	dc 01       	movw	r26, r24
    2bdc:	cb 01       	movw	r24, r22
    2bde:	80 1b       	sub	r24, r16
    2be0:	91 0b       	sbc	r25, r17
    2be2:	a2 0b       	sbc	r26, r18
    2be4:	b3 0b       	sbc	r27, r19
    2be6:	8b 3f       	cpi	r24, 0xFB	; 251
    2be8:	91 05       	cpc	r25, r1
    2bea:	a1 05       	cpc	r26, r1
    2bec:	b1 05       	cpc	r27, r1
    2bee:	18 f1       	brcs	.+70     	; 0x2c36 <SrvDisplayScreenBatteryManagement+0x72>
	{
		prevMillisDisplay = DrvTickGetTimeMs();
    2bf0:	1a d8       	rcall	.-4044   	; 0x1c26 <DrvTickGetTimeMs>
    2bf2:	60 93 6a 0a 	sts	0x0A6A, r22	; 0x800a6a <prevMillisDisplay>
    2bf6:	70 93 6b 0a 	sts	0x0A6B, r23	; 0x800a6b <prevMillisDisplay+0x1>
    2bfa:	80 93 6c 0a 	sts	0x0A6C, r24	; 0x800a6c <prevMillisDisplay+0x2>
    2bfe:	90 93 6d 0a 	sts	0x0A6D, r25	; 0x800a6d <prevMillisDisplay+0x3>
    2c02:	57 dd       	rcall	.-1362   	; 0x26b2 <SrvBatteryGetValue>

		batteryLevel = SrvBatteryGetValue();
    2c04:	80 93 ab 01 	sts	0x01AB, r24	; 0x8001ab <batteryLevel>
    2c08:	81 11       	cpse	r24, r1
		if( batteryLevel == 0U )
    2c0a:	04 c0       	rjmp	.+8      	; 0x2c14 <SrvDisplayScreenBatteryManagement+0x50>
    2c0c:	84 e6       	ldi	r24, 0x64	; 100
		{
			batteryLevel = 100U;
    2c0e:	80 93 ab 01 	sts	0x01AB, r24	; 0x8001ab <batteryLevel>
    2c12:	11 c0       	rjmp	.+34     	; 0x2c36 <SrvDisplayScreenBatteryManagement+0x72>
    2c14:	8a 31       	cpi	r24, 0x1A	; 26
		}
		else if( batteryLevel <= 25U )
    2c16:	70 f4       	brcc	.+28     	; 0x2c34 <SrvDisplayScreenBatteryManagement+0x70>
    2c18:	90 91 68 0a 	lds	r25, 0x0A68	; 0x800a68 <toggleBatteryLogo>
		{
			if(toggleBatteryLogo == TRUE)
    2c1c:	91 30       	cpi	r25, 0x01	; 1
    2c1e:	21 f4       	brne	.+8      	; 0x2c28 <SrvDisplayScreenBatteryManagement+0x64>
    2c20:	10 92 68 0a 	sts	0x0A68, r1	; 0x800a68 <toggleBatteryLogo>
			{
				toggleBatteryLogo = FALSE;
				SrvDisplayScreenShowBattery(batteryLevel);
    2c24:	af df       	rcall	.-162    	; 0x2b84 <SrvDisplayScreenShowBattery>
    2c26:	07 c0       	rjmp	.+14     	; 0x2c36 <SrvDisplayScreenBatteryManagement+0x72>
    2c28:	81 e0       	ldi	r24, 0x01	; 1
			}
			else
			{
				toggleBatteryLogo = TRUE;
    2c2a:	80 93 68 0a 	sts	0x0A68, r24	; 0x800a68 <toggleBatteryLogo>
				SrvDisplayScreenShowBattery(25);
    2c2e:	89 e1       	ldi	r24, 0x19	; 25
    2c30:	a9 df       	rcall	.-174    	; 0x2b84 <SrvDisplayScreenShowBattery>
    2c32:	01 c0       	rjmp	.+2      	; 0x2c36 <SrvDisplayScreenBatteryManagement+0x72>
			}
		}
		else
		{
			//show battery
			SrvDisplayScreenShowBattery(batteryLevel);
    2c34:	a7 df       	rcall	.-178    	; 0x2b84 <SrvDisplayScreenShowBattery>
    2c36:	1f 91       	pop	r17
		}
		
	}
}
    2c38:	0f 91       	pop	r16
    2c3a:	08 95       	ret

00002c3c <SrvDisplayScreenShowString>:
    2c3c:	0f 93       	push	r16
	DrvSSD1306Update();
}

//display string on screen
Boolean SrvDisplayScreenShowString ( char * data )
{
    2c3e:	1f 93       	push	r17
    2c40:	cf 93       	push	r28
    2c42:	df 93       	push	r29
    2c44:	ec 01       	movw	r28, r24
	uint8_t x = 5U;
	uint8_t y = 10U;
	
	DrvSSD1306EraseArea(x,y,CHAR_WIDTH * 10U,CHAR_HEIGHT);
    2c46:	28 e0       	ldi	r18, 0x08	; 8
    2c48:	30 e0       	ldi	r19, 0x00	; 0
    2c4a:	42 e3       	ldi	r20, 0x32	; 50
    2c4c:	50 e0       	ldi	r21, 0x00	; 0
    2c4e:	6a e0       	ldi	r22, 0x0A	; 10
    2c50:	70 e0       	ldi	r23, 0x00	; 0
    2c52:	85 e0       	ldi	r24, 0x05	; 5
    2c54:	90 e0       	ldi	r25, 0x00	; 0
    2c56:	0e 94 39 0b 	call	0x1672	; 0x1672 <DrvSSD1306EraseArea>
	while ( *data )
    2c5a:	88 81       	ld	r24, Y
    2c5c:	88 23       	and	r24, r24
    2c5e:	89 f0       	breq	.+34     	; 0x2c82 <SrvDisplayScreenShowString+0x46>
    2c60:	8e 01       	movw	r16, r28
    2c62:	0f 5f       	subi	r16, 0xFF	; 255
    2c64:	1f 4f       	sbci	r17, 0xFF	; 255
    2c66:	c5 e0       	ldi	r28, 0x05	; 5
	{
		DrvSSD1306DrawChar(*data++, x, y, COLOR_WHITE);
    2c68:	6c 2f       	mov	r22, r28
    2c6a:	70 e0       	ldi	r23, 0x00	; 0
    2c6c:	21 e0       	ldi	r18, 0x01	; 1
    2c6e:	4a e0       	ldi	r20, 0x0A	; 10
    2c70:	50 e0       	ldi	r21, 0x00	; 0
    2c72:	0e 94 1c 0c 	call	0x1838	; 0x1838 <DrvSSD1306DrawChar>
		x += CHAR_WIDTH;
    2c76:	cb 5f       	subi	r28, 0xFB	; 251
{
	uint8_t x = 5U;
	uint8_t y = 10U;
	
	DrvSSD1306EraseArea(x,y,CHAR_WIDTH * 10U,CHAR_HEIGHT);
	while ( *data )
    2c78:	f8 01       	movw	r30, r16
    2c7a:	81 91       	ld	r24, Z+
    2c7c:	8f 01       	movw	r16, r30
    2c7e:	81 11       	cpse	r24, r1
    2c80:	f3 cf       	rjmp	.-26     	; 0x2c68 <SrvDisplayScreenShowString+0x2c>
	{
		DrvSSD1306DrawChar(*data++, x, y, COLOR_WHITE);
		x += CHAR_WIDTH;
	}
	DrvSSD1306Update();
    2c82:	0e 94 79 0d 	call	0x1af2	; 0x1af2 <DrvSSD1306Update>
	return TRUE;
}
    2c86:	81 e0       	ldi	r24, 0x01	; 1
    2c88:	df 91       	pop	r29
    2c8a:	cf 91       	pop	r28
    2c8c:	1f 91       	pop	r17
    2c8e:	0f 91       	pop	r16
    2c90:	08 95       	ret

00002c92 <SrvDisplayScreenHideProgressBar>:
//display line on screen
Boolean SrvDisplayScreenHideProgressBar ( void )
{
    2c92:	0f 93       	push	r16
    2c94:	1f 93       	push	r17
    2c96:	cf 93       	push	r28
    2c98:	df 93       	push	r29
	#define WAITBAR_HEIGHT	5U
	//rectangle of the contour of progress bar
	DrvSSD1306DrawRectangle(
    2c9a:	00 e0       	ldi	r16, 0x00	; 0
    2c9c:	10 e0       	ldi	r17, 0x00	; 0
    2c9e:	25 e1       	ldi	r18, 0x15	; 21
    2ca0:	30 e0       	ldi	r19, 0x00	; 0
    2ca2:	4f e7       	ldi	r20, 0x7F	; 127
    2ca4:	50 e0       	ldi	r21, 0x00	; 0
    2ca6:	6f e0       	ldi	r22, 0x0F	; 15
    2ca8:	70 e0       	ldi	r23, 0x00	; 0
    2caa:	80 e0       	ldi	r24, 0x00	; 0
    2cac:	90 e0       	ldi	r25, 0x00	; 0
    2cae:	0e 94 e2 0b 	call	0x17c4	; 0x17c4 <DrvSSD1306DrawRectangle>
    2cb2:	0f c0       	rjmp	.+30     	; 0x2cd2 <SrvDisplayScreenHideProgressBar+0x40>
	//show value
	for( uint8_t loop_x = 0U ; loop_x < SCREEN_WIDTH ; loop_x++ )
	{
		for( uint8_t loop_y = 0U ; loop_y < WAITBAR_HEIGHT ; loop_y++ )
		{
			DrvSSD1306DrawPixel(loop_x, (SCREEN_HEIGHT / 2U) + loop_y, COLOR_BLACK);
    2cb4:	40 e0       	ldi	r20, 0x00	; 0
    2cb6:	50 e0       	ldi	r21, 0x00	; 0
    2cb8:	be 01       	movw	r22, r28
    2cba:	c8 01       	movw	r24, r16
    2cbc:	0e 94 ce 0a 	call	0x159c	; 0x159c <DrvSSD1306DrawPixel>
    2cc0:	21 96       	adiw	r28, 0x01	; 1
	(SCREEN_HEIGHT / 2U) + WAITBAR_HEIGHT,
	COLOR_BLACK );
	//show value
	for( uint8_t loop_x = 0U ; loop_x < SCREEN_WIDTH ; loop_x++ )
	{
		for( uint8_t loop_y = 0U ; loop_y < WAITBAR_HEIGHT ; loop_y++ )
    2cc2:	c5 31       	cpi	r28, 0x15	; 21
    2cc4:	d1 05       	cpc	r29, r1
    2cc6:	b1 f7       	brne	.-20     	; 0x2cb4 <SrvDisplayScreenHideProgressBar+0x22>
    2cc8:	0f 5f       	subi	r16, 0xFF	; 255
    2cca:	1f 4f       	sbci	r17, 0xFF	; 255
	(SCREEN_HEIGHT / 2U) - WAITBAR_HEIGHT + 4U,
	SCREEN_WIDTH- 1U,
	(SCREEN_HEIGHT / 2U) + WAITBAR_HEIGHT,
	COLOR_BLACK );
	//show value
	for( uint8_t loop_x = 0U ; loop_x < SCREEN_WIDTH ; loop_x++ )
    2ccc:	00 38       	cpi	r16, 0x80	; 128
    2cce:	11 05       	cpc	r17, r1
    2cd0:	19 f0       	breq	.+6      	; 0x2cd8 <SrvDisplayScreenHideProgressBar+0x46>
	DrvSSD1306Update();
	return TRUE;
}
//display line on screen
Boolean SrvDisplayScreenHideProgressBar ( void )
{
    2cd2:	c0 e1       	ldi	r28, 0x10	; 16
    2cd4:	d0 e0       	ldi	r29, 0x00	; 0
    2cd6:	ee cf       	rjmp	.-36     	; 0x2cb4 <SrvDisplayScreenHideProgressBar+0x22>
		for( uint8_t loop_y = 0U ; loop_y < WAITBAR_HEIGHT ; loop_y++ )
		{
			DrvSSD1306DrawPixel(loop_x, (SCREEN_HEIGHT / 2U) + loop_y, COLOR_BLACK);
		}
	}
	DrvSSD1306Update();
    2cd8:	0e 94 79 0d 	call	0x1af2	; 0x1af2 <DrvSSD1306Update>
	return TRUE;
}
    2cdc:	81 e0       	ldi	r24, 0x01	; 1
    2cde:	df 91       	pop	r29
    2ce0:	cf 91       	pop	r28
    2ce2:	1f 91       	pop	r17
    2ce4:	0f 91       	pop	r16
    2ce6:	08 95       	ret

00002ce8 <SrvDisplayScreenShowProgressBar>:

//display line on screen
Boolean SrvDisplayScreenShowProgressBar ( uint8_t percentage )
{
    2ce8:	0f 93       	push	r16
    2cea:	1f 93       	push	r17
    2cec:	cf 93       	push	r28
    2cee:	df 93       	push	r29
    2cf0:	c8 2f       	mov	r28, r24
	#define WAITBAR_HEIGHT	5U
	
	//every 10ms progress bar value increment
	if ((DrvTickGetTimeMs() - prevMillisDisplay) > 10U)
    2cf2:	0e 94 13 0e 	call	0x1c26	; 0x1c26 <DrvTickGetTimeMs>
    2cf6:	00 91 6a 0a 	lds	r16, 0x0A6A	; 0x800a6a <prevMillisDisplay>
    2cfa:	10 91 6b 0a 	lds	r17, 0x0A6B	; 0x800a6b <prevMillisDisplay+0x1>
    2cfe:	20 91 6c 0a 	lds	r18, 0x0A6C	; 0x800a6c <prevMillisDisplay+0x2>
    2d02:	30 91 6d 0a 	lds	r19, 0x0A6D	; 0x800a6d <prevMillisDisplay+0x3>
    2d06:	dc 01       	movw	r26, r24
    2d08:	cb 01       	movw	r24, r22
    2d0a:	80 1b       	sub	r24, r16
    2d0c:	91 0b       	sbc	r25, r17
    2d0e:	a2 0b       	sbc	r26, r18
    2d10:	b3 0b       	sbc	r27, r19
    2d12:	0b 97       	sbiw	r24, 0x0b	; 11
    2d14:	a1 05       	cpc	r26, r1
    2d16:	b1 05       	cpc	r27, r1
    2d18:	e0 f1       	brcs	.+120    	; 0x2d92 <SrvDisplayScreenShowProgressBar+0xaa>
	{
		prevMillisDisplay = DrvTickGetTimeMs();
    2d1a:	0e 94 13 0e 	call	0x1c26	; 0x1c26 <DrvTickGetTimeMs>
    2d1e:	60 93 6a 0a 	sts	0x0A6A, r22	; 0x800a6a <prevMillisDisplay>
    2d22:	70 93 6b 0a 	sts	0x0A6B, r23	; 0x800a6b <prevMillisDisplay+0x1>
    2d26:	80 93 6c 0a 	sts	0x0A6C, r24	; 0x800a6c <prevMillisDisplay+0x2>
    2d2a:	90 93 6d 0a 	sts	0x0A6D, r25	; 0x800a6d <prevMillisDisplay+0x3>
		//stop at percentage
		if( tempPercentage > ((percentage * SCREEN_WIDTH)/100) )
    2d2e:	40 91 69 0a 	lds	r20, 0x0A69	; 0x800a69 <tempPercentage>
    2d32:	50 e0       	ldi	r21, 0x00	; 0
    2d34:	80 e2       	ldi	r24, 0x20	; 32
    2d36:	c8 9f       	mul	r28, r24
    2d38:	90 01       	movw	r18, r0
    2d3a:	11 24       	eor	r1, r1
    2d3c:	ab e7       	ldi	r26, 0x7B	; 123
    2d3e:	b4 e1       	ldi	r27, 0x14	; 20
    2d40:	4b d5       	rcall	.+2710   	; 0x37d8 <__umulhisi3>
    2d42:	96 95       	lsr	r25
    2d44:	87 95       	ror	r24
    2d46:	84 17       	cp	r24, r20
    2d48:	95 07       	cpc	r25, r21
    2d4a:	28 f1       	brcs	.+74     	; 0x2d96 <SrvDisplayScreenShowProgressBar+0xae>
			return TRUE;
		}
		else
		{
			//rectangle of the contour of progress bar
			DrvSSD1306DrawRectangle(
    2d4c:	01 e0       	ldi	r16, 0x01	; 1
    2d4e:	10 e0       	ldi	r17, 0x00	; 0
    2d50:	25 e1       	ldi	r18, 0x15	; 21
    2d52:	30 e0       	ldi	r19, 0x00	; 0
    2d54:	4f e7       	ldi	r20, 0x7F	; 127
    2d56:	50 e0       	ldi	r21, 0x00	; 0
    2d58:	6f e0       	ldi	r22, 0x0F	; 15
    2d5a:	70 e0       	ldi	r23, 0x00	; 0
    2d5c:	80 e0       	ldi	r24, 0x00	; 0
    2d5e:	90 e0       	ldi	r25, 0x00	; 0
    2d60:	0e 94 e2 0b 	call	0x17c4	; 0x17c4 <DrvSSD1306DrawRectangle>
    2d64:	c0 e1       	ldi	r28, 0x10	; 16
    2d66:	d0 e0       	ldi	r29, 0x00	; 0
			(SCREEN_HEIGHT / 2U) + WAITBAR_HEIGHT,
			COLOR_WHITE );
			//show value
			for( uint8_t loop_y = 0U ; loop_y < WAITBAR_HEIGHT ; loop_y++ )
			{
				DrvSSD1306DrawPixel(tempPercentage, (SCREEN_HEIGHT / 2U) + loop_y, COLOR_WHITE);
    2d68:	80 91 69 0a 	lds	r24, 0x0A69	; 0x800a69 <tempPercentage>
    2d6c:	41 e0       	ldi	r20, 0x01	; 1
    2d6e:	50 e0       	ldi	r21, 0x00	; 0
    2d70:	be 01       	movw	r22, r28
    2d72:	90 e0       	ldi	r25, 0x00	; 0
    2d74:	0e 94 ce 0a 	call	0x159c	; 0x159c <DrvSSD1306DrawPixel>
    2d78:	21 96       	adiw	r28, 0x01	; 1
			(SCREEN_HEIGHT / 2U) - WAITBAR_HEIGHT + 4U,
			SCREEN_WIDTH- 1U,
			(SCREEN_HEIGHT / 2U) + WAITBAR_HEIGHT,
			COLOR_WHITE );
			//show value
			for( uint8_t loop_y = 0U ; loop_y < WAITBAR_HEIGHT ; loop_y++ )
    2d7a:	c5 31       	cpi	r28, 0x15	; 21
    2d7c:	d1 05       	cpc	r29, r1
    2d7e:	a1 f7       	brne	.-24     	; 0x2d68 <SrvDisplayScreenShowProgressBar+0x80>
			{
				DrvSSD1306DrawPixel(tempPercentage, (SCREEN_HEIGHT / 2U) + loop_y, COLOR_WHITE);
			}
			tempPercentage++;
    2d80:	80 91 69 0a 	lds	r24, 0x0A69	; 0x800a69 <tempPercentage>
    2d84:	8f 5f       	subi	r24, 0xFF	; 255
    2d86:	80 93 69 0a 	sts	0x0A69, r24	; 0x800a69 <tempPercentage>
			DrvSSD1306Update();
    2d8a:	0e 94 79 0d 	call	0x1af2	; 0x1af2 <DrvSSD1306Update>
		}
	}
	return FALSE;
    2d8e:	80 e0       	ldi	r24, 0x00	; 0
    2d90:	03 c0       	rjmp	.+6      	; 0x2d98 <SrvDisplayScreenShowProgressBar+0xb0>
    2d92:	80 e0       	ldi	r24, 0x00	; 0
    2d94:	01 c0       	rjmp	.+2      	; 0x2d98 <SrvDisplayScreenShowProgressBar+0xb0>
	{
		prevMillisDisplay = DrvTickGetTimeMs();
		//stop at percentage
		if( tempPercentage > ((percentage * SCREEN_WIDTH)/100) )
		{
			return TRUE;
    2d96:	81 e0       	ldi	r24, 0x01	; 1
			tempPercentage++;
			DrvSSD1306Update();
		}
	}
	return FALSE;
    2d98:	df 91       	pop	r29
    2d9a:	cf 91       	pop	r28
    2d9c:	1f 91       	pop	r17
    2d9e:	0f 91       	pop	r16
    2da0:	08 95       	ret

00002da2 <SrvDisplayUpdate>:
	return DrvSSD1306Init(SSD1306_ADDRESS);
}

//Fonction de dispatching d'evenements
void SrvDisplayUpdate (void)
{
    2da2:	0f 93       	push	r16
    2da4:	1f 93       	push	r17
    2da6:	cf 93       	push	r28
    2da8:	df 93       	push	r29
    2daa:	00 d0       	rcall	.+0      	; 0x2dac <SrvDisplayUpdate+0xa>
    2dac:	00 d0       	rcall	.+0      	; 0x2dae <SrvDisplayUpdate+0xc>
    2dae:	1f 92       	push	r1
    2db0:	cd b7       	in	r28, 0x3d	; 61
    2db2:	de b7       	in	r29, 0x3e	; 62
	if( initStepDisplay == 0U )
    2db4:	80 91 67 0a 	lds	r24, 0x0A67	; 0x800a67 <initStepDisplay>
    2db8:	81 11       	cpse	r24, r1
    2dba:	0d c0       	rjmp	.+26     	; 0x2dd6 <SrvDisplayUpdate+0x34>
	{
		//up to 100
		if(SrvDisplayScreenShowProgressBar(100))
    2dbc:	84 e6       	ldi	r24, 0x64	; 100
    2dbe:	94 df       	rcall	.-216    	; 0x2ce8 <SrvDisplayScreenShowProgressBar>
    2dc0:	88 23       	and	r24, r24
    2dc2:	09 f4       	brne	.+2      	; 0x2dc6 <SrvDisplayUpdate+0x24>
    2dc4:	3e c0       	rjmp	.+124    	; 0x2e42 <SrvDisplayUpdate+0xa0>
		{
			//go to next step 
			initStepDisplay = 1U;
    2dc6:	81 e0       	ldi	r24, 0x01	; 1
    2dc8:	80 93 67 0a 	sts	0x0A67, r24	; 0x800a67 <initStepDisplay>
			//hide progress bar
			SrvDisplayScreenHideProgressBar();
    2dcc:	62 df       	rcall	.-316    	; 0x2c92 <SrvDisplayScreenHideProgressBar>
			//show string
			SrvDisplayScreenShowString("Init done !");
    2dce:	8a e7       	ldi	r24, 0x7A	; 122
    2dd0:	94 e0       	ldi	r25, 0x04	; 4
    2dd2:	34 df       	rcall	.-408    	; 0x2c3c <SrvDisplayScreenShowString>
    2dd4:	36 c0       	rjmp	.+108    	; 0x2e42 <SrvDisplayUpdate+0xa0>
		}
		
	}
	else if( initStepDisplay == 1U )
    2dd6:	81 30       	cpi	r24, 0x01	; 1
    2dd8:	29 f5       	brne	.+74     	; 0x2e24 <SrvDisplayUpdate+0x82>
	{
		//next step in 1s
		if ((DrvTickGetTimeMs() - prevMillisDisplay) > 1000U)
    2dda:	0e 94 13 0e 	call	0x1c26	; 0x1c26 <DrvTickGetTimeMs>
    2dde:	00 91 6a 0a 	lds	r16, 0x0A6A	; 0x800a6a <prevMillisDisplay>
    2de2:	10 91 6b 0a 	lds	r17, 0x0A6B	; 0x800a6b <prevMillisDisplay+0x1>
    2de6:	20 91 6c 0a 	lds	r18, 0x0A6C	; 0x800a6c <prevMillisDisplay+0x2>
    2dea:	30 91 6d 0a 	lds	r19, 0x0A6D	; 0x800a6d <prevMillisDisplay+0x3>
    2dee:	dc 01       	movw	r26, r24
    2df0:	cb 01       	movw	r24, r22
    2df2:	80 1b       	sub	r24, r16
    2df4:	91 0b       	sbc	r25, r17
    2df6:	a2 0b       	sbc	r26, r18
    2df8:	b3 0b       	sbc	r27, r19
    2dfa:	89 3e       	cpi	r24, 0xE9	; 233
    2dfc:	93 40       	sbci	r25, 0x03	; 3
    2dfe:	a1 05       	cpc	r26, r1
    2e00:	b1 05       	cpc	r27, r1
    2e02:	f8 f0       	brcs	.+62     	; 0x2e42 <SrvDisplayUpdate+0xa0>
		{
			prevMillisDisplay = DrvTickGetTimeMs();
    2e04:	0e 94 13 0e 	call	0x1c26	; 0x1c26 <DrvTickGetTimeMs>
    2e08:	60 93 6a 0a 	sts	0x0A6A, r22	; 0x800a6a <prevMillisDisplay>
    2e0c:	70 93 6b 0a 	sts	0x0A6B, r23	; 0x800a6b <prevMillisDisplay+0x1>
    2e10:	80 93 6c 0a 	sts	0x0A6C, r24	; 0x800a6c <prevMillisDisplay+0x2>
    2e14:	90 93 6d 0a 	sts	0x0A6D, r25	; 0x800a6d <prevMillisDisplay+0x3>
			//clear buffer
			DrvSSD1306ClearBuffer();
    2e18:	0e 94 c2 0a 	call	0x1584	; 0x1584 <DrvSSD1306ClearBuffer>
				
			//go to next step 
			initStepDisplay = 2U;	
    2e1c:	82 e0       	ldi	r24, 0x02	; 2
    2e1e:	80 93 67 0a 	sts	0x0A67, r24	; 0x800a67 <initStepDisplay>
		}
	}
	else if( initStepDisplay == 2U )
    2e22:	0f c0       	rjmp	.+30     	; 0x2e42 <SrvDisplayUpdate+0xa0>
	{
		SrvDisplayScreenBatteryManagement();
    2e24:	82 30       	cpi	r24, 0x02	; 2
    2e26:	69 f4       	brne	.+26     	; 0x2e42 <SrvDisplayUpdate+0xa0>
		SrvDisplayScreenShowArrow();
    2e28:	cd de       	rcall	.-614    	; 0x2bc4 <SrvDisplayScreenBatteryManagement>
    2e2a:	87 de       	rcall	.-754    	; 0x2b3a <SrvDisplayScreenShowArrow>
    2e2c:	80 91 ab 01 	lds	r24, 0x01AB	; 0x8001ab <batteryLevel>
    2e30:	4a e0       	ldi	r20, 0x0A	; 10
    2e32:	be 01       	movw	r22, r28
    2e34:	6f 5f       	subi	r22, 0xFF	; 255
    2e36:	7f 4f       	sbci	r23, 0xFF	; 255
    2e38:	90 e0       	ldi	r25, 0x00	; 0
		
		char tab[5U];
		itoa (batteryLevel, tab, 10);
		SrvDisplayScreenShowString(tab);
    2e3a:	dd d4       	rcall	.+2490   	; 0x37f6 <__itoa_ncheck>
    2e3c:	ce 01       	movw	r24, r28
    2e3e:	01 96       	adiw	r24, 0x01	; 1
    2e40:	fd de       	rcall	.-518    	; 0x2c3c <SrvDisplayScreenShowString>
	}
}
    2e42:	0f 90       	pop	r0
    2e44:	0f 90       	pop	r0
    2e46:	0f 90       	pop	r0
    2e48:	0f 90       	pop	r0
    2e4a:	0f 90       	pop	r0
    2e4c:	df 91       	pop	r29
    2e4e:	cf 91       	pop	r28
    2e50:	1f 91       	pop	r17
    2e52:	0f 91       	pop	r16
    2e54:	08 95       	ret

00002e56 <SrvIhmInit>:
Boolean SrvIhmInit ( void )
{
    Boolean oSuccess = TRUE;

	//init buttons & leds
	DrvButtonInit();
    2e56:	0e 94 14 02 	call	0x428	; 0x428 <DrvButtonInit>
	DrvLedInit();
    2e5a:	0e 94 63 03 	call	0x6c6	; 0x6c6 <DrvLedInit>

	//create button
	DrvButtonAddButton(E_BUTTON_SETUP);
    2e5e:	80 e0       	ldi	r24, 0x00	; 0
    2e60:	0e 94 1e 02 	call	0x43c	; 0x43c <DrvButtonAddButton>
	//create the LEDs
	DrvLedSetPinLed(E_LED_0);
    2e64:	80 e0       	ldi	r24, 0x00	; 0
    2e66:	0e 94 6d 03 	call	0x6da	; 0x6da <DrvLedSetPinLed>
	DrvLedSetPinLed(E_LED_1);
    2e6a:	81 e0       	ldi	r24, 0x01	; 1
    2e6c:	0e 94 6d 03 	call	0x6da	; 0x6da <DrvLedSetPinLed>
	DrvLedSetPinLed(E_LED_2);
    2e70:	82 e0       	ldi	r24, 0x02	; 2
    2e72:	0e 94 6d 03 	call	0x6da	; 0x6da <DrvLedSetPinLed>
	DrvLedSetPinLed(E_LED_3);
    2e76:	83 e0       	ldi	r24, 0x03	; 3
    2e78:	0e 94 6d 03 	call	0x6da	; 0x6da <DrvLedSetPinLed>
	
    return oSuccess;
}
    2e7c:	81 e0       	ldi	r24, 0x01	; 1
    2e7e:	08 95       	ret

00002e80 <SrvIhmHeartbeat>:
}


//heartbeat
void SrvIhmHeartbeat ( void )
{
    2e80:	cf 92       	push	r12
    2e82:	df 92       	push	r13
    2e84:	ef 92       	push	r14
    2e86:	ff 92       	push	r15
    2e88:	0f 93       	push	r16
    2e8a:	1f 93       	push	r17
	//heartbeat
	if ((DrvTickGetTimeMs() - prevMillisHeartBeat) > (long)(heartBeatArray[heartbeatIndex]))
    2e8c:	0e 94 13 0e 	call	0x1c26	; 0x1c26 <DrvTickGetTimeMs>
    2e90:	a0 91 72 0a 	lds	r26, 0x0A72	; 0x800a72 <heartbeatIndex>
    2e94:	00 91 6e 0a 	lds	r16, 0x0A6E	; 0x800a6e <prevMillisHeartBeat>
    2e98:	10 91 6f 0a 	lds	r17, 0x0A6F	; 0x800a6f <prevMillisHeartBeat+0x1>
    2e9c:	20 91 70 0a 	lds	r18, 0x0A70	; 0x800a70 <prevMillisHeartBeat+0x2>
    2ea0:	30 91 71 0a 	lds	r19, 0x0A71	; 0x800a71 <prevMillisHeartBeat+0x3>
    2ea4:	6b 01       	movw	r12, r22
    2ea6:	7c 01       	movw	r14, r24
    2ea8:	c0 1a       	sub	r12, r16
    2eaa:	d1 0a       	sbc	r13, r17
    2eac:	e2 0a       	sbc	r14, r18
    2eae:	f3 0a       	sbc	r15, r19
    2eb0:	ea 2f       	mov	r30, r26
    2eb2:	f0 e0       	ldi	r31, 0x00	; 0
    2eb4:	ee 0f       	add	r30, r30
    2eb6:	ff 1f       	adc	r31, r31
    2eb8:	e4 55       	subi	r30, 0x54	; 84
    2eba:	fe 4f       	sbci	r31, 0xFE	; 254
    2ebc:	40 81       	ld	r20, Z
    2ebe:	51 81       	ldd	r21, Z+1	; 0x01
    2ec0:	60 e0       	ldi	r22, 0x00	; 0
    2ec2:	70 e0       	ldi	r23, 0x00	; 0
    2ec4:	4c 15       	cp	r20, r12
    2ec6:	5d 05       	cpc	r21, r13
    2ec8:	6e 05       	cpc	r22, r14
    2eca:	7f 05       	cpc	r23, r15
    2ecc:	b0 f4       	brcc	.+44     	; 0x2efa <SrvIhmHeartbeat+0x7a>
	{
		if (++heartbeatIndex > 3U)
    2ece:	81 e0       	ldi	r24, 0x01	; 1
    2ed0:	8a 0f       	add	r24, r26
    2ed2:	84 30       	cpi	r24, 0x04	; 4
    2ed4:	18 f4       	brcc	.+6      	; 0x2edc <SrvIhmHeartbeat+0x5c>
    2ed6:	80 93 72 0a 	sts	0x0A72, r24	; 0x800a72 <heartbeatIndex>
    2eda:	02 c0       	rjmp	.+4      	; 0x2ee0 <SrvIhmHeartbeat+0x60>
		{
			heartbeatIndex = 0U;
    2edc:	10 92 72 0a 	sts	0x0A72, r1	; 0x800a72 <heartbeatIndex>
		}

		DrvLedSetToggle(E_LED_0);
    2ee0:	80 e0       	ldi	r24, 0x00	; 0
    2ee2:	0e 94 8d 03 	call	0x71a	; 0x71a <DrvLedSetToggle>
		prevMillisHeartBeat = DrvTickGetTimeMs();
    2ee6:	0e 94 13 0e 	call	0x1c26	; 0x1c26 <DrvTickGetTimeMs>
    2eea:	60 93 6e 0a 	sts	0x0A6E, r22	; 0x800a6e <prevMillisHeartBeat>
    2eee:	70 93 6f 0a 	sts	0x0A6F, r23	; 0x800a6f <prevMillisHeartBeat+0x1>
    2ef2:	80 93 70 0a 	sts	0x0A70, r24	; 0x800a70 <prevMillisHeartBeat+0x2>
    2ef6:	90 93 71 0a 	sts	0x0A71, r25	; 0x800a71 <prevMillisHeartBeat+0x3>
	}
}
    2efa:	1f 91       	pop	r17
    2efc:	0f 91       	pop	r16
    2efe:	ff 90       	pop	r15
    2f00:	ef 90       	pop	r14
    2f02:	df 90       	pop	r13
    2f04:	cf 90       	pop	r12
    2f06:	08 95       	ret

00002f08 <SrvIhmDispatcher>:

//Fonction de dispatching d'evenements
void SrvIhmDispatcher ( void )
{
	//start hearbeating
	SrvIhmHeartbeat();
    2f08:	bb df       	rcall	.-138    	; 0x2e80 <SrvIhmHeartbeat>
	//test the button status
	if(DrvButtonPushed(E_BUTTON_SETUP) == TRUE)
    2f0a:	80 e0       	ldi	r24, 0x00	; 0
    2f0c:	0c 94 2f 02 	jmp	0x45e	; 0x45e <DrvButtonPushed>
    2f10:	08 95       	ret

00002f12 <SrvIhmPlatformInitStart>:
}

//platform init start
void SrvIhmPlatformInitStart ( void )
{
	DrvLedSetState(E_LED_0, E_LED_STATE_ON);
    2f12:	60 e0       	ldi	r22, 0x00	; 0
    2f14:	80 e0       	ldi	r24, 0x00	; 0
    2f16:	0e 94 c2 03 	call	0x784	; 0x784 <DrvLedSetState>
	DrvLedSetState(E_LED_1, E_LED_STATE_ON);
    2f1a:	60 e0       	ldi	r22, 0x00	; 0
    2f1c:	81 e0       	ldi	r24, 0x01	; 1
    2f1e:	0e 94 c2 03 	call	0x784	; 0x784 <DrvLedSetState>
	DrvLedSetState(E_LED_2, E_LED_STATE_ON);
    2f22:	60 e0       	ldi	r22, 0x00	; 0
    2f24:	82 e0       	ldi	r24, 0x02	; 2
    2f26:	0e 94 c2 03 	call	0x784	; 0x784 <DrvLedSetState>
	DrvLedSetState(E_LED_3, E_LED_STATE_ON);
    2f2a:	60 e0       	ldi	r22, 0x00	; 0
    2f2c:	83 e0       	ldi	r24, 0x03	; 3
    2f2e:	0c 94 c2 03 	jmp	0x784	; 0x784 <DrvLedSetState>
    2f32:	08 95       	ret

00002f34 <SrvIhmPlatformInitDone>:
}

//platform init done
void SrvIhmPlatformInitDone ( void )
{
	DrvLedSetState(E_LED_0, E_LED_STATE_ON);
    2f34:	60 e0       	ldi	r22, 0x00	; 0
    2f36:	80 e0       	ldi	r24, 0x00	; 0
    2f38:	0e 94 c2 03 	call	0x784	; 0x784 <DrvLedSetState>
	DrvLedSetState(E_LED_1, E_LED_STATE_OFF);
    2f3c:	61 e0       	ldi	r22, 0x01	; 1
    2f3e:	81 e0       	ldi	r24, 0x01	; 1
    2f40:	0e 94 c2 03 	call	0x784	; 0x784 <DrvLedSetState>
	DrvLedSetState(E_LED_2, E_LED_STATE_OFF);
    2f44:	61 e0       	ldi	r22, 0x01	; 1
    2f46:	82 e0       	ldi	r24, 0x02	; 2
    2f48:	0e 94 c2 03 	call	0x784	; 0x784 <DrvLedSetState>
	DrvLedSetState(E_LED_3, E_LED_STATE_OFF);
    2f4c:	61 e0       	ldi	r22, 0x01	; 1
    2f4e:	83 e0       	ldi	r24, 0x03	; 3
    2f50:	0c 94 c2 03 	jmp	0x784	; 0x784 <DrvLedSetState>
    2f54:	08 95       	ret

00002f56 <SrvWalkInit>:


//Fonction d'initialisation
//return : TRUE si ok
Boolean SrvWalkInit ( void )
{
    2f56:	0f 93       	push	r16
    2f58:	1f 93       	push	r17
    Boolean oSuccess = TRUE;
	//init the walking status
	walk = E_WALK_STOP;
    2f5a:	10 92 73 0a 	sts	0x0A73, r1	; 0x800a73 <walk>
	gaits = E_GAITS_TRIPOD;
    2f5e:	10 92 f0 0c 	sts	0x0CF0, r1	; 0x800cf0 <gaits>
}

//Stop gaits
static Boolean SrvWalkStopGaits ( void )
{
	DrvLegSetXYZ(E_LEG_L_F,0,0,0,100);
    2f62:	04 e6       	ldi	r16, 0x64	; 100
    2f64:	10 e0       	ldi	r17, 0x00	; 0
    2f66:	20 e0       	ldi	r18, 0x00	; 0
    2f68:	30 e0       	ldi	r19, 0x00	; 0
    2f6a:	40 e0       	ldi	r20, 0x00	; 0
    2f6c:	50 e0       	ldi	r21, 0x00	; 0
    2f6e:	60 e0       	ldi	r22, 0x00	; 0
    2f70:	70 e0       	ldi	r23, 0x00	; 0
    2f72:	80 e0       	ldi	r24, 0x00	; 0
    2f74:	0e 94 b0 05 	call	0xb60	; 0xb60 <DrvLegSetXYZ>
	DrvLegSetXYZ(E_LEG_L_M,0,0,0,100);
    2f78:	20 e0       	ldi	r18, 0x00	; 0
    2f7a:	30 e0       	ldi	r19, 0x00	; 0
    2f7c:	40 e0       	ldi	r20, 0x00	; 0
    2f7e:	50 e0       	ldi	r21, 0x00	; 0
    2f80:	60 e0       	ldi	r22, 0x00	; 0
    2f82:	70 e0       	ldi	r23, 0x00	; 0
    2f84:	81 e0       	ldi	r24, 0x01	; 1
    2f86:	0e 94 b0 05 	call	0xb60	; 0xb60 <DrvLegSetXYZ>
	DrvLegSetXYZ(E_LEG_L_R,0,0,0,100);
    2f8a:	20 e0       	ldi	r18, 0x00	; 0
    2f8c:	30 e0       	ldi	r19, 0x00	; 0
    2f8e:	40 e0       	ldi	r20, 0x00	; 0
    2f90:	50 e0       	ldi	r21, 0x00	; 0
    2f92:	60 e0       	ldi	r22, 0x00	; 0
    2f94:	70 e0       	ldi	r23, 0x00	; 0
    2f96:	82 e0       	ldi	r24, 0x02	; 2
    2f98:	0e 94 b0 05 	call	0xb60	; 0xb60 <DrvLegSetXYZ>
	DrvLegSetXYZ(E_LEG_R_F,0,0,0,100);
    2f9c:	20 e0       	ldi	r18, 0x00	; 0
    2f9e:	30 e0       	ldi	r19, 0x00	; 0
    2fa0:	40 e0       	ldi	r20, 0x00	; 0
    2fa2:	50 e0       	ldi	r21, 0x00	; 0
    2fa4:	60 e0       	ldi	r22, 0x00	; 0
    2fa6:	70 e0       	ldi	r23, 0x00	; 0
    2fa8:	83 e0       	ldi	r24, 0x03	; 3
    2faa:	0e 94 b0 05 	call	0xb60	; 0xb60 <DrvLegSetXYZ>
	DrvLegSetXYZ(E_LEG_R_M,0,0,0,100);
    2fae:	20 e0       	ldi	r18, 0x00	; 0
    2fb0:	30 e0       	ldi	r19, 0x00	; 0
    2fb2:	40 e0       	ldi	r20, 0x00	; 0
    2fb4:	50 e0       	ldi	r21, 0x00	; 0
    2fb6:	60 e0       	ldi	r22, 0x00	; 0
    2fb8:	70 e0       	ldi	r23, 0x00	; 0
    2fba:	84 e0       	ldi	r24, 0x04	; 4
    2fbc:	0e 94 b0 05 	call	0xb60	; 0xb60 <DrvLegSetXYZ>
	DrvLegSetXYZ(E_LEG_R_R,0,0,0,100);
    2fc0:	20 e0       	ldi	r18, 0x00	; 0
    2fc2:	30 e0       	ldi	r19, 0x00	; 0
    2fc4:	40 e0       	ldi	r20, 0x00	; 0
    2fc6:	50 e0       	ldi	r21, 0x00	; 0
    2fc8:	60 e0       	ldi	r22, 0x00	; 0
    2fca:	70 e0       	ldi	r23, 0x00	; 0
    2fcc:	85 e0       	ldi	r24, 0x05	; 5
    2fce:	0e 94 b0 05 	call	0xb60	; 0xb60 <DrvLegSetXYZ>

	if( 
		DrvLegCheckTarget(E_LEG_L_F) &&
    2fd2:	80 e0       	ldi	r24, 0x00	; 0
    2fd4:	0e 94 97 05 	call	0xb2e	; 0xb2e <DrvLegCheckTarget>
	DrvLegSetXYZ(E_LEG_L_R,0,0,0,100);
	DrvLegSetXYZ(E_LEG_R_F,0,0,0,100);
	DrvLegSetXYZ(E_LEG_R_M,0,0,0,100);
	DrvLegSetXYZ(E_LEG_R_R,0,0,0,100);

	if( 
    2fd8:	88 23       	and	r24, r24
    2fda:	b9 f0       	breq	.+46     	; 0x300a <SrvWalkInit+0xb4>
		DrvLegCheckTarget(E_LEG_L_F) &&
		DrvLegCheckTarget(E_LEG_L_M) &&
    2fdc:	81 e0       	ldi	r24, 0x01	; 1
    2fde:	0e 94 97 05 	call	0xb2e	; 0xb2e <DrvLegCheckTarget>
	DrvLegSetXYZ(E_LEG_R_F,0,0,0,100);
	DrvLegSetXYZ(E_LEG_R_M,0,0,0,100);
	DrvLegSetXYZ(E_LEG_R_R,0,0,0,100);

	if( 
		DrvLegCheckTarget(E_LEG_L_F) &&
    2fe2:	88 23       	and	r24, r24
    2fe4:	91 f0       	breq	.+36     	; 0x300a <SrvWalkInit+0xb4>
		DrvLegCheckTarget(E_LEG_L_M) &&
		DrvLegCheckTarget(E_LEG_L_R) &&
    2fe6:	82 e0       	ldi	r24, 0x02	; 2
    2fe8:	0e 94 97 05 	call	0xb2e	; 0xb2e <DrvLegCheckTarget>
	DrvLegSetXYZ(E_LEG_R_M,0,0,0,100);
	DrvLegSetXYZ(E_LEG_R_R,0,0,0,100);

	if( 
		DrvLegCheckTarget(E_LEG_L_F) &&
		DrvLegCheckTarget(E_LEG_L_M) &&
    2fec:	88 23       	and	r24, r24
    2fee:	69 f0       	breq	.+26     	; 0x300a <SrvWalkInit+0xb4>
		DrvLegCheckTarget(E_LEG_L_R) &&
		DrvLegCheckTarget(E_LEG_R_F) &&
    2ff0:	83 e0       	ldi	r24, 0x03	; 3
    2ff2:	0e 94 97 05 	call	0xb2e	; 0xb2e <DrvLegCheckTarget>
	DrvLegSetXYZ(E_LEG_R_R,0,0,0,100);

	if( 
		DrvLegCheckTarget(E_LEG_L_F) &&
		DrvLegCheckTarget(E_LEG_L_M) &&
		DrvLegCheckTarget(E_LEG_L_R) &&
    2ff6:	88 23       	and	r24, r24
    2ff8:	41 f0       	breq	.+16     	; 0x300a <SrvWalkInit+0xb4>
		DrvLegCheckTarget(E_LEG_R_F) &&
		DrvLegCheckTarget(E_LEG_R_M) &&
    2ffa:	84 e0       	ldi	r24, 0x04	; 4
    2ffc:	0e 94 97 05 	call	0xb2e	; 0xb2e <DrvLegCheckTarget>

	if( 
		DrvLegCheckTarget(E_LEG_L_F) &&
		DrvLegCheckTarget(E_LEG_L_M) &&
		DrvLegCheckTarget(E_LEG_L_R) &&
		DrvLegCheckTarget(E_LEG_R_F) &&
    3000:	88 23       	and	r24, r24
    3002:	19 f0       	breq	.+6      	; 0x300a <SrvWalkInit+0xb4>
		DrvLegCheckTarget(E_LEG_R_M) &&
		DrvLegCheckTarget(E_LEG_R_R) 
    3004:	85 e0       	ldi	r24, 0x05	; 5
    3006:	0e 94 97 05 	call	0xb2e	; 0xb2e <DrvLegCheckTarget>
	walk = E_WALK_STOP;
	gaits = E_GAITS_TRIPOD;
	SrvWalkStopGaits();

    return oSuccess;
}
    300a:	81 e0       	ldi	r24, 0x01	; 1
    300c:	1f 91       	pop	r17
    300e:	0f 91       	pop	r16
    3010:	08 95       	ret

00003012 <SrvWalkUpdate>:
			SrvWalkChangeWalk(E_WALK_STEP);
			SrvWalkChangeGaits(E_GAITS_TRIPOD);
		}
	}*/
	//update legs
	DrvLegUpdate();
    3012:	0c 94 63 08 	jmp	0x10c6	; 0x10c6 <DrvLegUpdate>
    3016:	08 95       	ret

00003018 <acos>:
    3018:	9f 93       	push	r25
    301a:	9f 77       	andi	r25, 0x7F	; 127
    301c:	88 d1       	rcall	.+784    	; 0x332e <__fp_arccos>
    301e:	0f 90       	pop	r0
    3020:	00 20       	and	r0, r0
    3022:	3a f4       	brpl	.+14     	; 0x3032 <acos+0x1a>
    3024:	90 58       	subi	r25, 0x80	; 128
    3026:	a2 ea       	ldi	r26, 0xA2	; 162
    3028:	2a ed       	ldi	r18, 0xDA	; 218
    302a:	3f e0       	ldi	r19, 0x0F	; 15
    302c:	49 e4       	ldi	r20, 0x49	; 73
    302e:	50 e4       	ldi	r21, 0x40	; 64
    3030:	13 d0       	rcall	.+38     	; 0x3058 <__addsf3x>
    3032:	49 c2       	rjmp	.+1170   	; 0x34c6 <__fp_round>

00003034 <__subsf3>:
    3034:	50 58       	subi	r21, 0x80	; 128

00003036 <__addsf3>:
    3036:	bb 27       	eor	r27, r27
    3038:	aa 27       	eor	r26, r26
    303a:	0e d0       	rcall	.+28     	; 0x3058 <__addsf3x>
    303c:	44 c2       	rjmp	.+1160   	; 0x34c6 <__fp_round>
    303e:	0d d2       	rcall	.+1050   	; 0x345a <__fp_pscA>
    3040:	30 f0       	brcs	.+12     	; 0x304e <__addsf3+0x18>
    3042:	12 d2       	rcall	.+1060   	; 0x3468 <__fp_pscB>
    3044:	20 f0       	brcs	.+8      	; 0x304e <__addsf3+0x18>
    3046:	31 f4       	brne	.+12     	; 0x3054 <__addsf3+0x1e>
    3048:	9f 3f       	cpi	r25, 0xFF	; 255
    304a:	11 f4       	brne	.+4      	; 0x3050 <__addsf3+0x1a>
    304c:	1e f4       	brtc	.+6      	; 0x3054 <__addsf3+0x1e>
    304e:	dd c1       	rjmp	.+954    	; 0x340a <__fp_nan>
    3050:	0e f4       	brtc	.+2      	; 0x3054 <__addsf3+0x1e>
    3052:	e0 95       	com	r30
    3054:	e7 fb       	bst	r30, 7
    3056:	aa c1       	rjmp	.+852    	; 0x33ac <__fp_inf>

00003058 <__addsf3x>:
    3058:	e9 2f       	mov	r30, r25
    305a:	57 d2       	rcall	.+1198   	; 0x350a <__fp_split3>
    305c:	80 f3       	brcs	.-32     	; 0x303e <__addsf3+0x8>
    305e:	ba 17       	cp	r27, r26
    3060:	62 07       	cpc	r22, r18
    3062:	73 07       	cpc	r23, r19
    3064:	84 07       	cpc	r24, r20
    3066:	95 07       	cpc	r25, r21
    3068:	18 f0       	brcs	.+6      	; 0x3070 <__addsf3x+0x18>
    306a:	71 f4       	brne	.+28     	; 0x3088 <__addsf3x+0x30>
    306c:	9e f5       	brtc	.+102    	; 0x30d4 <__addsf3x+0x7c>
    306e:	86 c2       	rjmp	.+1292   	; 0x357c <__fp_zero>
    3070:	0e f4       	brtc	.+2      	; 0x3074 <__addsf3x+0x1c>
    3072:	e0 95       	com	r30
    3074:	0b 2e       	mov	r0, r27
    3076:	ba 2f       	mov	r27, r26
    3078:	a0 2d       	mov	r26, r0
    307a:	0b 01       	movw	r0, r22
    307c:	b9 01       	movw	r22, r18
    307e:	90 01       	movw	r18, r0
    3080:	0c 01       	movw	r0, r24
    3082:	ca 01       	movw	r24, r20
    3084:	a0 01       	movw	r20, r0
    3086:	11 24       	eor	r1, r1
    3088:	ff 27       	eor	r31, r31
    308a:	59 1b       	sub	r21, r25
    308c:	99 f0       	breq	.+38     	; 0x30b4 <__addsf3x+0x5c>
    308e:	59 3f       	cpi	r21, 0xF9	; 249
    3090:	50 f4       	brcc	.+20     	; 0x30a6 <__addsf3x+0x4e>
    3092:	50 3e       	cpi	r21, 0xE0	; 224
    3094:	68 f1       	brcs	.+90     	; 0x30f0 <__addsf3x+0x98>
    3096:	1a 16       	cp	r1, r26
    3098:	f0 40       	sbci	r31, 0x00	; 0
    309a:	a2 2f       	mov	r26, r18
    309c:	23 2f       	mov	r18, r19
    309e:	34 2f       	mov	r19, r20
    30a0:	44 27       	eor	r20, r20
    30a2:	58 5f       	subi	r21, 0xF8	; 248
    30a4:	f3 cf       	rjmp	.-26     	; 0x308c <__addsf3x+0x34>
    30a6:	46 95       	lsr	r20
    30a8:	37 95       	ror	r19
    30aa:	27 95       	ror	r18
    30ac:	a7 95       	ror	r26
    30ae:	f0 40       	sbci	r31, 0x00	; 0
    30b0:	53 95       	inc	r21
    30b2:	c9 f7       	brne	.-14     	; 0x30a6 <__addsf3x+0x4e>
    30b4:	7e f4       	brtc	.+30     	; 0x30d4 <__addsf3x+0x7c>
    30b6:	1f 16       	cp	r1, r31
    30b8:	ba 0b       	sbc	r27, r26
    30ba:	62 0b       	sbc	r22, r18
    30bc:	73 0b       	sbc	r23, r19
    30be:	84 0b       	sbc	r24, r20
    30c0:	ba f0       	brmi	.+46     	; 0x30f0 <__addsf3x+0x98>
    30c2:	91 50       	subi	r25, 0x01	; 1
    30c4:	a1 f0       	breq	.+40     	; 0x30ee <__addsf3x+0x96>
    30c6:	ff 0f       	add	r31, r31
    30c8:	bb 1f       	adc	r27, r27
    30ca:	66 1f       	adc	r22, r22
    30cc:	77 1f       	adc	r23, r23
    30ce:	88 1f       	adc	r24, r24
    30d0:	c2 f7       	brpl	.-16     	; 0x30c2 <__addsf3x+0x6a>
    30d2:	0e c0       	rjmp	.+28     	; 0x30f0 <__addsf3x+0x98>
    30d4:	ba 0f       	add	r27, r26
    30d6:	62 1f       	adc	r22, r18
    30d8:	73 1f       	adc	r23, r19
    30da:	84 1f       	adc	r24, r20
    30dc:	48 f4       	brcc	.+18     	; 0x30f0 <__addsf3x+0x98>
    30de:	87 95       	ror	r24
    30e0:	77 95       	ror	r23
    30e2:	67 95       	ror	r22
    30e4:	b7 95       	ror	r27
    30e6:	f7 95       	ror	r31
    30e8:	9e 3f       	cpi	r25, 0xFE	; 254
    30ea:	08 f0       	brcs	.+2      	; 0x30ee <__addsf3x+0x96>
    30ec:	b3 cf       	rjmp	.-154    	; 0x3054 <__addsf3+0x1e>
    30ee:	93 95       	inc	r25
    30f0:	88 0f       	add	r24, r24
    30f2:	08 f0       	brcs	.+2      	; 0x30f6 <__addsf3x+0x9e>
    30f4:	99 27       	eor	r25, r25
    30f6:	ee 0f       	add	r30, r30
    30f8:	97 95       	ror	r25
    30fa:	87 95       	ror	r24
    30fc:	08 95       	ret

000030fe <atan>:
    30fe:	df 93       	push	r29
    3100:	dd 27       	eor	r29, r29
    3102:	b9 2f       	mov	r27, r25
    3104:	bf 77       	andi	r27, 0x7F	; 127
    3106:	40 e8       	ldi	r20, 0x80	; 128
    3108:	5f e3       	ldi	r21, 0x3F	; 63
    310a:	16 16       	cp	r1, r22
    310c:	17 06       	cpc	r1, r23
    310e:	48 07       	cpc	r20, r24
    3110:	5b 07       	cpc	r21, r27
    3112:	10 f4       	brcc	.+4      	; 0x3118 <atan+0x1a>
    3114:	d9 2f       	mov	r29, r25
    3116:	3d d2       	rcall	.+1146   	; 0x3592 <inverse>
    3118:	9f 93       	push	r25
    311a:	8f 93       	push	r24
    311c:	7f 93       	push	r23
    311e:	6f 93       	push	r22
    3120:	0a d3       	rcall	.+1556   	; 0x3736 <square>
    3122:	ec e8       	ldi	r30, 0x8C	; 140
    3124:	f0 e0       	ldi	r31, 0x00	; 0
    3126:	74 d1       	rcall	.+744    	; 0x3410 <__fp_powser>
    3128:	ce d1       	rcall	.+924    	; 0x34c6 <__fp_round>
    312a:	2f 91       	pop	r18
    312c:	3f 91       	pop	r19
    312e:	4f 91       	pop	r20
    3130:	5f 91       	pop	r21
    3132:	42 d2       	rcall	.+1156   	; 0x35b8 <__mulsf3x>
    3134:	dd 23       	and	r29, r29
    3136:	49 f0       	breq	.+18     	; 0x314a <atan+0x4c>
    3138:	90 58       	subi	r25, 0x80	; 128
    313a:	a2 ea       	ldi	r26, 0xA2	; 162
    313c:	2a ed       	ldi	r18, 0xDA	; 218
    313e:	3f e0       	ldi	r19, 0x0F	; 15
    3140:	49 ec       	ldi	r20, 0xC9	; 201
    3142:	5f e3       	ldi	r21, 0x3F	; 63
    3144:	d0 78       	andi	r29, 0x80	; 128
    3146:	5d 27       	eor	r21, r29
    3148:	87 df       	rcall	.-242    	; 0x3058 <__addsf3x>
    314a:	df 91       	pop	r29
    314c:	bc c1       	rjmp	.+888    	; 0x34c6 <__fp_round>

0000314e <__cmpsf2>:
    314e:	0a d1       	rcall	.+532    	; 0x3364 <__fp_cmp>
    3150:	08 f4       	brcc	.+2      	; 0x3154 <__cmpsf2+0x6>
    3152:	81 e0       	ldi	r24, 0x01	; 1
    3154:	08 95       	ret

00003156 <cos>:
    3156:	90 d1       	rcall	.+800    	; 0x3478 <__fp_rempio2>
    3158:	e3 95       	inc	r30
    315a:	c6 c1       	rjmp	.+908    	; 0x34e8 <__fp_sinus>

0000315c <__divsf3>:
    315c:	0c d0       	rcall	.+24     	; 0x3176 <__divsf3x>
    315e:	b3 c1       	rjmp	.+870    	; 0x34c6 <__fp_round>
    3160:	83 d1       	rcall	.+774    	; 0x3468 <__fp_pscB>
    3162:	40 f0       	brcs	.+16     	; 0x3174 <__divsf3+0x18>
    3164:	7a d1       	rcall	.+756    	; 0x345a <__fp_pscA>
    3166:	30 f0       	brcs	.+12     	; 0x3174 <__divsf3+0x18>
    3168:	21 f4       	brne	.+8      	; 0x3172 <__divsf3+0x16>
    316a:	5f 3f       	cpi	r21, 0xFF	; 255
    316c:	19 f0       	breq	.+6      	; 0x3174 <__divsf3+0x18>
    316e:	1e c1       	rjmp	.+572    	; 0x33ac <__fp_inf>
    3170:	51 11       	cpse	r21, r1
    3172:	05 c2       	rjmp	.+1034   	; 0x357e <__fp_szero>
    3174:	4a c1       	rjmp	.+660    	; 0x340a <__fp_nan>

00003176 <__divsf3x>:
    3176:	c9 d1       	rcall	.+914    	; 0x350a <__fp_split3>
    3178:	98 f3       	brcs	.-26     	; 0x3160 <__divsf3+0x4>

0000317a <__divsf3_pse>:
    317a:	99 23       	and	r25, r25
    317c:	c9 f3       	breq	.-14     	; 0x3170 <__divsf3+0x14>
    317e:	55 23       	and	r21, r21
    3180:	b1 f3       	breq	.-20     	; 0x316e <__divsf3+0x12>
    3182:	95 1b       	sub	r25, r21
    3184:	55 0b       	sbc	r21, r21
    3186:	bb 27       	eor	r27, r27
    3188:	aa 27       	eor	r26, r26
    318a:	62 17       	cp	r22, r18
    318c:	73 07       	cpc	r23, r19
    318e:	84 07       	cpc	r24, r20
    3190:	38 f0       	brcs	.+14     	; 0x31a0 <__divsf3_pse+0x26>
    3192:	9f 5f       	subi	r25, 0xFF	; 255
    3194:	5f 4f       	sbci	r21, 0xFF	; 255
    3196:	22 0f       	add	r18, r18
    3198:	33 1f       	adc	r19, r19
    319a:	44 1f       	adc	r20, r20
    319c:	aa 1f       	adc	r26, r26
    319e:	a9 f3       	breq	.-22     	; 0x318a <__divsf3_pse+0x10>
    31a0:	33 d0       	rcall	.+102    	; 0x3208 <__divsf3_pse+0x8e>
    31a2:	0e 2e       	mov	r0, r30
    31a4:	3a f0       	brmi	.+14     	; 0x31b4 <__divsf3_pse+0x3a>
    31a6:	e0 e8       	ldi	r30, 0x80	; 128
    31a8:	30 d0       	rcall	.+96     	; 0x320a <__divsf3_pse+0x90>
    31aa:	91 50       	subi	r25, 0x01	; 1
    31ac:	50 40       	sbci	r21, 0x00	; 0
    31ae:	e6 95       	lsr	r30
    31b0:	00 1c       	adc	r0, r0
    31b2:	ca f7       	brpl	.-14     	; 0x31a6 <__divsf3_pse+0x2c>
    31b4:	29 d0       	rcall	.+82     	; 0x3208 <__divsf3_pse+0x8e>
    31b6:	fe 2f       	mov	r31, r30
    31b8:	27 d0       	rcall	.+78     	; 0x3208 <__divsf3_pse+0x8e>
    31ba:	66 0f       	add	r22, r22
    31bc:	77 1f       	adc	r23, r23
    31be:	88 1f       	adc	r24, r24
    31c0:	bb 1f       	adc	r27, r27
    31c2:	26 17       	cp	r18, r22
    31c4:	37 07       	cpc	r19, r23
    31c6:	48 07       	cpc	r20, r24
    31c8:	ab 07       	cpc	r26, r27
    31ca:	b0 e8       	ldi	r27, 0x80	; 128
    31cc:	09 f0       	breq	.+2      	; 0x31d0 <__divsf3_pse+0x56>
    31ce:	bb 0b       	sbc	r27, r27
    31d0:	80 2d       	mov	r24, r0
    31d2:	bf 01       	movw	r22, r30
    31d4:	ff 27       	eor	r31, r31
    31d6:	93 58       	subi	r25, 0x83	; 131
    31d8:	5f 4f       	sbci	r21, 0xFF	; 255
    31da:	2a f0       	brmi	.+10     	; 0x31e6 <__divsf3_pse+0x6c>
    31dc:	9e 3f       	cpi	r25, 0xFE	; 254
    31de:	51 05       	cpc	r21, r1
    31e0:	68 f0       	brcs	.+26     	; 0x31fc <__divsf3_pse+0x82>
    31e2:	e4 c0       	rjmp	.+456    	; 0x33ac <__fp_inf>
    31e4:	cc c1       	rjmp	.+920    	; 0x357e <__fp_szero>
    31e6:	5f 3f       	cpi	r21, 0xFF	; 255
    31e8:	ec f3       	brlt	.-6      	; 0x31e4 <__divsf3_pse+0x6a>
    31ea:	98 3e       	cpi	r25, 0xE8	; 232
    31ec:	dc f3       	brlt	.-10     	; 0x31e4 <__divsf3_pse+0x6a>
    31ee:	86 95       	lsr	r24
    31f0:	77 95       	ror	r23
    31f2:	67 95       	ror	r22
    31f4:	b7 95       	ror	r27
    31f6:	f7 95       	ror	r31
    31f8:	9f 5f       	subi	r25, 0xFF	; 255
    31fa:	c9 f7       	brne	.-14     	; 0x31ee <__divsf3_pse+0x74>
    31fc:	88 0f       	add	r24, r24
    31fe:	91 1d       	adc	r25, r1
    3200:	96 95       	lsr	r25
    3202:	87 95       	ror	r24
    3204:	97 f9       	bld	r25, 7
    3206:	08 95       	ret
    3208:	e1 e0       	ldi	r30, 0x01	; 1
    320a:	66 0f       	add	r22, r22
    320c:	77 1f       	adc	r23, r23
    320e:	88 1f       	adc	r24, r24
    3210:	bb 1f       	adc	r27, r27
    3212:	62 17       	cp	r22, r18
    3214:	73 07       	cpc	r23, r19
    3216:	84 07       	cpc	r24, r20
    3218:	ba 07       	cpc	r27, r26
    321a:	20 f0       	brcs	.+8      	; 0x3224 <__divsf3_pse+0xaa>
    321c:	62 1b       	sub	r22, r18
    321e:	73 0b       	sbc	r23, r19
    3220:	84 0b       	sbc	r24, r20
    3222:	ba 0b       	sbc	r27, r26
    3224:	ee 1f       	adc	r30, r30
    3226:	88 f7       	brcc	.-30     	; 0x320a <__divsf3_pse+0x90>
    3228:	e0 95       	com	r30
    322a:	08 95       	ret

0000322c <__fixsfsi>:
    322c:	04 d0       	rcall	.+8      	; 0x3236 <__fixunssfsi>
    322e:	68 94       	set
    3230:	b1 11       	cpse	r27, r1
    3232:	a5 c1       	rjmp	.+842    	; 0x357e <__fp_szero>
    3234:	08 95       	ret

00003236 <__fixunssfsi>:
    3236:	71 d1       	rcall	.+738    	; 0x351a <__fp_splitA>
    3238:	88 f0       	brcs	.+34     	; 0x325c <__fixunssfsi+0x26>
    323a:	9f 57       	subi	r25, 0x7F	; 127
    323c:	90 f0       	brcs	.+36     	; 0x3262 <__fixunssfsi+0x2c>
    323e:	b9 2f       	mov	r27, r25
    3240:	99 27       	eor	r25, r25
    3242:	b7 51       	subi	r27, 0x17	; 23
    3244:	a0 f0       	brcs	.+40     	; 0x326e <__fixunssfsi+0x38>
    3246:	d1 f0       	breq	.+52     	; 0x327c <__fixunssfsi+0x46>
    3248:	66 0f       	add	r22, r22
    324a:	77 1f       	adc	r23, r23
    324c:	88 1f       	adc	r24, r24
    324e:	99 1f       	adc	r25, r25
    3250:	1a f0       	brmi	.+6      	; 0x3258 <__fixunssfsi+0x22>
    3252:	ba 95       	dec	r27
    3254:	c9 f7       	brne	.-14     	; 0x3248 <__fixunssfsi+0x12>
    3256:	12 c0       	rjmp	.+36     	; 0x327c <__fixunssfsi+0x46>
    3258:	b1 30       	cpi	r27, 0x01	; 1
    325a:	81 f0       	breq	.+32     	; 0x327c <__fixunssfsi+0x46>
    325c:	8f d1       	rcall	.+798    	; 0x357c <__fp_zero>
    325e:	b1 e0       	ldi	r27, 0x01	; 1
    3260:	08 95       	ret
    3262:	8c c1       	rjmp	.+792    	; 0x357c <__fp_zero>
    3264:	67 2f       	mov	r22, r23
    3266:	78 2f       	mov	r23, r24
    3268:	88 27       	eor	r24, r24
    326a:	b8 5f       	subi	r27, 0xF8	; 248
    326c:	39 f0       	breq	.+14     	; 0x327c <__fixunssfsi+0x46>
    326e:	b9 3f       	cpi	r27, 0xF9	; 249
    3270:	cc f3       	brlt	.-14     	; 0x3264 <__fixunssfsi+0x2e>
    3272:	86 95       	lsr	r24
    3274:	77 95       	ror	r23
    3276:	67 95       	ror	r22
    3278:	b3 95       	inc	r27
    327a:	d9 f7       	brne	.-10     	; 0x3272 <__fixunssfsi+0x3c>
    327c:	3e f4       	brtc	.+14     	; 0x328c <__fixunssfsi+0x56>
    327e:	90 95       	com	r25
    3280:	80 95       	com	r24
    3282:	70 95       	com	r23
    3284:	61 95       	neg	r22
    3286:	7f 4f       	sbci	r23, 0xFF	; 255
    3288:	8f 4f       	sbci	r24, 0xFF	; 255
    328a:	9f 4f       	sbci	r25, 0xFF	; 255
    328c:	08 95       	ret

0000328e <__floatunsisf>:
    328e:	e8 94       	clt
    3290:	09 c0       	rjmp	.+18     	; 0x32a4 <__floatsisf+0x12>

00003292 <__floatsisf>:
    3292:	97 fb       	bst	r25, 7
    3294:	3e f4       	brtc	.+14     	; 0x32a4 <__floatsisf+0x12>
    3296:	90 95       	com	r25
    3298:	80 95       	com	r24
    329a:	70 95       	com	r23
    329c:	61 95       	neg	r22
    329e:	7f 4f       	sbci	r23, 0xFF	; 255
    32a0:	8f 4f       	sbci	r24, 0xFF	; 255
    32a2:	9f 4f       	sbci	r25, 0xFF	; 255
    32a4:	99 23       	and	r25, r25
    32a6:	a9 f0       	breq	.+42     	; 0x32d2 <__floatsisf+0x40>
    32a8:	f9 2f       	mov	r31, r25
    32aa:	96 e9       	ldi	r25, 0x96	; 150
    32ac:	bb 27       	eor	r27, r27
    32ae:	93 95       	inc	r25
    32b0:	f6 95       	lsr	r31
    32b2:	87 95       	ror	r24
    32b4:	77 95       	ror	r23
    32b6:	67 95       	ror	r22
    32b8:	b7 95       	ror	r27
    32ba:	f1 11       	cpse	r31, r1
    32bc:	f8 cf       	rjmp	.-16     	; 0x32ae <__floatsisf+0x1c>
    32be:	fa f4       	brpl	.+62     	; 0x32fe <__floatsisf+0x6c>
    32c0:	bb 0f       	add	r27, r27
    32c2:	11 f4       	brne	.+4      	; 0x32c8 <__floatsisf+0x36>
    32c4:	60 ff       	sbrs	r22, 0
    32c6:	1b c0       	rjmp	.+54     	; 0x32fe <__floatsisf+0x6c>
    32c8:	6f 5f       	subi	r22, 0xFF	; 255
    32ca:	7f 4f       	sbci	r23, 0xFF	; 255
    32cc:	8f 4f       	sbci	r24, 0xFF	; 255
    32ce:	9f 4f       	sbci	r25, 0xFF	; 255
    32d0:	16 c0       	rjmp	.+44     	; 0x32fe <__floatsisf+0x6c>
    32d2:	88 23       	and	r24, r24
    32d4:	11 f0       	breq	.+4      	; 0x32da <__floatsisf+0x48>
    32d6:	96 e9       	ldi	r25, 0x96	; 150
    32d8:	11 c0       	rjmp	.+34     	; 0x32fc <__floatsisf+0x6a>
    32da:	77 23       	and	r23, r23
    32dc:	21 f0       	breq	.+8      	; 0x32e6 <__floatsisf+0x54>
    32de:	9e e8       	ldi	r25, 0x8E	; 142
    32e0:	87 2f       	mov	r24, r23
    32e2:	76 2f       	mov	r23, r22
    32e4:	05 c0       	rjmp	.+10     	; 0x32f0 <__floatsisf+0x5e>
    32e6:	66 23       	and	r22, r22
    32e8:	71 f0       	breq	.+28     	; 0x3306 <__floatsisf+0x74>
    32ea:	96 e8       	ldi	r25, 0x86	; 134
    32ec:	86 2f       	mov	r24, r22
    32ee:	70 e0       	ldi	r23, 0x00	; 0
    32f0:	60 e0       	ldi	r22, 0x00	; 0
    32f2:	2a f0       	brmi	.+10     	; 0x32fe <__floatsisf+0x6c>
    32f4:	9a 95       	dec	r25
    32f6:	66 0f       	add	r22, r22
    32f8:	77 1f       	adc	r23, r23
    32fa:	88 1f       	adc	r24, r24
    32fc:	da f7       	brpl	.-10     	; 0x32f4 <__floatsisf+0x62>
    32fe:	88 0f       	add	r24, r24
    3300:	96 95       	lsr	r25
    3302:	87 95       	ror	r24
    3304:	97 f9       	bld	r25, 7
    3306:	08 95       	ret

00003308 <floor>:
    3308:	22 d1       	rcall	.+580    	; 0x354e <__fp_trunc>
    330a:	80 f0       	brcs	.+32     	; 0x332c <floor+0x24>
    330c:	9f 37       	cpi	r25, 0x7F	; 127
    330e:	40 f4       	brcc	.+16     	; 0x3320 <floor+0x18>
    3310:	91 11       	cpse	r25, r1
    3312:	0e f0       	brts	.+2      	; 0x3316 <floor+0xe>
    3314:	34 c1       	rjmp	.+616    	; 0x357e <__fp_szero>
    3316:	60 e0       	ldi	r22, 0x00	; 0
    3318:	70 e0       	ldi	r23, 0x00	; 0
    331a:	80 e8       	ldi	r24, 0x80	; 128
    331c:	9f eb       	ldi	r25, 0xBF	; 191
    331e:	08 95       	ret
    3320:	26 f4       	brtc	.+8      	; 0x332a <floor+0x22>
    3322:	1b 16       	cp	r1, r27
    3324:	61 1d       	adc	r22, r1
    3326:	71 1d       	adc	r23, r1
    3328:	81 1d       	adc	r24, r1
    332a:	46 c0       	rjmp	.+140    	; 0x33b8 <__fp_mintl>
    332c:	60 c0       	rjmp	.+192    	; 0x33ee <__fp_mpack>

0000332e <__fp_arccos>:
    332e:	df 93       	push	r29
    3330:	cf 93       	push	r28
    3332:	1f 93       	push	r17
    3334:	0f 93       	push	r16
    3336:	8b 01       	movw	r16, r22
    3338:	ec 01       	movw	r28, r24
    333a:	e9 eb       	ldi	r30, 0xB9	; 185
    333c:	f0 e0       	ldi	r31, 0x00	; 0
    333e:	68 d0       	rcall	.+208    	; 0x3410 <__fp_powser>
    3340:	c2 d0       	rcall	.+388    	; 0x34c6 <__fp_round>
    3342:	98 01       	movw	r18, r16
    3344:	ae 01       	movw	r20, r28
    3346:	8b 01       	movw	r16, r22
    3348:	ec 01       	movw	r28, r24
    334a:	60 e0       	ldi	r22, 0x00	; 0
    334c:	70 e0       	ldi	r23, 0x00	; 0
    334e:	80 e8       	ldi	r24, 0x80	; 128
    3350:	9f e3       	ldi	r25, 0x3F	; 63
    3352:	70 de       	rcall	.-800    	; 0x3034 <__subsf3>
    3354:	b2 d1       	rcall	.+868    	; 0x36ba <sqrt>
    3356:	98 01       	movw	r18, r16
    3358:	ae 01       	movw	r20, r28
    335a:	0f 91       	pop	r16
    335c:	1f 91       	pop	r17
    335e:	cf 91       	pop	r28
    3360:	df 91       	pop	r29
    3362:	2a c1       	rjmp	.+596    	; 0x35b8 <__mulsf3x>

00003364 <__fp_cmp>:
    3364:	99 0f       	add	r25, r25
    3366:	00 08       	sbc	r0, r0
    3368:	55 0f       	add	r21, r21
    336a:	aa 0b       	sbc	r26, r26
    336c:	e0 e8       	ldi	r30, 0x80	; 128
    336e:	fe ef       	ldi	r31, 0xFE	; 254
    3370:	16 16       	cp	r1, r22
    3372:	17 06       	cpc	r1, r23
    3374:	e8 07       	cpc	r30, r24
    3376:	f9 07       	cpc	r31, r25
    3378:	c0 f0       	brcs	.+48     	; 0x33aa <__fp_cmp+0x46>
    337a:	12 16       	cp	r1, r18
    337c:	13 06       	cpc	r1, r19
    337e:	e4 07       	cpc	r30, r20
    3380:	f5 07       	cpc	r31, r21
    3382:	98 f0       	brcs	.+38     	; 0x33aa <__fp_cmp+0x46>
    3384:	62 1b       	sub	r22, r18
    3386:	73 0b       	sbc	r23, r19
    3388:	84 0b       	sbc	r24, r20
    338a:	95 0b       	sbc	r25, r21
    338c:	39 f4       	brne	.+14     	; 0x339c <__fp_cmp+0x38>
    338e:	0a 26       	eor	r0, r26
    3390:	61 f0       	breq	.+24     	; 0x33aa <__fp_cmp+0x46>
    3392:	23 2b       	or	r18, r19
    3394:	24 2b       	or	r18, r20
    3396:	25 2b       	or	r18, r21
    3398:	21 f4       	brne	.+8      	; 0x33a2 <__fp_cmp+0x3e>
    339a:	08 95       	ret
    339c:	0a 26       	eor	r0, r26
    339e:	09 f4       	brne	.+2      	; 0x33a2 <__fp_cmp+0x3e>
    33a0:	a1 40       	sbci	r26, 0x01	; 1
    33a2:	a6 95       	lsr	r26
    33a4:	8f ef       	ldi	r24, 0xFF	; 255
    33a6:	81 1d       	adc	r24, r1
    33a8:	81 1d       	adc	r24, r1
    33aa:	08 95       	ret

000033ac <__fp_inf>:
    33ac:	97 f9       	bld	r25, 7
    33ae:	9f 67       	ori	r25, 0x7F	; 127
    33b0:	80 e8       	ldi	r24, 0x80	; 128
    33b2:	70 e0       	ldi	r23, 0x00	; 0
    33b4:	60 e0       	ldi	r22, 0x00	; 0
    33b6:	08 95       	ret

000033b8 <__fp_mintl>:
    33b8:	88 23       	and	r24, r24
    33ba:	71 f4       	brne	.+28     	; 0x33d8 <__fp_mintl+0x20>
    33bc:	77 23       	and	r23, r23
    33be:	21 f0       	breq	.+8      	; 0x33c8 <__fp_mintl+0x10>
    33c0:	98 50       	subi	r25, 0x08	; 8
    33c2:	87 2b       	or	r24, r23
    33c4:	76 2f       	mov	r23, r22
    33c6:	07 c0       	rjmp	.+14     	; 0x33d6 <__fp_mintl+0x1e>
    33c8:	66 23       	and	r22, r22
    33ca:	11 f4       	brne	.+4      	; 0x33d0 <__fp_mintl+0x18>
    33cc:	99 27       	eor	r25, r25
    33ce:	0d c0       	rjmp	.+26     	; 0x33ea <__fp_mintl+0x32>
    33d0:	90 51       	subi	r25, 0x10	; 16
    33d2:	86 2b       	or	r24, r22
    33d4:	70 e0       	ldi	r23, 0x00	; 0
    33d6:	60 e0       	ldi	r22, 0x00	; 0
    33d8:	2a f0       	brmi	.+10     	; 0x33e4 <__fp_mintl+0x2c>
    33da:	9a 95       	dec	r25
    33dc:	66 0f       	add	r22, r22
    33de:	77 1f       	adc	r23, r23
    33e0:	88 1f       	adc	r24, r24
    33e2:	da f7       	brpl	.-10     	; 0x33da <__fp_mintl+0x22>
    33e4:	88 0f       	add	r24, r24
    33e6:	96 95       	lsr	r25
    33e8:	87 95       	ror	r24
    33ea:	97 f9       	bld	r25, 7
    33ec:	08 95       	ret

000033ee <__fp_mpack>:
    33ee:	9f 3f       	cpi	r25, 0xFF	; 255
    33f0:	31 f0       	breq	.+12     	; 0x33fe <__fp_mpack_finite+0xc>

000033f2 <__fp_mpack_finite>:
    33f2:	91 50       	subi	r25, 0x01	; 1
    33f4:	20 f4       	brcc	.+8      	; 0x33fe <__fp_mpack_finite+0xc>
    33f6:	87 95       	ror	r24
    33f8:	77 95       	ror	r23
    33fa:	67 95       	ror	r22
    33fc:	b7 95       	ror	r27
    33fe:	88 0f       	add	r24, r24
    3400:	91 1d       	adc	r25, r1
    3402:	96 95       	lsr	r25
    3404:	87 95       	ror	r24
    3406:	97 f9       	bld	r25, 7
    3408:	08 95       	ret

0000340a <__fp_nan>:
    340a:	9f ef       	ldi	r25, 0xFF	; 255
    340c:	80 ec       	ldi	r24, 0xC0	; 192
    340e:	08 95       	ret

00003410 <__fp_powser>:
    3410:	df 93       	push	r29
    3412:	cf 93       	push	r28
    3414:	1f 93       	push	r17
    3416:	0f 93       	push	r16
    3418:	ff 92       	push	r15
    341a:	ef 92       	push	r14
    341c:	df 92       	push	r13
    341e:	7b 01       	movw	r14, r22
    3420:	8c 01       	movw	r16, r24
    3422:	68 94       	set
    3424:	05 c0       	rjmp	.+10     	; 0x3430 <__fp_powser+0x20>
    3426:	da 2e       	mov	r13, r26
    3428:	ef 01       	movw	r28, r30
    342a:	c6 d0       	rcall	.+396    	; 0x35b8 <__mulsf3x>
    342c:	fe 01       	movw	r30, r28
    342e:	e8 94       	clt
    3430:	a5 91       	lpm	r26, Z+
    3432:	25 91       	lpm	r18, Z+
    3434:	35 91       	lpm	r19, Z+
    3436:	45 91       	lpm	r20, Z+
    3438:	55 91       	lpm	r21, Z+
    343a:	ae f3       	brts	.-22     	; 0x3426 <__fp_powser+0x16>
    343c:	ef 01       	movw	r28, r30
    343e:	0c de       	rcall	.-1000   	; 0x3058 <__addsf3x>
    3440:	fe 01       	movw	r30, r28
    3442:	97 01       	movw	r18, r14
    3444:	a8 01       	movw	r20, r16
    3446:	da 94       	dec	r13
    3448:	79 f7       	brne	.-34     	; 0x3428 <__fp_powser+0x18>
    344a:	df 90       	pop	r13
    344c:	ef 90       	pop	r14
    344e:	ff 90       	pop	r15
    3450:	0f 91       	pop	r16
    3452:	1f 91       	pop	r17
    3454:	cf 91       	pop	r28
    3456:	df 91       	pop	r29
    3458:	08 95       	ret

0000345a <__fp_pscA>:
    345a:	00 24       	eor	r0, r0
    345c:	0a 94       	dec	r0
    345e:	16 16       	cp	r1, r22
    3460:	17 06       	cpc	r1, r23
    3462:	18 06       	cpc	r1, r24
    3464:	09 06       	cpc	r0, r25
    3466:	08 95       	ret

00003468 <__fp_pscB>:
    3468:	00 24       	eor	r0, r0
    346a:	0a 94       	dec	r0
    346c:	12 16       	cp	r1, r18
    346e:	13 06       	cpc	r1, r19
    3470:	14 06       	cpc	r1, r20
    3472:	05 06       	cpc	r0, r21
    3474:	08 95       	ret
    3476:	c9 cf       	rjmp	.-110    	; 0x340a <__fp_nan>

00003478 <__fp_rempio2>:
    3478:	50 d0       	rcall	.+160    	; 0x351a <__fp_splitA>
    347a:	e8 f3       	brcs	.-6      	; 0x3476 <__fp_pscB+0xe>
    347c:	e8 94       	clt
    347e:	e0 e0       	ldi	r30, 0x00	; 0
    3480:	bb 27       	eor	r27, r27
    3482:	9f 57       	subi	r25, 0x7F	; 127
    3484:	f0 f0       	brcs	.+60     	; 0x34c2 <__fp_rempio2+0x4a>
    3486:	2a ed       	ldi	r18, 0xDA	; 218
    3488:	3f e0       	ldi	r19, 0x0F	; 15
    348a:	49 ec       	ldi	r20, 0xC9	; 201
    348c:	06 c0       	rjmp	.+12     	; 0x349a <__fp_rempio2+0x22>
    348e:	ee 0f       	add	r30, r30
    3490:	bb 0f       	add	r27, r27
    3492:	66 1f       	adc	r22, r22
    3494:	77 1f       	adc	r23, r23
    3496:	88 1f       	adc	r24, r24
    3498:	28 f0       	brcs	.+10     	; 0x34a4 <__fp_rempio2+0x2c>
    349a:	b2 3a       	cpi	r27, 0xA2	; 162
    349c:	62 07       	cpc	r22, r18
    349e:	73 07       	cpc	r23, r19
    34a0:	84 07       	cpc	r24, r20
    34a2:	28 f0       	brcs	.+10     	; 0x34ae <__fp_rempio2+0x36>
    34a4:	b2 5a       	subi	r27, 0xA2	; 162
    34a6:	62 0b       	sbc	r22, r18
    34a8:	73 0b       	sbc	r23, r19
    34aa:	84 0b       	sbc	r24, r20
    34ac:	e3 95       	inc	r30
    34ae:	9a 95       	dec	r25
    34b0:	72 f7       	brpl	.-36     	; 0x348e <__fp_rempio2+0x16>
    34b2:	80 38       	cpi	r24, 0x80	; 128
    34b4:	30 f4       	brcc	.+12     	; 0x34c2 <__fp_rempio2+0x4a>
    34b6:	9a 95       	dec	r25
    34b8:	bb 0f       	add	r27, r27
    34ba:	66 1f       	adc	r22, r22
    34bc:	77 1f       	adc	r23, r23
    34be:	88 1f       	adc	r24, r24
    34c0:	d2 f7       	brpl	.-12     	; 0x34b6 <__fp_rempio2+0x3e>
    34c2:	90 48       	sbci	r25, 0x80	; 128
    34c4:	96 cf       	rjmp	.-212    	; 0x33f2 <__fp_mpack_finite>

000034c6 <__fp_round>:
    34c6:	09 2e       	mov	r0, r25
    34c8:	03 94       	inc	r0
    34ca:	00 0c       	add	r0, r0
    34cc:	11 f4       	brne	.+4      	; 0x34d2 <__fp_round+0xc>
    34ce:	88 23       	and	r24, r24
    34d0:	52 f0       	brmi	.+20     	; 0x34e6 <__fp_round+0x20>
    34d2:	bb 0f       	add	r27, r27
    34d4:	40 f4       	brcc	.+16     	; 0x34e6 <__fp_round+0x20>
    34d6:	bf 2b       	or	r27, r31
    34d8:	11 f4       	brne	.+4      	; 0x34de <__fp_round+0x18>
    34da:	60 ff       	sbrs	r22, 0
    34dc:	04 c0       	rjmp	.+8      	; 0x34e6 <__fp_round+0x20>
    34de:	6f 5f       	subi	r22, 0xFF	; 255
    34e0:	7f 4f       	sbci	r23, 0xFF	; 255
    34e2:	8f 4f       	sbci	r24, 0xFF	; 255
    34e4:	9f 4f       	sbci	r25, 0xFF	; 255
    34e6:	08 95       	ret

000034e8 <__fp_sinus>:
    34e8:	ef 93       	push	r30
    34ea:	e0 ff       	sbrs	r30, 0
    34ec:	06 c0       	rjmp	.+12     	; 0x34fa <__fp_sinus+0x12>
    34ee:	a2 ea       	ldi	r26, 0xA2	; 162
    34f0:	2a ed       	ldi	r18, 0xDA	; 218
    34f2:	3f e0       	ldi	r19, 0x0F	; 15
    34f4:	49 ec       	ldi	r20, 0xC9	; 201
    34f6:	5f eb       	ldi	r21, 0xBF	; 191
    34f8:	af dd       	rcall	.-1186   	; 0x3058 <__addsf3x>
    34fa:	e5 df       	rcall	.-54     	; 0x34c6 <__fp_round>
    34fc:	0f 90       	pop	r0
    34fe:	03 94       	inc	r0
    3500:	01 fc       	sbrc	r0, 1
    3502:	90 58       	subi	r25, 0x80	; 128
    3504:	e1 ee       	ldi	r30, 0xE1	; 225
    3506:	f0 e0       	ldi	r31, 0x00	; 0
    3508:	20 c1       	rjmp	.+576    	; 0x374a <__fp_powsodd>

0000350a <__fp_split3>:
    350a:	57 fd       	sbrc	r21, 7
    350c:	90 58       	subi	r25, 0x80	; 128
    350e:	44 0f       	add	r20, r20
    3510:	55 1f       	adc	r21, r21
    3512:	59 f0       	breq	.+22     	; 0x352a <__fp_splitA+0x10>
    3514:	5f 3f       	cpi	r21, 0xFF	; 255
    3516:	71 f0       	breq	.+28     	; 0x3534 <__fp_splitA+0x1a>
    3518:	47 95       	ror	r20

0000351a <__fp_splitA>:
    351a:	88 0f       	add	r24, r24
    351c:	97 fb       	bst	r25, 7
    351e:	99 1f       	adc	r25, r25
    3520:	61 f0       	breq	.+24     	; 0x353a <__fp_splitA+0x20>
    3522:	9f 3f       	cpi	r25, 0xFF	; 255
    3524:	79 f0       	breq	.+30     	; 0x3544 <__fp_splitA+0x2a>
    3526:	87 95       	ror	r24
    3528:	08 95       	ret
    352a:	12 16       	cp	r1, r18
    352c:	13 06       	cpc	r1, r19
    352e:	14 06       	cpc	r1, r20
    3530:	55 1f       	adc	r21, r21
    3532:	f2 cf       	rjmp	.-28     	; 0x3518 <__fp_split3+0xe>
    3534:	46 95       	lsr	r20
    3536:	f1 df       	rcall	.-30     	; 0x351a <__fp_splitA>
    3538:	08 c0       	rjmp	.+16     	; 0x354a <__fp_splitA+0x30>
    353a:	16 16       	cp	r1, r22
    353c:	17 06       	cpc	r1, r23
    353e:	18 06       	cpc	r1, r24
    3540:	99 1f       	adc	r25, r25
    3542:	f1 cf       	rjmp	.-30     	; 0x3526 <__fp_splitA+0xc>
    3544:	86 95       	lsr	r24
    3546:	71 05       	cpc	r23, r1
    3548:	61 05       	cpc	r22, r1
    354a:	08 94       	sec
    354c:	08 95       	ret

0000354e <__fp_trunc>:
    354e:	e5 df       	rcall	.-54     	; 0x351a <__fp_splitA>
    3550:	a0 f0       	brcs	.+40     	; 0x357a <__fp_trunc+0x2c>
    3552:	be e7       	ldi	r27, 0x7E	; 126
    3554:	b9 17       	cp	r27, r25
    3556:	88 f4       	brcc	.+34     	; 0x357a <__fp_trunc+0x2c>
    3558:	bb 27       	eor	r27, r27
    355a:	9f 38       	cpi	r25, 0x8F	; 143
    355c:	60 f4       	brcc	.+24     	; 0x3576 <__fp_trunc+0x28>
    355e:	16 16       	cp	r1, r22
    3560:	b1 1d       	adc	r27, r1
    3562:	67 2f       	mov	r22, r23
    3564:	78 2f       	mov	r23, r24
    3566:	88 27       	eor	r24, r24
    3568:	98 5f       	subi	r25, 0xF8	; 248
    356a:	f7 cf       	rjmp	.-18     	; 0x355a <__fp_trunc+0xc>
    356c:	86 95       	lsr	r24
    356e:	77 95       	ror	r23
    3570:	67 95       	ror	r22
    3572:	b1 1d       	adc	r27, r1
    3574:	93 95       	inc	r25
    3576:	96 39       	cpi	r25, 0x96	; 150
    3578:	c8 f3       	brcs	.-14     	; 0x356c <__fp_trunc+0x1e>
    357a:	08 95       	ret

0000357c <__fp_zero>:
    357c:	e8 94       	clt

0000357e <__fp_szero>:
    357e:	bb 27       	eor	r27, r27
    3580:	66 27       	eor	r22, r22
    3582:	77 27       	eor	r23, r23
    3584:	cb 01       	movw	r24, r22
    3586:	97 f9       	bld	r25, 7
    3588:	08 95       	ret

0000358a <__gesf2>:
    358a:	ec de       	rcall	.-552    	; 0x3364 <__fp_cmp>
    358c:	08 f4       	brcc	.+2      	; 0x3590 <__gesf2+0x6>
    358e:	8f ef       	ldi	r24, 0xFF	; 255
    3590:	08 95       	ret

00003592 <inverse>:
    3592:	9b 01       	movw	r18, r22
    3594:	ac 01       	movw	r20, r24
    3596:	60 e0       	ldi	r22, 0x00	; 0
    3598:	70 e0       	ldi	r23, 0x00	; 0
    359a:	80 e8       	ldi	r24, 0x80	; 128
    359c:	9f e3       	ldi	r25, 0x3F	; 63
    359e:	de cd       	rjmp	.-1092   	; 0x315c <__divsf3>

000035a0 <__mulsf3>:
    35a0:	0b d0       	rcall	.+22     	; 0x35b8 <__mulsf3x>
    35a2:	91 cf       	rjmp	.-222    	; 0x34c6 <__fp_round>
    35a4:	5a df       	rcall	.-332    	; 0x345a <__fp_pscA>
    35a6:	28 f0       	brcs	.+10     	; 0x35b2 <__mulsf3+0x12>
    35a8:	5f df       	rcall	.-322    	; 0x3468 <__fp_pscB>
    35aa:	18 f0       	brcs	.+6      	; 0x35b2 <__mulsf3+0x12>
    35ac:	95 23       	and	r25, r21
    35ae:	09 f0       	breq	.+2      	; 0x35b2 <__mulsf3+0x12>
    35b0:	fd ce       	rjmp	.-518    	; 0x33ac <__fp_inf>
    35b2:	2b cf       	rjmp	.-426    	; 0x340a <__fp_nan>
    35b4:	11 24       	eor	r1, r1
    35b6:	e3 cf       	rjmp	.-58     	; 0x357e <__fp_szero>

000035b8 <__mulsf3x>:
    35b8:	a8 df       	rcall	.-176    	; 0x350a <__fp_split3>
    35ba:	a0 f3       	brcs	.-24     	; 0x35a4 <__mulsf3+0x4>

000035bc <__mulsf3_pse>:
    35bc:	95 9f       	mul	r25, r21
    35be:	d1 f3       	breq	.-12     	; 0x35b4 <__mulsf3+0x14>
    35c0:	95 0f       	add	r25, r21
    35c2:	50 e0       	ldi	r21, 0x00	; 0
    35c4:	55 1f       	adc	r21, r21
    35c6:	62 9f       	mul	r22, r18
    35c8:	f0 01       	movw	r30, r0
    35ca:	72 9f       	mul	r23, r18
    35cc:	bb 27       	eor	r27, r27
    35ce:	f0 0d       	add	r31, r0
    35d0:	b1 1d       	adc	r27, r1
    35d2:	63 9f       	mul	r22, r19
    35d4:	aa 27       	eor	r26, r26
    35d6:	f0 0d       	add	r31, r0
    35d8:	b1 1d       	adc	r27, r1
    35da:	aa 1f       	adc	r26, r26
    35dc:	64 9f       	mul	r22, r20
    35de:	66 27       	eor	r22, r22
    35e0:	b0 0d       	add	r27, r0
    35e2:	a1 1d       	adc	r26, r1
    35e4:	66 1f       	adc	r22, r22
    35e6:	82 9f       	mul	r24, r18
    35e8:	22 27       	eor	r18, r18
    35ea:	b0 0d       	add	r27, r0
    35ec:	a1 1d       	adc	r26, r1
    35ee:	62 1f       	adc	r22, r18
    35f0:	73 9f       	mul	r23, r19
    35f2:	b0 0d       	add	r27, r0
    35f4:	a1 1d       	adc	r26, r1
    35f6:	62 1f       	adc	r22, r18
    35f8:	83 9f       	mul	r24, r19
    35fa:	a0 0d       	add	r26, r0
    35fc:	61 1d       	adc	r22, r1
    35fe:	22 1f       	adc	r18, r18
    3600:	74 9f       	mul	r23, r20
    3602:	33 27       	eor	r19, r19
    3604:	a0 0d       	add	r26, r0
    3606:	61 1d       	adc	r22, r1
    3608:	23 1f       	adc	r18, r19
    360a:	84 9f       	mul	r24, r20
    360c:	60 0d       	add	r22, r0
    360e:	21 1d       	adc	r18, r1
    3610:	82 2f       	mov	r24, r18
    3612:	76 2f       	mov	r23, r22
    3614:	6a 2f       	mov	r22, r26
    3616:	11 24       	eor	r1, r1
    3618:	9f 57       	subi	r25, 0x7F	; 127
    361a:	50 40       	sbci	r21, 0x00	; 0
    361c:	8a f0       	brmi	.+34     	; 0x3640 <__mulsf3_pse+0x84>
    361e:	e1 f0       	breq	.+56     	; 0x3658 <__mulsf3_pse+0x9c>
    3620:	88 23       	and	r24, r24
    3622:	4a f0       	brmi	.+18     	; 0x3636 <__mulsf3_pse+0x7a>
    3624:	ee 0f       	add	r30, r30
    3626:	ff 1f       	adc	r31, r31
    3628:	bb 1f       	adc	r27, r27
    362a:	66 1f       	adc	r22, r22
    362c:	77 1f       	adc	r23, r23
    362e:	88 1f       	adc	r24, r24
    3630:	91 50       	subi	r25, 0x01	; 1
    3632:	50 40       	sbci	r21, 0x00	; 0
    3634:	a9 f7       	brne	.-22     	; 0x3620 <__mulsf3_pse+0x64>
    3636:	9e 3f       	cpi	r25, 0xFE	; 254
    3638:	51 05       	cpc	r21, r1
    363a:	70 f0       	brcs	.+28     	; 0x3658 <__mulsf3_pse+0x9c>
    363c:	b7 ce       	rjmp	.-658    	; 0x33ac <__fp_inf>
    363e:	9f cf       	rjmp	.-194    	; 0x357e <__fp_szero>
    3640:	5f 3f       	cpi	r21, 0xFF	; 255
    3642:	ec f3       	brlt	.-6      	; 0x363e <__mulsf3_pse+0x82>
    3644:	98 3e       	cpi	r25, 0xE8	; 232
    3646:	dc f3       	brlt	.-10     	; 0x363e <__mulsf3_pse+0x82>
    3648:	86 95       	lsr	r24
    364a:	77 95       	ror	r23
    364c:	67 95       	ror	r22
    364e:	b7 95       	ror	r27
    3650:	f7 95       	ror	r31
    3652:	e7 95       	ror	r30
    3654:	9f 5f       	subi	r25, 0xFF	; 255
    3656:	c1 f7       	brne	.-16     	; 0x3648 <__mulsf3_pse+0x8c>
    3658:	fe 2b       	or	r31, r30
    365a:	88 0f       	add	r24, r24
    365c:	91 1d       	adc	r25, r1
    365e:	96 95       	lsr	r25
    3660:	87 95       	ror	r24
    3662:	97 f9       	bld	r25, 7
    3664:	08 95       	ret

00003666 <round>:
    3666:	59 df       	rcall	.-334    	; 0x351a <__fp_splitA>
    3668:	e0 f0       	brcs	.+56     	; 0x36a2 <round+0x3c>
    366a:	9e 37       	cpi	r25, 0x7E	; 126
    366c:	d8 f0       	brcs	.+54     	; 0x36a4 <round+0x3e>
    366e:	96 39       	cpi	r25, 0x96	; 150
    3670:	b8 f4       	brcc	.+46     	; 0x36a0 <round+0x3a>
    3672:	9e 38       	cpi	r25, 0x8E	; 142
    3674:	48 f4       	brcc	.+18     	; 0x3688 <round+0x22>
    3676:	67 2f       	mov	r22, r23
    3678:	78 2f       	mov	r23, r24
    367a:	88 27       	eor	r24, r24
    367c:	98 5f       	subi	r25, 0xF8	; 248
    367e:	f9 cf       	rjmp	.-14     	; 0x3672 <round+0xc>
    3680:	86 95       	lsr	r24
    3682:	77 95       	ror	r23
    3684:	67 95       	ror	r22
    3686:	93 95       	inc	r25
    3688:	95 39       	cpi	r25, 0x95	; 149
    368a:	d0 f3       	brcs	.-12     	; 0x3680 <round+0x1a>
    368c:	b6 2f       	mov	r27, r22
    368e:	b1 70       	andi	r27, 0x01	; 1
    3690:	6b 0f       	add	r22, r27
    3692:	71 1d       	adc	r23, r1
    3694:	81 1d       	adc	r24, r1
    3696:	20 f4       	brcc	.+8      	; 0x36a0 <round+0x3a>
    3698:	87 95       	ror	r24
    369a:	77 95       	ror	r23
    369c:	67 95       	ror	r22
    369e:	93 95       	inc	r25
    36a0:	8b ce       	rjmp	.-746    	; 0x33b8 <__fp_mintl>
    36a2:	a5 ce       	rjmp	.-694    	; 0x33ee <__fp_mpack>
    36a4:	6c cf       	rjmp	.-296    	; 0x357e <__fp_szero>

000036a6 <sin>:
    36a6:	9f 93       	push	r25
    36a8:	e7 de       	rcall	.-562    	; 0x3478 <__fp_rempio2>
    36aa:	0f 90       	pop	r0
    36ac:	07 fc       	sbrc	r0, 7
    36ae:	ee 5f       	subi	r30, 0xFE	; 254
    36b0:	1b cf       	rjmp	.-458    	; 0x34e8 <__fp_sinus>
    36b2:	11 f4       	brne	.+4      	; 0x36b8 <sin+0x12>
    36b4:	0e f4       	brtc	.+2      	; 0x36b8 <sin+0x12>
    36b6:	a9 ce       	rjmp	.-686    	; 0x340a <__fp_nan>
    36b8:	9a ce       	rjmp	.-716    	; 0x33ee <__fp_mpack>

000036ba <sqrt>:
    36ba:	2f df       	rcall	.-418    	; 0x351a <__fp_splitA>
    36bc:	d0 f3       	brcs	.-12     	; 0x36b2 <sin+0xc>
    36be:	99 23       	and	r25, r25
    36c0:	d9 f3       	breq	.-10     	; 0x36b8 <sin+0x12>
    36c2:	ce f3       	brts	.-14     	; 0x36b6 <sin+0x10>
    36c4:	9f 57       	subi	r25, 0x7F	; 127
    36c6:	55 0b       	sbc	r21, r21
    36c8:	87 ff       	sbrs	r24, 7
    36ca:	38 d0       	rcall	.+112    	; 0x373c <__fp_norm2>
    36cc:	00 24       	eor	r0, r0
    36ce:	a0 e6       	ldi	r26, 0x60	; 96
    36d0:	40 ea       	ldi	r20, 0xA0	; 160
    36d2:	90 01       	movw	r18, r0
    36d4:	80 58       	subi	r24, 0x80	; 128
    36d6:	56 95       	lsr	r21
    36d8:	97 95       	ror	r25
    36da:	28 f4       	brcc	.+10     	; 0x36e6 <sqrt+0x2c>
    36dc:	80 5c       	subi	r24, 0xC0	; 192
    36de:	66 0f       	add	r22, r22
    36e0:	77 1f       	adc	r23, r23
    36e2:	88 1f       	adc	r24, r24
    36e4:	20 f0       	brcs	.+8      	; 0x36ee <sqrt+0x34>
    36e6:	26 17       	cp	r18, r22
    36e8:	37 07       	cpc	r19, r23
    36ea:	48 07       	cpc	r20, r24
    36ec:	30 f4       	brcc	.+12     	; 0x36fa <sqrt+0x40>
    36ee:	62 1b       	sub	r22, r18
    36f0:	73 0b       	sbc	r23, r19
    36f2:	84 0b       	sbc	r24, r20
    36f4:	20 29       	or	r18, r0
    36f6:	31 29       	or	r19, r1
    36f8:	4a 2b       	or	r20, r26
    36fa:	a6 95       	lsr	r26
    36fc:	17 94       	ror	r1
    36fe:	07 94       	ror	r0
    3700:	20 25       	eor	r18, r0
    3702:	31 25       	eor	r19, r1
    3704:	4a 27       	eor	r20, r26
    3706:	58 f7       	brcc	.-42     	; 0x36de <sqrt+0x24>
    3708:	66 0f       	add	r22, r22
    370a:	77 1f       	adc	r23, r23
    370c:	88 1f       	adc	r24, r24
    370e:	20 f0       	brcs	.+8      	; 0x3718 <sqrt+0x5e>
    3710:	26 17       	cp	r18, r22
    3712:	37 07       	cpc	r19, r23
    3714:	48 07       	cpc	r20, r24
    3716:	30 f4       	brcc	.+12     	; 0x3724 <sqrt+0x6a>
    3718:	62 0b       	sbc	r22, r18
    371a:	73 0b       	sbc	r23, r19
    371c:	84 0b       	sbc	r24, r20
    371e:	20 0d       	add	r18, r0
    3720:	31 1d       	adc	r19, r1
    3722:	41 1d       	adc	r20, r1
    3724:	a0 95       	com	r26
    3726:	81 f7       	brne	.-32     	; 0x3708 <sqrt+0x4e>
    3728:	b9 01       	movw	r22, r18
    372a:	84 2f       	mov	r24, r20
    372c:	91 58       	subi	r25, 0x81	; 129
    372e:	88 0f       	add	r24, r24
    3730:	96 95       	lsr	r25
    3732:	87 95       	ror	r24
    3734:	08 95       	ret

00003736 <square>:
    3736:	9b 01       	movw	r18, r22
    3738:	ac 01       	movw	r20, r24
    373a:	32 cf       	rjmp	.-412    	; 0x35a0 <__mulsf3>

0000373c <__fp_norm2>:
    373c:	91 50       	subi	r25, 0x01	; 1
    373e:	50 40       	sbci	r21, 0x00	; 0
    3740:	66 0f       	add	r22, r22
    3742:	77 1f       	adc	r23, r23
    3744:	88 1f       	adc	r24, r24
    3746:	d2 f7       	brpl	.-12     	; 0x373c <__fp_norm2>
    3748:	08 95       	ret

0000374a <__fp_powsodd>:
    374a:	9f 93       	push	r25
    374c:	8f 93       	push	r24
    374e:	7f 93       	push	r23
    3750:	6f 93       	push	r22
    3752:	ff 93       	push	r31
    3754:	ef 93       	push	r30
    3756:	9b 01       	movw	r18, r22
    3758:	ac 01       	movw	r20, r24
    375a:	22 df       	rcall	.-444    	; 0x35a0 <__mulsf3>
    375c:	ef 91       	pop	r30
    375e:	ff 91       	pop	r31
    3760:	57 de       	rcall	.-850    	; 0x3410 <__fp_powser>
    3762:	2f 91       	pop	r18
    3764:	3f 91       	pop	r19
    3766:	4f 91       	pop	r20
    3768:	5f 91       	pop	r21
    376a:	1a cf       	rjmp	.-460    	; 0x35a0 <__mulsf3>

0000376c <__udivmodhi4>:
    376c:	aa 1b       	sub	r26, r26
    376e:	bb 1b       	sub	r27, r27
    3770:	51 e1       	ldi	r21, 0x11	; 17
    3772:	07 c0       	rjmp	.+14     	; 0x3782 <__udivmodhi4_ep>

00003774 <__udivmodhi4_loop>:
    3774:	aa 1f       	adc	r26, r26
    3776:	bb 1f       	adc	r27, r27
    3778:	a6 17       	cp	r26, r22
    377a:	b7 07       	cpc	r27, r23
    377c:	10 f0       	brcs	.+4      	; 0x3782 <__udivmodhi4_ep>
    377e:	a6 1b       	sub	r26, r22
    3780:	b7 0b       	sbc	r27, r23

00003782 <__udivmodhi4_ep>:
    3782:	88 1f       	adc	r24, r24
    3784:	99 1f       	adc	r25, r25
    3786:	5a 95       	dec	r21
    3788:	a9 f7       	brne	.-22     	; 0x3774 <__udivmodhi4_loop>
    378a:	80 95       	com	r24
    378c:	90 95       	com	r25
    378e:	bc 01       	movw	r22, r24
    3790:	cd 01       	movw	r24, r26
    3792:	08 95       	ret

00003794 <__udivmodsi4>:
    3794:	a1 e2       	ldi	r26, 0x21	; 33
    3796:	1a 2e       	mov	r1, r26
    3798:	aa 1b       	sub	r26, r26
    379a:	bb 1b       	sub	r27, r27
    379c:	fd 01       	movw	r30, r26
    379e:	0d c0       	rjmp	.+26     	; 0x37ba <__udivmodsi4_ep>

000037a0 <__udivmodsi4_loop>:
    37a0:	aa 1f       	adc	r26, r26
    37a2:	bb 1f       	adc	r27, r27
    37a4:	ee 1f       	adc	r30, r30
    37a6:	ff 1f       	adc	r31, r31
    37a8:	a2 17       	cp	r26, r18
    37aa:	b3 07       	cpc	r27, r19
    37ac:	e4 07       	cpc	r30, r20
    37ae:	f5 07       	cpc	r31, r21
    37b0:	20 f0       	brcs	.+8      	; 0x37ba <__udivmodsi4_ep>
    37b2:	a2 1b       	sub	r26, r18
    37b4:	b3 0b       	sbc	r27, r19
    37b6:	e4 0b       	sbc	r30, r20
    37b8:	f5 0b       	sbc	r31, r21

000037ba <__udivmodsi4_ep>:
    37ba:	66 1f       	adc	r22, r22
    37bc:	77 1f       	adc	r23, r23
    37be:	88 1f       	adc	r24, r24
    37c0:	99 1f       	adc	r25, r25
    37c2:	1a 94       	dec	r1
    37c4:	69 f7       	brne	.-38     	; 0x37a0 <__udivmodsi4_loop>
    37c6:	60 95       	com	r22
    37c8:	70 95       	com	r23
    37ca:	80 95       	com	r24
    37cc:	90 95       	com	r25
    37ce:	9b 01       	movw	r18, r22
    37d0:	ac 01       	movw	r20, r24
    37d2:	bd 01       	movw	r22, r26
    37d4:	cf 01       	movw	r24, r30
    37d6:	08 95       	ret

000037d8 <__umulhisi3>:
    37d8:	a2 9f       	mul	r26, r18
    37da:	b0 01       	movw	r22, r0
    37dc:	b3 9f       	mul	r27, r19
    37de:	c0 01       	movw	r24, r0
    37e0:	a3 9f       	mul	r26, r19
    37e2:	70 0d       	add	r23, r0
    37e4:	81 1d       	adc	r24, r1
    37e6:	11 24       	eor	r1, r1
    37e8:	91 1d       	adc	r25, r1
    37ea:	b2 9f       	mul	r27, r18
    37ec:	70 0d       	add	r23, r0
    37ee:	81 1d       	adc	r24, r1
    37f0:	11 24       	eor	r1, r1
    37f2:	91 1d       	adc	r25, r1
    37f4:	08 95       	ret

000037f6 <__itoa_ncheck>:
    37f6:	bb 27       	eor	r27, r27
    37f8:	4a 30       	cpi	r20, 0x0A	; 10
    37fa:	31 f4       	brne	.+12     	; 0x3808 <__itoa_ncheck+0x12>
    37fc:	99 23       	and	r25, r25
    37fe:	22 f4       	brpl	.+8      	; 0x3808 <__itoa_ncheck+0x12>
    3800:	bd e2       	ldi	r27, 0x2D	; 45
    3802:	90 95       	com	r25
    3804:	81 95       	neg	r24
    3806:	9f 4f       	sbci	r25, 0xFF	; 255
    3808:	01 c0       	rjmp	.+2      	; 0x380c <__utoa_common>

0000380a <__utoa_ncheck>:
    380a:	bb 27       	eor	r27, r27

0000380c <__utoa_common>:
    380c:	fb 01       	movw	r30, r22
    380e:	55 27       	eor	r21, r21
    3810:	aa 27       	eor	r26, r26
    3812:	88 0f       	add	r24, r24
    3814:	99 1f       	adc	r25, r25
    3816:	aa 1f       	adc	r26, r26
    3818:	a4 17       	cp	r26, r20
    381a:	10 f0       	brcs	.+4      	; 0x3820 <__utoa_common+0x14>
    381c:	a4 1b       	sub	r26, r20
    381e:	83 95       	inc	r24
    3820:	50 51       	subi	r21, 0x10	; 16
    3822:	b9 f7       	brne	.-18     	; 0x3812 <__utoa_common+0x6>
    3824:	a0 5d       	subi	r26, 0xD0	; 208
    3826:	aa 33       	cpi	r26, 0x3A	; 58
    3828:	08 f0       	brcs	.+2      	; 0x382c <__utoa_common+0x20>
    382a:	a9 5d       	subi	r26, 0xD9	; 217
    382c:	a1 93       	st	Z+, r26
    382e:	00 97       	sbiw	r24, 0x00	; 0
    3830:	79 f7       	brne	.-34     	; 0x3810 <__utoa_common+0x4>
    3832:	b1 11       	cpse	r27, r1
    3834:	b1 93       	st	Z+, r27
    3836:	11 92       	st	Z+, r1
    3838:	cb 01       	movw	r24, r22
    383a:	00 c0       	rjmp	.+0      	; 0x383c <strrev>

0000383c <strrev>:
    383c:	dc 01       	movw	r26, r24
    383e:	fc 01       	movw	r30, r24
    3840:	67 2f       	mov	r22, r23
    3842:	71 91       	ld	r23, Z+
    3844:	77 23       	and	r23, r23
    3846:	e1 f7       	brne	.-8      	; 0x3840 <strrev+0x4>
    3848:	32 97       	sbiw	r30, 0x02	; 2
    384a:	04 c0       	rjmp	.+8      	; 0x3854 <strrev+0x18>
    384c:	7c 91       	ld	r23, X
    384e:	6d 93       	st	X+, r22
    3850:	70 83       	st	Z, r23
    3852:	62 91       	ld	r22, -Z
    3854:	ae 17       	cp	r26, r30
    3856:	bf 07       	cpc	r27, r31
    3858:	c8 f3       	brcs	.-14     	; 0x384c <strrev+0x10>
    385a:	08 95       	ret

0000385c <eeprom_read_byte>:
    385c:	f9 99       	sbic	0x1f, 1	; 31
    385e:	fe cf       	rjmp	.-4      	; 0x385c <eeprom_read_byte>
    3860:	92 bd       	out	0x22, r25	; 34
    3862:	81 bd       	out	0x21, r24	; 33
    3864:	f8 9a       	sbi	0x1f, 0	; 31
    3866:	99 27       	eor	r25, r25
    3868:	80 b5       	in	r24, 0x20	; 32
    386a:	08 95       	ret

0000386c <eeprom_write_byte>:
    386c:	26 2f       	mov	r18, r22

0000386e <eeprom_write_r18>:
    386e:	f9 99       	sbic	0x1f, 1	; 31
    3870:	fe cf       	rjmp	.-4      	; 0x386e <eeprom_write_r18>
    3872:	1f ba       	out	0x1f, r1	; 31
    3874:	92 bd       	out	0x22, r25	; 34
    3876:	81 bd       	out	0x21, r24	; 33
    3878:	20 bd       	out	0x20, r18	; 32
    387a:	0f b6       	in	r0, 0x3f	; 63
    387c:	f8 94       	cli
    387e:	fa 9a       	sbi	0x1f, 2	; 31
    3880:	f9 9a       	sbi	0x1f, 1	; 31
    3882:	0f be       	out	0x3f, r0	; 63
    3884:	01 96       	adiw	r24, 0x01	; 1
    3886:	08 95       	ret

00003888 <_exit>:
    3888:	f8 94       	cli

0000388a <__stop_program>:
    388a:	ff cf       	rjmp	.-2      	; 0x388a <__stop_program>
